
secMCU.elf:     file format elf32-littlearm

Sections:
Idx Name          Size      VMA       LMA       File off  Algn
  0 .isr_vector   00000194  08000000  08000000  00001000  2**0
                  CONTENTS, ALLOC, LOAD, READONLY, DATA
  1 .text         00001eac  08000194  08000194  00001194  2**2
                  CONTENTS, ALLOC, LOAD, READONLY, CODE
  2 .rodata       0000001c  08002040  08002040  00003040  2**2
                  CONTENTS, ALLOC, LOAD, READONLY, DATA
  3 .ARM.extab    00000000  0800205c  0800205c  0000400c  2**0
                  CONTENTS, READONLY
  4 .ARM          00000008  0800205c  0800205c  0000305c  2**2
                  CONTENTS, ALLOC, LOAD, READONLY, DATA
  5 .preinit_array 00000000  08002064  08002064  0000400c  2**0
                  CONTENTS, ALLOC, LOAD, DATA
  6 .init_array   00000004  08002064  08002064  00003064  2**2
                  CONTENTS, ALLOC, LOAD, READONLY, DATA
  7 .fini_array   00000004  08002068  08002068  00003068  2**2
                  CONTENTS, ALLOC, LOAD, READONLY, DATA
  8 .data         0000000c  20000000  0800206c  00004000  2**2
                  CONTENTS, ALLOC, LOAD, DATA
  9 .bss          00000068  2000000c  08002078  0000400c  2**2
                  ALLOC
 10 ._user_heap_stack 00000604  20000074  08002078  00004074  2**0
                  ALLOC
 11 .ARM.attributes 00000030  00000000  00000000  0000400c  2**0
                  CONTENTS, READONLY
 12 .debug_info   0000707e  00000000  00000000  0000403c  2**0
                  CONTENTS, READONLY, DEBUGGING, OCTETS
 13 .debug_abbrev 000012ae  00000000  00000000  0000b0ba  2**0
                  CONTENTS, READONLY, DEBUGGING, OCTETS
 14 .debug_aranges 00000628  00000000  00000000  0000c368  2**3
                  CONTENTS, READONLY, DEBUGGING, OCTETS
 15 .debug_rnglists 000004b3  00000000  00000000  0000c990  2**0
                  CONTENTS, READONLY, DEBUGGING, OCTETS
 16 .debug_macro  000146ee  00000000  00000000  0000ce43  2**0
                  CONTENTS, READONLY, DEBUGGING, OCTETS
 17 .debug_line   00007480  00000000  00000000  00021531  2**0
                  CONTENTS, READONLY, DEBUGGING, OCTETS
 18 .debug_str    0008118d  00000000  00000000  000289b1  2**0
                  CONTENTS, READONLY, DEBUGGING, OCTETS
 19 .comment      00000043  00000000  00000000  000a9b3e  2**0
                  CONTENTS, READONLY
 20 .debug_frame  00001840  00000000  00000000  000a9b84  2**2
                  CONTENTS, READONLY, DEBUGGING, OCTETS
 21 .debug_line_str 0000005c  00000000  00000000  000ab3c4  2**0
                  CONTENTS, READONLY, DEBUGGING, OCTETS

Disassembly of section .text:

08000194 <__do_global_dtors_aux>:
 8000194:	b510      	push	{r4, lr}
 8000196:	4c05      	ldr	r4, [pc, #20]	@ (80001ac <__do_global_dtors_aux+0x18>)
 8000198:	7823      	ldrb	r3, [r4, #0]
 800019a:	b933      	cbnz	r3, 80001aa <__do_global_dtors_aux+0x16>
 800019c:	4b04      	ldr	r3, [pc, #16]	@ (80001b0 <__do_global_dtors_aux+0x1c>)
 800019e:	b113      	cbz	r3, 80001a6 <__do_global_dtors_aux+0x12>
 80001a0:	4804      	ldr	r0, [pc, #16]	@ (80001b4 <__do_global_dtors_aux+0x20>)
 80001a2:	f3af 8000 	nop.w
 80001a6:	2301      	movs	r3, #1
 80001a8:	7023      	strb	r3, [r4, #0]
 80001aa:	bd10      	pop	{r4, pc}
 80001ac:	2000000c 	.word	0x2000000c
 80001b0:	00000000 	.word	0x00000000
 80001b4:	08002028 	.word	0x08002028

080001b8 <frame_dummy>:
 80001b8:	b508      	push	{r3, lr}
 80001ba:	4b03      	ldr	r3, [pc, #12]	@ (80001c8 <frame_dummy+0x10>)
 80001bc:	b11b      	cbz	r3, 80001c6 <frame_dummy+0xe>
 80001be:	4903      	ldr	r1, [pc, #12]	@ (80001cc <frame_dummy+0x14>)
 80001c0:	4803      	ldr	r0, [pc, #12]	@ (80001d0 <frame_dummy+0x18>)
 80001c2:	f3af 8000 	nop.w
 80001c6:	bd08      	pop	{r3, pc}
 80001c8:	00000000 	.word	0x00000000
 80001cc:	20000010 	.word	0x20000010
 80001d0:	08002028 	.word	0x08002028

080001d4 <__aeabi_uldivmod>:
 80001d4:	b953      	cbnz	r3, 80001ec <__aeabi_uldivmod+0x18>
 80001d6:	b94a      	cbnz	r2, 80001ec <__aeabi_uldivmod+0x18>
 80001d8:	2900      	cmp	r1, #0
 80001da:	bf08      	it	eq
 80001dc:	2800      	cmpeq	r0, #0
 80001de:	bf1c      	itt	ne
 80001e0:	f04f 31ff 	movne.w	r1, #4294967295
 80001e4:	f04f 30ff 	movne.w	r0, #4294967295
 80001e8:	f000 b988 	b.w	80004fc <__aeabi_idiv0>
 80001ec:	f1ad 0c08 	sub.w	ip, sp, #8
 80001f0:	e96d ce04 	strd	ip, lr, [sp, #-16]!
 80001f4:	f000 f806 	bl	8000204 <__udivmoddi4>
 80001f8:	f8dd e004 	ldr.w	lr, [sp, #4]
 80001fc:	e9dd 2302 	ldrd	r2, r3, [sp, #8]
 8000200:	b004      	add	sp, #16
 8000202:	4770      	bx	lr

08000204 <__udivmoddi4>:
 8000204:	e92d 47f0 	stmdb	sp!, {r4, r5, r6, r7, r8, r9, sl, lr}
 8000208:	9d08      	ldr	r5, [sp, #32]
 800020a:	468e      	mov	lr, r1
 800020c:	4604      	mov	r4, r0
 800020e:	4688      	mov	r8, r1
 8000210:	2b00      	cmp	r3, #0
 8000212:	d14a      	bne.n	80002aa <__udivmoddi4+0xa6>
 8000214:	428a      	cmp	r2, r1
 8000216:	4617      	mov	r7, r2
 8000218:	d962      	bls.n	80002e0 <__udivmoddi4+0xdc>
 800021a:	fab2 f682 	clz	r6, r2
 800021e:	b14e      	cbz	r6, 8000234 <__udivmoddi4+0x30>
 8000220:	f1c6 0320 	rsb	r3, r6, #32
 8000224:	fa01 f806 	lsl.w	r8, r1, r6
 8000228:	fa20 f303 	lsr.w	r3, r0, r3
 800022c:	40b7      	lsls	r7, r6
 800022e:	ea43 0808 	orr.w	r8, r3, r8
 8000232:	40b4      	lsls	r4, r6
 8000234:	ea4f 4e17 	mov.w	lr, r7, lsr #16
 8000238:	fa1f fc87 	uxth.w	ip, r7
 800023c:	fbb8 f1fe 	udiv	r1, r8, lr
 8000240:	0c23      	lsrs	r3, r4, #16
 8000242:	fb0e 8811 	mls	r8, lr, r1, r8
 8000246:	ea43 4308 	orr.w	r3, r3, r8, lsl #16
 800024a:	fb01 f20c 	mul.w	r2, r1, ip
 800024e:	429a      	cmp	r2, r3
 8000250:	d909      	bls.n	8000266 <__udivmoddi4+0x62>
 8000252:	18fb      	adds	r3, r7, r3
 8000254:	f101 30ff 	add.w	r0, r1, #4294967295
 8000258:	f080 80ea 	bcs.w	8000430 <__udivmoddi4+0x22c>
 800025c:	429a      	cmp	r2, r3
 800025e:	f240 80e7 	bls.w	8000430 <__udivmoddi4+0x22c>
 8000262:	3902      	subs	r1, #2
 8000264:	443b      	add	r3, r7
 8000266:	1a9a      	subs	r2, r3, r2
 8000268:	b2a3      	uxth	r3, r4
 800026a:	fbb2 f0fe 	udiv	r0, r2, lr
 800026e:	fb0e 2210 	mls	r2, lr, r0, r2
 8000272:	ea43 4302 	orr.w	r3, r3, r2, lsl #16
 8000276:	fb00 fc0c 	mul.w	ip, r0, ip
 800027a:	459c      	cmp	ip, r3
 800027c:	d909      	bls.n	8000292 <__udivmoddi4+0x8e>
 800027e:	18fb      	adds	r3, r7, r3
 8000280:	f100 32ff 	add.w	r2, r0, #4294967295
 8000284:	f080 80d6 	bcs.w	8000434 <__udivmoddi4+0x230>
 8000288:	459c      	cmp	ip, r3
 800028a:	f240 80d3 	bls.w	8000434 <__udivmoddi4+0x230>
 800028e:	443b      	add	r3, r7
 8000290:	3802      	subs	r0, #2
 8000292:	ea40 4001 	orr.w	r0, r0, r1, lsl #16
 8000296:	eba3 030c 	sub.w	r3, r3, ip
 800029a:	2100      	movs	r1, #0
 800029c:	b11d      	cbz	r5, 80002a6 <__udivmoddi4+0xa2>
 800029e:	40f3      	lsrs	r3, r6
 80002a0:	2200      	movs	r2, #0
 80002a2:	e9c5 3200 	strd	r3, r2, [r5]
 80002a6:	e8bd 87f0 	ldmia.w	sp!, {r4, r5, r6, r7, r8, r9, sl, pc}
 80002aa:	428b      	cmp	r3, r1
 80002ac:	d905      	bls.n	80002ba <__udivmoddi4+0xb6>
 80002ae:	b10d      	cbz	r5, 80002b4 <__udivmoddi4+0xb0>
 80002b0:	e9c5 0100 	strd	r0, r1, [r5]
 80002b4:	2100      	movs	r1, #0
 80002b6:	4608      	mov	r0, r1
 80002b8:	e7f5      	b.n	80002a6 <__udivmoddi4+0xa2>
 80002ba:	fab3 f183 	clz	r1, r3
 80002be:	2900      	cmp	r1, #0
 80002c0:	d146      	bne.n	8000350 <__udivmoddi4+0x14c>
 80002c2:	4573      	cmp	r3, lr
 80002c4:	d302      	bcc.n	80002cc <__udivmoddi4+0xc8>
 80002c6:	4282      	cmp	r2, r0
 80002c8:	f200 8105 	bhi.w	80004d6 <__udivmoddi4+0x2d2>
 80002cc:	1a84      	subs	r4, r0, r2
 80002ce:	eb6e 0203 	sbc.w	r2, lr, r3
 80002d2:	2001      	movs	r0, #1
 80002d4:	4690      	mov	r8, r2
 80002d6:	2d00      	cmp	r5, #0
 80002d8:	d0e5      	beq.n	80002a6 <__udivmoddi4+0xa2>
 80002da:	e9c5 4800 	strd	r4, r8, [r5]
 80002de:	e7e2      	b.n	80002a6 <__udivmoddi4+0xa2>
 80002e0:	2a00      	cmp	r2, #0
 80002e2:	f000 8090 	beq.w	8000406 <__udivmoddi4+0x202>
 80002e6:	fab2 f682 	clz	r6, r2
 80002ea:	2e00      	cmp	r6, #0
 80002ec:	f040 80a4 	bne.w	8000438 <__udivmoddi4+0x234>
 80002f0:	1a8a      	subs	r2, r1, r2
 80002f2:	0c03      	lsrs	r3, r0, #16
 80002f4:	ea4f 4e17 	mov.w	lr, r7, lsr #16
 80002f8:	b280      	uxth	r0, r0
 80002fa:	b2bc      	uxth	r4, r7
 80002fc:	2101      	movs	r1, #1
 80002fe:	fbb2 fcfe 	udiv	ip, r2, lr
 8000302:	fb0e 221c 	mls	r2, lr, ip, r2
 8000306:	ea43 4302 	orr.w	r3, r3, r2, lsl #16
 800030a:	fb04 f20c 	mul.w	r2, r4, ip
 800030e:	429a      	cmp	r2, r3
 8000310:	d907      	bls.n	8000322 <__udivmoddi4+0x11e>
 8000312:	18fb      	adds	r3, r7, r3
 8000314:	f10c 38ff 	add.w	r8, ip, #4294967295
 8000318:	d202      	bcs.n	8000320 <__udivmoddi4+0x11c>
 800031a:	429a      	cmp	r2, r3
 800031c:	f200 80e0 	bhi.w	80004e0 <__udivmoddi4+0x2dc>
 8000320:	46c4      	mov	ip, r8
 8000322:	1a9b      	subs	r3, r3, r2
 8000324:	fbb3 f2fe 	udiv	r2, r3, lr
 8000328:	fb0e 3312 	mls	r3, lr, r2, r3
 800032c:	ea40 4303 	orr.w	r3, r0, r3, lsl #16
 8000330:	fb02 f404 	mul.w	r4, r2, r4
 8000334:	429c      	cmp	r4, r3
 8000336:	d907      	bls.n	8000348 <__udivmoddi4+0x144>
 8000338:	18fb      	adds	r3, r7, r3
 800033a:	f102 30ff 	add.w	r0, r2, #4294967295
 800033e:	d202      	bcs.n	8000346 <__udivmoddi4+0x142>
 8000340:	429c      	cmp	r4, r3
 8000342:	f200 80ca 	bhi.w	80004da <__udivmoddi4+0x2d6>
 8000346:	4602      	mov	r2, r0
 8000348:	1b1b      	subs	r3, r3, r4
 800034a:	ea42 400c 	orr.w	r0, r2, ip, lsl #16
 800034e:	e7a5      	b.n	800029c <__udivmoddi4+0x98>
 8000350:	f1c1 0620 	rsb	r6, r1, #32
 8000354:	408b      	lsls	r3, r1
 8000356:	fa22 f706 	lsr.w	r7, r2, r6
 800035a:	431f      	orrs	r7, r3
 800035c:	fa0e f401 	lsl.w	r4, lr, r1
 8000360:	fa20 f306 	lsr.w	r3, r0, r6
 8000364:	fa2e fe06 	lsr.w	lr, lr, r6
 8000368:	ea4f 4917 	mov.w	r9, r7, lsr #16
 800036c:	4323      	orrs	r3, r4
 800036e:	fa00 f801 	lsl.w	r8, r0, r1
 8000372:	fa1f fc87 	uxth.w	ip, r7
 8000376:	fbbe f0f9 	udiv	r0, lr, r9
 800037a:	0c1c      	lsrs	r4, r3, #16
 800037c:	fb09 ee10 	mls	lr, r9, r0, lr
 8000380:	ea44 440e 	orr.w	r4, r4, lr, lsl #16
 8000384:	fb00 fe0c 	mul.w	lr, r0, ip
 8000388:	45a6      	cmp	lr, r4
 800038a:	fa02 f201 	lsl.w	r2, r2, r1
 800038e:	d909      	bls.n	80003a4 <__udivmoddi4+0x1a0>
 8000390:	193c      	adds	r4, r7, r4
 8000392:	f100 3aff 	add.w	sl, r0, #4294967295
 8000396:	f080 809c 	bcs.w	80004d2 <__udivmoddi4+0x2ce>
 800039a:	45a6      	cmp	lr, r4
 800039c:	f240 8099 	bls.w	80004d2 <__udivmoddi4+0x2ce>
 80003a0:	3802      	subs	r0, #2
 80003a2:	443c      	add	r4, r7
 80003a4:	eba4 040e 	sub.w	r4, r4, lr
 80003a8:	fa1f fe83 	uxth.w	lr, r3
 80003ac:	fbb4 f3f9 	udiv	r3, r4, r9
 80003b0:	fb09 4413 	mls	r4, r9, r3, r4
 80003b4:	ea4e 4404 	orr.w	r4, lr, r4, lsl #16
 80003b8:	fb03 fc0c 	mul.w	ip, r3, ip
 80003bc:	45a4      	cmp	ip, r4
 80003be:	d908      	bls.n	80003d2 <__udivmoddi4+0x1ce>
 80003c0:	193c      	adds	r4, r7, r4
 80003c2:	f103 3eff 	add.w	lr, r3, #4294967295
 80003c6:	f080 8082 	bcs.w	80004ce <__udivmoddi4+0x2ca>
 80003ca:	45a4      	cmp	ip, r4
 80003cc:	d97f      	bls.n	80004ce <__udivmoddi4+0x2ca>
 80003ce:	3b02      	subs	r3, #2
 80003d0:	443c      	add	r4, r7
 80003d2:	ea43 4000 	orr.w	r0, r3, r0, lsl #16
 80003d6:	eba4 040c 	sub.w	r4, r4, ip
 80003da:	fba0 ec02 	umull	lr, ip, r0, r2
 80003de:	4564      	cmp	r4, ip
 80003e0:	4673      	mov	r3, lr
 80003e2:	46e1      	mov	r9, ip
 80003e4:	d362      	bcc.n	80004ac <__udivmoddi4+0x2a8>
 80003e6:	d05f      	beq.n	80004a8 <__udivmoddi4+0x2a4>
 80003e8:	b15d      	cbz	r5, 8000402 <__udivmoddi4+0x1fe>
 80003ea:	ebb8 0203 	subs.w	r2, r8, r3
 80003ee:	eb64 0409 	sbc.w	r4, r4, r9
 80003f2:	fa04 f606 	lsl.w	r6, r4, r6
 80003f6:	fa22 f301 	lsr.w	r3, r2, r1
 80003fa:	431e      	orrs	r6, r3
 80003fc:	40cc      	lsrs	r4, r1
 80003fe:	e9c5 6400 	strd	r6, r4, [r5]
 8000402:	2100      	movs	r1, #0
 8000404:	e74f      	b.n	80002a6 <__udivmoddi4+0xa2>
 8000406:	fbb1 fcf2 	udiv	ip, r1, r2
 800040a:	0c01      	lsrs	r1, r0, #16
 800040c:	ea41 410e 	orr.w	r1, r1, lr, lsl #16
 8000410:	b280      	uxth	r0, r0
 8000412:	ea40 4201 	orr.w	r2, r0, r1, lsl #16
 8000416:	463b      	mov	r3, r7
 8000418:	4638      	mov	r0, r7
 800041a:	463c      	mov	r4, r7
 800041c:	46b8      	mov	r8, r7
 800041e:	46be      	mov	lr, r7
 8000420:	2620      	movs	r6, #32
 8000422:	fbb1 f1f7 	udiv	r1, r1, r7
 8000426:	eba2 0208 	sub.w	r2, r2, r8
 800042a:	ea41 410c 	orr.w	r1, r1, ip, lsl #16
 800042e:	e766      	b.n	80002fe <__udivmoddi4+0xfa>
 8000430:	4601      	mov	r1, r0
 8000432:	e718      	b.n	8000266 <__udivmoddi4+0x62>
 8000434:	4610      	mov	r0, r2
 8000436:	e72c      	b.n	8000292 <__udivmoddi4+0x8e>
 8000438:	f1c6 0220 	rsb	r2, r6, #32
 800043c:	fa2e f302 	lsr.w	r3, lr, r2
 8000440:	40b7      	lsls	r7, r6
 8000442:	40b1      	lsls	r1, r6
 8000444:	fa20 f202 	lsr.w	r2, r0, r2
 8000448:	ea4f 4e17 	mov.w	lr, r7, lsr #16
 800044c:	430a      	orrs	r2, r1
 800044e:	fbb3 f8fe 	udiv	r8, r3, lr
 8000452:	b2bc      	uxth	r4, r7
 8000454:	fb0e 3318 	mls	r3, lr, r8, r3
 8000458:	0c11      	lsrs	r1, r2, #16
 800045a:	ea41 4103 	orr.w	r1, r1, r3, lsl #16
 800045e:	fb08 f904 	mul.w	r9, r8, r4
 8000462:	40b0      	lsls	r0, r6
 8000464:	4589      	cmp	r9, r1
 8000466:	ea4f 4310 	mov.w	r3, r0, lsr #16
 800046a:	b280      	uxth	r0, r0
 800046c:	d93e      	bls.n	80004ec <__udivmoddi4+0x2e8>
 800046e:	1879      	adds	r1, r7, r1
 8000470:	f108 3cff 	add.w	ip, r8, #4294967295
 8000474:	d201      	bcs.n	800047a <__udivmoddi4+0x276>
 8000476:	4589      	cmp	r9, r1
 8000478:	d81f      	bhi.n	80004ba <__udivmoddi4+0x2b6>
 800047a:	eba1 0109 	sub.w	r1, r1, r9
 800047e:	fbb1 f9fe 	udiv	r9, r1, lr
 8000482:	fb09 f804 	mul.w	r8, r9, r4
 8000486:	fb0e 1119 	mls	r1, lr, r9, r1
 800048a:	b292      	uxth	r2, r2
 800048c:	ea42 4201 	orr.w	r2, r2, r1, lsl #16
 8000490:	4542      	cmp	r2, r8
 8000492:	d229      	bcs.n	80004e8 <__udivmoddi4+0x2e4>
 8000494:	18ba      	adds	r2, r7, r2
 8000496:	f109 31ff 	add.w	r1, r9, #4294967295
 800049a:	d2c4      	bcs.n	8000426 <__udivmoddi4+0x222>
 800049c:	4542      	cmp	r2, r8
 800049e:	d2c2      	bcs.n	8000426 <__udivmoddi4+0x222>
 80004a0:	f1a9 0102 	sub.w	r1, r9, #2
 80004a4:	443a      	add	r2, r7
 80004a6:	e7be      	b.n	8000426 <__udivmoddi4+0x222>
 80004a8:	45f0      	cmp	r8, lr
 80004aa:	d29d      	bcs.n	80003e8 <__udivmoddi4+0x1e4>
 80004ac:	ebbe 0302 	subs.w	r3, lr, r2
 80004b0:	eb6c 0c07 	sbc.w	ip, ip, r7
 80004b4:	3801      	subs	r0, #1
 80004b6:	46e1      	mov	r9, ip
 80004b8:	e796      	b.n	80003e8 <__udivmoddi4+0x1e4>
 80004ba:	eba7 0909 	sub.w	r9, r7, r9
 80004be:	4449      	add	r1, r9
 80004c0:	f1a8 0c02 	sub.w	ip, r8, #2
 80004c4:	fbb1 f9fe 	udiv	r9, r1, lr
 80004c8:	fb09 f804 	mul.w	r8, r9, r4
 80004cc:	e7db      	b.n	8000486 <__udivmoddi4+0x282>
 80004ce:	4673      	mov	r3, lr
 80004d0:	e77f      	b.n	80003d2 <__udivmoddi4+0x1ce>
 80004d2:	4650      	mov	r0, sl
 80004d4:	e766      	b.n	80003a4 <__udivmoddi4+0x1a0>
 80004d6:	4608      	mov	r0, r1
 80004d8:	e6fd      	b.n	80002d6 <__udivmoddi4+0xd2>
 80004da:	443b      	add	r3, r7
 80004dc:	3a02      	subs	r2, #2
 80004de:	e733      	b.n	8000348 <__udivmoddi4+0x144>
 80004e0:	f1ac 0c02 	sub.w	ip, ip, #2
 80004e4:	443b      	add	r3, r7
 80004e6:	e71c      	b.n	8000322 <__udivmoddi4+0x11e>
 80004e8:	4649      	mov	r1, r9
 80004ea:	e79c      	b.n	8000426 <__udivmoddi4+0x222>
 80004ec:	eba1 0109 	sub.w	r1, r1, r9
 80004f0:	46c4      	mov	ip, r8
 80004f2:	fbb1 f9fe 	udiv	r9, r1, lr
 80004f6:	fb09 f804 	mul.w	r8, r9, r4
 80004fa:	e7c4      	b.n	8000486 <__udivmoddi4+0x282>

080004fc <__aeabi_idiv0>:
 80004fc:	4770      	bx	lr
 80004fe:	bf00      	nop

08000500 <main>:
/**
  * @brief  The application entry point.
  * @retval int
  */
int main(void)
{
 8000500:	b580      	push	{r7, lr}
 8000502:	af00      	add	r7, sp, #0
  /* USER CODE END 1 */

  /* MCU Configuration--------------------------------------------------------*/

  /* Reset of all peripherals, Initializes the Flash interface and the Systick. */
  HAL_Init();
 8000504:	f000 f9cc 	bl	80008a0 <HAL_Init>
  /* USER CODE BEGIN Init */

  /* USER CODE END Init */

  /* Configure the system clock */
  SystemClock_Config();
 8000508:	f000 f81a 	bl	8000540 <SystemClock_Config>
  /* USER CODE BEGIN SysInit */

  /* USER CODE END SysInit */

  /* Initialize all configured peripherals */
  MX_GPIO_Init();
 800050c:	f000 f8a2 	bl	8000654 <MX_GPIO_Init>
  MX_USART2_UART_Init();
 8000510:	f000 f876 	bl	8000600 <MX_USART2_UART_Init>

  /* Infinite loop */
  /* USER CODE BEGIN WHILE */
  while (1)
  {
    HAL_UART_Transmit(&huart2, (uint8_t*)"T", 1, 100);
 8000514:	2364      	movs	r3, #100	@ 0x64
 8000516:	2201      	movs	r2, #1
 8000518:	4906      	ldr	r1, [pc, #24]	@ (8000534 <main+0x34>)
 800051a:	4807      	ldr	r0, [pc, #28]	@ (8000538 <main+0x38>)
 800051c:	f001 f99c 	bl	8001858 <HAL_UART_Transmit>
    HAL_GPIO_TogglePin(GPIOC, GPIO_PIN_13);
 8000520:	f44f 5100 	mov.w	r1, #8192	@ 0x2000
 8000524:	4805      	ldr	r0, [pc, #20]	@ (800053c <main+0x3c>)
 8000526:	f000 fcd4 	bl	8000ed2 <HAL_GPIO_TogglePin>
    HAL_Delay(200);
 800052a:	20c8      	movs	r0, #200	@ 0xc8
 800052c:	f000 fa2a 	bl	8000984 <HAL_Delay>
    HAL_UART_Transmit(&huart2, (uint8_t*)"T", 1, 100);
 8000530:	bf00      	nop
 8000532:	e7ef      	b.n	8000514 <main+0x14>
 8000534:	08002040 	.word	0x08002040
 8000538:	20000028 	.word	0x20000028
 800053c:	40020800 	.word	0x40020800

08000540 <SystemClock_Config>:
/**
  * @brief System Clock Configuration
  * @retval None
  */
void SystemClock_Config(void)
{
 8000540:	b580      	push	{r7, lr}
 8000542:	b094      	sub	sp, #80	@ 0x50
 8000544:	af00      	add	r7, sp, #0
  RCC_OscInitTypeDef RCC_OscInitStruct = {0};
 8000546:	f107 0320 	add.w	r3, r7, #32
 800054a:	2230      	movs	r2, #48	@ 0x30
 800054c:	2100      	movs	r1, #0
 800054e:	4618      	mov	r0, r3
 8000550:	f001 fd3e 	bl	8001fd0 <memset>
  RCC_ClkInitTypeDef RCC_ClkInitStruct = {0};
 8000554:	f107 030c 	add.w	r3, r7, #12
 8000558:	2200      	movs	r2, #0
 800055a:	601a      	str	r2, [r3, #0]
 800055c:	605a      	str	r2, [r3, #4]
 800055e:	609a      	str	r2, [r3, #8]
 8000560:	60da      	str	r2, [r3, #12]
 8000562:	611a      	str	r2, [r3, #16]

  /** Configure the main internal regulator output voltage
  */
  __HAL_RCC_PWR_CLK_ENABLE();
 8000564:	2300      	movs	r3, #0
 8000566:	60bb      	str	r3, [r7, #8]
 8000568:	4b23      	ldr	r3, [pc, #140]	@ (80005f8 <SystemClock_Config+0xb8>)
 800056a:	6c1b      	ldr	r3, [r3, #64]	@ 0x40
 800056c:	4a22      	ldr	r2, [pc, #136]	@ (80005f8 <SystemClock_Config+0xb8>)
 800056e:	f043 5380 	orr.w	r3, r3, #268435456	@ 0x10000000
 8000572:	6413      	str	r3, [r2, #64]	@ 0x40
 8000574:	4b20      	ldr	r3, [pc, #128]	@ (80005f8 <SystemClock_Config+0xb8>)
 8000576:	6c1b      	ldr	r3, [r3, #64]	@ 0x40
 8000578:	f003 5380 	and.w	r3, r3, #268435456	@ 0x10000000
 800057c:	60bb      	str	r3, [r7, #8]
 800057e:	68bb      	ldr	r3, [r7, #8]
  __HAL_PWR_VOLTAGESCALING_CONFIG(PWR_REGULATOR_VOLTAGE_SCALE2);
 8000580:	2300      	movs	r3, #0
 8000582:	607b      	str	r3, [r7, #4]
 8000584:	4b1d      	ldr	r3, [pc, #116]	@ (80005fc <SystemClock_Config+0xbc>)
 8000586:	681b      	ldr	r3, [r3, #0]
 8000588:	f423 4340 	bic.w	r3, r3, #49152	@ 0xc000
 800058c:	4a1b      	ldr	r2, [pc, #108]	@ (80005fc <SystemClock_Config+0xbc>)
 800058e:	f443 4300 	orr.w	r3, r3, #32768	@ 0x8000
 8000592:	6013      	str	r3, [r2, #0]
 8000594:	4b19      	ldr	r3, [pc, #100]	@ (80005fc <SystemClock_Config+0xbc>)
 8000596:	681b      	ldr	r3, [r3, #0]
 8000598:	f403 4340 	and.w	r3, r3, #49152	@ 0xc000
 800059c:	607b      	str	r3, [r7, #4]
 800059e:	687b      	ldr	r3, [r7, #4]

  /** Initializes the RCC Oscillators according to the specified parameters
  * in the RCC_OscInitTypeDef structure.
  */
  RCC_OscInitStruct.OscillatorType = RCC_OSCILLATORTYPE_HSI;
 80005a0:	2302      	movs	r3, #2
 80005a2:	623b      	str	r3, [r7, #32]
  RCC_OscInitStruct.HSIState = RCC_HSI_ON;
 80005a4:	2301      	movs	r3, #1
 80005a6:	62fb      	str	r3, [r7, #44]	@ 0x2c
  RCC_OscInitStruct.HSICalibrationValue = RCC_HSICALIBRATION_DEFAULT;
 80005a8:	2310      	movs	r3, #16
 80005aa:	633b      	str	r3, [r7, #48]	@ 0x30
  RCC_OscInitStruct.PLL.PLLState = RCC_PLL_NONE;
 80005ac:	2300      	movs	r3, #0
 80005ae:	63bb      	str	r3, [r7, #56]	@ 0x38
  if (HAL_RCC_OscConfig(&RCC_OscInitStruct) != HAL_OK)
 80005b0:	f107 0320 	add.w	r3, r7, #32
 80005b4:	4618      	mov	r0, r3
 80005b6:	f000 fca7 	bl	8000f08 <HAL_RCC_OscConfig>
 80005ba:	4603      	mov	r3, r0
 80005bc:	2b00      	cmp	r3, #0
 80005be:	d001      	beq.n	80005c4 <SystemClock_Config+0x84>
  {
    Error_Handler();
 80005c0:	f000 f88c 	bl	80006dc <Error_Handler>
  }

  /** Initializes the CPU, AHB and APB buses clocks
  */
  RCC_ClkInitStruct.ClockType = RCC_CLOCKTYPE_HCLK|RCC_CLOCKTYPE_SYSCLK
 80005c4:	230f      	movs	r3, #15
 80005c6:	60fb      	str	r3, [r7, #12]
                              |RCC_CLOCKTYPE_PCLK1|RCC_CLOCKTYPE_PCLK2;
  RCC_ClkInitStruct.SYSCLKSource = RCC_SYSCLKSOURCE_HSI;
 80005c8:	2300      	movs	r3, #0
 80005ca:	613b      	str	r3, [r7, #16]
  RCC_ClkInitStruct.AHBCLKDivider = RCC_SYSCLK_DIV1;
 80005cc:	2300      	movs	r3, #0
 80005ce:	617b      	str	r3, [r7, #20]
  RCC_ClkInitStruct.APB1CLKDivider = RCC_HCLK_DIV1;
 80005d0:	2300      	movs	r3, #0
 80005d2:	61bb      	str	r3, [r7, #24]
  RCC_ClkInitStruct.APB2CLKDivider = RCC_HCLK_DIV1;
 80005d4:	2300      	movs	r3, #0
 80005d6:	61fb      	str	r3, [r7, #28]

  if (HAL_RCC_ClockConfig(&RCC_ClkInitStruct, FLASH_LATENCY_0) != HAL_OK)
 80005d8:	f107 030c 	add.w	r3, r7, #12
 80005dc:	2100      	movs	r1, #0
 80005de:	4618      	mov	r0, r3
 80005e0:	f000 ff0a 	bl	80013f8 <HAL_RCC_ClockConfig>
 80005e4:	4603      	mov	r3, r0
 80005e6:	2b00      	cmp	r3, #0
 80005e8:	d001      	beq.n	80005ee <SystemClock_Config+0xae>
  {
    Error_Handler();
 80005ea:	f000 f877 	bl	80006dc <Error_Handler>
  }
}
 80005ee:	bf00      	nop
 80005f0:	3750      	adds	r7, #80	@ 0x50
 80005f2:	46bd      	mov	sp, r7
 80005f4:	bd80      	pop	{r7, pc}
 80005f6:	bf00      	nop
 80005f8:	40023800 	.word	0x40023800
 80005fc:	40007000 	.word	0x40007000

08000600 <MX_USART2_UART_Init>:
  * @brief USART2 Initialization Function
  * @param None
  * @retval None
  */
static void MX_USART2_UART_Init(void)
{
 8000600:	b580      	push	{r7, lr}
 8000602:	af00      	add	r7, sp, #0
  /* USER CODE END USART2_Init 0 */

  /* USER CODE BEGIN USART2_Init 1 */

  /* USER CODE END USART2_Init 1 */
  huart2.Instance = USART2;
 8000604:	4b11      	ldr	r3, [pc, #68]	@ (800064c <MX_USART2_UART_Init+0x4c>)
 8000606:	4a12      	ldr	r2, [pc, #72]	@ (8000650 <MX_USART2_UART_Init+0x50>)
 8000608:	601a      	str	r2, [r3, #0]
  huart2.Init.BaudRate = 115200;
 800060a:	4b10      	ldr	r3, [pc, #64]	@ (800064c <MX_USART2_UART_Init+0x4c>)
 800060c:	f44f 32e1 	mov.w	r2, #115200	@ 0x1c200
 8000610:	605a      	str	r2, [r3, #4]
  huart2.Init.WordLength = UART_WORDLENGTH_8B;
 8000612:	4b0e      	ldr	r3, [pc, #56]	@ (800064c <MX_USART2_UART_Init+0x4c>)
 8000614:	2200      	movs	r2, #0
 8000616:	609a      	str	r2, [r3, #8]
  huart2.Init.StopBits = UART_STOPBITS_1;
 8000618:	4b0c      	ldr	r3, [pc, #48]	@ (800064c <MX_USART2_UART_Init+0x4c>)
 800061a:	2200      	movs	r2, #0
 800061c:	60da      	str	r2, [r3, #12]
  huart2.Init.Parity = UART_PARITY_NONE;
 800061e:	4b0b      	ldr	r3, [pc, #44]	@ (800064c <MX_USART2_UART_Init+0x4c>)
 8000620:	2200      	movs	r2, #0
 8000622:	611a      	str	r2, [r3, #16]
  huart2.Init.Mode = UART_MODE_TX_RX;
 8000624:	4b09      	ldr	r3, [pc, #36]	@ (800064c <MX_USART2_UART_Init+0x4c>)
 8000626:	220c      	movs	r2, #12
 8000628:	615a      	str	r2, [r3, #20]
  huart2.Init.HwFlowCtl = UART_HWCONTROL_NONE;
 800062a:	4b08      	ldr	r3, [pc, #32]	@ (800064c <MX_USART2_UART_Init+0x4c>)
 800062c:	2200      	movs	r2, #0
 800062e:	619a      	str	r2, [r3, #24]
  huart2.Init.OverSampling = UART_OVERSAMPLING_16;
 8000630:	4b06      	ldr	r3, [pc, #24]	@ (800064c <MX_USART2_UART_Init+0x4c>)
 8000632:	2200      	movs	r2, #0
 8000634:	61da      	str	r2, [r3, #28]
  if (HAL_UART_Init(&huart2) != HAL_OK)
 8000636:	4805      	ldr	r0, [pc, #20]	@ (800064c <MX_USART2_UART_Init+0x4c>)
 8000638:	f001 f8be 	bl	80017b8 <HAL_UART_Init>
 800063c:	4603      	mov	r3, r0
 800063e:	2b00      	cmp	r3, #0
 8000640:	d001      	beq.n	8000646 <MX_USART2_UART_Init+0x46>
  {
    Error_Handler();
 8000642:	f000 f84b 	bl	80006dc <Error_Handler>
  }
  /* USER CODE BEGIN USART2_Init 2 */

  /* USER CODE END USART2_Init 2 */

}
 8000646:	bf00      	nop
 8000648:	bd80      	pop	{r7, pc}
 800064a:	bf00      	nop
 800064c:	20000028 	.word	0x20000028
 8000650:	40004400 	.word	0x40004400

08000654 <MX_GPIO_Init>:
  * @brief GPIO Initialization Function
  * @param None
  * @retval None
  */
static void MX_GPIO_Init(void)
{
 8000654:	b580      	push	{r7, lr}
 8000656:	b088      	sub	sp, #32
 8000658:	af00      	add	r7, sp, #0
  GPIO_InitTypeDef GPIO_InitStruct = {0};
 800065a:	f107 030c 	add.w	r3, r7, #12
 800065e:	2200      	movs	r2, #0
 8000660:	601a      	str	r2, [r3, #0]
 8000662:	605a      	str	r2, [r3, #4]
 8000664:	609a      	str	r2, [r3, #8]
 8000666:	60da      	str	r2, [r3, #12]
 8000668:	611a      	str	r2, [r3, #16]
  /* USER CODE BEGIN MX_GPIO_Init_1 */

  /* USER CODE END MX_GPIO_Init_1 */

  /* GPIO Ports Clock Enable */
  __HAL_RCC_GPIOC_CLK_ENABLE();
 800066a:	2300      	movs	r3, #0
 800066c:	60bb      	str	r3, [r7, #8]
 800066e:	4b19      	ldr	r3, [pc, #100]	@ (80006d4 <MX_GPIO_Init+0x80>)
 8000670:	6b1b      	ldr	r3, [r3, #48]	@ 0x30
 8000672:	4a18      	ldr	r2, [pc, #96]	@ (80006d4 <MX_GPIO_Init+0x80>)
 8000674:	f043 0304 	orr.w	r3, r3, #4
 8000678:	6313      	str	r3, [r2, #48]	@ 0x30
 800067a:	4b16      	ldr	r3, [pc, #88]	@ (80006d4 <MX_GPIO_Init+0x80>)
 800067c:	6b1b      	ldr	r3, [r3, #48]	@ 0x30
 800067e:	f003 0304 	and.w	r3, r3, #4
 8000682:	60bb      	str	r3, [r7, #8]
 8000684:	68bb      	ldr	r3, [r7, #8]
  __HAL_RCC_GPIOA_CLK_ENABLE();
 8000686:	2300      	movs	r3, #0
 8000688:	607b      	str	r3, [r7, #4]
 800068a:	4b12      	ldr	r3, [pc, #72]	@ (80006d4 <MX_GPIO_Init+0x80>)
 800068c:	6b1b      	ldr	r3, [r3, #48]	@ 0x30
 800068e:	4a11      	ldr	r2, [pc, #68]	@ (80006d4 <MX_GPIO_Init+0x80>)
 8000690:	f043 0301 	orr.w	r3, r3, #1
 8000694:	6313      	str	r3, [r2, #48]	@ 0x30
 8000696:	4b0f      	ldr	r3, [pc, #60]	@ (80006d4 <MX_GPIO_Init+0x80>)
 8000698:	6b1b      	ldr	r3, [r3, #48]	@ 0x30
 800069a:	f003 0301 	and.w	r3, r3, #1
 800069e:	607b      	str	r3, [r7, #4]
 80006a0:	687b      	ldr	r3, [r7, #4]

  /*Configure GPIO pin Output Level */
  HAL_GPIO_WritePin(GPIOC, GPIO_PIN_13, GPIO_PIN_RESET);
 80006a2:	2200      	movs	r2, #0
 80006a4:	f44f 5100 	mov.w	r1, #8192	@ 0x2000
 80006a8:	480b      	ldr	r0, [pc, #44]	@ (80006d8 <MX_GPIO_Init+0x84>)
 80006aa:	f000 fbf9 	bl	8000ea0 <HAL_GPIO_WritePin>

  /*Configure GPIO pin : PC13 */
  GPIO_InitStruct.Pin = GPIO_PIN_13;
 80006ae:	f44f 5300 	mov.w	r3, #8192	@ 0x2000
 80006b2:	60fb      	str	r3, [r7, #12]
  GPIO_InitStruct.Mode = GPIO_MODE_OUTPUT_PP;
 80006b4:	2301      	movs	r3, #1
 80006b6:	613b      	str	r3, [r7, #16]
  GPIO_InitStruct.Pull = GPIO_NOPULL;
 80006b8:	2300      	movs	r3, #0
 80006ba:	617b      	str	r3, [r7, #20]
  GPIO_InitStruct.Speed = GPIO_SPEED_FREQ_LOW;
 80006bc:	2300      	movs	r3, #0
 80006be:	61bb      	str	r3, [r7, #24]
  HAL_GPIO_Init(GPIOC, &GPIO_InitStruct);
 80006c0:	f107 030c 	add.w	r3, r7, #12
 80006c4:	4619      	mov	r1, r3
 80006c6:	4804      	ldr	r0, [pc, #16]	@ (80006d8 <MX_GPIO_Init+0x84>)
 80006c8:	f000 fa66 	bl	8000b98 <HAL_GPIO_Init>

  /* USER CODE BEGIN MX_GPIO_Init_2 */

  /* USER CODE END MX_GPIO_Init_2 */
}
 80006cc:	bf00      	nop
 80006ce:	3720      	adds	r7, #32
 80006d0:	46bd      	mov	sp, r7
 80006d2:	bd80      	pop	{r7, pc}
 80006d4:	40023800 	.word	0x40023800
 80006d8:	40020800 	.word	0x40020800

080006dc <Error_Handler>:
/**
  * @brief  This function is executed in case of error occurrence.
  * @retval None
  */
void Error_Handler(void)
{
 80006dc:	b480      	push	{r7}
 80006de:	af00      	add	r7, sp, #0
  \details Disables IRQ interrupts by setting special-purpose register PRIMASK.
           Can only be executed in Privileged modes.
 */
__STATIC_FORCEINLINE void __disable_irq(void)
{
  __ASM volatile ("cpsid i" : : : "memory");
 80006e0:	b672      	cpsid	i
}
 80006e2:	bf00      	nop
  /* USER CODE BEGIN Error_Handler_Debug */
  /* User can add his own implementation to report the HAL error return state */
  __disable_irq();
  while (1)
 80006e4:	bf00      	nop
 80006e6:	e7fd      	b.n	80006e4 <Error_Handler+0x8>

080006e8 <HAL_MspInit>:
/* USER CODE END 0 */
/**
  * Initializes the Global MSP.
  */
void HAL_MspInit(void)
{
 80006e8:	b480      	push	{r7}
 80006ea:	b083      	sub	sp, #12
 80006ec:	af00      	add	r7, sp, #0

  /* USER CODE BEGIN MspInit 0 */

  /* USER CODE END MspInit 0 */

  __HAL_RCC_SYSCFG_CLK_ENABLE();
 80006ee:	2300      	movs	r3, #0
 80006f0:	607b      	str	r3, [r7, #4]
 80006f2:	4b10      	ldr	r3, [pc, #64]	@ (8000734 <HAL_MspInit+0x4c>)
 80006f4:	6c5b      	ldr	r3, [r3, #68]	@ 0x44
 80006f6:	4a0f      	ldr	r2, [pc, #60]	@ (8000734 <HAL_MspInit+0x4c>)
 80006f8:	f443 4380 	orr.w	r3, r3, #16384	@ 0x4000
 80006fc:	6453      	str	r3, [r2, #68]	@ 0x44
 80006fe:	4b0d      	ldr	r3, [pc, #52]	@ (8000734 <HAL_MspInit+0x4c>)
 8000700:	6c5b      	ldr	r3, [r3, #68]	@ 0x44
 8000702:	f403 4380 	and.w	r3, r3, #16384	@ 0x4000
 8000706:	607b      	str	r3, [r7, #4]
 8000708:	687b      	ldr	r3, [r7, #4]
  __HAL_RCC_PWR_CLK_ENABLE();
 800070a:	2300      	movs	r3, #0
 800070c:	603b      	str	r3, [r7, #0]
 800070e:	4b09      	ldr	r3, [pc, #36]	@ (8000734 <HAL_MspInit+0x4c>)
 8000710:	6c1b      	ldr	r3, [r3, #64]	@ 0x40
 8000712:	4a08      	ldr	r2, [pc, #32]	@ (8000734 <HAL_MspInit+0x4c>)
 8000714:	f043 5380 	orr.w	r3, r3, #268435456	@ 0x10000000
 8000718:	6413      	str	r3, [r2, #64]	@ 0x40
 800071a:	4b06      	ldr	r3, [pc, #24]	@ (8000734 <HAL_MspInit+0x4c>)
 800071c:	6c1b      	ldr	r3, [r3, #64]	@ 0x40
 800071e:	f003 5380 	and.w	r3, r3, #268435456	@ 0x10000000
 8000722:	603b      	str	r3, [r7, #0]
 8000724:	683b      	ldr	r3, [r7, #0]
  /* System interrupt init*/

  /* USER CODE BEGIN MspInit 1 */

  /* USER CODE END MspInit 1 */
}
 8000726:	bf00      	nop
 8000728:	370c      	adds	r7, #12
 800072a:	46bd      	mov	sp, r7
 800072c:	f85d 7b04 	ldr.w	r7, [sp], #4
 8000730:	4770      	bx	lr
 8000732:	bf00      	nop
 8000734:	40023800 	.word	0x40023800

08000738 <HAL_UART_MspInit>:
  * This function configures the hardware resources used in this example
  * @param huart: UART handle pointer
  * @retval None
  */
void HAL_UART_MspInit(UART_HandleTypeDef* huart)
{
 8000738:	b580      	push	{r7, lr}
 800073a:	b08a      	sub	sp, #40	@ 0x28
 800073c:	af00      	add	r7, sp, #0
 800073e:	6078      	str	r0, [r7, #4]
  GPIO_InitTypeDef GPIO_InitStruct = {0};
 8000740:	f107 0314 	add.w	r3, r7, #20
 8000744:	2200      	movs	r2, #0
 8000746:	601a      	str	r2, [r3, #0]
 8000748:	605a      	str	r2, [r3, #4]
 800074a:	609a      	str	r2, [r3, #8]
 800074c:	60da      	str	r2, [r3, #12]
 800074e:	611a      	str	r2, [r3, #16]
  if(huart->Instance==USART2)
 8000750:	687b      	ldr	r3, [r7, #4]
 8000752:	681b      	ldr	r3, [r3, #0]
 8000754:	4a19      	ldr	r2, [pc, #100]	@ (80007bc <HAL_UART_MspInit+0x84>)
 8000756:	4293      	cmp	r3, r2
 8000758:	d12b      	bne.n	80007b2 <HAL_UART_MspInit+0x7a>
  {
    /* USER CODE BEGIN USART2_MspInit 0 */

    /* USER CODE END USART2_MspInit 0 */
    /* Peripheral clock enable */
    __HAL_RCC_USART2_CLK_ENABLE();
 800075a:	2300      	movs	r3, #0
 800075c:	613b      	str	r3, [r7, #16]
 800075e:	4b18      	ldr	r3, [pc, #96]	@ (80007c0 <HAL_UART_MspInit+0x88>)
 8000760:	6c1b      	ldr	r3, [r3, #64]	@ 0x40
 8000762:	4a17      	ldr	r2, [pc, #92]	@ (80007c0 <HAL_UART_MspInit+0x88>)
 8000764:	f443 3300 	orr.w	r3, r3, #131072	@ 0x20000
 8000768:	6413      	str	r3, [r2, #64]	@ 0x40
 800076a:	4b15      	ldr	r3, [pc, #84]	@ (80007c0 <HAL_UART_MspInit+0x88>)
 800076c:	6c1b      	ldr	r3, [r3, #64]	@ 0x40
 800076e:	f403 3300 	and.w	r3, r3, #131072	@ 0x20000
 8000772:	613b      	str	r3, [r7, #16]
 8000774:	693b      	ldr	r3, [r7, #16]

    __HAL_RCC_GPIOA_CLK_ENABLE();
 8000776:	2300      	movs	r3, #0
 8000778:	60fb      	str	r3, [r7, #12]
 800077a:	4b11      	ldr	r3, [pc, #68]	@ (80007c0 <HAL_UART_MspInit+0x88>)
 800077c:	6b1b      	ldr	r3, [r3, #48]	@ 0x30
 800077e:	4a10      	ldr	r2, [pc, #64]	@ (80007c0 <HAL_UART_MspInit+0x88>)
 8000780:	f043 0301 	orr.w	r3, r3, #1
 8000784:	6313      	str	r3, [r2, #48]	@ 0x30
 8000786:	4b0e      	ldr	r3, [pc, #56]	@ (80007c0 <HAL_UART_MspInit+0x88>)
 8000788:	6b1b      	ldr	r3, [r3, #48]	@ 0x30
 800078a:	f003 0301 	and.w	r3, r3, #1
 800078e:	60fb      	str	r3, [r7, #12]
 8000790:	68fb      	ldr	r3, [r7, #12]
    /**USART2 GPIO Configuration
    PA2     ------> USART2_TX
    PA3     ------> USART2_RX
    */
    GPIO_InitStruct.Pin = GPIO_PIN_2|GPIO_PIN_3;
 8000792:	230c      	movs	r3, #12
 8000794:	617b      	str	r3, [r7, #20]
    GPIO_InitStruct.Mode = GPIO_MODE_AF_PP;
 8000796:	2302      	movs	r3, #2
 8000798:	61bb      	str	r3, [r7, #24]
    GPIO_InitStruct.Pull = GPIO_NOPULL;
 800079a:	2300      	movs	r3, #0
 800079c:	61fb      	str	r3, [r7, #28]
    GPIO_InitStruct.Speed = GPIO_SPEED_FREQ_VERY_HIGH;
 800079e:	2303      	movs	r3, #3
 80007a0:	623b      	str	r3, [r7, #32]
    GPIO_InitStruct.Alternate = GPIO_AF7_USART2;
 80007a2:	2307      	movs	r3, #7
 80007a4:	627b      	str	r3, [r7, #36]	@ 0x24
    HAL_GPIO_Init(GPIOA, &GPIO_InitStruct);
 80007a6:	f107 0314 	add.w	r3, r7, #20
 80007aa:	4619      	mov	r1, r3
 80007ac:	4805      	ldr	r0, [pc, #20]	@ (80007c4 <HAL_UART_MspInit+0x8c>)
 80007ae:	f000 f9f3 	bl	8000b98 <HAL_GPIO_Init>

    /* USER CODE END USART2_MspInit 1 */

  }

}
 80007b2:	bf00      	nop
 80007b4:	3728      	adds	r7, #40	@ 0x28
 80007b6:	46bd      	mov	sp, r7
 80007b8:	bd80      	pop	{r7, pc}
 80007ba:	bf00      	nop
 80007bc:	40004400 	.word	0x40004400
 80007c0:	40023800 	.word	0x40023800
 80007c4:	40020000 	.word	0x40020000

080007c8 <NMI_Handler>:
/******************************************************************************/
/**
  * @brief This function handles Non maskable interrupt.
  */
void NMI_Handler(void)
{
 80007c8:	b480      	push	{r7}
 80007ca:	af00      	add	r7, sp, #0
  /* USER CODE BEGIN NonMaskableInt_IRQn 0 */

  /* USER CODE END NonMaskableInt_IRQn 0 */
  /* USER CODE BEGIN NonMaskableInt_IRQn 1 */
   while (1)
 80007cc:	bf00      	nop
 80007ce:	e7fd      	b.n	80007cc <NMI_Handler+0x4>

080007d0 <HardFault_Handler>:

/**
  * @brief This function handles Hard fault interrupt.
  */
void HardFault_Handler(void)
{
 80007d0:	b480      	push	{r7}
 80007d2:	af00      	add	r7, sp, #0
  /* USER CODE BEGIN HardFault_IRQn 0 */

  /* USER CODE END HardFault_IRQn 0 */
  while (1)
 80007d4:	bf00      	nop
 80007d6:	e7fd      	b.n	80007d4 <HardFault_Handler+0x4>

080007d8 <MemManage_Handler>:

/**
  * @brief This function handles Memory management fault.
  */
void MemManage_Handler(void)
{
 80007d8:	b480      	push	{r7}
 80007da:	af00      	add	r7, sp, #0
  /* USER CODE BEGIN MemoryManagement_IRQn 0 */

  /* USER CODE END MemoryManagement_IRQn 0 */
  while (1)
 80007dc:	bf00      	nop
 80007de:	e7fd      	b.n	80007dc <MemManage_Handler+0x4>

080007e0 <BusFault_Handler>:

/**
  * @brief This function handles Pre-fetch fault, memory access fault.
  */
void BusFault_Handler(void)
{
 80007e0:	b480      	push	{r7}
 80007e2:	af00      	add	r7, sp, #0
  /* USER CODE BEGIN BusFault_IRQn 0 */

  /* USER CODE END BusFault_IRQn 0 */
  while (1)
 80007e4:	bf00      	nop
 80007e6:	e7fd      	b.n	80007e4 <BusFault_Handler+0x4>

080007e8 <UsageFault_Handler>:

/**
  * @brief This function handles Undefined instruction or illegal state.
  */
void UsageFault_Handler(void)
{
 80007e8:	b480      	push	{r7}
 80007ea:	af00      	add	r7, sp, #0
  /* USER CODE BEGIN UsageFault_IRQn 0 */

  /* USER CODE END UsageFault_IRQn 0 */
  while (1)
 80007ec:	bf00      	nop
 80007ee:	e7fd      	b.n	80007ec <UsageFault_Handler+0x4>

080007f0 <SVC_Handler>:

/**
  * @brief This function handles System service call via SWI instruction.
  */
void SVC_Handler(void)
{
 80007f0:	b480      	push	{r7}
 80007f2:	af00      	add	r7, sp, #0

  /* USER CODE END SVCall_IRQn 0 */
  /* USER CODE BEGIN SVCall_IRQn 1 */

  /* USER CODE END SVCall_IRQn 1 */
}
 80007f4:	bf00      	nop
 80007f6:	46bd      	mov	sp, r7
 80007f8:	f85d 7b04 	ldr.w	r7, [sp], #4
 80007fc:	4770      	bx	lr

080007fe <DebugMon_Handler>:

/**
  * @brief This function handles Debug monitor.
  */
void DebugMon_Handler(void)
{
 80007fe:	b480      	push	{r7}
 8000800:	af00      	add	r7, sp, #0

  /* USER CODE END DebugMonitor_IRQn 0 */
  /* USER CODE BEGIN DebugMonitor_IRQn 1 */

  /* USER CODE END DebugMonitor_IRQn 1 */
}
 8000802:	bf00      	nop
 8000804:	46bd      	mov	sp, r7
 8000806:	f85d 7b04 	ldr.w	r7, [sp], #4
 800080a:	4770      	bx	lr

0800080c <PendSV_Handler>:

/**
  * @brief This function handles Pendable request for system service.
  */
void PendSV_Handler(void)
{
 800080c:	b480      	push	{r7}
 800080e:	af00      	add	r7, sp, #0

  /* USER CODE END PendSV_IRQn 0 */
  /* USER CODE BEGIN PendSV_IRQn 1 */

  /* USER CODE END PendSV_IRQn 1 */
}
 8000810:	bf00      	nop
 8000812:	46bd      	mov	sp, r7
 8000814:	f85d 7b04 	ldr.w	r7, [sp], #4
 8000818:	4770      	bx	lr

0800081a <SysTick_Handler>:

/**
  * @brief This function handles System tick timer.
  */
void SysTick_Handler(void)
{
 800081a:	b580      	push	{r7, lr}
 800081c:	af00      	add	r7, sp, #0
  /* USER CODE BEGIN SysTick_IRQn 0 */

  /* USER CODE END SysTick_IRQn 0 */
  HAL_IncTick();
 800081e:	f000 f891 	bl	8000944 <HAL_IncTick>
  /* USER CODE BEGIN SysTick_IRQn 1 */

  /* USER CODE END SysTick_IRQn 1 */
}
 8000822:	bf00      	nop
 8000824:	bd80      	pop	{r7, pc}
	...

08000828 <SystemInit>:
  *         configuration.
  * @param  None
  * @retval None
  */
void SystemInit(void)
{
 8000828:	b480      	push	{r7}
 800082a:	af00      	add	r7, sp, #0
  /* FPU settings ------------------------------------------------------------*/
  #if (__FPU_PRESENT == 1) && (__FPU_USED == 1)
    SCB->CPACR |= ((3UL << 10*2)|(3UL << 11*2));  /* set CP10 and CP11 Full Access */
 800082c:	4b06      	ldr	r3, [pc, #24]	@ (8000848 <SystemInit+0x20>)
 800082e:	f8d3 3088 	ldr.w	r3, [r3, #136]	@ 0x88
 8000832:	4a05      	ldr	r2, [pc, #20]	@ (8000848 <SystemInit+0x20>)
 8000834:	f443 0370 	orr.w	r3, r3, #15728640	@ 0xf00000
 8000838:	f8c2 3088 	str.w	r3, [r2, #136]	@ 0x88

  /* Configure the Vector Table location -------------------------------------*/
#if defined(USER_VECT_TAB_ADDRESS)
  SCB->VTOR = VECT_TAB_BASE_ADDRESS | VECT_TAB_OFFSET; /* Vector Table Relocation in Internal SRAM */
#endif /* USER_VECT_TAB_ADDRESS */
}
 800083c:	bf00      	nop
 800083e:	46bd      	mov	sp, r7
 8000840:	f85d 7b04 	ldr.w	r7, [sp], #4
 8000844:	4770      	bx	lr
 8000846:	bf00      	nop
 8000848:	e000ed00 	.word	0xe000ed00

0800084c <Reset_Handler>:

    .section  .text.Reset_Handler
  .weak  Reset_Handler
  .type  Reset_Handler, %function
Reset_Handler:  
  ldr   sp, =_estack      /* set stack pointer */
 800084c:	f8df d034 	ldr.w	sp, [pc, #52]	@ 8000884 <LoopFillZerobss+0xe>
  
/* Call the clock system initialization function.*/
  bl  SystemInit  
 8000850:	f7ff ffea 	bl	8000828 <SystemInit>

/* Copy the data segment initializers from flash to SRAM */  
  ldr r0, =_sdata
 8000854:	480c      	ldr	r0, [pc, #48]	@ (8000888 <LoopFillZerobss+0x12>)
  ldr r1, =_edata
 8000856:	490d      	ldr	r1, [pc, #52]	@ (800088c <LoopFillZerobss+0x16>)
  ldr r2, =_sidata
 8000858:	4a0d      	ldr	r2, [pc, #52]	@ (8000890 <LoopFillZerobss+0x1a>)
  movs r3, #0
 800085a:	2300      	movs	r3, #0
  b LoopCopyDataInit
 800085c:	e002      	b.n	8000864 <LoopCopyDataInit>

0800085e <CopyDataInit>:

CopyDataInit:
  ldr r4, [r2, r3]
 800085e:	58d4      	ldr	r4, [r2, r3]
  str r4, [r0, r3]
 8000860:	50c4      	str	r4, [r0, r3]
  adds r3, r3, #4
 8000862:	3304      	adds	r3, #4

08000864 <LoopCopyDataInit>:

LoopCopyDataInit:
  adds r4, r0, r3
 8000864:	18c4      	adds	r4, r0, r3
  cmp r4, r1
 8000866:	428c      	cmp	r4, r1
  bcc CopyDataInit
 8000868:	d3f9      	bcc.n	800085e <CopyDataInit>
  
/* Zero fill the bss segment. */
  ldr r2, =_sbss
 800086a:	4a0a      	ldr	r2, [pc, #40]	@ (8000894 <LoopFillZerobss+0x1e>)
  ldr r4, =_ebss
 800086c:	4c0a      	ldr	r4, [pc, #40]	@ (8000898 <LoopFillZerobss+0x22>)
  movs r3, #0
 800086e:	2300      	movs	r3, #0
  b LoopFillZerobss
 8000870:	e001      	b.n	8000876 <LoopFillZerobss>

08000872 <FillZerobss>:

FillZerobss:
  str  r3, [r2]
 8000872:	6013      	str	r3, [r2, #0]
  adds r2, r2, #4
 8000874:	3204      	adds	r2, #4

08000876 <LoopFillZerobss>:

LoopFillZerobss:
  cmp r2, r4
 8000876:	42a2      	cmp	r2, r4
  bcc FillZerobss
 8000878:	d3fb      	bcc.n	8000872 <FillZerobss>

/* Call static constructors */
    bl __libc_init_array
 800087a:	f001 fbb1 	bl	8001fe0 <__libc_init_array>
/* Call the application's entry point.*/
  bl  main
 800087e:	f7ff fe3f 	bl	8000500 <main>
  bx  lr    
 8000882:	4770      	bx	lr
  ldr   sp, =_estack      /* set stack pointer */
 8000884:	20010000 	.word	0x20010000
  ldr r0, =_sdata
 8000888:	20000000 	.word	0x20000000
  ldr r1, =_edata
 800088c:	2000000c 	.word	0x2000000c
  ldr r2, =_sidata
 8000890:	0800206c 	.word	0x0800206c
  ldr r2, =_sbss
 8000894:	2000000c 	.word	0x2000000c
  ldr r4, =_ebss
 8000898:	20000074 	.word	0x20000074

0800089c <ADC_IRQHandler>:
 * @retval None       
*/
    .section  .text.Default_Handler,"ax",%progbits
Default_Handler:
Infinite_Loop:
  b  Infinite_Loop
 800089c:	e7fe      	b.n	800089c <ADC_IRQHandler>
	...

080008a0 <HAL_Init>:
  *         need to ensure that the SysTick time base is always set to 1 millisecond
  *         to have correct HAL operation.
  * @retval HAL status
  */
HAL_StatusTypeDef HAL_Init(void)
{
 80008a0:	b580      	push	{r7, lr}
 80008a2:	af00      	add	r7, sp, #0
  /* Configure Flash prefetch, Instruction cache, Data cache */ 
#if (INSTRUCTION_CACHE_ENABLE != 0U)
  __HAL_FLASH_INSTRUCTION_CACHE_ENABLE();
 80008a4:	4b0e      	ldr	r3, [pc, #56]	@ (80008e0 <HAL_Init+0x40>)
 80008a6:	681b      	ldr	r3, [r3, #0]
 80008a8:	4a0d      	ldr	r2, [pc, #52]	@ (80008e0 <HAL_Init+0x40>)
 80008aa:	f443 7300 	orr.w	r3, r3, #512	@ 0x200
 80008ae:	6013      	str	r3, [r2, #0]
#endif /* INSTRUCTION_CACHE_ENABLE */

#if (DATA_CACHE_ENABLE != 0U)
  __HAL_FLASH_DATA_CACHE_ENABLE();
 80008b0:	4b0b      	ldr	r3, [pc, #44]	@ (80008e0 <HAL_Init+0x40>)
 80008b2:	681b      	ldr	r3, [r3, #0]
 80008b4:	4a0a      	ldr	r2, [pc, #40]	@ (80008e0 <HAL_Init+0x40>)
 80008b6:	f443 6380 	orr.w	r3, r3, #1024	@ 0x400
 80008ba:	6013      	str	r3, [r2, #0]
#endif /* DATA_CACHE_ENABLE */

#if (PREFETCH_ENABLE != 0U)
  __HAL_FLASH_PREFETCH_BUFFER_ENABLE();
 80008bc:	4b08      	ldr	r3, [pc, #32]	@ (80008e0 <HAL_Init+0x40>)
 80008be:	681b      	ldr	r3, [r3, #0]
 80008c0:	4a07      	ldr	r2, [pc, #28]	@ (80008e0 <HAL_Init+0x40>)
 80008c2:	f443 7380 	orr.w	r3, r3, #256	@ 0x100
 80008c6:	6013      	str	r3, [r2, #0]
#endif /* PREFETCH_ENABLE */

  /* Set Interrupt Group Priority */
  HAL_NVIC_SetPriorityGrouping(NVIC_PRIORITYGROUP_4);
 80008c8:	2003      	movs	r0, #3
 80008ca:	f000 f931 	bl	8000b30 <HAL_NVIC_SetPriorityGrouping>

  /* Use systick as time base source and configure 1ms tick (default clock after Reset is HSI) */
  HAL_InitTick(TICK_INT_PRIORITY);
 80008ce:	200f      	movs	r0, #15
 80008d0:	f000 f808 	bl	80008e4 <HAL_InitTick>

  /* Init the low level hardware */
  HAL_MspInit();
 80008d4:	f7ff ff08 	bl	80006e8 <HAL_MspInit>

  /* Return function status */
  return HAL_OK;
 80008d8:	2300      	movs	r3, #0
}
 80008da:	4618      	mov	r0, r3
 80008dc:	bd80      	pop	{r7, pc}
 80008de:	bf00      	nop
 80008e0:	40023c00 	.word	0x40023c00

080008e4 <HAL_InitTick>:
  *       implementation  in user file.
  * @param TickPriority Tick interrupt priority.
  * @retval HAL status
  */
__weak HAL_StatusTypeDef HAL_InitTick(uint32_t TickPriority)
{
 80008e4:	b580      	push	{r7, lr}
 80008e6:	b082      	sub	sp, #8
 80008e8:	af00      	add	r7, sp, #0
 80008ea:	6078      	str	r0, [r7, #4]
  /* Configure the SysTick to have interrupt in 1ms time basis*/
  if (HAL_SYSTICK_Config(SystemCoreClock / (1000U / uwTickFreq)) > 0U)
 80008ec:	4b12      	ldr	r3, [pc, #72]	@ (8000938 <HAL_InitTick+0x54>)
 80008ee:	681a      	ldr	r2, [r3, #0]
 80008f0:	4b12      	ldr	r3, [pc, #72]	@ (800093c <HAL_InitTick+0x58>)
 80008f2:	781b      	ldrb	r3, [r3, #0]
 80008f4:	4619      	mov	r1, r3
 80008f6:	f44f 737a 	mov.w	r3, #1000	@ 0x3e8
 80008fa:	fbb3 f3f1 	udiv	r3, r3, r1
 80008fe:	fbb2 f3f3 	udiv	r3, r2, r3
 8000902:	4618      	mov	r0, r3
 8000904:	f000 f93b 	bl	8000b7e <HAL_SYSTICK_Config>
 8000908:	4603      	mov	r3, r0
 800090a:	2b00      	cmp	r3, #0
 800090c:	d001      	beq.n	8000912 <HAL_InitTick+0x2e>
  {
    return HAL_ERROR;
 800090e:	2301      	movs	r3, #1
 8000910:	e00e      	b.n	8000930 <HAL_InitTick+0x4c>
  }

  /* Configure the SysTick IRQ priority */
  if (TickPriority < (1UL << __NVIC_PRIO_BITS))
 8000912:	687b      	ldr	r3, [r7, #4]
 8000914:	2b0f      	cmp	r3, #15
 8000916:	d80a      	bhi.n	800092e <HAL_InitTick+0x4a>
  {
    HAL_NVIC_SetPriority(SysTick_IRQn, TickPriority, 0U);
 8000918:	2200      	movs	r2, #0
 800091a:	6879      	ldr	r1, [r7, #4]
 800091c:	f04f 30ff 	mov.w	r0, #4294967295
 8000920:	f000 f911 	bl	8000b46 <HAL_NVIC_SetPriority>
    uwTickPrio = TickPriority;
 8000924:	4a06      	ldr	r2, [pc, #24]	@ (8000940 <HAL_InitTick+0x5c>)
 8000926:	687b      	ldr	r3, [r7, #4]
 8000928:	6013      	str	r3, [r2, #0]
  {
    return HAL_ERROR;
  }

  /* Return function status */
  return HAL_OK;
 800092a:	2300      	movs	r3, #0
 800092c:	e000      	b.n	8000930 <HAL_InitTick+0x4c>
    return HAL_ERROR;
 800092e:	2301      	movs	r3, #1
}
 8000930:	4618      	mov	r0, r3
 8000932:	3708      	adds	r7, #8
 8000934:	46bd      	mov	sp, r7
 8000936:	bd80      	pop	{r7, pc}
 8000938:	20000000 	.word	0x20000000
 800093c:	20000008 	.word	0x20000008
 8000940:	20000004 	.word	0x20000004

08000944 <HAL_IncTick>:
 * @note This function is declared as __weak to be overwritten in case of other 
  *      implementations in user file.
  * @retval None
  */
__weak void HAL_IncTick(void)
{
 8000944:	b480      	push	{r7}
 8000946:	af00      	add	r7, sp, #0
  uwTick += uwTickFreq;
 8000948:	4b06      	ldr	r3, [pc, #24]	@ (8000964 <HAL_IncTick+0x20>)
 800094a:	781b      	ldrb	r3, [r3, #0]
 800094c:	461a      	mov	r2, r3
 800094e:	4b06      	ldr	r3, [pc, #24]	@ (8000968 <HAL_IncTick+0x24>)
 8000950:	681b      	ldr	r3, [r3, #0]
 8000952:	4413      	add	r3, r2
 8000954:	4a04      	ldr	r2, [pc, #16]	@ (8000968 <HAL_IncTick+0x24>)
 8000956:	6013      	str	r3, [r2, #0]
}
 8000958:	bf00      	nop
 800095a:	46bd      	mov	sp, r7
 800095c:	f85d 7b04 	ldr.w	r7, [sp], #4
 8000960:	4770      	bx	lr
 8000962:	bf00      	nop
 8000964:	20000008 	.word	0x20000008
 8000968:	20000070 	.word	0x20000070

0800096c <HAL_GetTick>:
  * @note This function is declared as __weak to be overwritten in case of other 
  *       implementations in user file.
  * @retval tick value
  */
__weak uint32_t HAL_GetTick(void)
{
 800096c:	b480      	push	{r7}
 800096e:	af00      	add	r7, sp, #0
  return uwTick;
 8000970:	4b03      	ldr	r3, [pc, #12]	@ (8000980 <HAL_GetTick+0x14>)
 8000972:	681b      	ldr	r3, [r3, #0]
}
 8000974:	4618      	mov	r0, r3
 8000976:	46bd      	mov	sp, r7
 8000978:	f85d 7b04 	ldr.w	r7, [sp], #4
 800097c:	4770      	bx	lr
 800097e:	bf00      	nop
 8000980:	20000070 	.word	0x20000070

08000984 <HAL_Delay>:
  *       implementations in user file.
  * @param Delay specifies the delay time length, in milliseconds.
  * @retval None
  */
__weak void HAL_Delay(uint32_t Delay)
{
 8000984:	b580      	push	{r7, lr}
 8000986:	b084      	sub	sp, #16
 8000988:	af00      	add	r7, sp, #0
 800098a:	6078      	str	r0, [r7, #4]
  uint32_t tickstart = HAL_GetTick();
 800098c:	f7ff ffee 	bl	800096c <HAL_GetTick>
 8000990:	60b8      	str	r0, [r7, #8]
  uint32_t wait = Delay;
 8000992:	687b      	ldr	r3, [r7, #4]
 8000994:	60fb      	str	r3, [r7, #12]

  /* Add a freq to guarantee minimum wait */
  if (wait < HAL_MAX_DELAY)
 8000996:	68fb      	ldr	r3, [r7, #12]
 8000998:	f1b3 3fff 	cmp.w	r3, #4294967295
 800099c:	d005      	beq.n	80009aa <HAL_Delay+0x26>
  {
    wait += (uint32_t)(uwTickFreq);
 800099e:	4b0a      	ldr	r3, [pc, #40]	@ (80009c8 <HAL_Delay+0x44>)
 80009a0:	781b      	ldrb	r3, [r3, #0]
 80009a2:	461a      	mov	r2, r3
 80009a4:	68fb      	ldr	r3, [r7, #12]
 80009a6:	4413      	add	r3, r2
 80009a8:	60fb      	str	r3, [r7, #12]
  }

  while((HAL_GetTick() - tickstart) < wait)
 80009aa:	bf00      	nop
 80009ac:	f7ff ffde 	bl	800096c <HAL_GetTick>
 80009b0:	4602      	mov	r2, r0
 80009b2:	68bb      	ldr	r3, [r7, #8]
 80009b4:	1ad3      	subs	r3, r2, r3
 80009b6:	68fa      	ldr	r2, [r7, #12]
 80009b8:	429a      	cmp	r2, r3
 80009ba:	d8f7      	bhi.n	80009ac <HAL_Delay+0x28>
  {
  }
}
 80009bc:	bf00      	nop
 80009be:	bf00      	nop
 80009c0:	3710      	adds	r7, #16
 80009c2:	46bd      	mov	sp, r7
 80009c4:	bd80      	pop	{r7, pc}
 80009c6:	bf00      	nop
 80009c8:	20000008 	.word	0x20000008

080009cc <__NVIC_SetPriorityGrouping>:
           In case of a conflict between priority grouping and available
           priority bits (__NVIC_PRIO_BITS), the smallest possible priority group is set.
  \param [in]      PriorityGroup  Priority grouping field.
 */
__STATIC_INLINE void __NVIC_SetPriorityGrouping(uint32_t PriorityGroup)
{
 80009cc:	b480      	push	{r7}
 80009ce:	b085      	sub	sp, #20
 80009d0:	af00      	add	r7, sp, #0
 80009d2:	6078      	str	r0, [r7, #4]
  uint32_t reg_value;
  uint32_t PriorityGroupTmp = (PriorityGroup & (uint32_t)0x07UL);             /* only values 0..7 are used          */
 80009d4:	687b      	ldr	r3, [r7, #4]
 80009d6:	f003 0307 	and.w	r3, r3, #7
 80009da:	60fb      	str	r3, [r7, #12]

  reg_value  =  SCB->AIRCR;                                                   /* read old register configuration    */
 80009dc:	4b0c      	ldr	r3, [pc, #48]	@ (8000a10 <__NVIC_SetPriorityGrouping+0x44>)
 80009de:	68db      	ldr	r3, [r3, #12]
 80009e0:	60bb      	str	r3, [r7, #8]
  reg_value &= ~((uint32_t)(SCB_AIRCR_VECTKEY_Msk | SCB_AIRCR_PRIGROUP_Msk)); /* clear bits to change               */
 80009e2:	68ba      	ldr	r2, [r7, #8]
 80009e4:	f64f 03ff 	movw	r3, #63743	@ 0xf8ff
 80009e8:	4013      	ands	r3, r2
 80009ea:	60bb      	str	r3, [r7, #8]
  reg_value  =  (reg_value                                   |
                ((uint32_t)0x5FAUL << SCB_AIRCR_VECTKEY_Pos) |
                (PriorityGroupTmp << SCB_AIRCR_PRIGROUP_Pos)  );              /* Insert write key and priority group */
 80009ec:	68fb      	ldr	r3, [r7, #12]
 80009ee:	021a      	lsls	r2, r3, #8
                ((uint32_t)0x5FAUL << SCB_AIRCR_VECTKEY_Pos) |
 80009f0:	68bb      	ldr	r3, [r7, #8]
 80009f2:	4313      	orrs	r3, r2
  reg_value  =  (reg_value                                   |
 80009f4:	f043 63bf 	orr.w	r3, r3, #100139008	@ 0x5f80000
 80009f8:	f443 3300 	orr.w	r3, r3, #131072	@ 0x20000
 80009fc:	60bb      	str	r3, [r7, #8]
  SCB->AIRCR =  reg_value;
 80009fe:	4a04      	ldr	r2, [pc, #16]	@ (8000a10 <__NVIC_SetPriorityGrouping+0x44>)
 8000a00:	68bb      	ldr	r3, [r7, #8]
 8000a02:	60d3      	str	r3, [r2, #12]
}
 8000a04:	bf00      	nop
 8000a06:	3714      	adds	r7, #20
 8000a08:	46bd      	mov	sp, r7
 8000a0a:	f85d 7b04 	ldr.w	r7, [sp], #4
 8000a0e:	4770      	bx	lr
 8000a10:	e000ed00 	.word	0xe000ed00

08000a14 <__NVIC_GetPriorityGrouping>:
  \brief   Get Priority Grouping
  \details Reads the priority grouping field from the NVIC Interrupt Controller.
  \return                Priority grouping field (SCB->AIRCR [10:8] PRIGROUP field).
 */
__STATIC_INLINE uint32_t __NVIC_GetPriorityGrouping(void)
{
 8000a14:	b480      	push	{r7}
 8000a16:	af00      	add	r7, sp, #0
  return ((uint32_t)((SCB->AIRCR & SCB_AIRCR_PRIGROUP_Msk) >> SCB_AIRCR_PRIGROUP_Pos));
 8000a18:	4b04      	ldr	r3, [pc, #16]	@ (8000a2c <__NVIC_GetPriorityGrouping+0x18>)
 8000a1a:	68db      	ldr	r3, [r3, #12]
 8000a1c:	0a1b      	lsrs	r3, r3, #8
 8000a1e:	f003 0307 	and.w	r3, r3, #7
}
 8000a22:	4618      	mov	r0, r3
 8000a24:	46bd      	mov	sp, r7
 8000a26:	f85d 7b04 	ldr.w	r7, [sp], #4
 8000a2a:	4770      	bx	lr
 8000a2c:	e000ed00 	.word	0xe000ed00

08000a30 <__NVIC_SetPriority>:
  \param [in]      IRQn  Interrupt number.
  \param [in]  priority  Priority to set.
  \note    The priority cannot be set for every processor exception.
 */
__STATIC_INLINE void __NVIC_SetPriority(IRQn_Type IRQn, uint32_t priority)
{
 8000a30:	b480      	push	{r7}
 8000a32:	b083      	sub	sp, #12
 8000a34:	af00      	add	r7, sp, #0
 8000a36:	4603      	mov	r3, r0
 8000a38:	6039      	str	r1, [r7, #0]
 8000a3a:	71fb      	strb	r3, [r7, #7]
  if ((int32_t)(IRQn) >= 0)
 8000a3c:	f997 3007 	ldrsb.w	r3, [r7, #7]
 8000a40:	2b00      	cmp	r3, #0
 8000a42:	db0a      	blt.n	8000a5a <__NVIC_SetPriority+0x2a>
  {
    NVIC->IP[((uint32_t)IRQn)]               = (uint8_t)((priority << (8U - __NVIC_PRIO_BITS)) & (uint32_t)0xFFUL);
 8000a44:	683b      	ldr	r3, [r7, #0]
 8000a46:	b2da      	uxtb	r2, r3
 8000a48:	490c      	ldr	r1, [pc, #48]	@ (8000a7c <__NVIC_SetPriority+0x4c>)
 8000a4a:	f997 3007 	ldrsb.w	r3, [r7, #7]
 8000a4e:	0112      	lsls	r2, r2, #4
 8000a50:	b2d2      	uxtb	r2, r2
 8000a52:	440b      	add	r3, r1
 8000a54:	f883 2300 	strb.w	r2, [r3, #768]	@ 0x300
  }
  else
  {
    SCB->SHP[(((uint32_t)IRQn) & 0xFUL)-4UL] = (uint8_t)((priority << (8U - __NVIC_PRIO_BITS)) & (uint32_t)0xFFUL);
  }
}
 8000a58:	e00a      	b.n	8000a70 <__NVIC_SetPriority+0x40>
    SCB->SHP[(((uint32_t)IRQn) & 0xFUL)-4UL] = (uint8_t)((priority << (8U - __NVIC_PRIO_BITS)) & (uint32_t)0xFFUL);
 8000a5a:	683b      	ldr	r3, [r7, #0]
 8000a5c:	b2da      	uxtb	r2, r3
 8000a5e:	4908      	ldr	r1, [pc, #32]	@ (8000a80 <__NVIC_SetPriority+0x50>)
 8000a60:	79fb      	ldrb	r3, [r7, #7]
 8000a62:	f003 030f 	and.w	r3, r3, #15
 8000a66:	3b04      	subs	r3, #4
 8000a68:	0112      	lsls	r2, r2, #4
 8000a6a:	b2d2      	uxtb	r2, r2
 8000a6c:	440b      	add	r3, r1
 8000a6e:	761a      	strb	r2, [r3, #24]
}
 8000a70:	bf00      	nop
 8000a72:	370c      	adds	r7, #12
 8000a74:	46bd      	mov	sp, r7
 8000a76:	f85d 7b04 	ldr.w	r7, [sp], #4
 8000a7a:	4770      	bx	lr
 8000a7c:	e000e100 	.word	0xe000e100
 8000a80:	e000ed00 	.word	0xe000ed00

08000a84 <NVIC_EncodePriority>:
  \param [in]   PreemptPriority  Preemptive priority value (starting from 0).
  \param [in]       SubPriority  Subpriority value (starting from 0).
  \return                        Encoded priority. Value can be used in the function \ref NVIC_SetPriority().
 */
__STATIC_INLINE uint32_t NVIC_EncodePriority (uint32_t PriorityGroup, uint32_t PreemptPriority, uint32_t SubPriority)
{
 8000a84:	b480      	push	{r7}
 8000a86:	b089      	sub	sp, #36	@ 0x24
 8000a88:	af00      	add	r7, sp, #0
 8000a8a:	60f8      	str	r0, [r7, #12]
 8000a8c:	60b9      	str	r1, [r7, #8]
 8000a8e:	607a      	str	r2, [r7, #4]
  uint32_t PriorityGroupTmp = (PriorityGroup & (uint32_t)0x07UL);   /* only values 0..7 are used          */
 8000a90:	68fb      	ldr	r3, [r7, #12]
 8000a92:	f003 0307 	and.w	r3, r3, #7
 8000a96:	61fb      	str	r3, [r7, #28]
  uint32_t PreemptPriorityBits;
  uint32_t SubPriorityBits;

  PreemptPriorityBits = ((7UL - PriorityGroupTmp) > (uint32_t)(__NVIC_PRIO_BITS)) ? (uint32_t)(__NVIC_PRIO_BITS) : (uint32_t)(7UL - PriorityGroupTmp);
 8000a98:	69fb      	ldr	r3, [r7, #28]
 8000a9a:	f1c3 0307 	rsb	r3, r3, #7
 8000a9e:	2b04      	cmp	r3, #4
 8000aa0:	bf28      	it	cs
 8000aa2:	2304      	movcs	r3, #4
 8000aa4:	61bb      	str	r3, [r7, #24]
  SubPriorityBits     = ((PriorityGroupTmp + (uint32_t)(__NVIC_PRIO_BITS)) < (uint32_t)7UL) ? (uint32_t)0UL : (uint32_t)((PriorityGroupTmp - 7UL) + (uint32_t)(__NVIC_PRIO_BITS));
 8000aa6:	69fb      	ldr	r3, [r7, #28]
 8000aa8:	3304      	adds	r3, #4
 8000aaa:	2b06      	cmp	r3, #6
 8000aac:	d902      	bls.n	8000ab4 <NVIC_EncodePriority+0x30>
 8000aae:	69fb      	ldr	r3, [r7, #28]
 8000ab0:	3b03      	subs	r3, #3
 8000ab2:	e000      	b.n	8000ab6 <NVIC_EncodePriority+0x32>
 8000ab4:	2300      	movs	r3, #0
 8000ab6:	617b      	str	r3, [r7, #20]

  return (
           ((PreemptPriority & (uint32_t)((1UL << (PreemptPriorityBits)) - 1UL)) << SubPriorityBits) |
 8000ab8:	f04f 32ff 	mov.w	r2, #4294967295
 8000abc:	69bb      	ldr	r3, [r7, #24]
 8000abe:	fa02 f303 	lsl.w	r3, r2, r3
 8000ac2:	43da      	mvns	r2, r3
 8000ac4:	68bb      	ldr	r3, [r7, #8]
 8000ac6:	401a      	ands	r2, r3
 8000ac8:	697b      	ldr	r3, [r7, #20]
 8000aca:	409a      	lsls	r2, r3
           ((SubPriority     & (uint32_t)((1UL << (SubPriorityBits    )) - 1UL)))
 8000acc:	f04f 31ff 	mov.w	r1, #4294967295
 8000ad0:	697b      	ldr	r3, [r7, #20]
 8000ad2:	fa01 f303 	lsl.w	r3, r1, r3
 8000ad6:	43d9      	mvns	r1, r3
 8000ad8:	687b      	ldr	r3, [r7, #4]
 8000ada:	400b      	ands	r3, r1
           ((PreemptPriority & (uint32_t)((1UL << (PreemptPriorityBits)) - 1UL)) << SubPriorityBits) |
 8000adc:	4313      	orrs	r3, r2
         );
}
 8000ade:	4618      	mov	r0, r3
 8000ae0:	3724      	adds	r7, #36	@ 0x24
 8000ae2:	46bd      	mov	sp, r7
 8000ae4:	f85d 7b04 	ldr.w	r7, [sp], #4
 8000ae8:	4770      	bx	lr
	...

08000aec <SysTick_Config>:
  \note    When the variable <b>__Vendor_SysTickConfig</b> is set to 1, then the
           function <b>SysTick_Config</b> is not included. In this case, the file <b><i>device</i>.h</b>
           must contain a vendor-specific implementation of this function.
 */
__STATIC_INLINE uint32_t SysTick_Config(uint32_t ticks)
{
 8000aec:	b580      	push	{r7, lr}
 8000aee:	b082      	sub	sp, #8
 8000af0:	af00      	add	r7, sp, #0
 8000af2:	6078      	str	r0, [r7, #4]
  if ((ticks - 1UL) > SysTick_LOAD_RELOAD_Msk)
 8000af4:	687b      	ldr	r3, [r7, #4]
 8000af6:	3b01      	subs	r3, #1
 8000af8:	f1b3 7f80 	cmp.w	r3, #16777216	@ 0x1000000
 8000afc:	d301      	bcc.n	8000b02 <SysTick_Config+0x16>
  {
    return (1UL);                                                   /* Reload value impossible */
 8000afe:	2301      	movs	r3, #1
 8000b00:	e00f      	b.n	8000b22 <SysTick_Config+0x36>
  }

  SysTick->LOAD  = (uint32_t)(ticks - 1UL);                         /* set reload register */
 8000b02:	4a0a      	ldr	r2, [pc, #40]	@ (8000b2c <SysTick_Config+0x40>)
 8000b04:	687b      	ldr	r3, [r7, #4]
 8000b06:	3b01      	subs	r3, #1
 8000b08:	6053      	str	r3, [r2, #4]
  NVIC_SetPriority (SysTick_IRQn, (1UL << __NVIC_PRIO_BITS) - 1UL); /* set Priority for Systick Interrupt */
 8000b0a:	210f      	movs	r1, #15
 8000b0c:	f04f 30ff 	mov.w	r0, #4294967295
 8000b10:	f7ff ff8e 	bl	8000a30 <__NVIC_SetPriority>
  SysTick->VAL   = 0UL;                                             /* Load the SysTick Counter Value */
 8000b14:	4b05      	ldr	r3, [pc, #20]	@ (8000b2c <SysTick_Config+0x40>)
 8000b16:	2200      	movs	r2, #0
 8000b18:	609a      	str	r2, [r3, #8]
  SysTick->CTRL  = SysTick_CTRL_CLKSOURCE_Msk |
 8000b1a:	4b04      	ldr	r3, [pc, #16]	@ (8000b2c <SysTick_Config+0x40>)
 8000b1c:	2207      	movs	r2, #7
 8000b1e:	601a      	str	r2, [r3, #0]
                   SysTick_CTRL_TICKINT_Msk   |
                   SysTick_CTRL_ENABLE_Msk;                         /* Enable SysTick IRQ and SysTick Timer */
  return (0UL);                                                     /* Function successful */
 8000b20:	2300      	movs	r3, #0
}
 8000b22:	4618      	mov	r0, r3
 8000b24:	3708      	adds	r7, #8
 8000b26:	46bd      	mov	sp, r7
 8000b28:	bd80      	pop	{r7, pc}
 8000b2a:	bf00      	nop
 8000b2c:	e000e010 	.word	0xe000e010

08000b30 <HAL_NVIC_SetPriorityGrouping>:
  * @note   When the NVIC_PriorityGroup_0 is selected, IRQ preemption is no more possible. 
  *         The pending IRQ priority will be managed only by the subpriority. 
  * @retval None
  */
void HAL_NVIC_SetPriorityGrouping(uint32_t PriorityGroup)
{
 8000b30:	b580      	push	{r7, lr}
 8000b32:	b082      	sub	sp, #8
 8000b34:	af00      	add	r7, sp, #0
 8000b36:	6078      	str	r0, [r7, #4]
  /* Check the parameters */
  assert_param(IS_NVIC_PRIORITY_GROUP(PriorityGroup));
  
  /* Set the PRIGROUP[10:8] bits according to the PriorityGroup parameter value */
  NVIC_SetPriorityGrouping(PriorityGroup);
 8000b38:	6878      	ldr	r0, [r7, #4]
 8000b3a:	f7ff ff47 	bl	80009cc <__NVIC_SetPriorityGrouping>
}
 8000b3e:	bf00      	nop
 8000b40:	3708      	adds	r7, #8
 8000b42:	46bd      	mov	sp, r7
 8000b44:	bd80      	pop	{r7, pc}

08000b46 <HAL_NVIC_SetPriority>:
  *         This parameter can be a value between 0 and 15
  *         A lower priority value indicates a higher priority.          
  * @retval None
  */
void HAL_NVIC_SetPriority(IRQn_Type IRQn, uint32_t PreemptPriority, uint32_t SubPriority)
{ 
 8000b46:	b580      	push	{r7, lr}
 8000b48:	b086      	sub	sp, #24
 8000b4a:	af00      	add	r7, sp, #0
 8000b4c:	4603      	mov	r3, r0
 8000b4e:	60b9      	str	r1, [r7, #8]
 8000b50:	607a      	str	r2, [r7, #4]
 8000b52:	73fb      	strb	r3, [r7, #15]
  uint32_t prioritygroup = 0x00U;
 8000b54:	2300      	movs	r3, #0
 8000b56:	617b      	str	r3, [r7, #20]
  
  /* Check the parameters */
  assert_param(IS_NVIC_SUB_PRIORITY(SubPriority));
  assert_param(IS_NVIC_PREEMPTION_PRIORITY(PreemptPriority));
  
  prioritygroup = NVIC_GetPriorityGrouping();
 8000b58:	f7ff ff5c 	bl	8000a14 <__NVIC_GetPriorityGrouping>
 8000b5c:	6178      	str	r0, [r7, #20]
  
  NVIC_SetPriority(IRQn, NVIC_EncodePriority(prioritygroup, PreemptPriority, SubPriority));
 8000b5e:	687a      	ldr	r2, [r7, #4]
 8000b60:	68b9      	ldr	r1, [r7, #8]
 8000b62:	6978      	ldr	r0, [r7, #20]
 8000b64:	f7ff ff8e 	bl	8000a84 <NVIC_EncodePriority>
 8000b68:	4602      	mov	r2, r0
 8000b6a:	f997 300f 	ldrsb.w	r3, [r7, #15]
 8000b6e:	4611      	mov	r1, r2
 8000b70:	4618      	mov	r0, r3
 8000b72:	f7ff ff5d 	bl	8000a30 <__NVIC_SetPriority>
}
 8000b76:	bf00      	nop
 8000b78:	3718      	adds	r7, #24
 8000b7a:	46bd      	mov	sp, r7
 8000b7c:	bd80      	pop	{r7, pc}

08000b7e <HAL_SYSTICK_Config>:
  * @param  TicksNumb Specifies the ticks Number of ticks between two interrupts.
  * @retval status:  - 0  Function succeeded.
  *                  - 1  Function failed.
  */
uint32_t HAL_SYSTICK_Config(uint32_t TicksNumb)
{
 8000b7e:	b580      	push	{r7, lr}
 8000b80:	b082      	sub	sp, #8
 8000b82:	af00      	add	r7, sp, #0
 8000b84:	6078      	str	r0, [r7, #4]
   return SysTick_Config(TicksNumb);
 8000b86:	6878      	ldr	r0, [r7, #4]
 8000b88:	f7ff ffb0 	bl	8000aec <SysTick_Config>
 8000b8c:	4603      	mov	r3, r0
}
 8000b8e:	4618      	mov	r0, r3
 8000b90:	3708      	adds	r7, #8
 8000b92:	46bd      	mov	sp, r7
 8000b94:	bd80      	pop	{r7, pc}
	...

08000b98 <HAL_GPIO_Init>:
  * @param  GPIO_Init pointer to a GPIO_InitTypeDef structure that contains
  *         the configuration information for the specified GPIO peripheral.
  * @retval None
  */
void HAL_GPIO_Init(GPIO_TypeDef  *GPIOx, GPIO_InitTypeDef *GPIO_Init)
{
 8000b98:	b480      	push	{r7}
 8000b9a:	b089      	sub	sp, #36	@ 0x24
 8000b9c:	af00      	add	r7, sp, #0
 8000b9e:	6078      	str	r0, [r7, #4]
 8000ba0:	6039      	str	r1, [r7, #0]
  uint32_t position;
  uint32_t ioposition = 0x00U;
 8000ba2:	2300      	movs	r3, #0
 8000ba4:	617b      	str	r3, [r7, #20]
  uint32_t iocurrent = 0x00U;
 8000ba6:	2300      	movs	r3, #0
 8000ba8:	613b      	str	r3, [r7, #16]
  uint32_t temp = 0x00U;
 8000baa:	2300      	movs	r3, #0
 8000bac:	61bb      	str	r3, [r7, #24]
  assert_param(IS_GPIO_ALL_INSTANCE(GPIOx));
  assert_param(IS_GPIO_PIN(GPIO_Init->Pin));
  assert_param(IS_GPIO_MODE(GPIO_Init->Mode));

  /* Configure the port pins */
  for(position = 0U; position < GPIO_NUMBER; position++)
 8000bae:	2300      	movs	r3, #0
 8000bb0:	61fb      	str	r3, [r7, #28]
 8000bb2:	e159      	b.n	8000e68 <HAL_GPIO_Init+0x2d0>
  {
    /* Get the IO position */
    ioposition = 0x01U << position;
 8000bb4:	2201      	movs	r2, #1
 8000bb6:	69fb      	ldr	r3, [r7, #28]
 8000bb8:	fa02 f303 	lsl.w	r3, r2, r3
 8000bbc:	617b      	str	r3, [r7, #20]
    /* Get the current IO position */
    iocurrent = (uint32_t)(GPIO_Init->Pin) & ioposition;
 8000bbe:	683b      	ldr	r3, [r7, #0]
 8000bc0:	681b      	ldr	r3, [r3, #0]
 8000bc2:	697a      	ldr	r2, [r7, #20]
 8000bc4:	4013      	ands	r3, r2
 8000bc6:	613b      	str	r3, [r7, #16]

    if(iocurrent == ioposition)
 8000bc8:	693a      	ldr	r2, [r7, #16]
 8000bca:	697b      	ldr	r3, [r7, #20]
 8000bcc:	429a      	cmp	r2, r3
 8000bce:	f040 8148 	bne.w	8000e62 <HAL_GPIO_Init+0x2ca>
    {
      /*--------------------- GPIO Mode Configuration ------------------------*/
      /* In case of Output or Alternate function mode selection */
      if(((GPIO_Init->Mode & GPIO_MODE) == MODE_OUTPUT) || \
 8000bd2:	683b      	ldr	r3, [r7, #0]
 8000bd4:	685b      	ldr	r3, [r3, #4]
 8000bd6:	f003 0303 	and.w	r3, r3, #3
 8000bda:	2b01      	cmp	r3, #1
 8000bdc:	d005      	beq.n	8000bea <HAL_GPIO_Init+0x52>
          (GPIO_Init->Mode & GPIO_MODE) == MODE_AF)
 8000bde:	683b      	ldr	r3, [r7, #0]
 8000be0:	685b      	ldr	r3, [r3, #4]
 8000be2:	f003 0303 	and.w	r3, r3, #3
      if(((GPIO_Init->Mode & GPIO_MODE) == MODE_OUTPUT) || \
 8000be6:	2b02      	cmp	r3, #2
 8000be8:	d130      	bne.n	8000c4c <HAL_GPIO_Init+0xb4>
      {
        /* Check the Speed parameter */
        assert_param(IS_GPIO_SPEED(GPIO_Init->Speed));
        /* Configure the IO Speed */
        temp = GPIOx->OSPEEDR; 
 8000bea:	687b      	ldr	r3, [r7, #4]
 8000bec:	689b      	ldr	r3, [r3, #8]
 8000bee:	61bb      	str	r3, [r7, #24]
        temp &= ~(GPIO_OSPEEDER_OSPEEDR0 << (position * 2U));
 8000bf0:	69fb      	ldr	r3, [r7, #28]
 8000bf2:	005b      	lsls	r3, r3, #1
 8000bf4:	2203      	movs	r2, #3
 8000bf6:	fa02 f303 	lsl.w	r3, r2, r3
 8000bfa:	43db      	mvns	r3, r3
 8000bfc:	69ba      	ldr	r2, [r7, #24]
 8000bfe:	4013      	ands	r3, r2
 8000c00:	61bb      	str	r3, [r7, #24]
        temp |= (GPIO_Init->Speed << (position * 2U));
 8000c02:	683b      	ldr	r3, [r7, #0]
 8000c04:	68da      	ldr	r2, [r3, #12]
 8000c06:	69fb      	ldr	r3, [r7, #28]
 8000c08:	005b      	lsls	r3, r3, #1
 8000c0a:	fa02 f303 	lsl.w	r3, r2, r3
 8000c0e:	69ba      	ldr	r2, [r7, #24]
 8000c10:	4313      	orrs	r3, r2
 8000c12:	61bb      	str	r3, [r7, #24]
        GPIOx->OSPEEDR = temp;
 8000c14:	687b      	ldr	r3, [r7, #4]
 8000c16:	69ba      	ldr	r2, [r7, #24]
 8000c18:	609a      	str	r2, [r3, #8]

        /* Configure the IO Output Type */
        temp = GPIOx->OTYPER;
 8000c1a:	687b      	ldr	r3, [r7, #4]
 8000c1c:	685b      	ldr	r3, [r3, #4]
 8000c1e:	61bb      	str	r3, [r7, #24]
        temp &= ~(GPIO_OTYPER_OT_0 << position) ;
 8000c20:	2201      	movs	r2, #1
 8000c22:	69fb      	ldr	r3, [r7, #28]
 8000c24:	fa02 f303 	lsl.w	r3, r2, r3
 8000c28:	43db      	mvns	r3, r3
 8000c2a:	69ba      	ldr	r2, [r7, #24]
 8000c2c:	4013      	ands	r3, r2
 8000c2e:	61bb      	str	r3, [r7, #24]
        temp |= (((GPIO_Init->Mode & OUTPUT_TYPE) >> OUTPUT_TYPE_Pos) << position);
 8000c30:	683b      	ldr	r3, [r7, #0]
 8000c32:	685b      	ldr	r3, [r3, #4]
 8000c34:	091b      	lsrs	r3, r3, #4
 8000c36:	f003 0201 	and.w	r2, r3, #1
 8000c3a:	69fb      	ldr	r3, [r7, #28]
 8000c3c:	fa02 f303 	lsl.w	r3, r2, r3
 8000c40:	69ba      	ldr	r2, [r7, #24]
 8000c42:	4313      	orrs	r3, r2
 8000c44:	61bb      	str	r3, [r7, #24]
        GPIOx->OTYPER = temp;
 8000c46:	687b      	ldr	r3, [r7, #4]
 8000c48:	69ba      	ldr	r2, [r7, #24]
 8000c4a:	605a      	str	r2, [r3, #4]
       }

      if((GPIO_Init->Mode & GPIO_MODE) != MODE_ANALOG)
 8000c4c:	683b      	ldr	r3, [r7, #0]
 8000c4e:	685b      	ldr	r3, [r3, #4]
 8000c50:	f003 0303 	and.w	r3, r3, #3
 8000c54:	2b03      	cmp	r3, #3
 8000c56:	d017      	beq.n	8000c88 <HAL_GPIO_Init+0xf0>
      {
        /* Check the parameters */
        assert_param(IS_GPIO_PULL(GPIO_Init->Pull));
        
        /* Activate the Pull-up or Pull down resistor for the current IO */
        temp = GPIOx->PUPDR;
 8000c58:	687b      	ldr	r3, [r7, #4]
 8000c5a:	68db      	ldr	r3, [r3, #12]
 8000c5c:	61bb      	str	r3, [r7, #24]
        temp &= ~(GPIO_PUPDR_PUPDR0 << (position * 2U));
 8000c5e:	69fb      	ldr	r3, [r7, #28]
 8000c60:	005b      	lsls	r3, r3, #1
 8000c62:	2203      	movs	r2, #3
 8000c64:	fa02 f303 	lsl.w	r3, r2, r3
 8000c68:	43db      	mvns	r3, r3
 8000c6a:	69ba      	ldr	r2, [r7, #24]
 8000c6c:	4013      	ands	r3, r2
 8000c6e:	61bb      	str	r3, [r7, #24]
        temp |= ((GPIO_Init->Pull) << (position * 2U));
 8000c70:	683b      	ldr	r3, [r7, #0]
 8000c72:	689a      	ldr	r2, [r3, #8]
 8000c74:	69fb      	ldr	r3, [r7, #28]
 8000c76:	005b      	lsls	r3, r3, #1
 8000c78:	fa02 f303 	lsl.w	r3, r2, r3
 8000c7c:	69ba      	ldr	r2, [r7, #24]
 8000c7e:	4313      	orrs	r3, r2
 8000c80:	61bb      	str	r3, [r7, #24]
        GPIOx->PUPDR = temp;
 8000c82:	687b      	ldr	r3, [r7, #4]
 8000c84:	69ba      	ldr	r2, [r7, #24]
 8000c86:	60da      	str	r2, [r3, #12]
      }

      /* In case of Alternate function mode selection */
      if((GPIO_Init->Mode & GPIO_MODE) == MODE_AF)
 8000c88:	683b      	ldr	r3, [r7, #0]
 8000c8a:	685b      	ldr	r3, [r3, #4]
 8000c8c:	f003 0303 	and.w	r3, r3, #3
 8000c90:	2b02      	cmp	r3, #2
 8000c92:	d123      	bne.n	8000cdc <HAL_GPIO_Init+0x144>
      {
        /* Check the Alternate function parameter */
        assert_param(IS_GPIO_AF(GPIO_Init->Alternate));
        /* Configure Alternate function mapped with the current IO */
        temp = GPIOx->AFR[position >> 3U];
 8000c94:	69fb      	ldr	r3, [r7, #28]
 8000c96:	08da      	lsrs	r2, r3, #3
 8000c98:	687b      	ldr	r3, [r7, #4]
 8000c9a:	3208      	adds	r2, #8
 8000c9c:	f853 3022 	ldr.w	r3, [r3, r2, lsl #2]
 8000ca0:	61bb      	str	r3, [r7, #24]
        temp &= ~(0xFU << ((uint32_t)(position & 0x07U) * 4U)) ;
 8000ca2:	69fb      	ldr	r3, [r7, #28]
 8000ca4:	f003 0307 	and.w	r3, r3, #7
 8000ca8:	009b      	lsls	r3, r3, #2
 8000caa:	220f      	movs	r2, #15
 8000cac:	fa02 f303 	lsl.w	r3, r2, r3
 8000cb0:	43db      	mvns	r3, r3
 8000cb2:	69ba      	ldr	r2, [r7, #24]
 8000cb4:	4013      	ands	r3, r2
 8000cb6:	61bb      	str	r3, [r7, #24]
        temp |= ((uint32_t)(GPIO_Init->Alternate) << (((uint32_t)position & 0x07U) * 4U));
 8000cb8:	683b      	ldr	r3, [r7, #0]
 8000cba:	691a      	ldr	r2, [r3, #16]
 8000cbc:	69fb      	ldr	r3, [r7, #28]
 8000cbe:	f003 0307 	and.w	r3, r3, #7
 8000cc2:	009b      	lsls	r3, r3, #2
 8000cc4:	fa02 f303 	lsl.w	r3, r2, r3
 8000cc8:	69ba      	ldr	r2, [r7, #24]
 8000cca:	4313      	orrs	r3, r2
 8000ccc:	61bb      	str	r3, [r7, #24]
        GPIOx->AFR[position >> 3U] = temp;
 8000cce:	69fb      	ldr	r3, [r7, #28]
 8000cd0:	08da      	lsrs	r2, r3, #3
 8000cd2:	687b      	ldr	r3, [r7, #4]
 8000cd4:	3208      	adds	r2, #8
 8000cd6:	69b9      	ldr	r1, [r7, #24]
 8000cd8:	f843 1022 	str.w	r1, [r3, r2, lsl #2]
      }

      /* Configure IO Direction mode (Input, Output, Alternate or Analog) */
      temp = GPIOx->MODER;
 8000cdc:	687b      	ldr	r3, [r7, #4]
 8000cde:	681b      	ldr	r3, [r3, #0]
 8000ce0:	61bb      	str	r3, [r7, #24]
      temp &= ~(GPIO_MODER_MODER0 << (position * 2U));
 8000ce2:	69fb      	ldr	r3, [r7, #28]
 8000ce4:	005b      	lsls	r3, r3, #1
 8000ce6:	2203      	movs	r2, #3
 8000ce8:	fa02 f303 	lsl.w	r3, r2, r3
 8000cec:	43db      	mvns	r3, r3
 8000cee:	69ba      	ldr	r2, [r7, #24]
 8000cf0:	4013      	ands	r3, r2
 8000cf2:	61bb      	str	r3, [r7, #24]
      temp |= ((GPIO_Init->Mode & GPIO_MODE) << (position * 2U));
 8000cf4:	683b      	ldr	r3, [r7, #0]
 8000cf6:	685b      	ldr	r3, [r3, #4]
 8000cf8:	f003 0203 	and.w	r2, r3, #3
 8000cfc:	69fb      	ldr	r3, [r7, #28]
 8000cfe:	005b      	lsls	r3, r3, #1
 8000d00:	fa02 f303 	lsl.w	r3, r2, r3
 8000d04:	69ba      	ldr	r2, [r7, #24]
 8000d06:	4313      	orrs	r3, r2
 8000d08:	61bb      	str	r3, [r7, #24]
      GPIOx->MODER = temp;
 8000d0a:	687b      	ldr	r3, [r7, #4]
 8000d0c:	69ba      	ldr	r2, [r7, #24]
 8000d0e:	601a      	str	r2, [r3, #0]

      /*--------------------- EXTI Mode Configuration ------------------------*/
      /* Configure the External Interrupt or event for the current IO */
      if((GPIO_Init->Mode & EXTI_MODE) != 0x00U)
 8000d10:	683b      	ldr	r3, [r7, #0]
 8000d12:	685b      	ldr	r3, [r3, #4]
 8000d14:	f403 3340 	and.w	r3, r3, #196608	@ 0x30000
 8000d18:	2b00      	cmp	r3, #0
 8000d1a:	f000 80a2 	beq.w	8000e62 <HAL_GPIO_Init+0x2ca>
      {
        /* Enable SYSCFG Clock */
        __HAL_RCC_SYSCFG_CLK_ENABLE();
 8000d1e:	2300      	movs	r3, #0
 8000d20:	60fb      	str	r3, [r7, #12]
 8000d22:	4b57      	ldr	r3, [pc, #348]	@ (8000e80 <HAL_GPIO_Init+0x2e8>)
 8000d24:	6c5b      	ldr	r3, [r3, #68]	@ 0x44
 8000d26:	4a56      	ldr	r2, [pc, #344]	@ (8000e80 <HAL_GPIO_Init+0x2e8>)
 8000d28:	f443 4380 	orr.w	r3, r3, #16384	@ 0x4000
 8000d2c:	6453      	str	r3, [r2, #68]	@ 0x44
 8000d2e:	4b54      	ldr	r3, [pc, #336]	@ (8000e80 <HAL_GPIO_Init+0x2e8>)
 8000d30:	6c5b      	ldr	r3, [r3, #68]	@ 0x44
 8000d32:	f403 4380 	and.w	r3, r3, #16384	@ 0x4000
 8000d36:	60fb      	str	r3, [r7, #12]
 8000d38:	68fb      	ldr	r3, [r7, #12]

        temp = SYSCFG->EXTICR[position >> 2U];
 8000d3a:	4a52      	ldr	r2, [pc, #328]	@ (8000e84 <HAL_GPIO_Init+0x2ec>)
 8000d3c:	69fb      	ldr	r3, [r7, #28]
 8000d3e:	089b      	lsrs	r3, r3, #2
 8000d40:	3302      	adds	r3, #2
 8000d42:	f852 3023 	ldr.w	r3, [r2, r3, lsl #2]
 8000d46:	61bb      	str	r3, [r7, #24]
        temp &= ~(0x0FU << (4U * (position & 0x03U)));
 8000d48:	69fb      	ldr	r3, [r7, #28]
 8000d4a:	f003 0303 	and.w	r3, r3, #3
 8000d4e:	009b      	lsls	r3, r3, #2
 8000d50:	220f      	movs	r2, #15
 8000d52:	fa02 f303 	lsl.w	r3, r2, r3
 8000d56:	43db      	mvns	r3, r3
 8000d58:	69ba      	ldr	r2, [r7, #24]
 8000d5a:	4013      	ands	r3, r2
 8000d5c:	61bb      	str	r3, [r7, #24]
        temp |= ((uint32_t)(GPIO_GET_INDEX(GPIOx)) << (4U * (position & 0x03U)));
 8000d5e:	687b      	ldr	r3, [r7, #4]
 8000d60:	4a49      	ldr	r2, [pc, #292]	@ (8000e88 <HAL_GPIO_Init+0x2f0>)
 8000d62:	4293      	cmp	r3, r2
 8000d64:	d019      	beq.n	8000d9a <HAL_GPIO_Init+0x202>
 8000d66:	687b      	ldr	r3, [r7, #4]
 8000d68:	4a48      	ldr	r2, [pc, #288]	@ (8000e8c <HAL_GPIO_Init+0x2f4>)
 8000d6a:	4293      	cmp	r3, r2
 8000d6c:	d013      	beq.n	8000d96 <HAL_GPIO_Init+0x1fe>
 8000d6e:	687b      	ldr	r3, [r7, #4]
 8000d70:	4a47      	ldr	r2, [pc, #284]	@ (8000e90 <HAL_GPIO_Init+0x2f8>)
 8000d72:	4293      	cmp	r3, r2
 8000d74:	d00d      	beq.n	8000d92 <HAL_GPIO_Init+0x1fa>
 8000d76:	687b      	ldr	r3, [r7, #4]
 8000d78:	4a46      	ldr	r2, [pc, #280]	@ (8000e94 <HAL_GPIO_Init+0x2fc>)
 8000d7a:	4293      	cmp	r3, r2
 8000d7c:	d007      	beq.n	8000d8e <HAL_GPIO_Init+0x1f6>
 8000d7e:	687b      	ldr	r3, [r7, #4]
 8000d80:	4a45      	ldr	r2, [pc, #276]	@ (8000e98 <HAL_GPIO_Init+0x300>)
 8000d82:	4293      	cmp	r3, r2
 8000d84:	d101      	bne.n	8000d8a <HAL_GPIO_Init+0x1f2>
 8000d86:	2304      	movs	r3, #4
 8000d88:	e008      	b.n	8000d9c <HAL_GPIO_Init+0x204>
 8000d8a:	2307      	movs	r3, #7
 8000d8c:	e006      	b.n	8000d9c <HAL_GPIO_Init+0x204>
 8000d8e:	2303      	movs	r3, #3
 8000d90:	e004      	b.n	8000d9c <HAL_GPIO_Init+0x204>
 8000d92:	2302      	movs	r3, #2
 8000d94:	e002      	b.n	8000d9c <HAL_GPIO_Init+0x204>
 8000d96:	2301      	movs	r3, #1
 8000d98:	e000      	b.n	8000d9c <HAL_GPIO_Init+0x204>
 8000d9a:	2300      	movs	r3, #0
 8000d9c:	69fa      	ldr	r2, [r7, #28]
 8000d9e:	f002 0203 	and.w	r2, r2, #3
 8000da2:	0092      	lsls	r2, r2, #2
 8000da4:	4093      	lsls	r3, r2
 8000da6:	69ba      	ldr	r2, [r7, #24]
 8000da8:	4313      	orrs	r3, r2
 8000daa:	61bb      	str	r3, [r7, #24]
        SYSCFG->EXTICR[position >> 2U] = temp;
 8000dac:	4935      	ldr	r1, [pc, #212]	@ (8000e84 <HAL_GPIO_Init+0x2ec>)
 8000dae:	69fb      	ldr	r3, [r7, #28]
 8000db0:	089b      	lsrs	r3, r3, #2
 8000db2:	3302      	adds	r3, #2
 8000db4:	69ba      	ldr	r2, [r7, #24]
 8000db6:	f841 2023 	str.w	r2, [r1, r3, lsl #2]

        /* Clear Rising Falling edge configuration */
        temp = EXTI->RTSR;
 8000dba:	4b38      	ldr	r3, [pc, #224]	@ (8000e9c <HAL_GPIO_Init+0x304>)
 8000dbc:	689b      	ldr	r3, [r3, #8]
 8000dbe:	61bb      	str	r3, [r7, #24]
        temp &= ~((uint32_t)iocurrent);
 8000dc0:	693b      	ldr	r3, [r7, #16]
 8000dc2:	43db      	mvns	r3, r3
 8000dc4:	69ba      	ldr	r2, [r7, #24]
 8000dc6:	4013      	ands	r3, r2
 8000dc8:	61bb      	str	r3, [r7, #24]
        if((GPIO_Init->Mode & TRIGGER_RISING) != 0x00U)
 8000dca:	683b      	ldr	r3, [r7, #0]
 8000dcc:	685b      	ldr	r3, [r3, #4]
 8000dce:	f403 1380 	and.w	r3, r3, #1048576	@ 0x100000
 8000dd2:	2b00      	cmp	r3, #0
 8000dd4:	d003      	beq.n	8000dde <HAL_GPIO_Init+0x246>
        {
          temp |= iocurrent;
 8000dd6:	69ba      	ldr	r2, [r7, #24]
 8000dd8:	693b      	ldr	r3, [r7, #16]
 8000dda:	4313      	orrs	r3, r2
 8000ddc:	61bb      	str	r3, [r7, #24]
        }
        EXTI->RTSR = temp;
 8000dde:	4a2f      	ldr	r2, [pc, #188]	@ (8000e9c <HAL_GPIO_Init+0x304>)
 8000de0:	69bb      	ldr	r3, [r7, #24]
 8000de2:	6093      	str	r3, [r2, #8]

        temp = EXTI->FTSR;
 8000de4:	4b2d      	ldr	r3, [pc, #180]	@ (8000e9c <HAL_GPIO_Init+0x304>)
 8000de6:	68db      	ldr	r3, [r3, #12]
 8000de8:	61bb      	str	r3, [r7, #24]
        temp &= ~((uint32_t)iocurrent);
 8000dea:	693b      	ldr	r3, [r7, #16]
 8000dec:	43db      	mvns	r3, r3
 8000dee:	69ba      	ldr	r2, [r7, #24]
 8000df0:	4013      	ands	r3, r2
 8000df2:	61bb      	str	r3, [r7, #24]
        if((GPIO_Init->Mode & TRIGGER_FALLING) != 0x00U)
 8000df4:	683b      	ldr	r3, [r7, #0]
 8000df6:	685b      	ldr	r3, [r3, #4]
 8000df8:	f403 1300 	and.w	r3, r3, #2097152	@ 0x200000
 8000dfc:	2b00      	cmp	r3, #0
 8000dfe:	d003      	beq.n	8000e08 <HAL_GPIO_Init+0x270>
        {
          temp |= iocurrent;
 8000e00:	69ba      	ldr	r2, [r7, #24]
 8000e02:	693b      	ldr	r3, [r7, #16]
 8000e04:	4313      	orrs	r3, r2
 8000e06:	61bb      	str	r3, [r7, #24]
        }
        EXTI->FTSR = temp;
 8000e08:	4a24      	ldr	r2, [pc, #144]	@ (8000e9c <HAL_GPIO_Init+0x304>)
 8000e0a:	69bb      	ldr	r3, [r7, #24]
 8000e0c:	60d3      	str	r3, [r2, #12]

        temp = EXTI->EMR;
 8000e0e:	4b23      	ldr	r3, [pc, #140]	@ (8000e9c <HAL_GPIO_Init+0x304>)
 8000e10:	685b      	ldr	r3, [r3, #4]
 8000e12:	61bb      	str	r3, [r7, #24]
        temp &= ~((uint32_t)iocurrent);
 8000e14:	693b      	ldr	r3, [r7, #16]
 8000e16:	43db      	mvns	r3, r3
 8000e18:	69ba      	ldr	r2, [r7, #24]
 8000e1a:	4013      	ands	r3, r2
 8000e1c:	61bb      	str	r3, [r7, #24]
        if((GPIO_Init->Mode & EXTI_EVT) != 0x00U)
 8000e1e:	683b      	ldr	r3, [r7, #0]
 8000e20:	685b      	ldr	r3, [r3, #4]
 8000e22:	f403 3300 	and.w	r3, r3, #131072	@ 0x20000
 8000e26:	2b00      	cmp	r3, #0
 8000e28:	d003      	beq.n	8000e32 <HAL_GPIO_Init+0x29a>
        {
          temp |= iocurrent;
 8000e2a:	69ba      	ldr	r2, [r7, #24]
 8000e2c:	693b      	ldr	r3, [r7, #16]
 8000e2e:	4313      	orrs	r3, r2
 8000e30:	61bb      	str	r3, [r7, #24]
        }
        EXTI->EMR = temp;
 8000e32:	4a1a      	ldr	r2, [pc, #104]	@ (8000e9c <HAL_GPIO_Init+0x304>)
 8000e34:	69bb      	ldr	r3, [r7, #24]
 8000e36:	6053      	str	r3, [r2, #4]

        /* Clear EXTI line configuration */
        temp = EXTI->IMR;
 8000e38:	4b18      	ldr	r3, [pc, #96]	@ (8000e9c <HAL_GPIO_Init+0x304>)
 8000e3a:	681b      	ldr	r3, [r3, #0]
 8000e3c:	61bb      	str	r3, [r7, #24]
        temp &= ~((uint32_t)iocurrent);
 8000e3e:	693b      	ldr	r3, [r7, #16]
 8000e40:	43db      	mvns	r3, r3
 8000e42:	69ba      	ldr	r2, [r7, #24]
 8000e44:	4013      	ands	r3, r2
 8000e46:	61bb      	str	r3, [r7, #24]
        if((GPIO_Init->Mode & EXTI_IT) != 0x00U)
 8000e48:	683b      	ldr	r3, [r7, #0]
 8000e4a:	685b      	ldr	r3, [r3, #4]
 8000e4c:	f403 3380 	and.w	r3, r3, #65536	@ 0x10000
 8000e50:	2b00      	cmp	r3, #0
 8000e52:	d003      	beq.n	8000e5c <HAL_GPIO_Init+0x2c4>
        {
          temp |= iocurrent;
 8000e54:	69ba      	ldr	r2, [r7, #24]
 8000e56:	693b      	ldr	r3, [r7, #16]
 8000e58:	4313      	orrs	r3, r2
 8000e5a:	61bb      	str	r3, [r7, #24]
        }
        EXTI->IMR = temp;
 8000e5c:	4a0f      	ldr	r2, [pc, #60]	@ (8000e9c <HAL_GPIO_Init+0x304>)
 8000e5e:	69bb      	ldr	r3, [r7, #24]
 8000e60:	6013      	str	r3, [r2, #0]
  for(position = 0U; position < GPIO_NUMBER; position++)
 8000e62:	69fb      	ldr	r3, [r7, #28]
 8000e64:	3301      	adds	r3, #1
 8000e66:	61fb      	str	r3, [r7, #28]
 8000e68:	69fb      	ldr	r3, [r7, #28]
 8000e6a:	2b0f      	cmp	r3, #15
 8000e6c:	f67f aea2 	bls.w	8000bb4 <HAL_GPIO_Init+0x1c>
      }
    }
  }
}
 8000e70:	bf00      	nop
 8000e72:	bf00      	nop
 8000e74:	3724      	adds	r7, #36	@ 0x24
 8000e76:	46bd      	mov	sp, r7
 8000e78:	f85d 7b04 	ldr.w	r7, [sp], #4
 8000e7c:	4770      	bx	lr
 8000e7e:	bf00      	nop
 8000e80:	40023800 	.word	0x40023800
 8000e84:	40013800 	.word	0x40013800
 8000e88:	40020000 	.word	0x40020000
 8000e8c:	40020400 	.word	0x40020400
 8000e90:	40020800 	.word	0x40020800
 8000e94:	40020c00 	.word	0x40020c00
 8000e98:	40021000 	.word	0x40021000
 8000e9c:	40013c00 	.word	0x40013c00

08000ea0 <HAL_GPIO_WritePin>:
  *            @arg GPIO_PIN_RESET: to clear the port pin
  *            @arg GPIO_PIN_SET: to set the port pin
  * @retval None
  */
void HAL_GPIO_WritePin(GPIO_TypeDef* GPIOx, uint16_t GPIO_Pin, GPIO_PinState PinState)
{
 8000ea0:	b480      	push	{r7}
 8000ea2:	b083      	sub	sp, #12
 8000ea4:	af00      	add	r7, sp, #0
 8000ea6:	6078      	str	r0, [r7, #4]
 8000ea8:	460b      	mov	r3, r1
 8000eaa:	807b      	strh	r3, [r7, #2]
 8000eac:	4613      	mov	r3, r2
 8000eae:	707b      	strb	r3, [r7, #1]
  /* Check the parameters */
  assert_param(IS_GPIO_PIN(GPIO_Pin));
  assert_param(IS_GPIO_PIN_ACTION(PinState));

  if(PinState != GPIO_PIN_RESET)
 8000eb0:	787b      	ldrb	r3, [r7, #1]
 8000eb2:	2b00      	cmp	r3, #0
 8000eb4:	d003      	beq.n	8000ebe <HAL_GPIO_WritePin+0x1e>
  {
    GPIOx->BSRR = GPIO_Pin;
 8000eb6:	887a      	ldrh	r2, [r7, #2]
 8000eb8:	687b      	ldr	r3, [r7, #4]
 8000eba:	619a      	str	r2, [r3, #24]
  }
  else
  {
    GPIOx->BSRR = (uint32_t)GPIO_Pin << 16U;
  }
}
 8000ebc:	e003      	b.n	8000ec6 <HAL_GPIO_WritePin+0x26>
    GPIOx->BSRR = (uint32_t)GPIO_Pin << 16U;
 8000ebe:	887b      	ldrh	r3, [r7, #2]
 8000ec0:	041a      	lsls	r2, r3, #16
 8000ec2:	687b      	ldr	r3, [r7, #4]
 8000ec4:	619a      	str	r2, [r3, #24]
}
 8000ec6:	bf00      	nop
 8000ec8:	370c      	adds	r7, #12
 8000eca:	46bd      	mov	sp, r7
 8000ecc:	f85d 7b04 	ldr.w	r7, [sp], #4
 8000ed0:	4770      	bx	lr

08000ed2 <HAL_GPIO_TogglePin>:
  *                      x can be (A..I) to select the GPIO peripheral for STM32F40XX and STM32F427X devices.
  * @param  GPIO_Pin Specifies the pins to be toggled.
  * @retval None
  */
void HAL_GPIO_TogglePin(GPIO_TypeDef* GPIOx, uint16_t GPIO_Pin)
{
 8000ed2:	b480      	push	{r7}
 8000ed4:	b085      	sub	sp, #20
 8000ed6:	af00      	add	r7, sp, #0
 8000ed8:	6078      	str	r0, [r7, #4]
 8000eda:	460b      	mov	r3, r1
 8000edc:	807b      	strh	r3, [r7, #2]

  /* Check the parameters */
  assert_param(IS_GPIO_PIN(GPIO_Pin));

  /* get current Output Data Register value */
  odr = GPIOx->ODR;
 8000ede:	687b      	ldr	r3, [r7, #4]
 8000ee0:	695b      	ldr	r3, [r3, #20]
 8000ee2:	60fb      	str	r3, [r7, #12]

  /* Set selected pins that were at low level, and reset ones that were high */
  GPIOx->BSRR = ((odr & GPIO_Pin) << GPIO_NUMBER) | (~odr & GPIO_Pin);
 8000ee4:	887a      	ldrh	r2, [r7, #2]
 8000ee6:	68fb      	ldr	r3, [r7, #12]
 8000ee8:	4013      	ands	r3, r2
 8000eea:	041a      	lsls	r2, r3, #16
 8000eec:	68fb      	ldr	r3, [r7, #12]
 8000eee:	43d9      	mvns	r1, r3
 8000ef0:	887b      	ldrh	r3, [r7, #2]
 8000ef2:	400b      	ands	r3, r1
 8000ef4:	431a      	orrs	r2, r3
 8000ef6:	687b      	ldr	r3, [r7, #4]
 8000ef8:	619a      	str	r2, [r3, #24]
}
 8000efa:	bf00      	nop
 8000efc:	3714      	adds	r7, #20
 8000efe:	46bd      	mov	sp, r7
 8000f00:	f85d 7b04 	ldr.w	r7, [sp], #4
 8000f04:	4770      	bx	lr
	...

08000f08 <HAL_RCC_OscConfig>:
  *         supported by this API. User should request a transition to HSE Off
  *         first and then HSE On or HSE Bypass.
  * @retval HAL status
  */
__weak HAL_StatusTypeDef HAL_RCC_OscConfig(const RCC_OscInitTypeDef  *RCC_OscInitStruct)
{
 8000f08:	b580      	push	{r7, lr}
 8000f0a:	b086      	sub	sp, #24
 8000f0c:	af00      	add	r7, sp, #0
 8000f0e:	6078      	str	r0, [r7, #4]
  uint32_t tickstart;
  uint32_t pll_config;
  /* Check Null pointer */
  if (RCC_OscInitStruct == NULL)
 8000f10:	687b      	ldr	r3, [r7, #4]
 8000f12:	2b00      	cmp	r3, #0
 8000f14:	d101      	bne.n	8000f1a <HAL_RCC_OscConfig+0x12>
  {
    return HAL_ERROR;
 8000f16:	2301      	movs	r3, #1
 8000f18:	e267      	b.n	80013ea <HAL_RCC_OscConfig+0x4e2>
  }

  /* Check the parameters */
  assert_param(IS_RCC_OSCILLATORTYPE(RCC_OscInitStruct->OscillatorType));
  /*------------------------------- HSE Configuration ------------------------*/
  if (((RCC_OscInitStruct->OscillatorType) & RCC_OSCILLATORTYPE_HSE) == RCC_OSCILLATORTYPE_HSE)
 8000f1a:	687b      	ldr	r3, [r7, #4]
 8000f1c:	681b      	ldr	r3, [r3, #0]
 8000f1e:	f003 0301 	and.w	r3, r3, #1
 8000f22:	2b00      	cmp	r3, #0
 8000f24:	d075      	beq.n	8001012 <HAL_RCC_OscConfig+0x10a>
  {
    /* Check the parameters */
    assert_param(IS_RCC_HSE(RCC_OscInitStruct->HSEState));
    /* When the HSE is used as system clock or clock source for PLL in these cases HSE will not disabled */
    if ((__HAL_RCC_GET_SYSCLK_SOURCE() == RCC_CFGR_SWS_HSE) || \
 8000f26:	4b88      	ldr	r3, [pc, #544]	@ (8001148 <HAL_RCC_OscConfig+0x240>)
 8000f28:	689b      	ldr	r3, [r3, #8]
 8000f2a:	f003 030c 	and.w	r3, r3, #12
 8000f2e:	2b04      	cmp	r3, #4
 8000f30:	d00c      	beq.n	8000f4c <HAL_RCC_OscConfig+0x44>
        ((__HAL_RCC_GET_SYSCLK_SOURCE() == RCC_CFGR_SWS_PLL) && ((RCC->PLLCFGR & RCC_PLLCFGR_PLLSRC) == RCC_PLLCFGR_PLLSRC_HSE)))
 8000f32:	4b85      	ldr	r3, [pc, #532]	@ (8001148 <HAL_RCC_OscConfig+0x240>)
 8000f34:	689b      	ldr	r3, [r3, #8]
 8000f36:	f003 030c 	and.w	r3, r3, #12
    if ((__HAL_RCC_GET_SYSCLK_SOURCE() == RCC_CFGR_SWS_HSE) || \
 8000f3a:	2b08      	cmp	r3, #8
 8000f3c:	d112      	bne.n	8000f64 <HAL_RCC_OscConfig+0x5c>
        ((__HAL_RCC_GET_SYSCLK_SOURCE() == RCC_CFGR_SWS_PLL) && ((RCC->PLLCFGR & RCC_PLLCFGR_PLLSRC) == RCC_PLLCFGR_PLLSRC_HSE)))
 8000f3e:	4b82      	ldr	r3, [pc, #520]	@ (8001148 <HAL_RCC_OscConfig+0x240>)
 8000f40:	685b      	ldr	r3, [r3, #4]
 8000f42:	f403 0380 	and.w	r3, r3, #4194304	@ 0x400000
 8000f46:	f5b3 0f80 	cmp.w	r3, #4194304	@ 0x400000
 8000f4a:	d10b      	bne.n	8000f64 <HAL_RCC_OscConfig+0x5c>
    {
      if ((__HAL_RCC_GET_FLAG(RCC_FLAG_HSERDY) != RESET) && (RCC_OscInitStruct->HSEState == RCC_HSE_OFF))
 8000f4c:	4b7e      	ldr	r3, [pc, #504]	@ (8001148 <HAL_RCC_OscConfig+0x240>)
 8000f4e:	681b      	ldr	r3, [r3, #0]
 8000f50:	f403 3300 	and.w	r3, r3, #131072	@ 0x20000
 8000f54:	2b00      	cmp	r3, #0
 8000f56:	d05b      	beq.n	8001010 <HAL_RCC_OscConfig+0x108>
 8000f58:	687b      	ldr	r3, [r7, #4]
 8000f5a:	685b      	ldr	r3, [r3, #4]
 8000f5c:	2b00      	cmp	r3, #0
 8000f5e:	d157      	bne.n	8001010 <HAL_RCC_OscConfig+0x108>
      {
        return HAL_ERROR;
 8000f60:	2301      	movs	r3, #1
 8000f62:	e242      	b.n	80013ea <HAL_RCC_OscConfig+0x4e2>
      }
    }
    else
    {
      /* Set the new HSE configuration ---------------------------------------*/
      __HAL_RCC_HSE_CONFIG(RCC_OscInitStruct->HSEState);
 8000f64:	687b      	ldr	r3, [r7, #4]
 8000f66:	685b      	ldr	r3, [r3, #4]
 8000f68:	f5b3 3f80 	cmp.w	r3, #65536	@ 0x10000
 8000f6c:	d106      	bne.n	8000f7c <HAL_RCC_OscConfig+0x74>
 8000f6e:	4b76      	ldr	r3, [pc, #472]	@ (8001148 <HAL_RCC_OscConfig+0x240>)
 8000f70:	681b      	ldr	r3, [r3, #0]
 8000f72:	4a75      	ldr	r2, [pc, #468]	@ (8001148 <HAL_RCC_OscConfig+0x240>)
 8000f74:	f443 3380 	orr.w	r3, r3, #65536	@ 0x10000
 8000f78:	6013      	str	r3, [r2, #0]
 8000f7a:	e01d      	b.n	8000fb8 <HAL_RCC_OscConfig+0xb0>
 8000f7c:	687b      	ldr	r3, [r7, #4]
 8000f7e:	685b      	ldr	r3, [r3, #4]
 8000f80:	f5b3 2fa0 	cmp.w	r3, #327680	@ 0x50000
 8000f84:	d10c      	bne.n	8000fa0 <HAL_RCC_OscConfig+0x98>
 8000f86:	4b70      	ldr	r3, [pc, #448]	@ (8001148 <HAL_RCC_OscConfig+0x240>)
 8000f88:	681b      	ldr	r3, [r3, #0]
 8000f8a:	4a6f      	ldr	r2, [pc, #444]	@ (8001148 <HAL_RCC_OscConfig+0x240>)
 8000f8c:	f443 2380 	orr.w	r3, r3, #262144	@ 0x40000
 8000f90:	6013      	str	r3, [r2, #0]
 8000f92:	4b6d      	ldr	r3, [pc, #436]	@ (8001148 <HAL_RCC_OscConfig+0x240>)
 8000f94:	681b      	ldr	r3, [r3, #0]
 8000f96:	4a6c      	ldr	r2, [pc, #432]	@ (8001148 <HAL_RCC_OscConfig+0x240>)
 8000f98:	f443 3380 	orr.w	r3, r3, #65536	@ 0x10000
 8000f9c:	6013      	str	r3, [r2, #0]
 8000f9e:	e00b      	b.n	8000fb8 <HAL_RCC_OscConfig+0xb0>
 8000fa0:	4b69      	ldr	r3, [pc, #420]	@ (8001148 <HAL_RCC_OscConfig+0x240>)
 8000fa2:	681b      	ldr	r3, [r3, #0]
 8000fa4:	4a68      	ldr	r2, [pc, #416]	@ (8001148 <HAL_RCC_OscConfig+0x240>)
 8000fa6:	f423 3380 	bic.w	r3, r3, #65536	@ 0x10000
 8000faa:	6013      	str	r3, [r2, #0]
 8000fac:	4b66      	ldr	r3, [pc, #408]	@ (8001148 <HAL_RCC_OscConfig+0x240>)
 8000fae:	681b      	ldr	r3, [r3, #0]
 8000fb0:	4a65      	ldr	r2, [pc, #404]	@ (8001148 <HAL_RCC_OscConfig+0x240>)
 8000fb2:	f423 2380 	bic.w	r3, r3, #262144	@ 0x40000
 8000fb6:	6013      	str	r3, [r2, #0]

      /* Check the HSE State */
      if ((RCC_OscInitStruct->HSEState) != RCC_HSE_OFF)
 8000fb8:	687b      	ldr	r3, [r7, #4]
 8000fba:	685b      	ldr	r3, [r3, #4]
 8000fbc:	2b00      	cmp	r3, #0
 8000fbe:	d013      	beq.n	8000fe8 <HAL_RCC_OscConfig+0xe0>
      {
        /* Get Start Tick */
        tickstart = HAL_GetTick();
 8000fc0:	f7ff fcd4 	bl	800096c <HAL_GetTick>
 8000fc4:	6138      	str	r0, [r7, #16]

        /* Wait till HSE is ready */
        while (__HAL_RCC_GET_FLAG(RCC_FLAG_HSERDY) == RESET)
 8000fc6:	e008      	b.n	8000fda <HAL_RCC_OscConfig+0xd2>
        {
          if ((HAL_GetTick() - tickstart) > HSE_TIMEOUT_VALUE)
 8000fc8:	f7ff fcd0 	bl	800096c <HAL_GetTick>
 8000fcc:	4602      	mov	r2, r0
 8000fce:	693b      	ldr	r3, [r7, #16]
 8000fd0:	1ad3      	subs	r3, r2, r3
 8000fd2:	2b64      	cmp	r3, #100	@ 0x64
 8000fd4:	d901      	bls.n	8000fda <HAL_RCC_OscConfig+0xd2>
          {
            return HAL_TIMEOUT;
 8000fd6:	2303      	movs	r3, #3
 8000fd8:	e207      	b.n	80013ea <HAL_RCC_OscConfig+0x4e2>
        while (__HAL_RCC_GET_FLAG(RCC_FLAG_HSERDY) == RESET)
 8000fda:	4b5b      	ldr	r3, [pc, #364]	@ (8001148 <HAL_RCC_OscConfig+0x240>)
 8000fdc:	681b      	ldr	r3, [r3, #0]
 8000fde:	f403 3300 	and.w	r3, r3, #131072	@ 0x20000
 8000fe2:	2b00      	cmp	r3, #0
 8000fe4:	d0f0      	beq.n	8000fc8 <HAL_RCC_OscConfig+0xc0>
 8000fe6:	e014      	b.n	8001012 <HAL_RCC_OscConfig+0x10a>
        }
      }
      else
      {
        /* Get Start Tick */
        tickstart = HAL_GetTick();
 8000fe8:	f7ff fcc0 	bl	800096c <HAL_GetTick>
 8000fec:	6138      	str	r0, [r7, #16]

        /* Wait till HSE is bypassed or disabled */
        while (__HAL_RCC_GET_FLAG(RCC_FLAG_HSERDY) != RESET)
 8000fee:	e008      	b.n	8001002 <HAL_RCC_OscConfig+0xfa>
        {
          if ((HAL_GetTick() - tickstart) > HSE_TIMEOUT_VALUE)
 8000ff0:	f7ff fcbc 	bl	800096c <HAL_GetTick>
 8000ff4:	4602      	mov	r2, r0
 8000ff6:	693b      	ldr	r3, [r7, #16]
 8000ff8:	1ad3      	subs	r3, r2, r3
 8000ffa:	2b64      	cmp	r3, #100	@ 0x64
 8000ffc:	d901      	bls.n	8001002 <HAL_RCC_OscConfig+0xfa>
          {
            return HAL_TIMEOUT;
 8000ffe:	2303      	movs	r3, #3
 8001000:	e1f3      	b.n	80013ea <HAL_RCC_OscConfig+0x4e2>
        while (__HAL_RCC_GET_FLAG(RCC_FLAG_HSERDY) != RESET)
 8001002:	4b51      	ldr	r3, [pc, #324]	@ (8001148 <HAL_RCC_OscConfig+0x240>)
 8001004:	681b      	ldr	r3, [r3, #0]
 8001006:	f403 3300 	and.w	r3, r3, #131072	@ 0x20000
 800100a:	2b00      	cmp	r3, #0
 800100c:	d1f0      	bne.n	8000ff0 <HAL_RCC_OscConfig+0xe8>
 800100e:	e000      	b.n	8001012 <HAL_RCC_OscConfig+0x10a>
      if ((__HAL_RCC_GET_FLAG(RCC_FLAG_HSERDY) != RESET) && (RCC_OscInitStruct->HSEState == RCC_HSE_OFF))
 8001010:	bf00      	nop
        }
      }
    }
  }
  /*----------------------------- HSI Configuration --------------------------*/
  if (((RCC_OscInitStruct->OscillatorType) & RCC_OSCILLATORTYPE_HSI) == RCC_OSCILLATORTYPE_HSI)
 8001012:	687b      	ldr	r3, [r7, #4]
 8001014:	681b      	ldr	r3, [r3, #0]
 8001016:	f003 0302 	and.w	r3, r3, #2
 800101a:	2b00      	cmp	r3, #0
 800101c:	d063      	beq.n	80010e6 <HAL_RCC_OscConfig+0x1de>
    /* Check the parameters */
    assert_param(IS_RCC_HSI(RCC_OscInitStruct->HSIState));
    assert_param(IS_RCC_CALIBRATION_VALUE(RCC_OscInitStruct->HSICalibrationValue));

    /* Check if HSI is used as system clock or as PLL source when PLL is selected as system clock */
    if ((__HAL_RCC_GET_SYSCLK_SOURCE() == RCC_CFGR_SWS_HSI) || \
 800101e:	4b4a      	ldr	r3, [pc, #296]	@ (8001148 <HAL_RCC_OscConfig+0x240>)
 8001020:	689b      	ldr	r3, [r3, #8]
 8001022:	f003 030c 	and.w	r3, r3, #12
 8001026:	2b00      	cmp	r3, #0
 8001028:	d00b      	beq.n	8001042 <HAL_RCC_OscConfig+0x13a>
        ((__HAL_RCC_GET_SYSCLK_SOURCE() == RCC_CFGR_SWS_PLL) && ((RCC->PLLCFGR & RCC_PLLCFGR_PLLSRC) == RCC_PLLCFGR_PLLSRC_HSI)))
 800102a:	4b47      	ldr	r3, [pc, #284]	@ (8001148 <HAL_RCC_OscConfig+0x240>)
 800102c:	689b      	ldr	r3, [r3, #8]
 800102e:	f003 030c 	and.w	r3, r3, #12
    if ((__HAL_RCC_GET_SYSCLK_SOURCE() == RCC_CFGR_SWS_HSI) || \
 8001032:	2b08      	cmp	r3, #8
 8001034:	d11c      	bne.n	8001070 <HAL_RCC_OscConfig+0x168>
        ((__HAL_RCC_GET_SYSCLK_SOURCE() == RCC_CFGR_SWS_PLL) && ((RCC->PLLCFGR & RCC_PLLCFGR_PLLSRC) == RCC_PLLCFGR_PLLSRC_HSI)))
 8001036:	4b44      	ldr	r3, [pc, #272]	@ (8001148 <HAL_RCC_OscConfig+0x240>)
 8001038:	685b      	ldr	r3, [r3, #4]
 800103a:	f403 0380 	and.w	r3, r3, #4194304	@ 0x400000
 800103e:	2b00      	cmp	r3, #0
 8001040:	d116      	bne.n	8001070 <HAL_RCC_OscConfig+0x168>
    {
      /* When HSI is used as system clock it will not disabled */
      if ((__HAL_RCC_GET_FLAG(RCC_FLAG_HSIRDY) != RESET) && (RCC_OscInitStruct->HSIState != RCC_HSI_ON))
 8001042:	4b41      	ldr	r3, [pc, #260]	@ (8001148 <HAL_RCC_OscConfig+0x240>)
 8001044:	681b      	ldr	r3, [r3, #0]
 8001046:	f003 0302 	and.w	r3, r3, #2
 800104a:	2b00      	cmp	r3, #0
 800104c:	d005      	beq.n	800105a <HAL_RCC_OscConfig+0x152>
 800104e:	687b      	ldr	r3, [r7, #4]
 8001050:	68db      	ldr	r3, [r3, #12]
 8001052:	2b01      	cmp	r3, #1
 8001054:	d001      	beq.n	800105a <HAL_RCC_OscConfig+0x152>
      {
        return HAL_ERROR;
 8001056:	2301      	movs	r3, #1
 8001058:	e1c7      	b.n	80013ea <HAL_RCC_OscConfig+0x4e2>
      }
      /* Otherwise, just the calibration is allowed */
      else
      {
        /* Adjusts the Internal High Speed oscillator (HSI) calibration value.*/
        __HAL_RCC_HSI_CALIBRATIONVALUE_ADJUST(RCC_OscInitStruct->HSICalibrationValue);
 800105a:	4b3b      	ldr	r3, [pc, #236]	@ (8001148 <HAL_RCC_OscConfig+0x240>)
 800105c:	681b      	ldr	r3, [r3, #0]
 800105e:	f023 02f8 	bic.w	r2, r3, #248	@ 0xf8
 8001062:	687b      	ldr	r3, [r7, #4]
 8001064:	691b      	ldr	r3, [r3, #16]
 8001066:	00db      	lsls	r3, r3, #3
 8001068:	4937      	ldr	r1, [pc, #220]	@ (8001148 <HAL_RCC_OscConfig+0x240>)
 800106a:	4313      	orrs	r3, r2
 800106c:	600b      	str	r3, [r1, #0]
      if ((__HAL_RCC_GET_FLAG(RCC_FLAG_HSIRDY) != RESET) && (RCC_OscInitStruct->HSIState != RCC_HSI_ON))
 800106e:	e03a      	b.n	80010e6 <HAL_RCC_OscConfig+0x1de>
      }
    }
    else
    {
      /* Check the HSI State */
      if ((RCC_OscInitStruct->HSIState) != RCC_HSI_OFF)
 8001070:	687b      	ldr	r3, [r7, #4]
 8001072:	68db      	ldr	r3, [r3, #12]
 8001074:	2b00      	cmp	r3, #0
 8001076:	d020      	beq.n	80010ba <HAL_RCC_OscConfig+0x1b2>
      {
        /* Enable the Internal High Speed oscillator (HSI). */
        __HAL_RCC_HSI_ENABLE();
 8001078:	4b34      	ldr	r3, [pc, #208]	@ (800114c <HAL_RCC_OscConfig+0x244>)
 800107a:	2201      	movs	r2, #1
 800107c:	601a      	str	r2, [r3, #0]

        /* Get Start Tick*/
        tickstart = HAL_GetTick();
 800107e:	f7ff fc75 	bl	800096c <HAL_GetTick>
 8001082:	6138      	str	r0, [r7, #16]

        /* Wait till HSI is ready */
        while (__HAL_RCC_GET_FLAG(RCC_FLAG_HSIRDY) == RESET)
 8001084:	e008      	b.n	8001098 <HAL_RCC_OscConfig+0x190>
        {
          if ((HAL_GetTick() - tickstart) > HSI_TIMEOUT_VALUE)
 8001086:	f7ff fc71 	bl	800096c <HAL_GetTick>
 800108a:	4602      	mov	r2, r0
 800108c:	693b      	ldr	r3, [r7, #16]
 800108e:	1ad3      	subs	r3, r2, r3
 8001090:	2b02      	cmp	r3, #2
 8001092:	d901      	bls.n	8001098 <HAL_RCC_OscConfig+0x190>
          {
            return HAL_TIMEOUT;
 8001094:	2303      	movs	r3, #3
 8001096:	e1a8      	b.n	80013ea <HAL_RCC_OscConfig+0x4e2>
        while (__HAL_RCC_GET_FLAG(RCC_FLAG_HSIRDY) == RESET)
 8001098:	4b2b      	ldr	r3, [pc, #172]	@ (8001148 <HAL_RCC_OscConfig+0x240>)
 800109a:	681b      	ldr	r3, [r3, #0]
 800109c:	f003 0302 	and.w	r3, r3, #2
 80010a0:	2b00      	cmp	r3, #0
 80010a2:	d0f0      	beq.n	8001086 <HAL_RCC_OscConfig+0x17e>
          }
        }

        /* Adjusts the Internal High Speed oscillator (HSI) calibration value. */
        __HAL_RCC_HSI_CALIBRATIONVALUE_ADJUST(RCC_OscInitStruct->HSICalibrationValue);
 80010a4:	4b28      	ldr	r3, [pc, #160]	@ (8001148 <HAL_RCC_OscConfig+0x240>)
 80010a6:	681b      	ldr	r3, [r3, #0]
 80010a8:	f023 02f8 	bic.w	r2, r3, #248	@ 0xf8
 80010ac:	687b      	ldr	r3, [r7, #4]
 80010ae:	691b      	ldr	r3, [r3, #16]
 80010b0:	00db      	lsls	r3, r3, #3
 80010b2:	4925      	ldr	r1, [pc, #148]	@ (8001148 <HAL_RCC_OscConfig+0x240>)
 80010b4:	4313      	orrs	r3, r2
 80010b6:	600b      	str	r3, [r1, #0]
 80010b8:	e015      	b.n	80010e6 <HAL_RCC_OscConfig+0x1de>
      }
      else
      {
        /* Disable the Internal High Speed oscillator (HSI). */
        __HAL_RCC_HSI_DISABLE();
 80010ba:	4b24      	ldr	r3, [pc, #144]	@ (800114c <HAL_RCC_OscConfig+0x244>)
 80010bc:	2200      	movs	r2, #0
 80010be:	601a      	str	r2, [r3, #0]

        /* Get Start Tick*/
        tickstart = HAL_GetTick();
 80010c0:	f7ff fc54 	bl	800096c <HAL_GetTick>
 80010c4:	6138      	str	r0, [r7, #16]

        /* Wait till HSI is ready */
        while (__HAL_RCC_GET_FLAG(RCC_FLAG_HSIRDY) != RESET)
 80010c6:	e008      	b.n	80010da <HAL_RCC_OscConfig+0x1d2>
        {
          if ((HAL_GetTick() - tickstart) > HSI_TIMEOUT_VALUE)
 80010c8:	f7ff fc50 	bl	800096c <HAL_GetTick>
 80010cc:	4602      	mov	r2, r0
 80010ce:	693b      	ldr	r3, [r7, #16]
 80010d0:	1ad3      	subs	r3, r2, r3
 80010d2:	2b02      	cmp	r3, #2
 80010d4:	d901      	bls.n	80010da <HAL_RCC_OscConfig+0x1d2>
          {
            return HAL_TIMEOUT;
 80010d6:	2303      	movs	r3, #3
 80010d8:	e187      	b.n	80013ea <HAL_RCC_OscConfig+0x4e2>
        while (__HAL_RCC_GET_FLAG(RCC_FLAG_HSIRDY) != RESET)
 80010da:	4b1b      	ldr	r3, [pc, #108]	@ (8001148 <HAL_RCC_OscConfig+0x240>)
 80010dc:	681b      	ldr	r3, [r3, #0]
 80010de:	f003 0302 	and.w	r3, r3, #2
 80010e2:	2b00      	cmp	r3, #0
 80010e4:	d1f0      	bne.n	80010c8 <HAL_RCC_OscConfig+0x1c0>
        }
      }
    }
  }
  /*------------------------------ LSI Configuration -------------------------*/
  if (((RCC_OscInitStruct->OscillatorType) & RCC_OSCILLATORTYPE_LSI) == RCC_OSCILLATORTYPE_LSI)
 80010e6:	687b      	ldr	r3, [r7, #4]
 80010e8:	681b      	ldr	r3, [r3, #0]
 80010ea:	f003 0308 	and.w	r3, r3, #8
 80010ee:	2b00      	cmp	r3, #0
 80010f0:	d036      	beq.n	8001160 <HAL_RCC_OscConfig+0x258>
  {
    /* Check the parameters */
    assert_param(IS_RCC_LSI(RCC_OscInitStruct->LSIState));

    /* Check the LSI State */
    if ((RCC_OscInitStruct->LSIState) != RCC_LSI_OFF)
 80010f2:	687b      	ldr	r3, [r7, #4]
 80010f4:	695b      	ldr	r3, [r3, #20]
 80010f6:	2b00      	cmp	r3, #0
 80010f8:	d016      	beq.n	8001128 <HAL_RCC_OscConfig+0x220>
    {
      /* Enable the Internal Low Speed oscillator (LSI). */
      __HAL_RCC_LSI_ENABLE();
 80010fa:	4b15      	ldr	r3, [pc, #84]	@ (8001150 <HAL_RCC_OscConfig+0x248>)
 80010fc:	2201      	movs	r2, #1
 80010fe:	601a      	str	r2, [r3, #0]

      /* Get Start Tick*/
      tickstart = HAL_GetTick();
 8001100:	f7ff fc34 	bl	800096c <HAL_GetTick>
 8001104:	6138      	str	r0, [r7, #16]

      /* Wait till LSI is ready */
      while (__HAL_RCC_GET_FLAG(RCC_FLAG_LSIRDY) == RESET)
 8001106:	e008      	b.n	800111a <HAL_RCC_OscConfig+0x212>
      {
        if ((HAL_GetTick() - tickstart) > LSI_TIMEOUT_VALUE)
 8001108:	f7ff fc30 	bl	800096c <HAL_GetTick>
 800110c:	4602      	mov	r2, r0
 800110e:	693b      	ldr	r3, [r7, #16]
 8001110:	1ad3      	subs	r3, r2, r3
 8001112:	2b02      	cmp	r3, #2
 8001114:	d901      	bls.n	800111a <HAL_RCC_OscConfig+0x212>
        {
          return HAL_TIMEOUT;
 8001116:	2303      	movs	r3, #3
 8001118:	e167      	b.n	80013ea <HAL_RCC_OscConfig+0x4e2>
      while (__HAL_RCC_GET_FLAG(RCC_FLAG_LSIRDY) == RESET)
 800111a:	4b0b      	ldr	r3, [pc, #44]	@ (8001148 <HAL_RCC_OscConfig+0x240>)
 800111c:	6f5b      	ldr	r3, [r3, #116]	@ 0x74
 800111e:	f003 0302 	and.w	r3, r3, #2
 8001122:	2b00      	cmp	r3, #0
 8001124:	d0f0      	beq.n	8001108 <HAL_RCC_OscConfig+0x200>
 8001126:	e01b      	b.n	8001160 <HAL_RCC_OscConfig+0x258>
      }
    }
    else
    {
      /* Disable the Internal Low Speed oscillator (LSI). */
      __HAL_RCC_LSI_DISABLE();
 8001128:	4b09      	ldr	r3, [pc, #36]	@ (8001150 <HAL_RCC_OscConfig+0x248>)
 800112a:	2200      	movs	r2, #0
 800112c:	601a      	str	r2, [r3, #0]

      /* Get Start Tick */
      tickstart = HAL_GetTick();
 800112e:	f7ff fc1d 	bl	800096c <HAL_GetTick>
 8001132:	6138      	str	r0, [r7, #16]

      /* Wait till LSI is ready */
      while (__HAL_RCC_GET_FLAG(RCC_FLAG_LSIRDY) != RESET)
 8001134:	e00e      	b.n	8001154 <HAL_RCC_OscConfig+0x24c>
      {
        if ((HAL_GetTick() - tickstart) > LSI_TIMEOUT_VALUE)
 8001136:	f7ff fc19 	bl	800096c <HAL_GetTick>
 800113a:	4602      	mov	r2, r0
 800113c:	693b      	ldr	r3, [r7, #16]
 800113e:	1ad3      	subs	r3, r2, r3
 8001140:	2b02      	cmp	r3, #2
 8001142:	d907      	bls.n	8001154 <HAL_RCC_OscConfig+0x24c>
        {
          return HAL_TIMEOUT;
 8001144:	2303      	movs	r3, #3
 8001146:	e150      	b.n	80013ea <HAL_RCC_OscConfig+0x4e2>
 8001148:	40023800 	.word	0x40023800
 800114c:	42470000 	.word	0x42470000
 8001150:	42470e80 	.word	0x42470e80
      while (__HAL_RCC_GET_FLAG(RCC_FLAG_LSIRDY) != RESET)
 8001154:	4b88      	ldr	r3, [pc, #544]	@ (8001378 <HAL_RCC_OscConfig+0x470>)
 8001156:	6f5b      	ldr	r3, [r3, #116]	@ 0x74
 8001158:	f003 0302 	and.w	r3, r3, #2
 800115c:	2b00      	cmp	r3, #0
 800115e:	d1ea      	bne.n	8001136 <HAL_RCC_OscConfig+0x22e>
        }
      }
    }
  }
  /*------------------------------ LSE Configuration -------------------------*/
  if (((RCC_OscInitStruct->OscillatorType) & RCC_OSCILLATORTYPE_LSE) == RCC_OSCILLATORTYPE_LSE)
 8001160:	687b      	ldr	r3, [r7, #4]
 8001162:	681b      	ldr	r3, [r3, #0]
 8001164:	f003 0304 	and.w	r3, r3, #4
 8001168:	2b00      	cmp	r3, #0
 800116a:	f000 8097 	beq.w	800129c <HAL_RCC_OscConfig+0x394>
  {
    FlagStatus       pwrclkchanged = RESET;
 800116e:	2300      	movs	r3, #0
 8001170:	75fb      	strb	r3, [r7, #23]
    /* Check the parameters */
    assert_param(IS_RCC_LSE(RCC_OscInitStruct->LSEState));

    /* Update LSE configuration in Backup Domain control register    */
    /* Requires to enable write access to Backup Domain of necessary */
    if (__HAL_RCC_PWR_IS_CLK_DISABLED())
 8001172:	4b81      	ldr	r3, [pc, #516]	@ (8001378 <HAL_RCC_OscConfig+0x470>)
 8001174:	6c1b      	ldr	r3, [r3, #64]	@ 0x40
 8001176:	f003 5380 	and.w	r3, r3, #268435456	@ 0x10000000
 800117a:	2b00      	cmp	r3, #0
 800117c:	d10f      	bne.n	800119e <HAL_RCC_OscConfig+0x296>
    {
      __HAL_RCC_PWR_CLK_ENABLE();
 800117e:	2300      	movs	r3, #0
 8001180:	60bb      	str	r3, [r7, #8]
 8001182:	4b7d      	ldr	r3, [pc, #500]	@ (8001378 <HAL_RCC_OscConfig+0x470>)
 8001184:	6c1b      	ldr	r3, [r3, #64]	@ 0x40
 8001186:	4a7c      	ldr	r2, [pc, #496]	@ (8001378 <HAL_RCC_OscConfig+0x470>)
 8001188:	f043 5380 	orr.w	r3, r3, #268435456	@ 0x10000000
 800118c:	6413      	str	r3, [r2, #64]	@ 0x40
 800118e:	4b7a      	ldr	r3, [pc, #488]	@ (8001378 <HAL_RCC_OscConfig+0x470>)
 8001190:	6c1b      	ldr	r3, [r3, #64]	@ 0x40
 8001192:	f003 5380 	and.w	r3, r3, #268435456	@ 0x10000000
 8001196:	60bb      	str	r3, [r7, #8]
 8001198:	68bb      	ldr	r3, [r7, #8]
      pwrclkchanged = SET;
 800119a:	2301      	movs	r3, #1
 800119c:	75fb      	strb	r3, [r7, #23]
    }

    if (HAL_IS_BIT_CLR(PWR->CR, PWR_CR_DBP))
 800119e:	4b77      	ldr	r3, [pc, #476]	@ (800137c <HAL_RCC_OscConfig+0x474>)
 80011a0:	681b      	ldr	r3, [r3, #0]
 80011a2:	f403 7380 	and.w	r3, r3, #256	@ 0x100
 80011a6:	2b00      	cmp	r3, #0
 80011a8:	d118      	bne.n	80011dc <HAL_RCC_OscConfig+0x2d4>
    {
      /* Enable write access to Backup domain */
      SET_BIT(PWR->CR, PWR_CR_DBP);
 80011aa:	4b74      	ldr	r3, [pc, #464]	@ (800137c <HAL_RCC_OscConfig+0x474>)
 80011ac:	681b      	ldr	r3, [r3, #0]
 80011ae:	4a73      	ldr	r2, [pc, #460]	@ (800137c <HAL_RCC_OscConfig+0x474>)
 80011b0:	f443 7380 	orr.w	r3, r3, #256	@ 0x100
 80011b4:	6013      	str	r3, [r2, #0]

      /* Wait for Backup domain Write protection disable */
      tickstart = HAL_GetTick();
 80011b6:	f7ff fbd9 	bl	800096c <HAL_GetTick>
 80011ba:	6138      	str	r0, [r7, #16]

      while (HAL_IS_BIT_CLR(PWR->CR, PWR_CR_DBP))
 80011bc:	e008      	b.n	80011d0 <HAL_RCC_OscConfig+0x2c8>
      {
        if ((HAL_GetTick() - tickstart) > RCC_DBP_TIMEOUT_VALUE)
 80011be:	f7ff fbd5 	bl	800096c <HAL_GetTick>
 80011c2:	4602      	mov	r2, r0
 80011c4:	693b      	ldr	r3, [r7, #16]
 80011c6:	1ad3      	subs	r3, r2, r3
 80011c8:	2b02      	cmp	r3, #2
 80011ca:	d901      	bls.n	80011d0 <HAL_RCC_OscConfig+0x2c8>
        {
          return HAL_TIMEOUT;
 80011cc:	2303      	movs	r3, #3
 80011ce:	e10c      	b.n	80013ea <HAL_RCC_OscConfig+0x4e2>
      while (HAL_IS_BIT_CLR(PWR->CR, PWR_CR_DBP))
 80011d0:	4b6a      	ldr	r3, [pc, #424]	@ (800137c <HAL_RCC_OscConfig+0x474>)
 80011d2:	681b      	ldr	r3, [r3, #0]
 80011d4:	f403 7380 	and.w	r3, r3, #256	@ 0x100
 80011d8:	2b00      	cmp	r3, #0
 80011da:	d0f0      	beq.n	80011be <HAL_RCC_OscConfig+0x2b6>
        }
      }
    }

    /* Set the new LSE configuration -----------------------------------------*/
    __HAL_RCC_LSE_CONFIG(RCC_OscInitStruct->LSEState);
 80011dc:	687b      	ldr	r3, [r7, #4]
 80011de:	689b      	ldr	r3, [r3, #8]
 80011e0:	2b01      	cmp	r3, #1
 80011e2:	d106      	bne.n	80011f2 <HAL_RCC_OscConfig+0x2ea>
 80011e4:	4b64      	ldr	r3, [pc, #400]	@ (8001378 <HAL_RCC_OscConfig+0x470>)
 80011e6:	6f1b      	ldr	r3, [r3, #112]	@ 0x70
 80011e8:	4a63      	ldr	r2, [pc, #396]	@ (8001378 <HAL_RCC_OscConfig+0x470>)
 80011ea:	f043 0301 	orr.w	r3, r3, #1
 80011ee:	6713      	str	r3, [r2, #112]	@ 0x70
 80011f0:	e01c      	b.n	800122c <HAL_RCC_OscConfig+0x324>
 80011f2:	687b      	ldr	r3, [r7, #4]
 80011f4:	689b      	ldr	r3, [r3, #8]
 80011f6:	2b05      	cmp	r3, #5
 80011f8:	d10c      	bne.n	8001214 <HAL_RCC_OscConfig+0x30c>
 80011fa:	4b5f      	ldr	r3, [pc, #380]	@ (8001378 <HAL_RCC_OscConfig+0x470>)
 80011fc:	6f1b      	ldr	r3, [r3, #112]	@ 0x70
 80011fe:	4a5e      	ldr	r2, [pc, #376]	@ (8001378 <HAL_RCC_OscConfig+0x470>)
 8001200:	f043 0304 	orr.w	r3, r3, #4
 8001204:	6713      	str	r3, [r2, #112]	@ 0x70
 8001206:	4b5c      	ldr	r3, [pc, #368]	@ (8001378 <HAL_RCC_OscConfig+0x470>)
 8001208:	6f1b      	ldr	r3, [r3, #112]	@ 0x70
 800120a:	4a5b      	ldr	r2, [pc, #364]	@ (8001378 <HAL_RCC_OscConfig+0x470>)
 800120c:	f043 0301 	orr.w	r3, r3, #1
 8001210:	6713      	str	r3, [r2, #112]	@ 0x70
 8001212:	e00b      	b.n	800122c <HAL_RCC_OscConfig+0x324>
 8001214:	4b58      	ldr	r3, [pc, #352]	@ (8001378 <HAL_RCC_OscConfig+0x470>)
 8001216:	6f1b      	ldr	r3, [r3, #112]	@ 0x70
 8001218:	4a57      	ldr	r2, [pc, #348]	@ (8001378 <HAL_RCC_OscConfig+0x470>)
 800121a:	f023 0301 	bic.w	r3, r3, #1
 800121e:	6713      	str	r3, [r2, #112]	@ 0x70
 8001220:	4b55      	ldr	r3, [pc, #340]	@ (8001378 <HAL_RCC_OscConfig+0x470>)
 8001222:	6f1b      	ldr	r3, [r3, #112]	@ 0x70
 8001224:	4a54      	ldr	r2, [pc, #336]	@ (8001378 <HAL_RCC_OscConfig+0x470>)
 8001226:	f023 0304 	bic.w	r3, r3, #4
 800122a:	6713      	str	r3, [r2, #112]	@ 0x70
    /* Check the LSE State */
    if ((RCC_OscInitStruct->LSEState) != RCC_LSE_OFF)
 800122c:	687b      	ldr	r3, [r7, #4]
 800122e:	689b      	ldr	r3, [r3, #8]
 8001230:	2b00      	cmp	r3, #0
 8001232:	d015      	beq.n	8001260 <HAL_RCC_OscConfig+0x358>
    {
      /* Get Start Tick*/
      tickstart = HAL_GetTick();
 8001234:	f7ff fb9a 	bl	800096c <HAL_GetTick>
 8001238:	6138      	str	r0, [r7, #16]

      /* Wait till LSE is ready */
      while (__HAL_RCC_GET_FLAG(RCC_FLAG_LSERDY) == RESET)
 800123a:	e00a      	b.n	8001252 <HAL_RCC_OscConfig+0x34a>
      {
        if ((HAL_GetTick() - tickstart) > RCC_LSE_TIMEOUT_VALUE)
 800123c:	f7ff fb96 	bl	800096c <HAL_GetTick>
 8001240:	4602      	mov	r2, r0
 8001242:	693b      	ldr	r3, [r7, #16]
 8001244:	1ad3      	subs	r3, r2, r3
 8001246:	f241 3288 	movw	r2, #5000	@ 0x1388
 800124a:	4293      	cmp	r3, r2
 800124c:	d901      	bls.n	8001252 <HAL_RCC_OscConfig+0x34a>
        {
          return HAL_TIMEOUT;
 800124e:	2303      	movs	r3, #3
 8001250:	e0cb      	b.n	80013ea <HAL_RCC_OscConfig+0x4e2>
      while (__HAL_RCC_GET_FLAG(RCC_FLAG_LSERDY) == RESET)
 8001252:	4b49      	ldr	r3, [pc, #292]	@ (8001378 <HAL_RCC_OscConfig+0x470>)
 8001254:	6f1b      	ldr	r3, [r3, #112]	@ 0x70
 8001256:	f003 0302 	and.w	r3, r3, #2
 800125a:	2b00      	cmp	r3, #0
 800125c:	d0ee      	beq.n	800123c <HAL_RCC_OscConfig+0x334>
 800125e:	e014      	b.n	800128a <HAL_RCC_OscConfig+0x382>
      }
    }
    else
    {
      /* Get Start Tick */
      tickstart = HAL_GetTick();
 8001260:	f7ff fb84 	bl	800096c <HAL_GetTick>
 8001264:	6138      	str	r0, [r7, #16]

      /* Wait till LSE is ready */
      while (__HAL_RCC_GET_FLAG(RCC_FLAG_LSERDY) != RESET)
 8001266:	e00a      	b.n	800127e <HAL_RCC_OscConfig+0x376>
      {
        if ((HAL_GetTick() - tickstart) > RCC_LSE_TIMEOUT_VALUE)
 8001268:	f7ff fb80 	bl	800096c <HAL_GetTick>
 800126c:	4602      	mov	r2, r0
 800126e:	693b      	ldr	r3, [r7, #16]
 8001270:	1ad3      	subs	r3, r2, r3
 8001272:	f241 3288 	movw	r2, #5000	@ 0x1388
 8001276:	4293      	cmp	r3, r2
 8001278:	d901      	bls.n	800127e <HAL_RCC_OscConfig+0x376>
        {
          return HAL_TIMEOUT;
 800127a:	2303      	movs	r3, #3
 800127c:	e0b5      	b.n	80013ea <HAL_RCC_OscConfig+0x4e2>
      while (__HAL_RCC_GET_FLAG(RCC_FLAG_LSERDY) != RESET)
 800127e:	4b3e      	ldr	r3, [pc, #248]	@ (8001378 <HAL_RCC_OscConfig+0x470>)
 8001280:	6f1b      	ldr	r3, [r3, #112]	@ 0x70
 8001282:	f003 0302 	and.w	r3, r3, #2
 8001286:	2b00      	cmp	r3, #0
 8001288:	d1ee      	bne.n	8001268 <HAL_RCC_OscConfig+0x360>
        }
      }
    }

    /* Restore clock configuration if changed */
    if (pwrclkchanged == SET)
 800128a:	7dfb      	ldrb	r3, [r7, #23]
 800128c:	2b01      	cmp	r3, #1
 800128e:	d105      	bne.n	800129c <HAL_RCC_OscConfig+0x394>
    {
      __HAL_RCC_PWR_CLK_DISABLE();
 8001290:	4b39      	ldr	r3, [pc, #228]	@ (8001378 <HAL_RCC_OscConfig+0x470>)
 8001292:	6c1b      	ldr	r3, [r3, #64]	@ 0x40
 8001294:	4a38      	ldr	r2, [pc, #224]	@ (8001378 <HAL_RCC_OscConfig+0x470>)
 8001296:	f023 5380 	bic.w	r3, r3, #268435456	@ 0x10000000
 800129a:	6413      	str	r3, [r2, #64]	@ 0x40
    }
  }
  /*-------------------------------- PLL Configuration -----------------------*/
  /* Check the parameters */
  assert_param(IS_RCC_PLL(RCC_OscInitStruct->PLL.PLLState));
  if ((RCC_OscInitStruct->PLL.PLLState) != RCC_PLL_NONE)
 800129c:	687b      	ldr	r3, [r7, #4]
 800129e:	699b      	ldr	r3, [r3, #24]
 80012a0:	2b00      	cmp	r3, #0
 80012a2:	f000 80a1 	beq.w	80013e8 <HAL_RCC_OscConfig+0x4e0>
  {
    /* Check if the PLL is used as system clock or not */
    if (__HAL_RCC_GET_SYSCLK_SOURCE() != RCC_CFGR_SWS_PLL)
 80012a6:	4b34      	ldr	r3, [pc, #208]	@ (8001378 <HAL_RCC_OscConfig+0x470>)
 80012a8:	689b      	ldr	r3, [r3, #8]
 80012aa:	f003 030c 	and.w	r3, r3, #12
 80012ae:	2b08      	cmp	r3, #8
 80012b0:	d05c      	beq.n	800136c <HAL_RCC_OscConfig+0x464>
    {
      if ((RCC_OscInitStruct->PLL.PLLState) == RCC_PLL_ON)
 80012b2:	687b      	ldr	r3, [r7, #4]
 80012b4:	699b      	ldr	r3, [r3, #24]
 80012b6:	2b02      	cmp	r3, #2
 80012b8:	d141      	bne.n	800133e <HAL_RCC_OscConfig+0x436>
        assert_param(IS_RCC_PLLN_VALUE(RCC_OscInitStruct->PLL.PLLN));
        assert_param(IS_RCC_PLLP_VALUE(RCC_OscInitStruct->PLL.PLLP));
        assert_param(IS_RCC_PLLQ_VALUE(RCC_OscInitStruct->PLL.PLLQ));

        /* Disable the main PLL. */
        __HAL_RCC_PLL_DISABLE();
 80012ba:	4b31      	ldr	r3, [pc, #196]	@ (8001380 <HAL_RCC_OscConfig+0x478>)
 80012bc:	2200      	movs	r2, #0
 80012be:	601a      	str	r2, [r3, #0]

        /* Get Start Tick */
        tickstart = HAL_GetTick();
 80012c0:	f7ff fb54 	bl	800096c <HAL_GetTick>
 80012c4:	6138      	str	r0, [r7, #16]

        /* Wait till PLL is disabled */
        while (__HAL_RCC_GET_FLAG(RCC_FLAG_PLLRDY) != RESET)
 80012c6:	e008      	b.n	80012da <HAL_RCC_OscConfig+0x3d2>
        {
          if ((HAL_GetTick() - tickstart) > PLL_TIMEOUT_VALUE)
 80012c8:	f7ff fb50 	bl	800096c <HAL_GetTick>
 80012cc:	4602      	mov	r2, r0
 80012ce:	693b      	ldr	r3, [r7, #16]
 80012d0:	1ad3      	subs	r3, r2, r3
 80012d2:	2b02      	cmp	r3, #2
 80012d4:	d901      	bls.n	80012da <HAL_RCC_OscConfig+0x3d2>
          {
            return HAL_TIMEOUT;
 80012d6:	2303      	movs	r3, #3
 80012d8:	e087      	b.n	80013ea <HAL_RCC_OscConfig+0x4e2>
        while (__HAL_RCC_GET_FLAG(RCC_FLAG_PLLRDY) != RESET)
 80012da:	4b27      	ldr	r3, [pc, #156]	@ (8001378 <HAL_RCC_OscConfig+0x470>)
 80012dc:	681b      	ldr	r3, [r3, #0]
 80012de:	f003 7300 	and.w	r3, r3, #33554432	@ 0x2000000
 80012e2:	2b00      	cmp	r3, #0
 80012e4:	d1f0      	bne.n	80012c8 <HAL_RCC_OscConfig+0x3c0>
          }
        }

        /* Configure the main PLL clock source, multiplication and division factors. */
        WRITE_REG(RCC->PLLCFGR, (RCC_OscInitStruct->PLL.PLLSource                                            | \
 80012e6:	687b      	ldr	r3, [r7, #4]
 80012e8:	69da      	ldr	r2, [r3, #28]
 80012ea:	687b      	ldr	r3, [r7, #4]
 80012ec:	6a1b      	ldr	r3, [r3, #32]
 80012ee:	431a      	orrs	r2, r3
 80012f0:	687b      	ldr	r3, [r7, #4]
 80012f2:	6a5b      	ldr	r3, [r3, #36]	@ 0x24
 80012f4:	019b      	lsls	r3, r3, #6
 80012f6:	431a      	orrs	r2, r3
 80012f8:	687b      	ldr	r3, [r7, #4]
 80012fa:	6a9b      	ldr	r3, [r3, #40]	@ 0x28
 80012fc:	085b      	lsrs	r3, r3, #1
 80012fe:	3b01      	subs	r3, #1
 8001300:	041b      	lsls	r3, r3, #16
 8001302:	431a      	orrs	r2, r3
 8001304:	687b      	ldr	r3, [r7, #4]
 8001306:	6adb      	ldr	r3, [r3, #44]	@ 0x2c
 8001308:	061b      	lsls	r3, r3, #24
 800130a:	491b      	ldr	r1, [pc, #108]	@ (8001378 <HAL_RCC_OscConfig+0x470>)
 800130c:	4313      	orrs	r3, r2
 800130e:	604b      	str	r3, [r1, #4]
                                 RCC_OscInitStruct->PLL.PLLM                                                 | \
                                 (RCC_OscInitStruct->PLL.PLLN << RCC_PLLCFGR_PLLN_Pos)             | \
                                 (((RCC_OscInitStruct->PLL.PLLP >> 1U) - 1U) << RCC_PLLCFGR_PLLP_Pos) | \
                                 (RCC_OscInitStruct->PLL.PLLQ << RCC_PLLCFGR_PLLQ_Pos)));
        /* Enable the main PLL. */
        __HAL_RCC_PLL_ENABLE();
 8001310:	4b1b      	ldr	r3, [pc, #108]	@ (8001380 <HAL_RCC_OscConfig+0x478>)
 8001312:	2201      	movs	r2, #1
 8001314:	601a      	str	r2, [r3, #0]

        /* Get Start Tick */
        tickstart = HAL_GetTick();
 8001316:	f7ff fb29 	bl	800096c <HAL_GetTick>
 800131a:	6138      	str	r0, [r7, #16]

        /* Wait till PLL is ready */
        while (__HAL_RCC_GET_FLAG(RCC_FLAG_PLLRDY) == RESET)
 800131c:	e008      	b.n	8001330 <HAL_RCC_OscConfig+0x428>
        {
          if ((HAL_GetTick() - tickstart) > PLL_TIMEOUT_VALUE)
 800131e:	f7ff fb25 	bl	800096c <HAL_GetTick>
 8001322:	4602      	mov	r2, r0
 8001324:	693b      	ldr	r3, [r7, #16]
 8001326:	1ad3      	subs	r3, r2, r3
 8001328:	2b02      	cmp	r3, #2
 800132a:	d901      	bls.n	8001330 <HAL_RCC_OscConfig+0x428>
          {
            return HAL_TIMEOUT;
 800132c:	2303      	movs	r3, #3
 800132e:	e05c      	b.n	80013ea <HAL_RCC_OscConfig+0x4e2>
        while (__HAL_RCC_GET_FLAG(RCC_FLAG_PLLRDY) == RESET)
 8001330:	4b11      	ldr	r3, [pc, #68]	@ (8001378 <HAL_RCC_OscConfig+0x470>)
 8001332:	681b      	ldr	r3, [r3, #0]
 8001334:	f003 7300 	and.w	r3, r3, #33554432	@ 0x2000000
 8001338:	2b00      	cmp	r3, #0
 800133a:	d0f0      	beq.n	800131e <HAL_RCC_OscConfig+0x416>
 800133c:	e054      	b.n	80013e8 <HAL_RCC_OscConfig+0x4e0>
        }
      }
      else
      {
        /* Disable the main PLL. */
        __HAL_RCC_PLL_DISABLE();
 800133e:	4b10      	ldr	r3, [pc, #64]	@ (8001380 <HAL_RCC_OscConfig+0x478>)
 8001340:	2200      	movs	r2, #0
 8001342:	601a      	str	r2, [r3, #0]

        /* Get Start Tick */
        tickstart = HAL_GetTick();
 8001344:	f7ff fb12 	bl	800096c <HAL_GetTick>
 8001348:	6138      	str	r0, [r7, #16]

        /* Wait till PLL is disabled */
        while (__HAL_RCC_GET_FLAG(RCC_FLAG_PLLRDY) != RESET)
 800134a:	e008      	b.n	800135e <HAL_RCC_OscConfig+0x456>
        {
          if ((HAL_GetTick() - tickstart) > PLL_TIMEOUT_VALUE)
 800134c:	f7ff fb0e 	bl	800096c <HAL_GetTick>
 8001350:	4602      	mov	r2, r0
 8001352:	693b      	ldr	r3, [r7, #16]
 8001354:	1ad3      	subs	r3, r2, r3
 8001356:	2b02      	cmp	r3, #2
 8001358:	d901      	bls.n	800135e <HAL_RCC_OscConfig+0x456>
          {
            return HAL_TIMEOUT;
 800135a:	2303      	movs	r3, #3
 800135c:	e045      	b.n	80013ea <HAL_RCC_OscConfig+0x4e2>
        while (__HAL_RCC_GET_FLAG(RCC_FLAG_PLLRDY) != RESET)
 800135e:	4b06      	ldr	r3, [pc, #24]	@ (8001378 <HAL_RCC_OscConfig+0x470>)
 8001360:	681b      	ldr	r3, [r3, #0]
 8001362:	f003 7300 	and.w	r3, r3, #33554432	@ 0x2000000
 8001366:	2b00      	cmp	r3, #0
 8001368:	d1f0      	bne.n	800134c <HAL_RCC_OscConfig+0x444>
 800136a:	e03d      	b.n	80013e8 <HAL_RCC_OscConfig+0x4e0>
      }
    }
    else
    {
      /* Check if there is a request to disable the PLL used as System clock source */
      if ((RCC_OscInitStruct->PLL.PLLState) == RCC_PLL_OFF)
 800136c:	687b      	ldr	r3, [r7, #4]
 800136e:	699b      	ldr	r3, [r3, #24]
 8001370:	2b01      	cmp	r3, #1
 8001372:	d107      	bne.n	8001384 <HAL_RCC_OscConfig+0x47c>
      {
        return HAL_ERROR;
 8001374:	2301      	movs	r3, #1
 8001376:	e038      	b.n	80013ea <HAL_RCC_OscConfig+0x4e2>
 8001378:	40023800 	.word	0x40023800
 800137c:	40007000 	.word	0x40007000
 8001380:	42470060 	.word	0x42470060
      }
      else
      {
        /* Do not return HAL_ERROR if request repeats the current configuration */
        pll_config = RCC->PLLCFGR;
 8001384:	4b1b      	ldr	r3, [pc, #108]	@ (80013f4 <HAL_RCC_OscConfig+0x4ec>)
 8001386:	685b      	ldr	r3, [r3, #4]
 8001388:	60fb      	str	r3, [r7, #12]
            (READ_BIT(pll_config, RCC_PLLCFGR_PLLN) != (RCC_OscInitStruct->PLL.PLLN) << RCC_PLLCFGR_PLLN_Pos) ||
            (READ_BIT(pll_config, RCC_PLLCFGR_PLLP) != (((RCC_OscInitStruct->PLL.PLLP >> 1U) - 1U)) << RCC_PLLCFGR_PLLP_Pos) ||
            (READ_BIT(pll_config, RCC_PLLCFGR_PLLQ) != (RCC_OscInitStruct->PLL.PLLQ << RCC_PLLCFGR_PLLQ_Pos)) ||
            (READ_BIT(pll_config, RCC_PLLCFGR_PLLR) != (RCC_OscInitStruct->PLL.PLLR << RCC_PLLCFGR_PLLR_Pos)))
#else
        if (((RCC_OscInitStruct->PLL.PLLState) == RCC_PLL_OFF) ||
 800138a:	687b      	ldr	r3, [r7, #4]
 800138c:	699b      	ldr	r3, [r3, #24]
 800138e:	2b01      	cmp	r3, #1
 8001390:	d028      	beq.n	80013e4 <HAL_RCC_OscConfig+0x4dc>
            (READ_BIT(pll_config, RCC_PLLCFGR_PLLSRC) != RCC_OscInitStruct->PLL.PLLSource) ||
 8001392:	68fb      	ldr	r3, [r7, #12]
 8001394:	f403 0280 	and.w	r2, r3, #4194304	@ 0x400000
 8001398:	687b      	ldr	r3, [r7, #4]
 800139a:	69db      	ldr	r3, [r3, #28]
        if (((RCC_OscInitStruct->PLL.PLLState) == RCC_PLL_OFF) ||
 800139c:	429a      	cmp	r2, r3
 800139e:	d121      	bne.n	80013e4 <HAL_RCC_OscConfig+0x4dc>
            (READ_BIT(pll_config, RCC_PLLCFGR_PLLM) != (RCC_OscInitStruct->PLL.PLLM) << RCC_PLLCFGR_PLLM_Pos) ||
 80013a0:	68fb      	ldr	r3, [r7, #12]
 80013a2:	f003 023f 	and.w	r2, r3, #63	@ 0x3f
 80013a6:	687b      	ldr	r3, [r7, #4]
 80013a8:	6a1b      	ldr	r3, [r3, #32]
            (READ_BIT(pll_config, RCC_PLLCFGR_PLLSRC) != RCC_OscInitStruct->PLL.PLLSource) ||
 80013aa:	429a      	cmp	r2, r3
 80013ac:	d11a      	bne.n	80013e4 <HAL_RCC_OscConfig+0x4dc>
            (READ_BIT(pll_config, RCC_PLLCFGR_PLLN) != (RCC_OscInitStruct->PLL.PLLN) << RCC_PLLCFGR_PLLN_Pos) ||
 80013ae:	68fa      	ldr	r2, [r7, #12]
 80013b0:	f647 73c0 	movw	r3, #32704	@ 0x7fc0
 80013b4:	4013      	ands	r3, r2
 80013b6:	687a      	ldr	r2, [r7, #4]
 80013b8:	6a52      	ldr	r2, [r2, #36]	@ 0x24
 80013ba:	0192      	lsls	r2, r2, #6
            (READ_BIT(pll_config, RCC_PLLCFGR_PLLM) != (RCC_OscInitStruct->PLL.PLLM) << RCC_PLLCFGR_PLLM_Pos) ||
 80013bc:	4293      	cmp	r3, r2
 80013be:	d111      	bne.n	80013e4 <HAL_RCC_OscConfig+0x4dc>
            (READ_BIT(pll_config, RCC_PLLCFGR_PLLP) != (((RCC_OscInitStruct->PLL.PLLP >> 1U) - 1U)) << RCC_PLLCFGR_PLLP_Pos) ||
 80013c0:	68fb      	ldr	r3, [r7, #12]
 80013c2:	f403 3240 	and.w	r2, r3, #196608	@ 0x30000
 80013c6:	687b      	ldr	r3, [r7, #4]
 80013c8:	6a9b      	ldr	r3, [r3, #40]	@ 0x28
 80013ca:	085b      	lsrs	r3, r3, #1
 80013cc:	3b01      	subs	r3, #1
 80013ce:	041b      	lsls	r3, r3, #16
            (READ_BIT(pll_config, RCC_PLLCFGR_PLLN) != (RCC_OscInitStruct->PLL.PLLN) << RCC_PLLCFGR_PLLN_Pos) ||
 80013d0:	429a      	cmp	r2, r3
 80013d2:	d107      	bne.n	80013e4 <HAL_RCC_OscConfig+0x4dc>
            (READ_BIT(pll_config, RCC_PLLCFGR_PLLQ) != (RCC_OscInitStruct->PLL.PLLQ << RCC_PLLCFGR_PLLQ_Pos)))
 80013d4:	68fb      	ldr	r3, [r7, #12]
 80013d6:	f003 6270 	and.w	r2, r3, #251658240	@ 0xf000000
 80013da:	687b      	ldr	r3, [r7, #4]
 80013dc:	6adb      	ldr	r3, [r3, #44]	@ 0x2c
 80013de:	061b      	lsls	r3, r3, #24
            (READ_BIT(pll_config, RCC_PLLCFGR_PLLP) != (((RCC_OscInitStruct->PLL.PLLP >> 1U) - 1U)) << RCC_PLLCFGR_PLLP_Pos) ||
 80013e0:	429a      	cmp	r2, r3
 80013e2:	d001      	beq.n	80013e8 <HAL_RCC_OscConfig+0x4e0>
#endif /* RCC_PLLCFGR_PLLR */
        {
          return HAL_ERROR;
 80013e4:	2301      	movs	r3, #1
 80013e6:	e000      	b.n	80013ea <HAL_RCC_OscConfig+0x4e2>
        }
      }
    }
  }
  return HAL_OK;
 80013e8:	2300      	movs	r3, #0
}
 80013ea:	4618      	mov	r0, r3
 80013ec:	3718      	adds	r7, #24
 80013ee:	46bd      	mov	sp, r7
 80013f0:	bd80      	pop	{r7, pc}
 80013f2:	bf00      	nop
 80013f4:	40023800 	.word	0x40023800

080013f8 <HAL_RCC_ClockConfig>:
  *         HPRE[3:0] bits to ensure that HCLK not exceed the maximum allowed frequency
  *         (for more details refer to section above "Initialization/de-initialization functions")
  * @retval None
  */
HAL_StatusTypeDef HAL_RCC_ClockConfig(const RCC_ClkInitTypeDef  *RCC_ClkInitStruct, uint32_t FLatency)
{
 80013f8:	b580      	push	{r7, lr}
 80013fa:	b084      	sub	sp, #16
 80013fc:	af00      	add	r7, sp, #0
 80013fe:	6078      	str	r0, [r7, #4]
 8001400:	6039      	str	r1, [r7, #0]
  uint32_t tickstart;

  /* Check Null pointer */
  if (RCC_ClkInitStruct == NULL)
 8001402:	687b      	ldr	r3, [r7, #4]
 8001404:	2b00      	cmp	r3, #0
 8001406:	d101      	bne.n	800140c <HAL_RCC_ClockConfig+0x14>
  {
    return HAL_ERROR;
 8001408:	2301      	movs	r3, #1
 800140a:	e0cc      	b.n	80015a6 <HAL_RCC_ClockConfig+0x1ae>
  /* To correctly read data from FLASH memory, the number of wait states (LATENCY)
    must be correctly programmed according to the frequency of the CPU clock
    (HCLK) and the supply voltage of the device. */

  /* Increasing the number of wait states because of higher CPU frequency */
  if (FLatency > __HAL_FLASH_GET_LATENCY())
 800140c:	4b68      	ldr	r3, [pc, #416]	@ (80015b0 <HAL_RCC_ClockConfig+0x1b8>)
 800140e:	681b      	ldr	r3, [r3, #0]
 8001410:	f003 0307 	and.w	r3, r3, #7
 8001414:	683a      	ldr	r2, [r7, #0]
 8001416:	429a      	cmp	r2, r3
 8001418:	d90c      	bls.n	8001434 <HAL_RCC_ClockConfig+0x3c>
  {
    /* Program the new number of wait states to the LATENCY bits in the FLASH_ACR register */
    __HAL_FLASH_SET_LATENCY(FLatency);
 800141a:	4b65      	ldr	r3, [pc, #404]	@ (80015b0 <HAL_RCC_ClockConfig+0x1b8>)
 800141c:	683a      	ldr	r2, [r7, #0]
 800141e:	b2d2      	uxtb	r2, r2
 8001420:	701a      	strb	r2, [r3, #0]

    /* Check that the new number of wait states is taken into account to access the Flash
    memory by reading the FLASH_ACR register */
    if (__HAL_FLASH_GET_LATENCY() != FLatency)
 8001422:	4b63      	ldr	r3, [pc, #396]	@ (80015b0 <HAL_RCC_ClockConfig+0x1b8>)
 8001424:	681b      	ldr	r3, [r3, #0]
 8001426:	f003 0307 	and.w	r3, r3, #7
 800142a:	683a      	ldr	r2, [r7, #0]
 800142c:	429a      	cmp	r2, r3
 800142e:	d001      	beq.n	8001434 <HAL_RCC_ClockConfig+0x3c>
    {
      return HAL_ERROR;
 8001430:	2301      	movs	r3, #1
 8001432:	e0b8      	b.n	80015a6 <HAL_RCC_ClockConfig+0x1ae>
    }
  }

  /*-------------------------- HCLK Configuration --------------------------*/
  if (((RCC_ClkInitStruct->ClockType) & RCC_CLOCKTYPE_HCLK) == RCC_CLOCKTYPE_HCLK)
 8001434:	687b      	ldr	r3, [r7, #4]
 8001436:	681b      	ldr	r3, [r3, #0]
 8001438:	f003 0302 	and.w	r3, r3, #2
 800143c:	2b00      	cmp	r3, #0
 800143e:	d020      	beq.n	8001482 <HAL_RCC_ClockConfig+0x8a>
  {
    /* Set the highest APBx dividers in order to ensure that we do not go through
       a non-spec phase whatever we decrease or increase HCLK. */
    if (((RCC_ClkInitStruct->ClockType) & RCC_CLOCKTYPE_PCLK1) == RCC_CLOCKTYPE_PCLK1)
 8001440:	687b      	ldr	r3, [r7, #4]
 8001442:	681b      	ldr	r3, [r3, #0]
 8001444:	f003 0304 	and.w	r3, r3, #4
 8001448:	2b00      	cmp	r3, #0
 800144a:	d005      	beq.n	8001458 <HAL_RCC_ClockConfig+0x60>
    {
      MODIFY_REG(RCC->CFGR, RCC_CFGR_PPRE1, RCC_HCLK_DIV16);
 800144c:	4b59      	ldr	r3, [pc, #356]	@ (80015b4 <HAL_RCC_ClockConfig+0x1bc>)
 800144e:	689b      	ldr	r3, [r3, #8]
 8001450:	4a58      	ldr	r2, [pc, #352]	@ (80015b4 <HAL_RCC_ClockConfig+0x1bc>)
 8001452:	f443 53e0 	orr.w	r3, r3, #7168	@ 0x1c00
 8001456:	6093      	str	r3, [r2, #8]
    }

    if (((RCC_ClkInitStruct->ClockType) & RCC_CLOCKTYPE_PCLK2) == RCC_CLOCKTYPE_PCLK2)
 8001458:	687b      	ldr	r3, [r7, #4]
 800145a:	681b      	ldr	r3, [r3, #0]
 800145c:	f003 0308 	and.w	r3, r3, #8
 8001460:	2b00      	cmp	r3, #0
 8001462:	d005      	beq.n	8001470 <HAL_RCC_ClockConfig+0x78>
    {
      MODIFY_REG(RCC->CFGR, RCC_CFGR_PPRE2, (RCC_HCLK_DIV16 << 3));
 8001464:	4b53      	ldr	r3, [pc, #332]	@ (80015b4 <HAL_RCC_ClockConfig+0x1bc>)
 8001466:	689b      	ldr	r3, [r3, #8]
 8001468:	4a52      	ldr	r2, [pc, #328]	@ (80015b4 <HAL_RCC_ClockConfig+0x1bc>)
 800146a:	f443 4360 	orr.w	r3, r3, #57344	@ 0xe000
 800146e:	6093      	str	r3, [r2, #8]
    }

    assert_param(IS_RCC_HCLK(RCC_ClkInitStruct->AHBCLKDivider));
    MODIFY_REG(RCC->CFGR, RCC_CFGR_HPRE, RCC_ClkInitStruct->AHBCLKDivider);
 8001470:	4b50      	ldr	r3, [pc, #320]	@ (80015b4 <HAL_RCC_ClockConfig+0x1bc>)
 8001472:	689b      	ldr	r3, [r3, #8]
 8001474:	f023 02f0 	bic.w	r2, r3, #240	@ 0xf0
 8001478:	687b      	ldr	r3, [r7, #4]
 800147a:	689b      	ldr	r3, [r3, #8]
 800147c:	494d      	ldr	r1, [pc, #308]	@ (80015b4 <HAL_RCC_ClockConfig+0x1bc>)
 800147e:	4313      	orrs	r3, r2
 8001480:	608b      	str	r3, [r1, #8]
  }

  /*------------------------- SYSCLK Configuration ---------------------------*/
  if (((RCC_ClkInitStruct->ClockType) & RCC_CLOCKTYPE_SYSCLK) == RCC_CLOCKTYPE_SYSCLK)
 8001482:	687b      	ldr	r3, [r7, #4]
 8001484:	681b      	ldr	r3, [r3, #0]
 8001486:	f003 0301 	and.w	r3, r3, #1
 800148a:	2b00      	cmp	r3, #0
 800148c:	d044      	beq.n	8001518 <HAL_RCC_ClockConfig+0x120>
  {
    assert_param(IS_RCC_SYSCLKSOURCE(RCC_ClkInitStruct->SYSCLKSource));

    /* HSE is selected as System Clock Source */
    if (RCC_ClkInitStruct->SYSCLKSource == RCC_SYSCLKSOURCE_HSE)
 800148e:	687b      	ldr	r3, [r7, #4]
 8001490:	685b      	ldr	r3, [r3, #4]
 8001492:	2b01      	cmp	r3, #1
 8001494:	d107      	bne.n	80014a6 <HAL_RCC_ClockConfig+0xae>
    {
      /* Check the HSE ready flag */
      if (__HAL_RCC_GET_FLAG(RCC_FLAG_HSERDY) == RESET)
 8001496:	4b47      	ldr	r3, [pc, #284]	@ (80015b4 <HAL_RCC_ClockConfig+0x1bc>)
 8001498:	681b      	ldr	r3, [r3, #0]
 800149a:	f403 3300 	and.w	r3, r3, #131072	@ 0x20000
 800149e:	2b00      	cmp	r3, #0
 80014a0:	d119      	bne.n	80014d6 <HAL_RCC_ClockConfig+0xde>
      {
        return HAL_ERROR;
 80014a2:	2301      	movs	r3, #1
 80014a4:	e07f      	b.n	80015a6 <HAL_RCC_ClockConfig+0x1ae>
      }
    }
    /* PLL is selected as System Clock Source */
    else if ((RCC_ClkInitStruct->SYSCLKSource == RCC_SYSCLKSOURCE_PLLCLK)   ||
 80014a6:	687b      	ldr	r3, [r7, #4]
 80014a8:	685b      	ldr	r3, [r3, #4]
 80014aa:	2b02      	cmp	r3, #2
 80014ac:	d003      	beq.n	80014b6 <HAL_RCC_ClockConfig+0xbe>
             (RCC_ClkInitStruct->SYSCLKSource == RCC_SYSCLKSOURCE_PLLRCLK))
 80014ae:	687b      	ldr	r3, [r7, #4]
 80014b0:	685b      	ldr	r3, [r3, #4]
    else if ((RCC_ClkInitStruct->SYSCLKSource == RCC_SYSCLKSOURCE_PLLCLK)   ||
 80014b2:	2b03      	cmp	r3, #3
 80014b4:	d107      	bne.n	80014c6 <HAL_RCC_ClockConfig+0xce>
    {
      /* Check the PLL ready flag */
      if (__HAL_RCC_GET_FLAG(RCC_FLAG_PLLRDY) == RESET)
 80014b6:	4b3f      	ldr	r3, [pc, #252]	@ (80015b4 <HAL_RCC_ClockConfig+0x1bc>)
 80014b8:	681b      	ldr	r3, [r3, #0]
 80014ba:	f003 7300 	and.w	r3, r3, #33554432	@ 0x2000000
 80014be:	2b00      	cmp	r3, #0
 80014c0:	d109      	bne.n	80014d6 <HAL_RCC_ClockConfig+0xde>
      {
        return HAL_ERROR;
 80014c2:	2301      	movs	r3, #1
 80014c4:	e06f      	b.n	80015a6 <HAL_RCC_ClockConfig+0x1ae>
    }
    /* HSI is selected as System Clock Source */
    else
    {
      /* Check the HSI ready flag */
      if (__HAL_RCC_GET_FLAG(RCC_FLAG_HSIRDY) == RESET)
 80014c6:	4b3b      	ldr	r3, [pc, #236]	@ (80015b4 <HAL_RCC_ClockConfig+0x1bc>)
 80014c8:	681b      	ldr	r3, [r3, #0]
 80014ca:	f003 0302 	and.w	r3, r3, #2
 80014ce:	2b00      	cmp	r3, #0
 80014d0:	d101      	bne.n	80014d6 <HAL_RCC_ClockConfig+0xde>
      {
        return HAL_ERROR;
 80014d2:	2301      	movs	r3, #1
 80014d4:	e067      	b.n	80015a6 <HAL_RCC_ClockConfig+0x1ae>
      }
    }

    __HAL_RCC_SYSCLK_CONFIG(RCC_ClkInitStruct->SYSCLKSource);
 80014d6:	4b37      	ldr	r3, [pc, #220]	@ (80015b4 <HAL_RCC_ClockConfig+0x1bc>)
 80014d8:	689b      	ldr	r3, [r3, #8]
 80014da:	f023 0203 	bic.w	r2, r3, #3
 80014de:	687b      	ldr	r3, [r7, #4]
 80014e0:	685b      	ldr	r3, [r3, #4]
 80014e2:	4934      	ldr	r1, [pc, #208]	@ (80015b4 <HAL_RCC_ClockConfig+0x1bc>)
 80014e4:	4313      	orrs	r3, r2
 80014e6:	608b      	str	r3, [r1, #8]

    /* Get Start Tick */
    tickstart = HAL_GetTick();
 80014e8:	f7ff fa40 	bl	800096c <HAL_GetTick>
 80014ec:	60f8      	str	r0, [r7, #12]

    while (__HAL_RCC_GET_SYSCLK_SOURCE() != (RCC_ClkInitStruct->SYSCLKSource << RCC_CFGR_SWS_Pos))
 80014ee:	e00a      	b.n	8001506 <HAL_RCC_ClockConfig+0x10e>
    {
      if ((HAL_GetTick() - tickstart) > CLOCKSWITCH_TIMEOUT_VALUE)
 80014f0:	f7ff fa3c 	bl	800096c <HAL_GetTick>
 80014f4:	4602      	mov	r2, r0
 80014f6:	68fb      	ldr	r3, [r7, #12]
 80014f8:	1ad3      	subs	r3, r2, r3
 80014fa:	f241 3288 	movw	r2, #5000	@ 0x1388
 80014fe:	4293      	cmp	r3, r2
 8001500:	d901      	bls.n	8001506 <HAL_RCC_ClockConfig+0x10e>
      {
        return HAL_TIMEOUT;
 8001502:	2303      	movs	r3, #3
 8001504:	e04f      	b.n	80015a6 <HAL_RCC_ClockConfig+0x1ae>
    while (__HAL_RCC_GET_SYSCLK_SOURCE() != (RCC_ClkInitStruct->SYSCLKSource << RCC_CFGR_SWS_Pos))
 8001506:	4b2b      	ldr	r3, [pc, #172]	@ (80015b4 <HAL_RCC_ClockConfig+0x1bc>)
 8001508:	689b      	ldr	r3, [r3, #8]
 800150a:	f003 020c 	and.w	r2, r3, #12
 800150e:	687b      	ldr	r3, [r7, #4]
 8001510:	685b      	ldr	r3, [r3, #4]
 8001512:	009b      	lsls	r3, r3, #2
 8001514:	429a      	cmp	r2, r3
 8001516:	d1eb      	bne.n	80014f0 <HAL_RCC_ClockConfig+0xf8>
      }
    }
  }

  /* Decreasing the number of wait states because of lower CPU frequency */
  if (FLatency < __HAL_FLASH_GET_LATENCY())
 8001518:	4b25      	ldr	r3, [pc, #148]	@ (80015b0 <HAL_RCC_ClockConfig+0x1b8>)
 800151a:	681b      	ldr	r3, [r3, #0]
 800151c:	f003 0307 	and.w	r3, r3, #7
 8001520:	683a      	ldr	r2, [r7, #0]
 8001522:	429a      	cmp	r2, r3
 8001524:	d20c      	bcs.n	8001540 <HAL_RCC_ClockConfig+0x148>
  {
    /* Program the new number of wait states to the LATENCY bits in the FLASH_ACR register */
    __HAL_FLASH_SET_LATENCY(FLatency);
 8001526:	4b22      	ldr	r3, [pc, #136]	@ (80015b0 <HAL_RCC_ClockConfig+0x1b8>)
 8001528:	683a      	ldr	r2, [r7, #0]
 800152a:	b2d2      	uxtb	r2, r2
 800152c:	701a      	strb	r2, [r3, #0]

    /* Check that the new number of wait states is taken into account to access the Flash
    memory by reading the FLASH_ACR register */
    if (__HAL_FLASH_GET_LATENCY() != FLatency)
 800152e:	4b20      	ldr	r3, [pc, #128]	@ (80015b0 <HAL_RCC_ClockConfig+0x1b8>)
 8001530:	681b      	ldr	r3, [r3, #0]
 8001532:	f003 0307 	and.w	r3, r3, #7
 8001536:	683a      	ldr	r2, [r7, #0]
 8001538:	429a      	cmp	r2, r3
 800153a:	d001      	beq.n	8001540 <HAL_RCC_ClockConfig+0x148>
    {
      return HAL_ERROR;
 800153c:	2301      	movs	r3, #1
 800153e:	e032      	b.n	80015a6 <HAL_RCC_ClockConfig+0x1ae>
    }
  }

  /*-------------------------- PCLK1 Configuration ---------------------------*/
  if (((RCC_ClkInitStruct->ClockType) & RCC_CLOCKTYPE_PCLK1) == RCC_CLOCKTYPE_PCLK1)
 8001540:	687b      	ldr	r3, [r7, #4]
 8001542:	681b      	ldr	r3, [r3, #0]
 8001544:	f003 0304 	and.w	r3, r3, #4
 8001548:	2b00      	cmp	r3, #0
 800154a:	d008      	beq.n	800155e <HAL_RCC_ClockConfig+0x166>
  {
    assert_param(IS_RCC_PCLK(RCC_ClkInitStruct->APB1CLKDivider));
    MODIFY_REG(RCC->CFGR, RCC_CFGR_PPRE1, RCC_ClkInitStruct->APB1CLKDivider);
 800154c:	4b19      	ldr	r3, [pc, #100]	@ (80015b4 <HAL_RCC_ClockConfig+0x1bc>)
 800154e:	689b      	ldr	r3, [r3, #8]
 8001550:	f423 52e0 	bic.w	r2, r3, #7168	@ 0x1c00
 8001554:	687b      	ldr	r3, [r7, #4]
 8001556:	68db      	ldr	r3, [r3, #12]
 8001558:	4916      	ldr	r1, [pc, #88]	@ (80015b4 <HAL_RCC_ClockConfig+0x1bc>)
 800155a:	4313      	orrs	r3, r2
 800155c:	608b      	str	r3, [r1, #8]
  }

  /*-------------------------- PCLK2 Configuration ---------------------------*/
  if (((RCC_ClkInitStruct->ClockType) & RCC_CLOCKTYPE_PCLK2) == RCC_CLOCKTYPE_PCLK2)
 800155e:	687b      	ldr	r3, [r7, #4]
 8001560:	681b      	ldr	r3, [r3, #0]
 8001562:	f003 0308 	and.w	r3, r3, #8
 8001566:	2b00      	cmp	r3, #0
 8001568:	d009      	beq.n	800157e <HAL_RCC_ClockConfig+0x186>
  {
    assert_param(IS_RCC_PCLK(RCC_ClkInitStruct->APB2CLKDivider));
    MODIFY_REG(RCC->CFGR, RCC_CFGR_PPRE2, ((RCC_ClkInitStruct->APB2CLKDivider) << 3U));
 800156a:	4b12      	ldr	r3, [pc, #72]	@ (80015b4 <HAL_RCC_ClockConfig+0x1bc>)
 800156c:	689b      	ldr	r3, [r3, #8]
 800156e:	f423 4260 	bic.w	r2, r3, #57344	@ 0xe000
 8001572:	687b      	ldr	r3, [r7, #4]
 8001574:	691b      	ldr	r3, [r3, #16]
 8001576:	00db      	lsls	r3, r3, #3
 8001578:	490e      	ldr	r1, [pc, #56]	@ (80015b4 <HAL_RCC_ClockConfig+0x1bc>)
 800157a:	4313      	orrs	r3, r2
 800157c:	608b      	str	r3, [r1, #8]
  }

  /* Update the SystemCoreClock global variable */
  SystemCoreClock = HAL_RCC_GetSysClockFreq() >> AHBPrescTable[(RCC->CFGR & RCC_CFGR_HPRE) >> RCC_CFGR_HPRE_Pos];
 800157e:	f000 f821 	bl	80015c4 <HAL_RCC_GetSysClockFreq>
 8001582:	4602      	mov	r2, r0
 8001584:	4b0b      	ldr	r3, [pc, #44]	@ (80015b4 <HAL_RCC_ClockConfig+0x1bc>)
 8001586:	689b      	ldr	r3, [r3, #8]
 8001588:	091b      	lsrs	r3, r3, #4
 800158a:	f003 030f 	and.w	r3, r3, #15
 800158e:	490a      	ldr	r1, [pc, #40]	@ (80015b8 <HAL_RCC_ClockConfig+0x1c0>)
 8001590:	5ccb      	ldrb	r3, [r1, r3]
 8001592:	fa22 f303 	lsr.w	r3, r2, r3
 8001596:	4a09      	ldr	r2, [pc, #36]	@ (80015bc <HAL_RCC_ClockConfig+0x1c4>)
 8001598:	6013      	str	r3, [r2, #0]

  /* Configure the source of time base considering new system clocks settings */
  HAL_InitTick(uwTickPrio);
 800159a:	4b09      	ldr	r3, [pc, #36]	@ (80015c0 <HAL_RCC_ClockConfig+0x1c8>)
 800159c:	681b      	ldr	r3, [r3, #0]
 800159e:	4618      	mov	r0, r3
 80015a0:	f7ff f9a0 	bl	80008e4 <HAL_InitTick>

  return HAL_OK;
 80015a4:	2300      	movs	r3, #0
}
 80015a6:	4618      	mov	r0, r3
 80015a8:	3710      	adds	r7, #16
 80015aa:	46bd      	mov	sp, r7
 80015ac:	bd80      	pop	{r7, pc}
 80015ae:	bf00      	nop
 80015b0:	40023c00 	.word	0x40023c00
 80015b4:	40023800 	.word	0x40023800
 80015b8:	08002044 	.word	0x08002044
 80015bc:	20000000 	.word	0x20000000
 80015c0:	20000004 	.word	0x20000004

080015c4 <HAL_RCC_GetSysClockFreq>:
  *
  *
  * @retval SYSCLK frequency
  */
__weak uint32_t HAL_RCC_GetSysClockFreq(void)
{
 80015c4:	e92d 4fb0 	stmdb	sp!, {r4, r5, r7, r8, r9, sl, fp, lr}
 80015c8:	b090      	sub	sp, #64	@ 0x40
 80015ca:	af00      	add	r7, sp, #0
  uint32_t pllm = 0U;
 80015cc:	2300      	movs	r3, #0
 80015ce:	637b      	str	r3, [r7, #52]	@ 0x34
  uint32_t pllvco = 0U;
 80015d0:	2300      	movs	r3, #0
 80015d2:	63fb      	str	r3, [r7, #60]	@ 0x3c
  uint32_t pllp = 0U;
 80015d4:	2300      	movs	r3, #0
 80015d6:	633b      	str	r3, [r7, #48]	@ 0x30
  uint32_t sysclockfreq = 0U;
 80015d8:	2300      	movs	r3, #0
 80015da:	63bb      	str	r3, [r7, #56]	@ 0x38

  /* Get SYSCLK source -------------------------------------------------------*/
  switch (RCC->CFGR & RCC_CFGR_SWS)
 80015dc:	4b59      	ldr	r3, [pc, #356]	@ (8001744 <HAL_RCC_GetSysClockFreq+0x180>)
 80015de:	689b      	ldr	r3, [r3, #8]
 80015e0:	f003 030c 	and.w	r3, r3, #12
 80015e4:	2b08      	cmp	r3, #8
 80015e6:	d00d      	beq.n	8001604 <HAL_RCC_GetSysClockFreq+0x40>
 80015e8:	2b08      	cmp	r3, #8
 80015ea:	f200 80a1 	bhi.w	8001730 <HAL_RCC_GetSysClockFreq+0x16c>
 80015ee:	2b00      	cmp	r3, #0
 80015f0:	d002      	beq.n	80015f8 <HAL_RCC_GetSysClockFreq+0x34>
 80015f2:	2b04      	cmp	r3, #4
 80015f4:	d003      	beq.n	80015fe <HAL_RCC_GetSysClockFreq+0x3a>
 80015f6:	e09b      	b.n	8001730 <HAL_RCC_GetSysClockFreq+0x16c>
  {
    case RCC_CFGR_SWS_HSI:  /* HSI used as system clock source */
    {
      sysclockfreq = HSI_VALUE;
 80015f8:	4b53      	ldr	r3, [pc, #332]	@ (8001748 <HAL_RCC_GetSysClockFreq+0x184>)
 80015fa:	63bb      	str	r3, [r7, #56]	@ 0x38
      break;
 80015fc:	e09b      	b.n	8001736 <HAL_RCC_GetSysClockFreq+0x172>
    }
    case RCC_CFGR_SWS_HSE:  /* HSE used as system clock  source */
    {
      sysclockfreq = HSE_VALUE;
 80015fe:	4b53      	ldr	r3, [pc, #332]	@ (800174c <HAL_RCC_GetSysClockFreq+0x188>)
 8001600:	63bb      	str	r3, [r7, #56]	@ 0x38
      break;
 8001602:	e098      	b.n	8001736 <HAL_RCC_GetSysClockFreq+0x172>
    }
    case RCC_CFGR_SWS_PLL:  /* PLL used as system clock  source */
    {
      /* PLL_VCO = (HSE_VALUE or HSI_VALUE / PLLM) * PLLN
      SYSCLK = PLL_VCO / PLLP */
      pllm = RCC->PLLCFGR & RCC_PLLCFGR_PLLM;
 8001604:	4b4f      	ldr	r3, [pc, #316]	@ (8001744 <HAL_RCC_GetSysClockFreq+0x180>)
 8001606:	685b      	ldr	r3, [r3, #4]
 8001608:	f003 033f 	and.w	r3, r3, #63	@ 0x3f
 800160c:	637b      	str	r3, [r7, #52]	@ 0x34
      if (__HAL_RCC_GET_PLL_OSCSOURCE() != RCC_PLLSOURCE_HSI)
 800160e:	4b4d      	ldr	r3, [pc, #308]	@ (8001744 <HAL_RCC_GetSysClockFreq+0x180>)
 8001610:	685b      	ldr	r3, [r3, #4]
 8001612:	f403 0380 	and.w	r3, r3, #4194304	@ 0x400000
 8001616:	2b00      	cmp	r3, #0
 8001618:	d028      	beq.n	800166c <HAL_RCC_GetSysClockFreq+0xa8>
      {
        /* HSE used as PLL clock source */
        pllvco = (uint32_t)((((uint64_t) HSE_VALUE * ((uint64_t)((RCC->PLLCFGR & RCC_PLLCFGR_PLLN) >> RCC_PLLCFGR_PLLN_Pos)))) / (uint64_t)pllm);
 800161a:	4b4a      	ldr	r3, [pc, #296]	@ (8001744 <HAL_RCC_GetSysClockFreq+0x180>)
 800161c:	685b      	ldr	r3, [r3, #4]
 800161e:	099b      	lsrs	r3, r3, #6
 8001620:	2200      	movs	r2, #0
 8001622:	623b      	str	r3, [r7, #32]
 8001624:	627a      	str	r2, [r7, #36]	@ 0x24
 8001626:	6a3b      	ldr	r3, [r7, #32]
 8001628:	f3c3 0008 	ubfx	r0, r3, #0, #9
 800162c:	2100      	movs	r1, #0
 800162e:	4b47      	ldr	r3, [pc, #284]	@ (800174c <HAL_RCC_GetSysClockFreq+0x188>)
 8001630:	fb03 f201 	mul.w	r2, r3, r1
 8001634:	2300      	movs	r3, #0
 8001636:	fb00 f303 	mul.w	r3, r0, r3
 800163a:	4413      	add	r3, r2
 800163c:	4a43      	ldr	r2, [pc, #268]	@ (800174c <HAL_RCC_GetSysClockFreq+0x188>)
 800163e:	fba0 1202 	umull	r1, r2, r0, r2
 8001642:	62fa      	str	r2, [r7, #44]	@ 0x2c
 8001644:	460a      	mov	r2, r1
 8001646:	62ba      	str	r2, [r7, #40]	@ 0x28
 8001648:	6afa      	ldr	r2, [r7, #44]	@ 0x2c
 800164a:	4413      	add	r3, r2
 800164c:	62fb      	str	r3, [r7, #44]	@ 0x2c
 800164e:	6b7b      	ldr	r3, [r7, #52]	@ 0x34
 8001650:	2200      	movs	r2, #0
 8001652:	61bb      	str	r3, [r7, #24]
 8001654:	61fa      	str	r2, [r7, #28]
 8001656:	e9d7 2306 	ldrd	r2, r3, [r7, #24]
 800165a:	e9d7 010a 	ldrd	r0, r1, [r7, #40]	@ 0x28
 800165e:	f7fe fdb9 	bl	80001d4 <__aeabi_uldivmod>
 8001662:	4602      	mov	r2, r0
 8001664:	460b      	mov	r3, r1
 8001666:	4613      	mov	r3, r2
 8001668:	63fb      	str	r3, [r7, #60]	@ 0x3c
 800166a:	e053      	b.n	8001714 <HAL_RCC_GetSysClockFreq+0x150>
      }
      else
      {
        /* HSI used as PLL clock source */
        pllvco = (uint32_t)((((uint64_t) HSI_VALUE * ((uint64_t)((RCC->PLLCFGR & RCC_PLLCFGR_PLLN) >> RCC_PLLCFGR_PLLN_Pos)))) / (uint64_t)pllm);
 800166c:	4b35      	ldr	r3, [pc, #212]	@ (8001744 <HAL_RCC_GetSysClockFreq+0x180>)
 800166e:	685b      	ldr	r3, [r3, #4]
 8001670:	099b      	lsrs	r3, r3, #6
 8001672:	2200      	movs	r2, #0
 8001674:	613b      	str	r3, [r7, #16]
 8001676:	617a      	str	r2, [r7, #20]
 8001678:	693b      	ldr	r3, [r7, #16]
 800167a:	f3c3 0a08 	ubfx	sl, r3, #0, #9
 800167e:	f04f 0b00 	mov.w	fp, #0
 8001682:	4652      	mov	r2, sl
 8001684:	465b      	mov	r3, fp
 8001686:	f04f 0000 	mov.w	r0, #0
 800168a:	f04f 0100 	mov.w	r1, #0
 800168e:	0159      	lsls	r1, r3, #5
 8001690:	ea41 61d2 	orr.w	r1, r1, r2, lsr #27
 8001694:	0150      	lsls	r0, r2, #5
 8001696:	4602      	mov	r2, r0
 8001698:	460b      	mov	r3, r1
 800169a:	ebb2 080a 	subs.w	r8, r2, sl
 800169e:	eb63 090b 	sbc.w	r9, r3, fp
 80016a2:	f04f 0200 	mov.w	r2, #0
 80016a6:	f04f 0300 	mov.w	r3, #0
 80016aa:	ea4f 1389 	mov.w	r3, r9, lsl #6
 80016ae:	ea43 6398 	orr.w	r3, r3, r8, lsr #26
 80016b2:	ea4f 1288 	mov.w	r2, r8, lsl #6
 80016b6:	ebb2 0408 	subs.w	r4, r2, r8
 80016ba:	eb63 0509 	sbc.w	r5, r3, r9
 80016be:	f04f 0200 	mov.w	r2, #0
 80016c2:	f04f 0300 	mov.w	r3, #0
 80016c6:	00eb      	lsls	r3, r5, #3
 80016c8:	ea43 7354 	orr.w	r3, r3, r4, lsr #29
 80016cc:	00e2      	lsls	r2, r4, #3
 80016ce:	4614      	mov	r4, r2
 80016d0:	461d      	mov	r5, r3
 80016d2:	eb14 030a 	adds.w	r3, r4, sl
 80016d6:	603b      	str	r3, [r7, #0]
 80016d8:	eb45 030b 	adc.w	r3, r5, fp
 80016dc:	607b      	str	r3, [r7, #4]
 80016de:	f04f 0200 	mov.w	r2, #0
 80016e2:	f04f 0300 	mov.w	r3, #0
 80016e6:	e9d7 4500 	ldrd	r4, r5, [r7]
 80016ea:	4629      	mov	r1, r5
 80016ec:	028b      	lsls	r3, r1, #10
 80016ee:	4621      	mov	r1, r4
 80016f0:	ea43 5391 	orr.w	r3, r3, r1, lsr #22
 80016f4:	4621      	mov	r1, r4
 80016f6:	028a      	lsls	r2, r1, #10
 80016f8:	4610      	mov	r0, r2
 80016fa:	4619      	mov	r1, r3
 80016fc:	6b7b      	ldr	r3, [r7, #52]	@ 0x34
 80016fe:	2200      	movs	r2, #0
 8001700:	60bb      	str	r3, [r7, #8]
 8001702:	60fa      	str	r2, [r7, #12]
 8001704:	e9d7 2302 	ldrd	r2, r3, [r7, #8]
 8001708:	f7fe fd64 	bl	80001d4 <__aeabi_uldivmod>
 800170c:	4602      	mov	r2, r0
 800170e:	460b      	mov	r3, r1
 8001710:	4613      	mov	r3, r2
 8001712:	63fb      	str	r3, [r7, #60]	@ 0x3c
      }
      pllp = ((((RCC->PLLCFGR & RCC_PLLCFGR_PLLP) >> RCC_PLLCFGR_PLLP_Pos) + 1U) * 2U);
 8001714:	4b0b      	ldr	r3, [pc, #44]	@ (8001744 <HAL_RCC_GetSysClockFreq+0x180>)
 8001716:	685b      	ldr	r3, [r3, #4]
 8001718:	0c1b      	lsrs	r3, r3, #16
 800171a:	f003 0303 	and.w	r3, r3, #3
 800171e:	3301      	adds	r3, #1
 8001720:	005b      	lsls	r3, r3, #1
 8001722:	633b      	str	r3, [r7, #48]	@ 0x30

      sysclockfreq = pllvco / pllp;
 8001724:	6bfa      	ldr	r2, [r7, #60]	@ 0x3c
 8001726:	6b3b      	ldr	r3, [r7, #48]	@ 0x30
 8001728:	fbb2 f3f3 	udiv	r3, r2, r3
 800172c:	63bb      	str	r3, [r7, #56]	@ 0x38
      break;
 800172e:	e002      	b.n	8001736 <HAL_RCC_GetSysClockFreq+0x172>
    }
    default:
    {
      sysclockfreq = HSI_VALUE;
 8001730:	4b05      	ldr	r3, [pc, #20]	@ (8001748 <HAL_RCC_GetSysClockFreq+0x184>)
 8001732:	63bb      	str	r3, [r7, #56]	@ 0x38
      break;
 8001734:	bf00      	nop
    }
  }
  return sysclockfreq;
 8001736:	6bbb      	ldr	r3, [r7, #56]	@ 0x38
}
 8001738:	4618      	mov	r0, r3
 800173a:	3740      	adds	r7, #64	@ 0x40
 800173c:	46bd      	mov	sp, r7
 800173e:	e8bd 8fb0 	ldmia.w	sp!, {r4, r5, r7, r8, r9, sl, fp, pc}
 8001742:	bf00      	nop
 8001744:	40023800 	.word	0x40023800
 8001748:	00f42400 	.word	0x00f42400
 800174c:	017d7840 	.word	0x017d7840

08001750 <HAL_RCC_GetHCLKFreq>:
  * @note   The SystemCoreClock CMSIS variable is used to store System Clock Frequency
  *         and updated within this function
  * @retval HCLK frequency
  */
uint32_t HAL_RCC_GetHCLKFreq(void)
{
 8001750:	b480      	push	{r7}
 8001752:	af00      	add	r7, sp, #0
  return SystemCoreClock;
 8001754:	4b03      	ldr	r3, [pc, #12]	@ (8001764 <HAL_RCC_GetHCLKFreq+0x14>)
 8001756:	681b      	ldr	r3, [r3, #0]
}
 8001758:	4618      	mov	r0, r3
 800175a:	46bd      	mov	sp, r7
 800175c:	f85d 7b04 	ldr.w	r7, [sp], #4
 8001760:	4770      	bx	lr
 8001762:	bf00      	nop
 8001764:	20000000 	.word	0x20000000

08001768 <HAL_RCC_GetPCLK1Freq>:
  * @note   Each time PCLK1 changes, this function must be called to update the
  *         right PCLK1 value. Otherwise, any configuration based on this function will be incorrect.
  * @retval PCLK1 frequency
  */
uint32_t HAL_RCC_GetPCLK1Freq(void)
{
 8001768:	b580      	push	{r7, lr}
 800176a:	af00      	add	r7, sp, #0
  /* Get HCLK source and Compute PCLK1 frequency ---------------------------*/
  return (HAL_RCC_GetHCLKFreq() >> APBPrescTable[(RCC->CFGR & RCC_CFGR_PPRE1) >> RCC_CFGR_PPRE1_Pos]);
 800176c:	f7ff fff0 	bl	8001750 <HAL_RCC_GetHCLKFreq>
 8001770:	4602      	mov	r2, r0
 8001772:	4b05      	ldr	r3, [pc, #20]	@ (8001788 <HAL_RCC_GetPCLK1Freq+0x20>)
 8001774:	689b      	ldr	r3, [r3, #8]
 8001776:	0a9b      	lsrs	r3, r3, #10
 8001778:	f003 0307 	and.w	r3, r3, #7
 800177c:	4903      	ldr	r1, [pc, #12]	@ (800178c <HAL_RCC_GetPCLK1Freq+0x24>)
 800177e:	5ccb      	ldrb	r3, [r1, r3]
 8001780:	fa22 f303 	lsr.w	r3, r2, r3
}
 8001784:	4618      	mov	r0, r3
 8001786:	bd80      	pop	{r7, pc}
 8001788:	40023800 	.word	0x40023800
 800178c:	08002054 	.word	0x08002054

08001790 <HAL_RCC_GetPCLK2Freq>:
  * @note   Each time PCLK2 changes, this function must be called to update the
  *         right PCLK2 value. Otherwise, any configuration based on this function will be incorrect.
  * @retval PCLK2 frequency
  */
uint32_t HAL_RCC_GetPCLK2Freq(void)
{
 8001790:	b580      	push	{r7, lr}
 8001792:	af00      	add	r7, sp, #0
  /* Get HCLK source and Compute PCLK2 frequency ---------------------------*/
  return (HAL_RCC_GetHCLKFreq() >> APBPrescTable[(RCC->CFGR & RCC_CFGR_PPRE2) >> RCC_CFGR_PPRE2_Pos]);
 8001794:	f7ff ffdc 	bl	8001750 <HAL_RCC_GetHCLKFreq>
 8001798:	4602      	mov	r2, r0
 800179a:	4b05      	ldr	r3, [pc, #20]	@ (80017b0 <HAL_RCC_GetPCLK2Freq+0x20>)
 800179c:	689b      	ldr	r3, [r3, #8]
 800179e:	0b5b      	lsrs	r3, r3, #13
 80017a0:	f003 0307 	and.w	r3, r3, #7
 80017a4:	4903      	ldr	r1, [pc, #12]	@ (80017b4 <HAL_RCC_GetPCLK2Freq+0x24>)
 80017a6:	5ccb      	ldrb	r3, [r1, r3]
 80017a8:	fa22 f303 	lsr.w	r3, r2, r3
}
 80017ac:	4618      	mov	r0, r3
 80017ae:	bd80      	pop	{r7, pc}
 80017b0:	40023800 	.word	0x40023800
 80017b4:	08002054 	.word	0x08002054

080017b8 <HAL_UART_Init>:
  * @param  huart  Pointer to a UART_HandleTypeDef structure that contains
  *                the configuration information for the specified UART module.
  * @retval HAL status
  */
HAL_StatusTypeDef HAL_UART_Init(UART_HandleTypeDef *huart)
{
 80017b8:	b580      	push	{r7, lr}
 80017ba:	b082      	sub	sp, #8
 80017bc:	af00      	add	r7, sp, #0
 80017be:	6078      	str	r0, [r7, #4]
  /* Check the UART handle allocation */
  if (huart == NULL)
 80017c0:	687b      	ldr	r3, [r7, #4]
 80017c2:	2b00      	cmp	r3, #0
 80017c4:	d101      	bne.n	80017ca <HAL_UART_Init+0x12>
  {
    return HAL_ERROR;
 80017c6:	2301      	movs	r3, #1
 80017c8:	e042      	b.n	8001850 <HAL_UART_Init+0x98>
    assert_param(IS_UART_INSTANCE(huart->Instance));
  }
  assert_param(IS_UART_WORD_LENGTH(huart->Init.WordLength));
  assert_param(IS_UART_OVERSAMPLING(huart->Init.OverSampling));

  if (huart->gState == HAL_UART_STATE_RESET)
 80017ca:	687b      	ldr	r3, [r7, #4]
 80017cc:	f893 3041 	ldrb.w	r3, [r3, #65]	@ 0x41
 80017d0:	b2db      	uxtb	r3, r3
 80017d2:	2b00      	cmp	r3, #0
 80017d4:	d106      	bne.n	80017e4 <HAL_UART_Init+0x2c>
  {
    /* Allocate lock resource and initialize it */
    huart->Lock = HAL_UNLOCKED;
 80017d6:	687b      	ldr	r3, [r7, #4]
 80017d8:	2200      	movs	r2, #0
 80017da:	f883 2040 	strb.w	r2, [r3, #64]	@ 0x40

    /* Init the low level hardware */
    huart->MspInitCallback(huart);
#else
    /* Init the low level hardware : GPIO, CLOCK */
    HAL_UART_MspInit(huart);
 80017de:	6878      	ldr	r0, [r7, #4]
 80017e0:	f7fe ffaa 	bl	8000738 <HAL_UART_MspInit>
#endif /* (USE_HAL_UART_REGISTER_CALLBACKS) */
  }

  huart->gState = HAL_UART_STATE_BUSY;
 80017e4:	687b      	ldr	r3, [r7, #4]
 80017e6:	2224      	movs	r2, #36	@ 0x24
 80017e8:	f883 2041 	strb.w	r2, [r3, #65]	@ 0x41

  /* Disable the peripheral */
  __HAL_UART_DISABLE(huart);
 80017ec:	687b      	ldr	r3, [r7, #4]
 80017ee:	681b      	ldr	r3, [r3, #0]
 80017f0:	68da      	ldr	r2, [r3, #12]
 80017f2:	687b      	ldr	r3, [r7, #4]
 80017f4:	681b      	ldr	r3, [r3, #0]
 80017f6:	f422 5200 	bic.w	r2, r2, #8192	@ 0x2000
 80017fa:	60da      	str	r2, [r3, #12]

  /* Set the UART Communication parameters */
  UART_SetConfig(huart);
 80017fc:	6878      	ldr	r0, [r7, #4]
 80017fe:	f000 f973 	bl	8001ae8 <UART_SetConfig>

  /* In asynchronous mode, the following bits must be kept cleared:
     - LINEN and CLKEN bits in the USART_CR2 register,
     - SCEN, HDSEL and IREN  bits in the USART_CR3 register.*/
  CLEAR_BIT(huart->Instance->CR2, (USART_CR2_LINEN | USART_CR2_CLKEN));
 8001802:	687b      	ldr	r3, [r7, #4]
 8001804:	681b      	ldr	r3, [r3, #0]
 8001806:	691a      	ldr	r2, [r3, #16]
 8001808:	687b      	ldr	r3, [r7, #4]
 800180a:	681b      	ldr	r3, [r3, #0]
 800180c:	f422 4290 	bic.w	r2, r2, #18432	@ 0x4800
 8001810:	611a      	str	r2, [r3, #16]
  CLEAR_BIT(huart->Instance->CR3, (USART_CR3_SCEN | USART_CR3_HDSEL | USART_CR3_IREN));
 8001812:	687b      	ldr	r3, [r7, #4]
 8001814:	681b      	ldr	r3, [r3, #0]
 8001816:	695a      	ldr	r2, [r3, #20]
 8001818:	687b      	ldr	r3, [r7, #4]
 800181a:	681b      	ldr	r3, [r3, #0]
 800181c:	f022 022a 	bic.w	r2, r2, #42	@ 0x2a
 8001820:	615a      	str	r2, [r3, #20]

  /* Enable the peripheral */
  __HAL_UART_ENABLE(huart);
 8001822:	687b      	ldr	r3, [r7, #4]
 8001824:	681b      	ldr	r3, [r3, #0]
 8001826:	68da      	ldr	r2, [r3, #12]
 8001828:	687b      	ldr	r3, [r7, #4]
 800182a:	681b      	ldr	r3, [r3, #0]
 800182c:	f442 5200 	orr.w	r2, r2, #8192	@ 0x2000
 8001830:	60da      	str	r2, [r3, #12]

  /* Initialize the UART state */
  huart->ErrorCode = HAL_UART_ERROR_NONE;
 8001832:	687b      	ldr	r3, [r7, #4]
 8001834:	2200      	movs	r2, #0
 8001836:	645a      	str	r2, [r3, #68]	@ 0x44
  huart->gState = HAL_UART_STATE_READY;
 8001838:	687b      	ldr	r3, [r7, #4]
 800183a:	2220      	movs	r2, #32
 800183c:	f883 2041 	strb.w	r2, [r3, #65]	@ 0x41
  huart->RxState = HAL_UART_STATE_READY;
 8001840:	687b      	ldr	r3, [r7, #4]
 8001842:	2220      	movs	r2, #32
 8001844:	f883 2042 	strb.w	r2, [r3, #66]	@ 0x42
  huart->RxEventType = HAL_UART_RXEVENT_TC;
 8001848:	687b      	ldr	r3, [r7, #4]
 800184a:	2200      	movs	r2, #0
 800184c:	635a      	str	r2, [r3, #52]	@ 0x34

  return HAL_OK;
 800184e:	2300      	movs	r3, #0
}
 8001850:	4618      	mov	r0, r3
 8001852:	3708      	adds	r7, #8
 8001854:	46bd      	mov	sp, r7
 8001856:	bd80      	pop	{r7, pc}

08001858 <HAL_UART_Transmit>:
  * @param  Size  Amount of data elements (u8 or u16) to be sent
  * @param  Timeout Timeout duration
  * @retval HAL status
  */
HAL_StatusTypeDef HAL_UART_Transmit(UART_HandleTypeDef *huart, const uint8_t *pData, uint16_t Size, uint32_t Timeout)
{
 8001858:	b580      	push	{r7, lr}
 800185a:	b08a      	sub	sp, #40	@ 0x28
 800185c:	af02      	add	r7, sp, #8
 800185e:	60f8      	str	r0, [r7, #12]
 8001860:	60b9      	str	r1, [r7, #8]
 8001862:	603b      	str	r3, [r7, #0]
 8001864:	4613      	mov	r3, r2
 8001866:	80fb      	strh	r3, [r7, #6]
  const uint8_t  *pdata8bits;
  const uint16_t *pdata16bits;
  uint32_t tickstart = 0U;
 8001868:	2300      	movs	r3, #0
 800186a:	617b      	str	r3, [r7, #20]

  /* Check that a Tx process is not already ongoing */
  if (huart->gState == HAL_UART_STATE_READY)
 800186c:	68fb      	ldr	r3, [r7, #12]
 800186e:	f893 3041 	ldrb.w	r3, [r3, #65]	@ 0x41
 8001872:	b2db      	uxtb	r3, r3
 8001874:	2b20      	cmp	r3, #32
 8001876:	d175      	bne.n	8001964 <HAL_UART_Transmit+0x10c>
  {
    if ((pData == NULL) || (Size == 0U))
 8001878:	68bb      	ldr	r3, [r7, #8]
 800187a:	2b00      	cmp	r3, #0
 800187c:	d002      	beq.n	8001884 <HAL_UART_Transmit+0x2c>
 800187e:	88fb      	ldrh	r3, [r7, #6]
 8001880:	2b00      	cmp	r3, #0
 8001882:	d101      	bne.n	8001888 <HAL_UART_Transmit+0x30>
    {
      return  HAL_ERROR;
 8001884:	2301      	movs	r3, #1
 8001886:	e06e      	b.n	8001966 <HAL_UART_Transmit+0x10e>
    }

    huart->ErrorCode = HAL_UART_ERROR_NONE;
 8001888:	68fb      	ldr	r3, [r7, #12]
 800188a:	2200      	movs	r2, #0
 800188c:	645a      	str	r2, [r3, #68]	@ 0x44
    huart->gState = HAL_UART_STATE_BUSY_TX;
 800188e:	68fb      	ldr	r3, [r7, #12]
 8001890:	2221      	movs	r2, #33	@ 0x21
 8001892:	f883 2041 	strb.w	r2, [r3, #65]	@ 0x41

    /* Init tickstart for timeout management */
    tickstart = HAL_GetTick();
 8001896:	f7ff f869 	bl	800096c <HAL_GetTick>
 800189a:	6178      	str	r0, [r7, #20]

    huart->TxXferSize = Size;
 800189c:	68fb      	ldr	r3, [r7, #12]
 800189e:	88fa      	ldrh	r2, [r7, #6]
 80018a0:	849a      	strh	r2, [r3, #36]	@ 0x24
    huart->TxXferCount = Size;
 80018a2:	68fb      	ldr	r3, [r7, #12]
 80018a4:	88fa      	ldrh	r2, [r7, #6]
 80018a6:	84da      	strh	r2, [r3, #38]	@ 0x26

    /* In case of 9bits/No Parity transfer, pData needs to be handled as a uint16_t pointer */
    if ((huart->Init.WordLength == UART_WORDLENGTH_9B) && (huart->Init.Parity == UART_PARITY_NONE))
 80018a8:	68fb      	ldr	r3, [r7, #12]
 80018aa:	689b      	ldr	r3, [r3, #8]
 80018ac:	f5b3 5f80 	cmp.w	r3, #4096	@ 0x1000
 80018b0:	d108      	bne.n	80018c4 <HAL_UART_Transmit+0x6c>
 80018b2:	68fb      	ldr	r3, [r7, #12]
 80018b4:	691b      	ldr	r3, [r3, #16]
 80018b6:	2b00      	cmp	r3, #0
 80018b8:	d104      	bne.n	80018c4 <HAL_UART_Transmit+0x6c>
    {
      pdata8bits  = NULL;
 80018ba:	2300      	movs	r3, #0
 80018bc:	61fb      	str	r3, [r7, #28]
      pdata16bits = (const uint16_t *) pData;
 80018be:	68bb      	ldr	r3, [r7, #8]
 80018c0:	61bb      	str	r3, [r7, #24]
 80018c2:	e003      	b.n	80018cc <HAL_UART_Transmit+0x74>
    }
    else
    {
      pdata8bits  = pData;
 80018c4:	68bb      	ldr	r3, [r7, #8]
 80018c6:	61fb      	str	r3, [r7, #28]
      pdata16bits = NULL;
 80018c8:	2300      	movs	r3, #0
 80018ca:	61bb      	str	r3, [r7, #24]
    }

    while (huart->TxXferCount > 0U)
 80018cc:	e02e      	b.n	800192c <HAL_UART_Transmit+0xd4>
    {
      if (UART_WaitOnFlagUntilTimeout(huart, UART_FLAG_TXE, RESET, tickstart, Timeout) != HAL_OK)
 80018ce:	683b      	ldr	r3, [r7, #0]
 80018d0:	9300      	str	r3, [sp, #0]
 80018d2:	697b      	ldr	r3, [r7, #20]
 80018d4:	2200      	movs	r2, #0
 80018d6:	2180      	movs	r1, #128	@ 0x80
 80018d8:	68f8      	ldr	r0, [r7, #12]
 80018da:	f000 f848 	bl	800196e <UART_WaitOnFlagUntilTimeout>
 80018de:	4603      	mov	r3, r0
 80018e0:	2b00      	cmp	r3, #0
 80018e2:	d005      	beq.n	80018f0 <HAL_UART_Transmit+0x98>
      {
        huart->gState = HAL_UART_STATE_READY;
 80018e4:	68fb      	ldr	r3, [r7, #12]
 80018e6:	2220      	movs	r2, #32
 80018e8:	f883 2041 	strb.w	r2, [r3, #65]	@ 0x41

        return HAL_TIMEOUT;
 80018ec:	2303      	movs	r3, #3
 80018ee:	e03a      	b.n	8001966 <HAL_UART_Transmit+0x10e>
      }
      if (pdata8bits == NULL)
 80018f0:	69fb      	ldr	r3, [r7, #28]
 80018f2:	2b00      	cmp	r3, #0
 80018f4:	d10b      	bne.n	800190e <HAL_UART_Transmit+0xb6>
      {
        huart->Instance->DR = (uint16_t)(*pdata16bits & 0x01FFU);
 80018f6:	69bb      	ldr	r3, [r7, #24]
 80018f8:	881b      	ldrh	r3, [r3, #0]
 80018fa:	461a      	mov	r2, r3
 80018fc:	68fb      	ldr	r3, [r7, #12]
 80018fe:	681b      	ldr	r3, [r3, #0]
 8001900:	f3c2 0208 	ubfx	r2, r2, #0, #9
 8001904:	605a      	str	r2, [r3, #4]
        pdata16bits++;
 8001906:	69bb      	ldr	r3, [r7, #24]
 8001908:	3302      	adds	r3, #2
 800190a:	61bb      	str	r3, [r7, #24]
 800190c:	e007      	b.n	800191e <HAL_UART_Transmit+0xc6>
      }
      else
      {
        huart->Instance->DR = (uint8_t)(*pdata8bits & 0xFFU);
 800190e:	69fb      	ldr	r3, [r7, #28]
 8001910:	781a      	ldrb	r2, [r3, #0]
 8001912:	68fb      	ldr	r3, [r7, #12]
 8001914:	681b      	ldr	r3, [r3, #0]
 8001916:	605a      	str	r2, [r3, #4]
        pdata8bits++;
 8001918:	69fb      	ldr	r3, [r7, #28]
 800191a:	3301      	adds	r3, #1
 800191c:	61fb      	str	r3, [r7, #28]
      }
      huart->TxXferCount--;
 800191e:	68fb      	ldr	r3, [r7, #12]
 8001920:	8cdb      	ldrh	r3, [r3, #38]	@ 0x26
 8001922:	b29b      	uxth	r3, r3
 8001924:	3b01      	subs	r3, #1
 8001926:	b29a      	uxth	r2, r3
 8001928:	68fb      	ldr	r3, [r7, #12]
 800192a:	84da      	strh	r2, [r3, #38]	@ 0x26
    while (huart->TxXferCount > 0U)
 800192c:	68fb      	ldr	r3, [r7, #12]
 800192e:	8cdb      	ldrh	r3, [r3, #38]	@ 0x26
 8001930:	b29b      	uxth	r3, r3
 8001932:	2b00      	cmp	r3, #0
 8001934:	d1cb      	bne.n	80018ce <HAL_UART_Transmit+0x76>
    }

    if (UART_WaitOnFlagUntilTimeout(huart, UART_FLAG_TC, RESET, tickstart, Timeout) != HAL_OK)
 8001936:	683b      	ldr	r3, [r7, #0]
 8001938:	9300      	str	r3, [sp, #0]
 800193a:	697b      	ldr	r3, [r7, #20]
 800193c:	2200      	movs	r2, #0
 800193e:	2140      	movs	r1, #64	@ 0x40
 8001940:	68f8      	ldr	r0, [r7, #12]
 8001942:	f000 f814 	bl	800196e <UART_WaitOnFlagUntilTimeout>
 8001946:	4603      	mov	r3, r0
 8001948:	2b00      	cmp	r3, #0
 800194a:	d005      	beq.n	8001958 <HAL_UART_Transmit+0x100>
    {
      huart->gState = HAL_UART_STATE_READY;
 800194c:	68fb      	ldr	r3, [r7, #12]
 800194e:	2220      	movs	r2, #32
 8001950:	f883 2041 	strb.w	r2, [r3, #65]	@ 0x41

      return HAL_TIMEOUT;
 8001954:	2303      	movs	r3, #3
 8001956:	e006      	b.n	8001966 <HAL_UART_Transmit+0x10e>
    }

    /* At end of Tx process, restore huart->gState to Ready */
    huart->gState = HAL_UART_STATE_READY;
 8001958:	68fb      	ldr	r3, [r7, #12]
 800195a:	2220      	movs	r2, #32
 800195c:	f883 2041 	strb.w	r2, [r3, #65]	@ 0x41

    return HAL_OK;
 8001960:	2300      	movs	r3, #0
 8001962:	e000      	b.n	8001966 <HAL_UART_Transmit+0x10e>
  }
  else
  {
    return HAL_BUSY;
 8001964:	2302      	movs	r3, #2
  }
}
 8001966:	4618      	mov	r0, r3
 8001968:	3720      	adds	r7, #32
 800196a:	46bd      	mov	sp, r7
 800196c:	bd80      	pop	{r7, pc}

0800196e <UART_WaitOnFlagUntilTimeout>:
  * @param  Timeout Timeout duration
  * @retval HAL status
  */
static HAL_StatusTypeDef UART_WaitOnFlagUntilTimeout(UART_HandleTypeDef *huart, uint32_t Flag, FlagStatus Status,
                                                     uint32_t Tickstart, uint32_t Timeout)
{
 800196e:	b580      	push	{r7, lr}
 8001970:	b086      	sub	sp, #24
 8001972:	af00      	add	r7, sp, #0
 8001974:	60f8      	str	r0, [r7, #12]
 8001976:	60b9      	str	r1, [r7, #8]
 8001978:	603b      	str	r3, [r7, #0]
 800197a:	4613      	mov	r3, r2
 800197c:	71fb      	strb	r3, [r7, #7]
  /* Wait until flag is set */
  while ((__HAL_UART_GET_FLAG(huart, Flag) ? SET : RESET) == Status)
 800197e:	e03b      	b.n	80019f8 <UART_WaitOnFlagUntilTimeout+0x8a>
  {
    /* Check for the Timeout */
    if (Timeout != HAL_MAX_DELAY)
 8001980:	6a3b      	ldr	r3, [r7, #32]
 8001982:	f1b3 3fff 	cmp.w	r3, #4294967295
 8001986:	d037      	beq.n	80019f8 <UART_WaitOnFlagUntilTimeout+0x8a>
    {
      if (((HAL_GetTick() - Tickstart) > Timeout) || (Timeout == 0U))
 8001988:	f7fe fff0 	bl	800096c <HAL_GetTick>
 800198c:	4602      	mov	r2, r0
 800198e:	683b      	ldr	r3, [r7, #0]
 8001990:	1ad3      	subs	r3, r2, r3
 8001992:	6a3a      	ldr	r2, [r7, #32]
 8001994:	429a      	cmp	r2, r3
 8001996:	d302      	bcc.n	800199e <UART_WaitOnFlagUntilTimeout+0x30>
 8001998:	6a3b      	ldr	r3, [r7, #32]
 800199a:	2b00      	cmp	r3, #0
 800199c:	d101      	bne.n	80019a2 <UART_WaitOnFlagUntilTimeout+0x34>
      {

        return HAL_TIMEOUT;
 800199e:	2303      	movs	r3, #3
 80019a0:	e03a      	b.n	8001a18 <UART_WaitOnFlagUntilTimeout+0xaa>
      }

      if ((READ_BIT(huart->Instance->CR1, USART_CR1_RE) != 0U) && (Flag != UART_FLAG_TXE) && (Flag != UART_FLAG_TC))
 80019a2:	68fb      	ldr	r3, [r7, #12]
 80019a4:	681b      	ldr	r3, [r3, #0]
 80019a6:	68db      	ldr	r3, [r3, #12]
 80019a8:	f003 0304 	and.w	r3, r3, #4
 80019ac:	2b00      	cmp	r3, #0
 80019ae:	d023      	beq.n	80019f8 <UART_WaitOnFlagUntilTimeout+0x8a>
 80019b0:	68bb      	ldr	r3, [r7, #8]
 80019b2:	2b80      	cmp	r3, #128	@ 0x80
 80019b4:	d020      	beq.n	80019f8 <UART_WaitOnFlagUntilTimeout+0x8a>
 80019b6:	68bb      	ldr	r3, [r7, #8]
 80019b8:	2b40      	cmp	r3, #64	@ 0x40
 80019ba:	d01d      	beq.n	80019f8 <UART_WaitOnFlagUntilTimeout+0x8a>
      {
        if (__HAL_UART_GET_FLAG(huart, UART_FLAG_ORE) == SET)
 80019bc:	68fb      	ldr	r3, [r7, #12]
 80019be:	681b      	ldr	r3, [r3, #0]
 80019c0:	681b      	ldr	r3, [r3, #0]
 80019c2:	f003 0308 	and.w	r3, r3, #8
 80019c6:	2b08      	cmp	r3, #8
 80019c8:	d116      	bne.n	80019f8 <UART_WaitOnFlagUntilTimeout+0x8a>
        {
          /* Clear Overrun Error flag*/
          __HAL_UART_CLEAR_OREFLAG(huart);
 80019ca:	2300      	movs	r3, #0
 80019cc:	617b      	str	r3, [r7, #20]
 80019ce:	68fb      	ldr	r3, [r7, #12]
 80019d0:	681b      	ldr	r3, [r3, #0]
 80019d2:	681b      	ldr	r3, [r3, #0]
 80019d4:	617b      	str	r3, [r7, #20]
 80019d6:	68fb      	ldr	r3, [r7, #12]
 80019d8:	681b      	ldr	r3, [r3, #0]
 80019da:	685b      	ldr	r3, [r3, #4]
 80019dc:	617b      	str	r3, [r7, #20]
 80019de:	697b      	ldr	r3, [r7, #20]

          /* Blocking error : transfer is aborted
          Set the UART state ready to be able to start again the process,
          Disable Rx Interrupts if ongoing */
          UART_EndRxTransfer(huart);
 80019e0:	68f8      	ldr	r0, [r7, #12]
 80019e2:	f000 f81d 	bl	8001a20 <UART_EndRxTransfer>

          huart->ErrorCode = HAL_UART_ERROR_ORE;
 80019e6:	68fb      	ldr	r3, [r7, #12]
 80019e8:	2208      	movs	r2, #8
 80019ea:	645a      	str	r2, [r3, #68]	@ 0x44

          /* Process Unlocked */
          __HAL_UNLOCK(huart);
 80019ec:	68fb      	ldr	r3, [r7, #12]
 80019ee:	2200      	movs	r2, #0
 80019f0:	f883 2040 	strb.w	r2, [r3, #64]	@ 0x40

          return HAL_ERROR;
 80019f4:	2301      	movs	r3, #1
 80019f6:	e00f      	b.n	8001a18 <UART_WaitOnFlagUntilTimeout+0xaa>
  while ((__HAL_UART_GET_FLAG(huart, Flag) ? SET : RESET) == Status)
 80019f8:	68fb      	ldr	r3, [r7, #12]
 80019fa:	681b      	ldr	r3, [r3, #0]
 80019fc:	681a      	ldr	r2, [r3, #0]
 80019fe:	68bb      	ldr	r3, [r7, #8]
 8001a00:	4013      	ands	r3, r2
 8001a02:	68ba      	ldr	r2, [r7, #8]
 8001a04:	429a      	cmp	r2, r3
 8001a06:	bf0c      	ite	eq
 8001a08:	2301      	moveq	r3, #1
 8001a0a:	2300      	movne	r3, #0
 8001a0c:	b2db      	uxtb	r3, r3
 8001a0e:	461a      	mov	r2, r3
 8001a10:	79fb      	ldrb	r3, [r7, #7]
 8001a12:	429a      	cmp	r2, r3
 8001a14:	d0b4      	beq.n	8001980 <UART_WaitOnFlagUntilTimeout+0x12>
        }
      }
    }
  }
  return HAL_OK;
 8001a16:	2300      	movs	r3, #0
}
 8001a18:	4618      	mov	r0, r3
 8001a1a:	3718      	adds	r7, #24
 8001a1c:	46bd      	mov	sp, r7
 8001a1e:	bd80      	pop	{r7, pc}

08001a20 <UART_EndRxTransfer>:
  * @brief  End ongoing Rx transfer on UART peripheral (following error detection or Reception completion).
  * @param  huart UART handle.
  * @retval None
  */
static void UART_EndRxTransfer(UART_HandleTypeDef *huart)
{
 8001a20:	b480      	push	{r7}
 8001a22:	b095      	sub	sp, #84	@ 0x54
 8001a24:	af00      	add	r7, sp, #0
 8001a26:	6078      	str	r0, [r7, #4]
  /* Disable RXNE, PE and ERR (Frame error, noise error, overrun error) interrupts */
  ATOMIC_CLEAR_BIT(huart->Instance->CR1, (USART_CR1_RXNEIE | USART_CR1_PEIE));
 8001a28:	687b      	ldr	r3, [r7, #4]
 8001a2a:	681b      	ldr	r3, [r3, #0]
 8001a2c:	330c      	adds	r3, #12
 8001a2e:	637b      	str	r3, [r7, #52]	@ 0x34
   __ASM volatile ("ldrex %0, %1" : "=r" (result) : "Q" (*addr) );
 8001a30:	6b7b      	ldr	r3, [r7, #52]	@ 0x34
 8001a32:	e853 3f00 	ldrex	r3, [r3]
 8001a36:	633b      	str	r3, [r7, #48]	@ 0x30
   return(result);
 8001a38:	6b3b      	ldr	r3, [r7, #48]	@ 0x30
 8001a3a:	f423 7390 	bic.w	r3, r3, #288	@ 0x120
 8001a3e:	64fb      	str	r3, [r7, #76]	@ 0x4c
 8001a40:	687b      	ldr	r3, [r7, #4]
 8001a42:	681b      	ldr	r3, [r3, #0]
 8001a44:	330c      	adds	r3, #12
 8001a46:	6cfa      	ldr	r2, [r7, #76]	@ 0x4c
 8001a48:	643a      	str	r2, [r7, #64]	@ 0x40
 8001a4a:	63fb      	str	r3, [r7, #60]	@ 0x3c
   __ASM volatile ("strex %0, %2, %1" : "=&r" (result), "=Q" (*addr) : "r" (value) );
 8001a4c:	6bf9      	ldr	r1, [r7, #60]	@ 0x3c
 8001a4e:	6c3a      	ldr	r2, [r7, #64]	@ 0x40
 8001a50:	e841 2300 	strex	r3, r2, [r1]
 8001a54:	63bb      	str	r3, [r7, #56]	@ 0x38
   return(result);
 8001a56:	6bbb      	ldr	r3, [r7, #56]	@ 0x38
 8001a58:	2b00      	cmp	r3, #0
 8001a5a:	d1e5      	bne.n	8001a28 <UART_EndRxTransfer+0x8>
  ATOMIC_CLEAR_BIT(huart->Instance->CR3, USART_CR3_EIE);
 8001a5c:	687b      	ldr	r3, [r7, #4]
 8001a5e:	681b      	ldr	r3, [r3, #0]
 8001a60:	3314      	adds	r3, #20
 8001a62:	623b      	str	r3, [r7, #32]
   __ASM volatile ("ldrex %0, %1" : "=r" (result) : "Q" (*addr) );
 8001a64:	6a3b      	ldr	r3, [r7, #32]
 8001a66:	e853 3f00 	ldrex	r3, [r3]
 8001a6a:	61fb      	str	r3, [r7, #28]
   return(result);
 8001a6c:	69fb      	ldr	r3, [r7, #28]
 8001a6e:	f023 0301 	bic.w	r3, r3, #1
 8001a72:	64bb      	str	r3, [r7, #72]	@ 0x48
 8001a74:	687b      	ldr	r3, [r7, #4]
 8001a76:	681b      	ldr	r3, [r3, #0]
 8001a78:	3314      	adds	r3, #20
 8001a7a:	6cba      	ldr	r2, [r7, #72]	@ 0x48
 8001a7c:	62fa      	str	r2, [r7, #44]	@ 0x2c
 8001a7e:	62bb      	str	r3, [r7, #40]	@ 0x28
   __ASM volatile ("strex %0, %2, %1" : "=&r" (result), "=Q" (*addr) : "r" (value) );
 8001a80:	6ab9      	ldr	r1, [r7, #40]	@ 0x28
 8001a82:	6afa      	ldr	r2, [r7, #44]	@ 0x2c
 8001a84:	e841 2300 	strex	r3, r2, [r1]
 8001a88:	627b      	str	r3, [r7, #36]	@ 0x24
   return(result);
 8001a8a:	6a7b      	ldr	r3, [r7, #36]	@ 0x24
 8001a8c:	2b00      	cmp	r3, #0
 8001a8e:	d1e5      	bne.n	8001a5c <UART_EndRxTransfer+0x3c>

  /* In case of reception waiting for IDLE event, disable also the IDLE IE interrupt source */
  if (huart->ReceptionType == HAL_UART_RECEPTION_TOIDLE)
 8001a90:	687b      	ldr	r3, [r7, #4]
 8001a92:	6b1b      	ldr	r3, [r3, #48]	@ 0x30
 8001a94:	2b01      	cmp	r3, #1
 8001a96:	d119      	bne.n	8001acc <UART_EndRxTransfer+0xac>
  {
    ATOMIC_CLEAR_BIT(huart->Instance->CR1, USART_CR1_IDLEIE);
 8001a98:	687b      	ldr	r3, [r7, #4]
 8001a9a:	681b      	ldr	r3, [r3, #0]
 8001a9c:	330c      	adds	r3, #12
 8001a9e:	60fb      	str	r3, [r7, #12]
   __ASM volatile ("ldrex %0, %1" : "=r" (result) : "Q" (*addr) );
 8001aa0:	68fb      	ldr	r3, [r7, #12]
 8001aa2:	e853 3f00 	ldrex	r3, [r3]
 8001aa6:	60bb      	str	r3, [r7, #8]
   return(result);
 8001aa8:	68bb      	ldr	r3, [r7, #8]
 8001aaa:	f023 0310 	bic.w	r3, r3, #16
 8001aae:	647b      	str	r3, [r7, #68]	@ 0x44
 8001ab0:	687b      	ldr	r3, [r7, #4]
 8001ab2:	681b      	ldr	r3, [r3, #0]
 8001ab4:	330c      	adds	r3, #12
 8001ab6:	6c7a      	ldr	r2, [r7, #68]	@ 0x44
 8001ab8:	61ba      	str	r2, [r7, #24]
 8001aba:	617b      	str	r3, [r7, #20]
   __ASM volatile ("strex %0, %2, %1" : "=&r" (result), "=Q" (*addr) : "r" (value) );
 8001abc:	6979      	ldr	r1, [r7, #20]
 8001abe:	69ba      	ldr	r2, [r7, #24]
 8001ac0:	e841 2300 	strex	r3, r2, [r1]
 8001ac4:	613b      	str	r3, [r7, #16]
   return(result);
 8001ac6:	693b      	ldr	r3, [r7, #16]
 8001ac8:	2b00      	cmp	r3, #0
 8001aca:	d1e5      	bne.n	8001a98 <UART_EndRxTransfer+0x78>
  }

  /* At end of Rx process, restore huart->RxState to Ready */
  huart->RxState = HAL_UART_STATE_READY;
 8001acc:	687b      	ldr	r3, [r7, #4]
 8001ace:	2220      	movs	r2, #32
 8001ad0:	f883 2042 	strb.w	r2, [r3, #66]	@ 0x42
  huart->ReceptionType = HAL_UART_RECEPTION_STANDARD;
 8001ad4:	687b      	ldr	r3, [r7, #4]
 8001ad6:	2200      	movs	r2, #0
 8001ad8:	631a      	str	r2, [r3, #48]	@ 0x30
}
 8001ada:	bf00      	nop
 8001adc:	3754      	adds	r7, #84	@ 0x54
 8001ade:	46bd      	mov	sp, r7
 8001ae0:	f85d 7b04 	ldr.w	r7, [sp], #4
 8001ae4:	4770      	bx	lr
	...

08001ae8 <UART_SetConfig>:
  * @param  huart  Pointer to a UART_HandleTypeDef structure that contains
  *                the configuration information for the specified UART module.
  * @retval None
  */
static void UART_SetConfig(UART_HandleTypeDef *huart)
{
 8001ae8:	e92d 4fb0 	stmdb	sp!, {r4, r5, r7, r8, r9, sl, fp, lr}
 8001aec:	b0c0      	sub	sp, #256	@ 0x100
 8001aee:	af00      	add	r7, sp, #0
 8001af0:	f8c7 00f4 	str.w	r0, [r7, #244]	@ 0xf4
  assert_param(IS_UART_MODE(huart->Init.Mode));

  /*-------------------------- USART CR2 Configuration -----------------------*/
  /* Configure the UART Stop Bits: Set STOP[13:12] bits
     according to huart->Init.StopBits value */
  MODIFY_REG(huart->Instance->CR2, USART_CR2_STOP, huart->Init.StopBits);
 8001af4:	f8d7 30f4 	ldr.w	r3, [r7, #244]	@ 0xf4
 8001af8:	681b      	ldr	r3, [r3, #0]
 8001afa:	691b      	ldr	r3, [r3, #16]
 8001afc:	f423 5040 	bic.w	r0, r3, #12288	@ 0x3000
 8001b00:	f8d7 30f4 	ldr.w	r3, [r7, #244]	@ 0xf4
 8001b04:	68d9      	ldr	r1, [r3, #12]
 8001b06:	f8d7 30f4 	ldr.w	r3, [r7, #244]	@ 0xf4
 8001b0a:	681a      	ldr	r2, [r3, #0]
 8001b0c:	ea40 0301 	orr.w	r3, r0, r1
 8001b10:	6113      	str	r3, [r2, #16]
     Set the M bits according to huart->Init.WordLength value
     Set PCE and PS bits according to huart->Init.Parity value
     Set TE and RE bits according to huart->Init.Mode value
     Set OVER8 bit according to huart->Init.OverSampling value */

  tmpreg = (uint32_t)huart->Init.WordLength | huart->Init.Parity | huart->Init.Mode | huart->Init.OverSampling;
 8001b12:	f8d7 30f4 	ldr.w	r3, [r7, #244]	@ 0xf4
 8001b16:	689a      	ldr	r2, [r3, #8]
 8001b18:	f8d7 30f4 	ldr.w	r3, [r7, #244]	@ 0xf4
 8001b1c:	691b      	ldr	r3, [r3, #16]
 8001b1e:	431a      	orrs	r2, r3
 8001b20:	f8d7 30f4 	ldr.w	r3, [r7, #244]	@ 0xf4
 8001b24:	695b      	ldr	r3, [r3, #20]
 8001b26:	431a      	orrs	r2, r3
 8001b28:	f8d7 30f4 	ldr.w	r3, [r7, #244]	@ 0xf4
 8001b2c:	69db      	ldr	r3, [r3, #28]
 8001b2e:	4313      	orrs	r3, r2
 8001b30:	f8c7 30f8 	str.w	r3, [r7, #248]	@ 0xf8
  MODIFY_REG(huart->Instance->CR1,
 8001b34:	f8d7 30f4 	ldr.w	r3, [r7, #244]	@ 0xf4
 8001b38:	681b      	ldr	r3, [r3, #0]
 8001b3a:	68db      	ldr	r3, [r3, #12]
 8001b3c:	f423 4116 	bic.w	r1, r3, #38400	@ 0x9600
 8001b40:	f021 010c 	bic.w	r1, r1, #12
 8001b44:	f8d7 30f4 	ldr.w	r3, [r7, #244]	@ 0xf4
 8001b48:	681a      	ldr	r2, [r3, #0]
 8001b4a:	f8d7 30f8 	ldr.w	r3, [r7, #248]	@ 0xf8
 8001b4e:	430b      	orrs	r3, r1
 8001b50:	60d3      	str	r3, [r2, #12]
             (uint32_t)(USART_CR1_M | USART_CR1_PCE | USART_CR1_PS | USART_CR1_TE | USART_CR1_RE | USART_CR1_OVER8),
             tmpreg);

  /*-------------------------- USART CR3 Configuration -----------------------*/
  /* Configure the UART HFC: Set CTSE and RTSE bits according to huart->Init.HwFlowCtl value */
  MODIFY_REG(huart->Instance->CR3, (USART_CR3_RTSE | USART_CR3_CTSE), huart->Init.HwFlowCtl);
 8001b52:	f8d7 30f4 	ldr.w	r3, [r7, #244]	@ 0xf4
 8001b56:	681b      	ldr	r3, [r3, #0]
 8001b58:	695b      	ldr	r3, [r3, #20]
 8001b5a:	f423 7040 	bic.w	r0, r3, #768	@ 0x300
 8001b5e:	f8d7 30f4 	ldr.w	r3, [r7, #244]	@ 0xf4
 8001b62:	6999      	ldr	r1, [r3, #24]
 8001b64:	f8d7 30f4 	ldr.w	r3, [r7, #244]	@ 0xf4
 8001b68:	681a      	ldr	r2, [r3, #0]
 8001b6a:	ea40 0301 	orr.w	r3, r0, r1
 8001b6e:	6153      	str	r3, [r2, #20]
    if ((huart->Instance == USART1) || (huart->Instance == USART6) || (huart->Instance == UART9) || (huart->Instance == UART10))
    {
      pclk = HAL_RCC_GetPCLK2Freq();
    }
#elif defined(USART6)
    if ((huart->Instance == USART1) || (huart->Instance == USART6))
 8001b70:	f8d7 30f4 	ldr.w	r3, [r7, #244]	@ 0xf4
 8001b74:	681a      	ldr	r2, [r3, #0]
 8001b76:	4b8f      	ldr	r3, [pc, #572]	@ (8001db4 <UART_SetConfig+0x2cc>)
 8001b78:	429a      	cmp	r2, r3
 8001b7a:	d005      	beq.n	8001b88 <UART_SetConfig+0xa0>
 8001b7c:	f8d7 30f4 	ldr.w	r3, [r7, #244]	@ 0xf4
 8001b80:	681a      	ldr	r2, [r3, #0]
 8001b82:	4b8d      	ldr	r3, [pc, #564]	@ (8001db8 <UART_SetConfig+0x2d0>)
 8001b84:	429a      	cmp	r2, r3
 8001b86:	d104      	bne.n	8001b92 <UART_SetConfig+0xaa>
    {
      pclk = HAL_RCC_GetPCLK2Freq();
 8001b88:	f7ff fe02 	bl	8001790 <HAL_RCC_GetPCLK2Freq>
 8001b8c:	f8c7 00fc 	str.w	r0, [r7, #252]	@ 0xfc
 8001b90:	e003      	b.n	8001b9a <UART_SetConfig+0xb2>
      pclk = HAL_RCC_GetPCLK2Freq();
    }
#endif /* USART6 */
    else
    {
      pclk = HAL_RCC_GetPCLK1Freq();
 8001b92:	f7ff fde9 	bl	8001768 <HAL_RCC_GetPCLK1Freq>
 8001b96:	f8c7 00fc 	str.w	r0, [r7, #252]	@ 0xfc
    }
  /*-------------------------- USART BRR Configuration ---------------------*/
  if (huart->Init.OverSampling == UART_OVERSAMPLING_8)
 8001b9a:	f8d7 30f4 	ldr.w	r3, [r7, #244]	@ 0xf4
 8001b9e:	69db      	ldr	r3, [r3, #28]
 8001ba0:	f5b3 4f00 	cmp.w	r3, #32768	@ 0x8000
 8001ba4:	f040 810c 	bne.w	8001dc0 <UART_SetConfig+0x2d8>
  {
    huart->Instance->BRR = UART_BRR_SAMPLING8(pclk, huart->Init.BaudRate);
 8001ba8:	f8d7 30fc 	ldr.w	r3, [r7, #252]	@ 0xfc
 8001bac:	2200      	movs	r2, #0
 8001bae:	f8c7 30e8 	str.w	r3, [r7, #232]	@ 0xe8
 8001bb2:	f8c7 20ec 	str.w	r2, [r7, #236]	@ 0xec
 8001bb6:	e9d7 453a 	ldrd	r4, r5, [r7, #232]	@ 0xe8
 8001bba:	4622      	mov	r2, r4
 8001bbc:	462b      	mov	r3, r5
 8001bbe:	1891      	adds	r1, r2, r2
 8001bc0:	65b9      	str	r1, [r7, #88]	@ 0x58
 8001bc2:	415b      	adcs	r3, r3
 8001bc4:	65fb      	str	r3, [r7, #92]	@ 0x5c
 8001bc6:	e9d7 2316 	ldrd	r2, r3, [r7, #88]	@ 0x58
 8001bca:	4621      	mov	r1, r4
 8001bcc:	eb12 0801 	adds.w	r8, r2, r1
 8001bd0:	4629      	mov	r1, r5
 8001bd2:	eb43 0901 	adc.w	r9, r3, r1
 8001bd6:	f04f 0200 	mov.w	r2, #0
 8001bda:	f04f 0300 	mov.w	r3, #0
 8001bde:	ea4f 03c9 	mov.w	r3, r9, lsl #3
 8001be2:	ea43 7358 	orr.w	r3, r3, r8, lsr #29
 8001be6:	ea4f 02c8 	mov.w	r2, r8, lsl #3
 8001bea:	4690      	mov	r8, r2
 8001bec:	4699      	mov	r9, r3
 8001bee:	4623      	mov	r3, r4
 8001bf0:	eb18 0303 	adds.w	r3, r8, r3
 8001bf4:	f8c7 30e0 	str.w	r3, [r7, #224]	@ 0xe0
 8001bf8:	462b      	mov	r3, r5
 8001bfa:	eb49 0303 	adc.w	r3, r9, r3
 8001bfe:	f8c7 30e4 	str.w	r3, [r7, #228]	@ 0xe4
 8001c02:	f8d7 30f4 	ldr.w	r3, [r7, #244]	@ 0xf4
 8001c06:	685b      	ldr	r3, [r3, #4]
 8001c08:	2200      	movs	r2, #0
 8001c0a:	f8c7 30d8 	str.w	r3, [r7, #216]	@ 0xd8
 8001c0e:	f8c7 20dc 	str.w	r2, [r7, #220]	@ 0xdc
 8001c12:	e9d7 1236 	ldrd	r1, r2, [r7, #216]	@ 0xd8
 8001c16:	460b      	mov	r3, r1
 8001c18:	18db      	adds	r3, r3, r3
 8001c1a:	653b      	str	r3, [r7, #80]	@ 0x50
 8001c1c:	4613      	mov	r3, r2
 8001c1e:	eb42 0303 	adc.w	r3, r2, r3
 8001c22:	657b      	str	r3, [r7, #84]	@ 0x54
 8001c24:	e9d7 2314 	ldrd	r2, r3, [r7, #80]	@ 0x50
 8001c28:	e9d7 0138 	ldrd	r0, r1, [r7, #224]	@ 0xe0
 8001c2c:	f7fe fad2 	bl	80001d4 <__aeabi_uldivmod>
 8001c30:	4602      	mov	r2, r0
 8001c32:	460b      	mov	r3, r1
 8001c34:	4b61      	ldr	r3, [pc, #388]	@ (8001dbc <UART_SetConfig+0x2d4>)
 8001c36:	fba3 2302 	umull	r2, r3, r3, r2
 8001c3a:	095b      	lsrs	r3, r3, #5
 8001c3c:	011c      	lsls	r4, r3, #4
 8001c3e:	f8d7 30fc 	ldr.w	r3, [r7, #252]	@ 0xfc
 8001c42:	2200      	movs	r2, #0
 8001c44:	f8c7 30d0 	str.w	r3, [r7, #208]	@ 0xd0
 8001c48:	f8c7 20d4 	str.w	r2, [r7, #212]	@ 0xd4
 8001c4c:	e9d7 8934 	ldrd	r8, r9, [r7, #208]	@ 0xd0
 8001c50:	4642      	mov	r2, r8
 8001c52:	464b      	mov	r3, r9
 8001c54:	1891      	adds	r1, r2, r2
 8001c56:	64b9      	str	r1, [r7, #72]	@ 0x48
 8001c58:	415b      	adcs	r3, r3
 8001c5a:	64fb      	str	r3, [r7, #76]	@ 0x4c
 8001c5c:	e9d7 2312 	ldrd	r2, r3, [r7, #72]	@ 0x48
 8001c60:	4641      	mov	r1, r8
 8001c62:	eb12 0a01 	adds.w	sl, r2, r1
 8001c66:	4649      	mov	r1, r9
 8001c68:	eb43 0b01 	adc.w	fp, r3, r1
 8001c6c:	f04f 0200 	mov.w	r2, #0
 8001c70:	f04f 0300 	mov.w	r3, #0
 8001c74:	ea4f 03cb 	mov.w	r3, fp, lsl #3
 8001c78:	ea43 735a 	orr.w	r3, r3, sl, lsr #29
 8001c7c:	ea4f 02ca 	mov.w	r2, sl, lsl #3
 8001c80:	4692      	mov	sl, r2
 8001c82:	469b      	mov	fp, r3
 8001c84:	4643      	mov	r3, r8
 8001c86:	eb1a 0303 	adds.w	r3, sl, r3
 8001c8a:	f8c7 30c8 	str.w	r3, [r7, #200]	@ 0xc8
 8001c8e:	464b      	mov	r3, r9
 8001c90:	eb4b 0303 	adc.w	r3, fp, r3
 8001c94:	f8c7 30cc 	str.w	r3, [r7, #204]	@ 0xcc
 8001c98:	f8d7 30f4 	ldr.w	r3, [r7, #244]	@ 0xf4
 8001c9c:	685b      	ldr	r3, [r3, #4]
 8001c9e:	2200      	movs	r2, #0
 8001ca0:	f8c7 30c0 	str.w	r3, [r7, #192]	@ 0xc0
 8001ca4:	f8c7 20c4 	str.w	r2, [r7, #196]	@ 0xc4
 8001ca8:	e9d7 1230 	ldrd	r1, r2, [r7, #192]	@ 0xc0
 8001cac:	460b      	mov	r3, r1
 8001cae:	18db      	adds	r3, r3, r3
 8001cb0:	643b      	str	r3, [r7, #64]	@ 0x40
 8001cb2:	4613      	mov	r3, r2
 8001cb4:	eb42 0303 	adc.w	r3, r2, r3
 8001cb8:	647b      	str	r3, [r7, #68]	@ 0x44
 8001cba:	e9d7 2310 	ldrd	r2, r3, [r7, #64]	@ 0x40
 8001cbe:	e9d7 0132 	ldrd	r0, r1, [r7, #200]	@ 0xc8
 8001cc2:	f7fe fa87 	bl	80001d4 <__aeabi_uldivmod>
 8001cc6:	4602      	mov	r2, r0
 8001cc8:	460b      	mov	r3, r1
 8001cca:	4611      	mov	r1, r2
 8001ccc:	4b3b      	ldr	r3, [pc, #236]	@ (8001dbc <UART_SetConfig+0x2d4>)
 8001cce:	fba3 2301 	umull	r2, r3, r3, r1
 8001cd2:	095b      	lsrs	r3, r3, #5
 8001cd4:	2264      	movs	r2, #100	@ 0x64
 8001cd6:	fb02 f303 	mul.w	r3, r2, r3
 8001cda:	1acb      	subs	r3, r1, r3
 8001cdc:	00db      	lsls	r3, r3, #3
 8001cde:	f103 0232 	add.w	r2, r3, #50	@ 0x32
 8001ce2:	4b36      	ldr	r3, [pc, #216]	@ (8001dbc <UART_SetConfig+0x2d4>)
 8001ce4:	fba3 2302 	umull	r2, r3, r3, r2
 8001ce8:	095b      	lsrs	r3, r3, #5
 8001cea:	005b      	lsls	r3, r3, #1
 8001cec:	f403 73f8 	and.w	r3, r3, #496	@ 0x1f0
 8001cf0:	441c      	add	r4, r3
 8001cf2:	f8d7 30fc 	ldr.w	r3, [r7, #252]	@ 0xfc
 8001cf6:	2200      	movs	r2, #0
 8001cf8:	f8c7 30b8 	str.w	r3, [r7, #184]	@ 0xb8
 8001cfc:	f8c7 20bc 	str.w	r2, [r7, #188]	@ 0xbc
 8001d00:	e9d7 892e 	ldrd	r8, r9, [r7, #184]	@ 0xb8
 8001d04:	4642      	mov	r2, r8
 8001d06:	464b      	mov	r3, r9
 8001d08:	1891      	adds	r1, r2, r2
 8001d0a:	63b9      	str	r1, [r7, #56]	@ 0x38
 8001d0c:	415b      	adcs	r3, r3
 8001d0e:	63fb      	str	r3, [r7, #60]	@ 0x3c
 8001d10:	e9d7 230e 	ldrd	r2, r3, [r7, #56]	@ 0x38
 8001d14:	4641      	mov	r1, r8
 8001d16:	1851      	adds	r1, r2, r1
 8001d18:	6339      	str	r1, [r7, #48]	@ 0x30
 8001d1a:	4649      	mov	r1, r9
 8001d1c:	414b      	adcs	r3, r1
 8001d1e:	637b      	str	r3, [r7, #52]	@ 0x34
 8001d20:	f04f 0200 	mov.w	r2, #0
 8001d24:	f04f 0300 	mov.w	r3, #0
 8001d28:	e9d7 ab0c 	ldrd	sl, fp, [r7, #48]	@ 0x30
 8001d2c:	4659      	mov	r1, fp
 8001d2e:	00cb      	lsls	r3, r1, #3
 8001d30:	4651      	mov	r1, sl
 8001d32:	ea43 7351 	orr.w	r3, r3, r1, lsr #29
 8001d36:	4651      	mov	r1, sl
 8001d38:	00ca      	lsls	r2, r1, #3
 8001d3a:	4610      	mov	r0, r2
 8001d3c:	4619      	mov	r1, r3
 8001d3e:	4603      	mov	r3, r0
 8001d40:	4642      	mov	r2, r8
 8001d42:	189b      	adds	r3, r3, r2
 8001d44:	f8c7 30b0 	str.w	r3, [r7, #176]	@ 0xb0
 8001d48:	464b      	mov	r3, r9
 8001d4a:	460a      	mov	r2, r1
 8001d4c:	eb42 0303 	adc.w	r3, r2, r3
 8001d50:	f8c7 30b4 	str.w	r3, [r7, #180]	@ 0xb4
 8001d54:	f8d7 30f4 	ldr.w	r3, [r7, #244]	@ 0xf4
 8001d58:	685b      	ldr	r3, [r3, #4]
 8001d5a:	2200      	movs	r2, #0
 8001d5c:	f8c7 30a8 	str.w	r3, [r7, #168]	@ 0xa8
 8001d60:	f8c7 20ac 	str.w	r2, [r7, #172]	@ 0xac
 8001d64:	e9d7 122a 	ldrd	r1, r2, [r7, #168]	@ 0xa8
 8001d68:	460b      	mov	r3, r1
 8001d6a:	18db      	adds	r3, r3, r3
 8001d6c:	62bb      	str	r3, [r7, #40]	@ 0x28
 8001d6e:	4613      	mov	r3, r2
 8001d70:	eb42 0303 	adc.w	r3, r2, r3
 8001d74:	62fb      	str	r3, [r7, #44]	@ 0x2c
 8001d76:	e9d7 230a 	ldrd	r2, r3, [r7, #40]	@ 0x28
 8001d7a:	e9d7 012c 	ldrd	r0, r1, [r7, #176]	@ 0xb0
 8001d7e:	f7fe fa29 	bl	80001d4 <__aeabi_uldivmod>
 8001d82:	4602      	mov	r2, r0
 8001d84:	460b      	mov	r3, r1
 8001d86:	4b0d      	ldr	r3, [pc, #52]	@ (8001dbc <UART_SetConfig+0x2d4>)
 8001d88:	fba3 1302 	umull	r1, r3, r3, r2
 8001d8c:	095b      	lsrs	r3, r3, #5
 8001d8e:	2164      	movs	r1, #100	@ 0x64
 8001d90:	fb01 f303 	mul.w	r3, r1, r3
 8001d94:	1ad3      	subs	r3, r2, r3
 8001d96:	00db      	lsls	r3, r3, #3
 8001d98:	3332      	adds	r3, #50	@ 0x32
 8001d9a:	4a08      	ldr	r2, [pc, #32]	@ (8001dbc <UART_SetConfig+0x2d4>)
 8001d9c:	fba2 2303 	umull	r2, r3, r2, r3
 8001da0:	095b      	lsrs	r3, r3, #5
 8001da2:	f003 0207 	and.w	r2, r3, #7
 8001da6:	f8d7 30f4 	ldr.w	r3, [r7, #244]	@ 0xf4
 8001daa:	681b      	ldr	r3, [r3, #0]
 8001dac:	4422      	add	r2, r4
 8001dae:	609a      	str	r2, [r3, #8]
  }
  else
  {
    huart->Instance->BRR = UART_BRR_SAMPLING16(pclk, huart->Init.BaudRate);
  }
}
 8001db0:	e106      	b.n	8001fc0 <UART_SetConfig+0x4d8>
 8001db2:	bf00      	nop
 8001db4:	40011000 	.word	0x40011000
 8001db8:	40011400 	.word	0x40011400
 8001dbc:	51eb851f 	.word	0x51eb851f
    huart->Instance->BRR = UART_BRR_SAMPLING16(pclk, huart->Init.BaudRate);
 8001dc0:	f8d7 30fc 	ldr.w	r3, [r7, #252]	@ 0xfc
 8001dc4:	2200      	movs	r2, #0
 8001dc6:	f8c7 30a0 	str.w	r3, [r7, #160]	@ 0xa0
 8001dca:	f8c7 20a4 	str.w	r2, [r7, #164]	@ 0xa4
 8001dce:	e9d7 8928 	ldrd	r8, r9, [r7, #160]	@ 0xa0
 8001dd2:	4642      	mov	r2, r8
 8001dd4:	464b      	mov	r3, r9
 8001dd6:	1891      	adds	r1, r2, r2
 8001dd8:	6239      	str	r1, [r7, #32]
 8001dda:	415b      	adcs	r3, r3
 8001ddc:	627b      	str	r3, [r7, #36]	@ 0x24
 8001dde:	e9d7 2308 	ldrd	r2, r3, [r7, #32]
 8001de2:	4641      	mov	r1, r8
 8001de4:	1854      	adds	r4, r2, r1
 8001de6:	4649      	mov	r1, r9
 8001de8:	eb43 0501 	adc.w	r5, r3, r1
 8001dec:	f04f 0200 	mov.w	r2, #0
 8001df0:	f04f 0300 	mov.w	r3, #0
 8001df4:	00eb      	lsls	r3, r5, #3
 8001df6:	ea43 7354 	orr.w	r3, r3, r4, lsr #29
 8001dfa:	00e2      	lsls	r2, r4, #3
 8001dfc:	4614      	mov	r4, r2
 8001dfe:	461d      	mov	r5, r3
 8001e00:	4643      	mov	r3, r8
 8001e02:	18e3      	adds	r3, r4, r3
 8001e04:	f8c7 3098 	str.w	r3, [r7, #152]	@ 0x98
 8001e08:	464b      	mov	r3, r9
 8001e0a:	eb45 0303 	adc.w	r3, r5, r3
 8001e0e:	f8c7 309c 	str.w	r3, [r7, #156]	@ 0x9c
 8001e12:	f8d7 30f4 	ldr.w	r3, [r7, #244]	@ 0xf4
 8001e16:	685b      	ldr	r3, [r3, #4]
 8001e18:	2200      	movs	r2, #0
 8001e1a:	f8c7 3090 	str.w	r3, [r7, #144]	@ 0x90
 8001e1e:	f8c7 2094 	str.w	r2, [r7, #148]	@ 0x94
 8001e22:	f04f 0200 	mov.w	r2, #0
 8001e26:	f04f 0300 	mov.w	r3, #0
 8001e2a:	e9d7 4524 	ldrd	r4, r5, [r7, #144]	@ 0x90
 8001e2e:	4629      	mov	r1, r5
 8001e30:	008b      	lsls	r3, r1, #2
 8001e32:	4621      	mov	r1, r4
 8001e34:	ea43 7391 	orr.w	r3, r3, r1, lsr #30
 8001e38:	4621      	mov	r1, r4
 8001e3a:	008a      	lsls	r2, r1, #2
 8001e3c:	e9d7 0126 	ldrd	r0, r1, [r7, #152]	@ 0x98
 8001e40:	f7fe f9c8 	bl	80001d4 <__aeabi_uldivmod>
 8001e44:	4602      	mov	r2, r0
 8001e46:	460b      	mov	r3, r1
 8001e48:	4b60      	ldr	r3, [pc, #384]	@ (8001fcc <UART_SetConfig+0x4e4>)
 8001e4a:	fba3 2302 	umull	r2, r3, r3, r2
 8001e4e:	095b      	lsrs	r3, r3, #5
 8001e50:	011c      	lsls	r4, r3, #4
 8001e52:	f8d7 30fc 	ldr.w	r3, [r7, #252]	@ 0xfc
 8001e56:	2200      	movs	r2, #0
 8001e58:	f8c7 3088 	str.w	r3, [r7, #136]	@ 0x88
 8001e5c:	f8c7 208c 	str.w	r2, [r7, #140]	@ 0x8c
 8001e60:	e9d7 8922 	ldrd	r8, r9, [r7, #136]	@ 0x88
 8001e64:	4642      	mov	r2, r8
 8001e66:	464b      	mov	r3, r9
 8001e68:	1891      	adds	r1, r2, r2
 8001e6a:	61b9      	str	r1, [r7, #24]
 8001e6c:	415b      	adcs	r3, r3
 8001e6e:	61fb      	str	r3, [r7, #28]
 8001e70:	e9d7 2306 	ldrd	r2, r3, [r7, #24]
 8001e74:	4641      	mov	r1, r8
 8001e76:	1851      	adds	r1, r2, r1
 8001e78:	6139      	str	r1, [r7, #16]
 8001e7a:	4649      	mov	r1, r9
 8001e7c:	414b      	adcs	r3, r1
 8001e7e:	617b      	str	r3, [r7, #20]
 8001e80:	f04f 0200 	mov.w	r2, #0
 8001e84:	f04f 0300 	mov.w	r3, #0
 8001e88:	e9d7 ab04 	ldrd	sl, fp, [r7, #16]
 8001e8c:	4659      	mov	r1, fp
 8001e8e:	00cb      	lsls	r3, r1, #3
 8001e90:	4651      	mov	r1, sl
 8001e92:	ea43 7351 	orr.w	r3, r3, r1, lsr #29
 8001e96:	4651      	mov	r1, sl
 8001e98:	00ca      	lsls	r2, r1, #3
 8001e9a:	4610      	mov	r0, r2
 8001e9c:	4619      	mov	r1, r3
 8001e9e:	4603      	mov	r3, r0
 8001ea0:	4642      	mov	r2, r8
 8001ea2:	189b      	adds	r3, r3, r2
 8001ea4:	f8c7 3080 	str.w	r3, [r7, #128]	@ 0x80
 8001ea8:	464b      	mov	r3, r9
 8001eaa:	460a      	mov	r2, r1
 8001eac:	eb42 0303 	adc.w	r3, r2, r3
 8001eb0:	f8c7 3084 	str.w	r3, [r7, #132]	@ 0x84
 8001eb4:	f8d7 30f4 	ldr.w	r3, [r7, #244]	@ 0xf4
 8001eb8:	685b      	ldr	r3, [r3, #4]
 8001eba:	2200      	movs	r2, #0
 8001ebc:	67bb      	str	r3, [r7, #120]	@ 0x78
 8001ebe:	67fa      	str	r2, [r7, #124]	@ 0x7c
 8001ec0:	f04f 0200 	mov.w	r2, #0
 8001ec4:	f04f 0300 	mov.w	r3, #0
 8001ec8:	e9d7 891e 	ldrd	r8, r9, [r7, #120]	@ 0x78
 8001ecc:	4649      	mov	r1, r9
 8001ece:	008b      	lsls	r3, r1, #2
 8001ed0:	4641      	mov	r1, r8
 8001ed2:	ea43 7391 	orr.w	r3, r3, r1, lsr #30
 8001ed6:	4641      	mov	r1, r8
 8001ed8:	008a      	lsls	r2, r1, #2
 8001eda:	e9d7 0120 	ldrd	r0, r1, [r7, #128]	@ 0x80
 8001ede:	f7fe f979 	bl	80001d4 <__aeabi_uldivmod>
 8001ee2:	4602      	mov	r2, r0
 8001ee4:	460b      	mov	r3, r1
 8001ee6:	4611      	mov	r1, r2
 8001ee8:	4b38      	ldr	r3, [pc, #224]	@ (8001fcc <UART_SetConfig+0x4e4>)
 8001eea:	fba3 2301 	umull	r2, r3, r3, r1
 8001eee:	095b      	lsrs	r3, r3, #5
 8001ef0:	2264      	movs	r2, #100	@ 0x64
 8001ef2:	fb02 f303 	mul.w	r3, r2, r3
 8001ef6:	1acb      	subs	r3, r1, r3
 8001ef8:	011b      	lsls	r3, r3, #4
 8001efa:	3332      	adds	r3, #50	@ 0x32
 8001efc:	4a33      	ldr	r2, [pc, #204]	@ (8001fcc <UART_SetConfig+0x4e4>)
 8001efe:	fba2 2303 	umull	r2, r3, r2, r3
 8001f02:	095b      	lsrs	r3, r3, #5
 8001f04:	f003 03f0 	and.w	r3, r3, #240	@ 0xf0
 8001f08:	441c      	add	r4, r3
 8001f0a:	f8d7 30fc 	ldr.w	r3, [r7, #252]	@ 0xfc
 8001f0e:	2200      	movs	r2, #0
 8001f10:	673b      	str	r3, [r7, #112]	@ 0x70
 8001f12:	677a      	str	r2, [r7, #116]	@ 0x74
 8001f14:	e9d7 891c 	ldrd	r8, r9, [r7, #112]	@ 0x70
 8001f18:	4642      	mov	r2, r8
 8001f1a:	464b      	mov	r3, r9
 8001f1c:	1891      	adds	r1, r2, r2
 8001f1e:	60b9      	str	r1, [r7, #8]
 8001f20:	415b      	adcs	r3, r3
 8001f22:	60fb      	str	r3, [r7, #12]
 8001f24:	e9d7 2302 	ldrd	r2, r3, [r7, #8]
 8001f28:	4641      	mov	r1, r8
 8001f2a:	1851      	adds	r1, r2, r1
 8001f2c:	6039      	str	r1, [r7, #0]
 8001f2e:	4649      	mov	r1, r9
 8001f30:	414b      	adcs	r3, r1
 8001f32:	607b      	str	r3, [r7, #4]
 8001f34:	f04f 0200 	mov.w	r2, #0
 8001f38:	f04f 0300 	mov.w	r3, #0
 8001f3c:	e9d7 ab00 	ldrd	sl, fp, [r7]
 8001f40:	4659      	mov	r1, fp
 8001f42:	00cb      	lsls	r3, r1, #3
 8001f44:	4651      	mov	r1, sl
 8001f46:	ea43 7351 	orr.w	r3, r3, r1, lsr #29
 8001f4a:	4651      	mov	r1, sl
 8001f4c:	00ca      	lsls	r2, r1, #3
 8001f4e:	4610      	mov	r0, r2
 8001f50:	4619      	mov	r1, r3
 8001f52:	4603      	mov	r3, r0
 8001f54:	4642      	mov	r2, r8
 8001f56:	189b      	adds	r3, r3, r2
 8001f58:	66bb      	str	r3, [r7, #104]	@ 0x68
 8001f5a:	464b      	mov	r3, r9
 8001f5c:	460a      	mov	r2, r1
 8001f5e:	eb42 0303 	adc.w	r3, r2, r3
 8001f62:	66fb      	str	r3, [r7, #108]	@ 0x6c
 8001f64:	f8d7 30f4 	ldr.w	r3, [r7, #244]	@ 0xf4
 8001f68:	685b      	ldr	r3, [r3, #4]
 8001f6a:	2200      	movs	r2, #0
 8001f6c:	663b      	str	r3, [r7, #96]	@ 0x60
 8001f6e:	667a      	str	r2, [r7, #100]	@ 0x64
 8001f70:	f04f 0200 	mov.w	r2, #0
 8001f74:	f04f 0300 	mov.w	r3, #0
 8001f78:	e9d7 8918 	ldrd	r8, r9, [r7, #96]	@ 0x60
 8001f7c:	4649      	mov	r1, r9
 8001f7e:	008b      	lsls	r3, r1, #2
 8001f80:	4641      	mov	r1, r8
 8001f82:	ea43 7391 	orr.w	r3, r3, r1, lsr #30
 8001f86:	4641      	mov	r1, r8
 8001f88:	008a      	lsls	r2, r1, #2
 8001f8a:	e9d7 011a 	ldrd	r0, r1, [r7, #104]	@ 0x68
 8001f8e:	f7fe f921 	bl	80001d4 <__aeabi_uldivmod>
 8001f92:	4602      	mov	r2, r0
 8001f94:	460b      	mov	r3, r1
 8001f96:	4b0d      	ldr	r3, [pc, #52]	@ (8001fcc <UART_SetConfig+0x4e4>)
 8001f98:	fba3 1302 	umull	r1, r3, r3, r2
 8001f9c:	095b      	lsrs	r3, r3, #5
 8001f9e:	2164      	movs	r1, #100	@ 0x64
 8001fa0:	fb01 f303 	mul.w	r3, r1, r3
 8001fa4:	1ad3      	subs	r3, r2, r3
 8001fa6:	011b      	lsls	r3, r3, #4
 8001fa8:	3332      	adds	r3, #50	@ 0x32
 8001faa:	4a08      	ldr	r2, [pc, #32]	@ (8001fcc <UART_SetConfig+0x4e4>)
 8001fac:	fba2 2303 	umull	r2, r3, r2, r3
 8001fb0:	095b      	lsrs	r3, r3, #5
 8001fb2:	f003 020f 	and.w	r2, r3, #15
 8001fb6:	f8d7 30f4 	ldr.w	r3, [r7, #244]	@ 0xf4
 8001fba:	681b      	ldr	r3, [r3, #0]
 8001fbc:	4422      	add	r2, r4
 8001fbe:	609a      	str	r2, [r3, #8]
}
 8001fc0:	bf00      	nop
 8001fc2:	f507 7780 	add.w	r7, r7, #256	@ 0x100
 8001fc6:	46bd      	mov	sp, r7
 8001fc8:	e8bd 8fb0 	ldmia.w	sp!, {r4, r5, r7, r8, r9, sl, fp, pc}
 8001fcc:	51eb851f 	.word	0x51eb851f

08001fd0 <memset>:
 8001fd0:	4402      	add	r2, r0
 8001fd2:	4603      	mov	r3, r0
 8001fd4:	4293      	cmp	r3, r2
 8001fd6:	d100      	bne.n	8001fda <memset+0xa>
 8001fd8:	4770      	bx	lr
 8001fda:	f803 1b01 	strb.w	r1, [r3], #1
 8001fde:	e7f9      	b.n	8001fd4 <memset+0x4>

08001fe0 <__libc_init_array>:
 8001fe0:	b570      	push	{r4, r5, r6, lr}
 8001fe2:	4d0d      	ldr	r5, [pc, #52]	@ (8002018 <__libc_init_array+0x38>)
 8001fe4:	4c0d      	ldr	r4, [pc, #52]	@ (800201c <__libc_init_array+0x3c>)
 8001fe6:	1b64      	subs	r4, r4, r5
 8001fe8:	10a4      	asrs	r4, r4, #2
 8001fea:	2600      	movs	r6, #0
 8001fec:	42a6      	cmp	r6, r4
 8001fee:	d109      	bne.n	8002004 <__libc_init_array+0x24>
 8001ff0:	4d0b      	ldr	r5, [pc, #44]	@ (8002020 <__libc_init_array+0x40>)
 8001ff2:	4c0c      	ldr	r4, [pc, #48]	@ (8002024 <__libc_init_array+0x44>)
 8001ff4:	f000 f818 	bl	8002028 <_init>
 8001ff8:	1b64      	subs	r4, r4, r5
 8001ffa:	10a4      	asrs	r4, r4, #2
 8001ffc:	2600      	movs	r6, #0
 8001ffe:	42a6      	cmp	r6, r4
 8002000:	d105      	bne.n	800200e <__libc_init_array+0x2e>
 8002002:	bd70      	pop	{r4, r5, r6, pc}
 8002004:	f855 3b04 	ldr.w	r3, [r5], #4
 8002008:	4798      	blx	r3
 800200a:	3601      	adds	r6, #1
 800200c:	e7ee      	b.n	8001fec <__libc_init_array+0xc>
 800200e:	f855 3b04 	ldr.w	r3, [r5], #4
 8002012:	4798      	blx	r3
 8002014:	3601      	adds	r6, #1
 8002016:	e7f2      	b.n	8001ffe <__libc_init_array+0x1e>
 8002018:	08002064 	.word	0x08002064
 800201c:	08002064 	.word	0x08002064
 8002020:	08002064 	.word	0x08002064
 8002024:	08002068 	.word	0x08002068

08002028 <_init>:
 8002028:	b5f8      	push	{r3, r4, r5, r6, r7, lr}
 800202a:	bf00      	nop
 800202c:	bcf8      	pop	{r3, r4, r5, r6, r7}
 800202e:	bc08      	pop	{r3}
 8002030:	469e      	mov	lr, r3
 8002032:	4770      	bx	lr

08002034 <_fini>:
 8002034:	b5f8      	push	{r3, r4, r5, r6, r7, lr}
 8002036:	bf00      	nop
 8002038:	bcf8      	pop	{r3, r4, r5, r6, r7}
 800203a:	bc08      	pop	{r3}
 800203c:	469e      	mov	lr, r3
 800203e:	4770      	bx	lr
