
stm-code.elf:     file format elf32-littlearm

Sections:
Idx Name          Size      VMA       LMA       File off  Algn
  0 .isr_vector   00000194  08000000  08000000  00001000  2**0
                  CONTENTS, ALLOC, LOAD, READONLY, DATA
  1 .text         00001ee4  08000194  08000194  00001194  2**2
                  CONTENTS, ALLOC, LOAD, READONLY, CODE
  2 .rodata       0000001c  08002078  08002078  00003078  2**2
                  CONTENTS, ALLOC, LOAD, READONLY, DATA
  3 .ARM.extab    00000000  08002094  08002094  0000400c  2**0
                  CONTENTS, READONLY
  4 .ARM          00000008  08002094  08002094  00003094  2**2
                  CONTENTS, ALLOC, LOAD, READONLY, DATA
  5 .preinit_array 00000000  0800209c  0800209c  0000400c  2**0
                  CONTENTS, ALLOC, LOAD, DATA
  6 .init_array   00000004  0800209c  0800209c  0000309c  2**2
                  CONTENTS, ALLOC, LOAD, READONLY, DATA
  7 .fini_array   00000004  080020a0  080020a0  000030a0  2**2
                  CONTENTS, ALLOC, LOAD, READONLY, DATA
  8 .data         0000000c  20000000  080020a4  00004000  2**2
                  CONTENTS, ALLOC, LOAD, DATA
  9 .bss          00000068  2000000c  080020b0  0000400c  2**2
                  ALLOC
 10 ._user_heap_stack 00000604  20000074  080020b0  00004074  2**0
                  ALLOC
 11 .ARM.attributes 00000030  00000000  00000000  0000400c  2**0
                  CONTENTS, READONLY
 12 .debug_info   00007106  00000000  00000000  0000403c  2**0
                  CONTENTS, READONLY, DEBUGGING, OCTETS
 13 .debug_abbrev 000012d8  00000000  00000000  0000b142  2**0
                  CONTENTS, READONLY, DEBUGGING, OCTETS
 14 .debug_aranges 00000628  00000000  00000000  0000c420  2**3
                  CONTENTS, READONLY, DEBUGGING, OCTETS
 15 .debug_rnglists 000004b3  00000000  00000000  0000ca48  2**0
                  CONTENTS, READONLY, DEBUGGING, OCTETS
 16 .debug_macro  00014fc5  00000000  00000000  0000cefb  2**0
                  CONTENTS, READONLY, DEBUGGING, OCTETS
 17 .debug_line   000075f6  00000000  00000000  00021ec0  2**0
                  CONTENTS, READONLY, DEBUGGING, OCTETS
 18 .debug_str    0008439e  00000000  00000000  000294b6  2**0
                  CONTENTS, READONLY, DEBUGGING, OCTETS
 19 .comment      00000043  00000000  00000000  000ad854  2**0
                  CONTENTS, READONLY
 20 .debug_frame  00001844  00000000  00000000  000ad898  2**2
                  CONTENTS, READONLY, DEBUGGING, OCTETS
 21 .debug_line_str 0000005e  00000000  00000000  000af0dc  2**0
                  CONTENTS, READONLY, DEBUGGING, OCTETS

Disassembly of section .text:

08000194 <__do_global_dtors_aux>:
 8000194:	b510      	push	{r4, lr}
 8000196:	4c05      	ldr	r4, [pc, #20]	@ (80001ac <__do_global_dtors_aux+0x18>)
 8000198:	7823      	ldrb	r3, [r4, #0]
 800019a:	b933      	cbnz	r3, 80001aa <__do_global_dtors_aux+0x16>
 800019c:	4b04      	ldr	r3, [pc, #16]	@ (80001b0 <__do_global_dtors_aux+0x1c>)
 800019e:	b113      	cbz	r3, 80001a6 <__do_global_dtors_aux+0x12>
 80001a0:	4804      	ldr	r0, [pc, #16]	@ (80001b4 <__do_global_dtors_aux+0x20>)
 80001a2:	f3af 8000 	nop.w
 80001a6:	2301      	movs	r3, #1
 80001a8:	7023      	strb	r3, [r4, #0]
 80001aa:	bd10      	pop	{r4, pc}
 80001ac:	2000000c 	.word	0x2000000c
 80001b0:	00000000 	.word	0x00000000
 80001b4:	08002060 	.word	0x08002060

080001b8 <frame_dummy>:
 80001b8:	b508      	push	{r3, lr}
 80001ba:	4b03      	ldr	r3, [pc, #12]	@ (80001c8 <frame_dummy+0x10>)
 80001bc:	b11b      	cbz	r3, 80001c6 <frame_dummy+0xe>
 80001be:	4903      	ldr	r1, [pc, #12]	@ (80001cc <frame_dummy+0x14>)
 80001c0:	4803      	ldr	r0, [pc, #12]	@ (80001d0 <frame_dummy+0x18>)
 80001c2:	f3af 8000 	nop.w
 80001c6:	bd08      	pop	{r3, pc}
 80001c8:	00000000 	.word	0x00000000
 80001cc:	20000010 	.word	0x20000010
 80001d0:	08002060 	.word	0x08002060

080001d4 <__aeabi_uldivmod>:
 80001d4:	b953      	cbnz	r3, 80001ec <__aeabi_uldivmod+0x18>
 80001d6:	b94a      	cbnz	r2, 80001ec <__aeabi_uldivmod+0x18>
 80001d8:	2900      	cmp	r1, #0
 80001da:	bf08      	it	eq
 80001dc:	2800      	cmpeq	r0, #0
 80001de:	bf1c      	itt	ne
 80001e0:	f04f 31ff 	movne.w	r1, #4294967295
 80001e4:	f04f 30ff 	movne.w	r0, #4294967295
 80001e8:	f000 b988 	b.w	80004fc <__aeabi_idiv0>
 80001ec:	f1ad 0c08 	sub.w	ip, sp, #8
 80001f0:	e96d ce04 	strd	ip, lr, [sp, #-16]!
 80001f4:	f000 f806 	bl	8000204 <__udivmoddi4>
 80001f8:	f8dd e004 	ldr.w	lr, [sp, #4]
 80001fc:	e9dd 2302 	ldrd	r2, r3, [sp, #8]
 8000200:	b004      	add	sp, #16
 8000202:	4770      	bx	lr

08000204 <__udivmoddi4>:
 8000204:	e92d 47f0 	stmdb	sp!, {r4, r5, r6, r7, r8, r9, sl, lr}
 8000208:	9d08      	ldr	r5, [sp, #32]
 800020a:	468e      	mov	lr, r1
 800020c:	4604      	mov	r4, r0
 800020e:	4688      	mov	r8, r1
 8000210:	2b00      	cmp	r3, #0
 8000212:	d14a      	bne.n	80002aa <__udivmoddi4+0xa6>
 8000214:	428a      	cmp	r2, r1
 8000216:	4617      	mov	r7, r2
 8000218:	d962      	bls.n	80002e0 <__udivmoddi4+0xdc>
 800021a:	fab2 f682 	clz	r6, r2
 800021e:	b14e      	cbz	r6, 8000234 <__udivmoddi4+0x30>
 8000220:	f1c6 0320 	rsb	r3, r6, #32
 8000224:	fa01 f806 	lsl.w	r8, r1, r6
 8000228:	fa20 f303 	lsr.w	r3, r0, r3
 800022c:	40b7      	lsls	r7, r6
 800022e:	ea43 0808 	orr.w	r8, r3, r8
 8000232:	40b4      	lsls	r4, r6
 8000234:	ea4f 4e17 	mov.w	lr, r7, lsr #16
 8000238:	fa1f fc87 	uxth.w	ip, r7
 800023c:	fbb8 f1fe 	udiv	r1, r8, lr
 8000240:	0c23      	lsrs	r3, r4, #16
 8000242:	fb0e 8811 	mls	r8, lr, r1, r8
 8000246:	ea43 4308 	orr.w	r3, r3, r8, lsl #16
 800024a:	fb01 f20c 	mul.w	r2, r1, ip
 800024e:	429a      	cmp	r2, r3
 8000250:	d909      	bls.n	8000266 <__udivmoddi4+0x62>
 8000252:	18fb      	adds	r3, r7, r3
 8000254:	f101 30ff 	add.w	r0, r1, #4294967295
 8000258:	f080 80ea 	bcs.w	8000430 <__udivmoddi4+0x22c>
 800025c:	429a      	cmp	r2, r3
 800025e:	f240 80e7 	bls.w	8000430 <__udivmoddi4+0x22c>
 8000262:	3902      	subs	r1, #2
 8000264:	443b      	add	r3, r7
 8000266:	1a9a      	subs	r2, r3, r2
 8000268:	b2a3      	uxth	r3, r4
 800026a:	fbb2 f0fe 	udiv	r0, r2, lr
 800026e:	fb0e 2210 	mls	r2, lr, r0, r2
 8000272:	ea43 4302 	orr.w	r3, r3, r2, lsl #16
 8000276:	fb00 fc0c 	mul.w	ip, r0, ip
 800027a:	459c      	cmp	ip, r3
 800027c:	d909      	bls.n	8000292 <__udivmoddi4+0x8e>
 800027e:	18fb      	adds	r3, r7, r3
 8000280:	f100 32ff 	add.w	r2, r0, #4294967295
 8000284:	f080 80d6 	bcs.w	8000434 <__udivmoddi4+0x230>
 8000288:	459c      	cmp	ip, r3
 800028a:	f240 80d3 	bls.w	8000434 <__udivmoddi4+0x230>
 800028e:	443b      	add	r3, r7
 8000290:	3802      	subs	r0, #2
 8000292:	ea40 4001 	orr.w	r0, r0, r1, lsl #16
 8000296:	eba3 030c 	sub.w	r3, r3, ip
 800029a:	2100      	movs	r1, #0
 800029c:	b11d      	cbz	r5, 80002a6 <__udivmoddi4+0xa2>
 800029e:	40f3      	lsrs	r3, r6
 80002a0:	2200      	movs	r2, #0
 80002a2:	e9c5 3200 	strd	r3, r2, [r5]
 80002a6:	e8bd 87f0 	ldmia.w	sp!, {r4, r5, r6, r7, r8, r9, sl, pc}
 80002aa:	428b      	cmp	r3, r1
 80002ac:	d905      	bls.n	80002ba <__udivmoddi4+0xb6>
 80002ae:	b10d      	cbz	r5, 80002b4 <__udivmoddi4+0xb0>
 80002b0:	e9c5 0100 	strd	r0, r1, [r5]
 80002b4:	2100      	movs	r1, #0
 80002b6:	4608      	mov	r0, r1
 80002b8:	e7f5      	b.n	80002a6 <__udivmoddi4+0xa2>
 80002ba:	fab3 f183 	clz	r1, r3
 80002be:	2900      	cmp	r1, #0
 80002c0:	d146      	bne.n	8000350 <__udivmoddi4+0x14c>
 80002c2:	4573      	cmp	r3, lr
 80002c4:	d302      	bcc.n	80002cc <__udivmoddi4+0xc8>
 80002c6:	4282      	cmp	r2, r0
 80002c8:	f200 8105 	bhi.w	80004d6 <__udivmoddi4+0x2d2>
 80002cc:	1a84      	subs	r4, r0, r2
 80002ce:	eb6e 0203 	sbc.w	r2, lr, r3
 80002d2:	2001      	movs	r0, #1
 80002d4:	4690      	mov	r8, r2
 80002d6:	2d00      	cmp	r5, #0
 80002d8:	d0e5      	beq.n	80002a6 <__udivmoddi4+0xa2>
 80002da:	e9c5 4800 	strd	r4, r8, [r5]
 80002de:	e7e2      	b.n	80002a6 <__udivmoddi4+0xa2>
 80002e0:	2a00      	cmp	r2, #0
 80002e2:	f000 8090 	beq.w	8000406 <__udivmoddi4+0x202>
 80002e6:	fab2 f682 	clz	r6, r2
 80002ea:	2e00      	cmp	r6, #0
 80002ec:	f040 80a4 	bne.w	8000438 <__udivmoddi4+0x234>
 80002f0:	1a8a      	subs	r2, r1, r2
 80002f2:	0c03      	lsrs	r3, r0, #16
 80002f4:	ea4f 4e17 	mov.w	lr, r7, lsr #16
 80002f8:	b280      	uxth	r0, r0
 80002fa:	b2bc      	uxth	r4, r7
 80002fc:	2101      	movs	r1, #1
 80002fe:	fbb2 fcfe 	udiv	ip, r2, lr
 8000302:	fb0e 221c 	mls	r2, lr, ip, r2
 8000306:	ea43 4302 	orr.w	r3, r3, r2, lsl #16
 800030a:	fb04 f20c 	mul.w	r2, r4, ip
 800030e:	429a      	cmp	r2, r3
 8000310:	d907      	bls.n	8000322 <__udivmoddi4+0x11e>
 8000312:	18fb      	adds	r3, r7, r3
 8000314:	f10c 38ff 	add.w	r8, ip, #4294967295
 8000318:	d202      	bcs.n	8000320 <__udivmoddi4+0x11c>
 800031a:	429a      	cmp	r2, r3
 800031c:	f200 80e0 	bhi.w	80004e0 <__udivmoddi4+0x2dc>
 8000320:	46c4      	mov	ip, r8
 8000322:	1a9b      	subs	r3, r3, r2
 8000324:	fbb3 f2fe 	udiv	r2, r3, lr
 8000328:	fb0e 3312 	mls	r3, lr, r2, r3
 800032c:	ea40 4303 	orr.w	r3, r0, r3, lsl #16
 8000330:	fb02 f404 	mul.w	r4, r2, r4
 8000334:	429c      	cmp	r4, r3
 8000336:	d907      	bls.n	8000348 <__udivmoddi4+0x144>
 8000338:	18fb      	adds	r3, r7, r3
 800033a:	f102 30ff 	add.w	r0, r2, #4294967295
 800033e:	d202      	bcs.n	8000346 <__udivmoddi4+0x142>
 8000340:	429c      	cmp	r4, r3
 8000342:	f200 80ca 	bhi.w	80004da <__udivmoddi4+0x2d6>
 8000346:	4602      	mov	r2, r0
 8000348:	1b1b      	subs	r3, r3, r4
 800034a:	ea42 400c 	orr.w	r0, r2, ip, lsl #16
 800034e:	e7a5      	b.n	800029c <__udivmoddi4+0x98>
 8000350:	f1c1 0620 	rsb	r6, r1, #32
 8000354:	408b      	lsls	r3, r1
 8000356:	fa22 f706 	lsr.w	r7, r2, r6
 800035a:	431f      	orrs	r7, r3
 800035c:	fa0e f401 	lsl.w	r4, lr, r1
 8000360:	fa20 f306 	lsr.w	r3, r0, r6
 8000364:	fa2e fe06 	lsr.w	lr, lr, r6
 8000368:	ea4f 4917 	mov.w	r9, r7, lsr #16
 800036c:	4323      	orrs	r3, r4
 800036e:	fa00 f801 	lsl.w	r8, r0, r1
 8000372:	fa1f fc87 	uxth.w	ip, r7
 8000376:	fbbe f0f9 	udiv	r0, lr, r9
 800037a:	0c1c      	lsrs	r4, r3, #16
 800037c:	fb09 ee10 	mls	lr, r9, r0, lr
 8000380:	ea44 440e 	orr.w	r4, r4, lr, lsl #16
 8000384:	fb00 fe0c 	mul.w	lr, r0, ip
 8000388:	45a6      	cmp	lr, r4
 800038a:	fa02 f201 	lsl.w	r2, r2, r1
 800038e:	d909      	bls.n	80003a4 <__udivmoddi4+0x1a0>
 8000390:	193c      	adds	r4, r7, r4
 8000392:	f100 3aff 	add.w	sl, r0, #4294967295
 8000396:	f080 809c 	bcs.w	80004d2 <__udivmoddi4+0x2ce>
 800039a:	45a6      	cmp	lr, r4
 800039c:	f240 8099 	bls.w	80004d2 <__udivmoddi4+0x2ce>
 80003a0:	3802      	subs	r0, #2
 80003a2:	443c      	add	r4, r7
 80003a4:	eba4 040e 	sub.w	r4, r4, lr
 80003a8:	fa1f fe83 	uxth.w	lr, r3
 80003ac:	fbb4 f3f9 	udiv	r3, r4, r9
 80003b0:	fb09 4413 	mls	r4, r9, r3, r4
 80003b4:	ea4e 4404 	orr.w	r4, lr, r4, lsl #16
 80003b8:	fb03 fc0c 	mul.w	ip, r3, ip
 80003bc:	45a4      	cmp	ip, r4
 80003be:	d908      	bls.n	80003d2 <__udivmoddi4+0x1ce>
 80003c0:	193c      	adds	r4, r7, r4
 80003c2:	f103 3eff 	add.w	lr, r3, #4294967295
 80003c6:	f080 8082 	bcs.w	80004ce <__udivmoddi4+0x2ca>
 80003ca:	45a4      	cmp	ip, r4
 80003cc:	d97f      	bls.n	80004ce <__udivmoddi4+0x2ca>
 80003ce:	3b02      	subs	r3, #2
 80003d0:	443c      	add	r4, r7
 80003d2:	ea43 4000 	orr.w	r0, r3, r0, lsl #16
 80003d6:	eba4 040c 	sub.w	r4, r4, ip
 80003da:	fba0 ec02 	umull	lr, ip, r0, r2
 80003de:	4564      	cmp	r4, ip
 80003e0:	4673      	mov	r3, lr
 80003e2:	46e1      	mov	r9, ip
 80003e4:	d362      	bcc.n	80004ac <__udivmoddi4+0x2a8>
 80003e6:	d05f      	beq.n	80004a8 <__udivmoddi4+0x2a4>
 80003e8:	b15d      	cbz	r5, 8000402 <__udivmoddi4+0x1fe>
 80003ea:	ebb8 0203 	subs.w	r2, r8, r3
 80003ee:	eb64 0409 	sbc.w	r4, r4, r9
 80003f2:	fa04 f606 	lsl.w	r6, r4, r6
 80003f6:	fa22 f301 	lsr.w	r3, r2, r1
 80003fa:	431e      	orrs	r6, r3
 80003fc:	40cc      	lsrs	r4, r1
 80003fe:	e9c5 6400 	strd	r6, r4, [r5]
 8000402:	2100      	movs	r1, #0
 8000404:	e74f      	b.n	80002a6 <__udivmoddi4+0xa2>
 8000406:	fbb1 fcf2 	udiv	ip, r1, r2
 800040a:	0c01      	lsrs	r1, r0, #16
 800040c:	ea41 410e 	orr.w	r1, r1, lr, lsl #16
 8000410:	b280      	uxth	r0, r0
 8000412:	ea40 4201 	orr.w	r2, r0, r1, lsl #16
 8000416:	463b      	mov	r3, r7
 8000418:	4638      	mov	r0, r7
 800041a:	463c      	mov	r4, r7
 800041c:	46b8      	mov	r8, r7
 800041e:	46be      	mov	lr, r7
 8000420:	2620      	movs	r6, #32
 8000422:	fbb1 f1f7 	udiv	r1, r1, r7
 8000426:	eba2 0208 	sub.w	r2, r2, r8
 800042a:	ea41 410c 	orr.w	r1, r1, ip, lsl #16
 800042e:	e766      	b.n	80002fe <__udivmoddi4+0xfa>
 8000430:	4601      	mov	r1, r0
 8000432:	e718      	b.n	8000266 <__udivmoddi4+0x62>
 8000434:	4610      	mov	r0, r2
 8000436:	e72c      	b.n	8000292 <__udivmoddi4+0x8e>
 8000438:	f1c6 0220 	rsb	r2, r6, #32
 800043c:	fa2e f302 	lsr.w	r3, lr, r2
 8000440:	40b7      	lsls	r7, r6
 8000442:	40b1      	lsls	r1, r6
 8000444:	fa20 f202 	lsr.w	r2, r0, r2
 8000448:	ea4f 4e17 	mov.w	lr, r7, lsr #16
 800044c:	430a      	orrs	r2, r1
 800044e:	fbb3 f8fe 	udiv	r8, r3, lr
 8000452:	b2bc      	uxth	r4, r7
 8000454:	fb0e 3318 	mls	r3, lr, r8, r3
 8000458:	0c11      	lsrs	r1, r2, #16
 800045a:	ea41 4103 	orr.w	r1, r1, r3, lsl #16
 800045e:	fb08 f904 	mul.w	r9, r8, r4
 8000462:	40b0      	lsls	r0, r6
 8000464:	4589      	cmp	r9, r1
 8000466:	ea4f 4310 	mov.w	r3, r0, lsr #16
 800046a:	b280      	uxth	r0, r0
 800046c:	d93e      	bls.n	80004ec <__udivmoddi4+0x2e8>
 800046e:	1879      	adds	r1, r7, r1
 8000470:	f108 3cff 	add.w	ip, r8, #4294967295
 8000474:	d201      	bcs.n	800047a <__udivmoddi4+0x276>
 8000476:	4589      	cmp	r9, r1
 8000478:	d81f      	bhi.n	80004ba <__udivmoddi4+0x2b6>
 800047a:	eba1 0109 	sub.w	r1, r1, r9
 800047e:	fbb1 f9fe 	udiv	r9, r1, lr
 8000482:	fb09 f804 	mul.w	r8, r9, r4
 8000486:	fb0e 1119 	mls	r1, lr, r9, r1
 800048a:	b292      	uxth	r2, r2
 800048c:	ea42 4201 	orr.w	r2, r2, r1, lsl #16
 8000490:	4542      	cmp	r2, r8
 8000492:	d229      	bcs.n	80004e8 <__udivmoddi4+0x2e4>
 8000494:	18ba      	adds	r2, r7, r2
 8000496:	f109 31ff 	add.w	r1, r9, #4294967295
 800049a:	d2c4      	bcs.n	8000426 <__udivmoddi4+0x222>
 800049c:	4542      	cmp	r2, r8
 800049e:	d2c2      	bcs.n	8000426 <__udivmoddi4+0x222>
 80004a0:	f1a9 0102 	sub.w	r1, r9, #2
 80004a4:	443a      	add	r2, r7
 80004a6:	e7be      	b.n	8000426 <__udivmoddi4+0x222>
 80004a8:	45f0      	cmp	r8, lr
 80004aa:	d29d      	bcs.n	80003e8 <__udivmoddi4+0x1e4>
 80004ac:	ebbe 0302 	subs.w	r3, lr, r2
 80004b0:	eb6c 0c07 	sbc.w	ip, ip, r7
 80004b4:	3801      	subs	r0, #1
 80004b6:	46e1      	mov	r9, ip
 80004b8:	e796      	b.n	80003e8 <__udivmoddi4+0x1e4>
 80004ba:	eba7 0909 	sub.w	r9, r7, r9
 80004be:	4449      	add	r1, r9
 80004c0:	f1a8 0c02 	sub.w	ip, r8, #2
 80004c4:	fbb1 f9fe 	udiv	r9, r1, lr
 80004c8:	fb09 f804 	mul.w	r8, r9, r4
 80004cc:	e7db      	b.n	8000486 <__udivmoddi4+0x282>
 80004ce:	4673      	mov	r3, lr
 80004d0:	e77f      	b.n	80003d2 <__udivmoddi4+0x1ce>
 80004d2:	4650      	mov	r0, sl
 80004d4:	e766      	b.n	80003a4 <__udivmoddi4+0x1a0>
 80004d6:	4608      	mov	r0, r1
 80004d8:	e6fd      	b.n	80002d6 <__udivmoddi4+0xd2>
 80004da:	443b      	add	r3, r7
 80004dc:	3a02      	subs	r2, #2
 80004de:	e733      	b.n	8000348 <__udivmoddi4+0x144>
 80004e0:	f1ac 0c02 	sub.w	ip, ip, #2
 80004e4:	443b      	add	r3, r7
 80004e6:	e71c      	b.n	8000322 <__udivmoddi4+0x11e>
 80004e8:	4649      	mov	r1, r9
 80004ea:	e79c      	b.n	8000426 <__udivmoddi4+0x222>
 80004ec:	eba1 0109 	sub.w	r1, r1, r9
 80004f0:	46c4      	mov	ip, r8
 80004f2:	fbb1 f9fe 	udiv	r9, r1, lr
 80004f6:	fb09 f804 	mul.w	r8, r9, r4
 80004fa:	e7c4      	b.n	8000486 <__udivmoddi4+0x282>

080004fc <__aeabi_idiv0>:
 80004fc:	4770      	bx	lr
 80004fe:	bf00      	nop

08000500 <main>:
/**
  * @brief  The application entry point.
  * @retval int
  */
int main(void)
{
 8000500:	b580      	push	{r7, lr}
 8000502:	b088      	sub	sp, #32
 8000504:	af00      	add	r7, sp, #0
int main(void)
 8000506:	f107 0328 	add.w	r3, r7, #40	@ 0x28
 800050a:	603b      	str	r3, [r7, #0]
  /* USER CODE END 1 */

  /* MCU Configuration--------------------------------------------------------*/

  /* Reset of all peripherals, Initializes the Flash interface and the Systick. */
  HAL_Init();
 800050c:	f000 f9e4 	bl	80008d8 <HAL_Init>
  /* USER CODE BEGIN Init */

  /* USER CODE END Init */

  /* Configure the system clock */
  SystemClock_Config();
 8000510:	f000 f832 	bl	8000578 <SystemClock_Config>
  /* USER CODE BEGIN SysInit */

  /* USER CODE END SysInit */

  /* Initialize all configured peripherals */
  MX_GPIO_Init();
 8000514:	f000 f8ba 	bl	800068c <MX_GPIO_Init>
  MX_USART2_UART_Init();
 8000518:	f000 f88e 	bl	8000638 <MX_USART2_UART_Init>
      }
      return checksum;
  }

  // Dummy flight data
  float qW = 1.0f;
 800051c:	f04f 537e 	mov.w	r3, #1065353216	@ 0x3f800000
 8000520:	61fb      	str	r3, [r7, #28]
  float qX = 0.0f;
 8000522:	f04f 0300 	mov.w	r3, #0
 8000526:	61bb      	str	r3, [r7, #24]
  float qY = 0.0f;
 8000528:	f04f 0300 	mov.w	r3, #0
 800052c:	617b      	str	r3, [r7, #20]
  float qZ = 0.0f;
 800052e:	f04f 0300 	mov.w	r3, #0
 8000532:	613b      	str	r3, [r7, #16]
  float latitude = 12.3456f;
 8000534:	4b0a      	ldr	r3, [pc, #40]	@ (8000560 <main+0x60>)
 8000536:	60fb      	str	r3, [r7, #12]
  float longitude = 78.9101f;
 8000538:	4b0a      	ldr	r3, [pc, #40]	@ (8000564 <main+0x64>)
 800053a:	60bb      	str	r3, [r7, #8]
  float altitude = 500.0f;
 800053c:	4b0a      	ldr	r3, [pc, #40]	@ (8000568 <main+0x68>)
 800053e:	607b      	str	r3, [r7, #4]
  {
    /* USER CODE END WHILE */
    /* USER CODE BEGIN 3 */

    // Transmit the character 'T' (for Test) over USART2 every 200ms
    HAL_UART_Transmit(&huart2, (uint8_t*)"T", 1, 100);
 8000540:	2364      	movs	r3, #100	@ 0x64
 8000542:	2201      	movs	r2, #1
 8000544:	4909      	ldr	r1, [pc, #36]	@ (800056c <main+0x6c>)
 8000546:	480a      	ldr	r0, [pc, #40]	@ (8000570 <main+0x70>)
 8000548:	f001 f9a2 	bl	8001890 <HAL_UART_Transmit>

    // Still blink the LED so we know the STM32 is running
    HAL_GPIO_TogglePin(GPIOC, GPIO_PIN_13);
 800054c:	f44f 5100 	mov.w	r1, #8192	@ 0x2000
 8000550:	4808      	ldr	r0, [pc, #32]	@ (8000574 <main+0x74>)
 8000552:	f000 fcda 	bl	8000f0a <HAL_GPIO_TogglePin>

    HAL_Delay(200);
 8000556:	20c8      	movs	r0, #200	@ 0xc8
 8000558:	f000 fa30 	bl	80009bc <HAL_Delay>
    HAL_UART_Transmit(&huart2, (uint8_t*)"T", 1, 100);
 800055c:	bf00      	nop
 800055e:	e7ef      	b.n	8000540 <main+0x40>
 8000560:	41458794 	.word	0x41458794
 8000564:	429dd1f9 	.word	0x429dd1f9
 8000568:	43fa0000 	.word	0x43fa0000
 800056c:	08002078 	.word	0x08002078
 8000570:	20000028 	.word	0x20000028
 8000574:	40020800 	.word	0x40020800

08000578 <SystemClock_Config>:
/**
  * @brief System Clock Configuration
  * @retval None
  */
void SystemClock_Config(void)
{
 8000578:	b580      	push	{r7, lr}
 800057a:	b094      	sub	sp, #80	@ 0x50
 800057c:	af00      	add	r7, sp, #0
  RCC_OscInitTypeDef RCC_OscInitStruct = {0};
 800057e:	f107 0320 	add.w	r3, r7, #32
 8000582:	2230      	movs	r2, #48	@ 0x30
 8000584:	2100      	movs	r1, #0
 8000586:	4618      	mov	r0, r3
 8000588:	f001 fd3e 	bl	8002008 <memset>
  RCC_ClkInitTypeDef RCC_ClkInitStruct = {0};
 800058c:	f107 030c 	add.w	r3, r7, #12
 8000590:	2200      	movs	r2, #0
 8000592:	601a      	str	r2, [r3, #0]
 8000594:	605a      	str	r2, [r3, #4]
 8000596:	609a      	str	r2, [r3, #8]
 8000598:	60da      	str	r2, [r3, #12]
 800059a:	611a      	str	r2, [r3, #16]

  /** Configure the main internal regulator output voltage
  */
  __HAL_RCC_PWR_CLK_ENABLE();
 800059c:	2300      	movs	r3, #0
 800059e:	60bb      	str	r3, [r7, #8]
 80005a0:	4b23      	ldr	r3, [pc, #140]	@ (8000630 <SystemClock_Config+0xb8>)
 80005a2:	6c1b      	ldr	r3, [r3, #64]	@ 0x40
 80005a4:	4a22      	ldr	r2, [pc, #136]	@ (8000630 <SystemClock_Config+0xb8>)
 80005a6:	f043 5380 	orr.w	r3, r3, #268435456	@ 0x10000000
 80005aa:	6413      	str	r3, [r2, #64]	@ 0x40
 80005ac:	4b20      	ldr	r3, [pc, #128]	@ (8000630 <SystemClock_Config+0xb8>)
 80005ae:	6c1b      	ldr	r3, [r3, #64]	@ 0x40
 80005b0:	f003 5380 	and.w	r3, r3, #268435456	@ 0x10000000
 80005b4:	60bb      	str	r3, [r7, #8]
 80005b6:	68bb      	ldr	r3, [r7, #8]
  __HAL_PWR_VOLTAGESCALING_CONFIG(PWR_REGULATOR_VOLTAGE_SCALE2);
 80005b8:	2300      	movs	r3, #0
 80005ba:	607b      	str	r3, [r7, #4]
 80005bc:	4b1d      	ldr	r3, [pc, #116]	@ (8000634 <SystemClock_Config+0xbc>)
 80005be:	681b      	ldr	r3, [r3, #0]
 80005c0:	f423 4340 	bic.w	r3, r3, #49152	@ 0xc000
 80005c4:	4a1b      	ldr	r2, [pc, #108]	@ (8000634 <SystemClock_Config+0xbc>)
 80005c6:	f443 4300 	orr.w	r3, r3, #32768	@ 0x8000
 80005ca:	6013      	str	r3, [r2, #0]
 80005cc:	4b19      	ldr	r3, [pc, #100]	@ (8000634 <SystemClock_Config+0xbc>)
 80005ce:	681b      	ldr	r3, [r3, #0]
 80005d0:	f403 4340 	and.w	r3, r3, #49152	@ 0xc000
 80005d4:	607b      	str	r3, [r7, #4]
 80005d6:	687b      	ldr	r3, [r7, #4]

  /** Initializes the RCC Oscillators according to the specified parameters
  * in the RCC_OscInitTypeDef structure.
  */
  RCC_OscInitStruct.OscillatorType = RCC_OSCILLATORTYPE_HSI;
 80005d8:	2302      	movs	r3, #2
 80005da:	623b      	str	r3, [r7, #32]
  RCC_OscInitStruct.HSIState = RCC_HSI_ON;
 80005dc:	2301      	movs	r3, #1
 80005de:	62fb      	str	r3, [r7, #44]	@ 0x2c
  RCC_OscInitStruct.HSICalibrationValue = RCC_HSICALIBRATION_DEFAULT;
 80005e0:	2310      	movs	r3, #16
 80005e2:	633b      	str	r3, [r7, #48]	@ 0x30
  RCC_OscInitStruct.PLL.PLLState = RCC_PLL_NONE;
 80005e4:	2300      	movs	r3, #0
 80005e6:	63bb      	str	r3, [r7, #56]	@ 0x38
  if (HAL_RCC_OscConfig(&RCC_OscInitStruct) != HAL_OK)
 80005e8:	f107 0320 	add.w	r3, r7, #32
 80005ec:	4618      	mov	r0, r3
 80005ee:	f000 fca7 	bl	8000f40 <HAL_RCC_OscConfig>
 80005f2:	4603      	mov	r3, r0
 80005f4:	2b00      	cmp	r3, #0
 80005f6:	d001      	beq.n	80005fc <SystemClock_Config+0x84>
  {
    Error_Handler();
 80005f8:	f000 f88c 	bl	8000714 <Error_Handler>
  }

  /** Initializes the CPU, AHB and APB buses clocks
  */
  RCC_ClkInitStruct.ClockType = RCC_CLOCKTYPE_HCLK|RCC_CLOCKTYPE_SYSCLK
 80005fc:	230f      	movs	r3, #15
 80005fe:	60fb      	str	r3, [r7, #12]
                              |RCC_CLOCKTYPE_PCLK1|RCC_CLOCKTYPE_PCLK2;
  RCC_ClkInitStruct.SYSCLKSource = RCC_SYSCLKSOURCE_HSI;
 8000600:	2300      	movs	r3, #0
 8000602:	613b      	str	r3, [r7, #16]
  RCC_ClkInitStruct.AHBCLKDivider = RCC_SYSCLK_DIV1;
 8000604:	2300      	movs	r3, #0
 8000606:	617b      	str	r3, [r7, #20]
  RCC_ClkInitStruct.APB1CLKDivider = RCC_HCLK_DIV1;
 8000608:	2300      	movs	r3, #0
 800060a:	61bb      	str	r3, [r7, #24]
  RCC_ClkInitStruct.APB2CLKDivider = RCC_HCLK_DIV1;
 800060c:	2300      	movs	r3, #0
 800060e:	61fb      	str	r3, [r7, #28]

  if (HAL_RCC_ClockConfig(&RCC_ClkInitStruct, FLASH_LATENCY_0) != HAL_OK)
 8000610:	f107 030c 	add.w	r3, r7, #12
 8000614:	2100      	movs	r1, #0
 8000616:	4618      	mov	r0, r3
 8000618:	f000 ff0a 	bl	8001430 <HAL_RCC_ClockConfig>
 800061c:	4603      	mov	r3, r0
 800061e:	2b00      	cmp	r3, #0
 8000620:	d001      	beq.n	8000626 <SystemClock_Config+0xae>
  {
    Error_Handler();
 8000622:	f000 f877 	bl	8000714 <Error_Handler>
  }
}
 8000626:	bf00      	nop
 8000628:	3750      	adds	r7, #80	@ 0x50
 800062a:	46bd      	mov	sp, r7
 800062c:	bd80      	pop	{r7, pc}
 800062e:	bf00      	nop
 8000630:	40023800 	.word	0x40023800
 8000634:	40007000 	.word	0x40007000

08000638 <MX_USART2_UART_Init>:
  * @brief USART2 Initialization Function
  * @param None
  * @retval None
  */
static void MX_USART2_UART_Init(void)
{
 8000638:	b580      	push	{r7, lr}
 800063a:	af00      	add	r7, sp, #0
  /* USER CODE END USART2_Init 0 */

  /* USER CODE BEGIN USART2_Init 1 */

  /* USER CODE END USART2_Init 1 */
  huart2.Instance = USART2;
 800063c:	4b11      	ldr	r3, [pc, #68]	@ (8000684 <MX_USART2_UART_Init+0x4c>)
 800063e:	4a12      	ldr	r2, [pc, #72]	@ (8000688 <MX_USART2_UART_Init+0x50>)
 8000640:	601a      	str	r2, [r3, #0]
  huart2.Init.BaudRate = 115200;
 8000642:	4b10      	ldr	r3, [pc, #64]	@ (8000684 <MX_USART2_UART_Init+0x4c>)
 8000644:	f44f 32e1 	mov.w	r2, #115200	@ 0x1c200
 8000648:	605a      	str	r2, [r3, #4]
  huart2.Init.WordLength = UART_WORDLENGTH_8B;
 800064a:	4b0e      	ldr	r3, [pc, #56]	@ (8000684 <MX_USART2_UART_Init+0x4c>)
 800064c:	2200      	movs	r2, #0
 800064e:	609a      	str	r2, [r3, #8]
  huart2.Init.StopBits = UART_STOPBITS_1;
 8000650:	4b0c      	ldr	r3, [pc, #48]	@ (8000684 <MX_USART2_UART_Init+0x4c>)
 8000652:	2200      	movs	r2, #0
 8000654:	60da      	str	r2, [r3, #12]
  huart2.Init.Parity = UART_PARITY_NONE;
 8000656:	4b0b      	ldr	r3, [pc, #44]	@ (8000684 <MX_USART2_UART_Init+0x4c>)
 8000658:	2200      	movs	r2, #0
 800065a:	611a      	str	r2, [r3, #16]
  huart2.Init.Mode = UART_MODE_TX_RX;
 800065c:	4b09      	ldr	r3, [pc, #36]	@ (8000684 <MX_USART2_UART_Init+0x4c>)
 800065e:	220c      	movs	r2, #12
 8000660:	615a      	str	r2, [r3, #20]
  huart2.Init.HwFlowCtl = UART_HWCONTROL_NONE;
 8000662:	4b08      	ldr	r3, [pc, #32]	@ (8000684 <MX_USART2_UART_Init+0x4c>)
 8000664:	2200      	movs	r2, #0
 8000666:	619a      	str	r2, [r3, #24]
  huart2.Init.OverSampling = UART_OVERSAMPLING_16;
 8000668:	4b06      	ldr	r3, [pc, #24]	@ (8000684 <MX_USART2_UART_Init+0x4c>)
 800066a:	2200      	movs	r2, #0
 800066c:	61da      	str	r2, [r3, #28]
  if (HAL_UART_Init(&huart2) != HAL_OK)
 800066e:	4805      	ldr	r0, [pc, #20]	@ (8000684 <MX_USART2_UART_Init+0x4c>)
 8000670:	f001 f8be 	bl	80017f0 <HAL_UART_Init>
 8000674:	4603      	mov	r3, r0
 8000676:	2b00      	cmp	r3, #0
 8000678:	d001      	beq.n	800067e <MX_USART2_UART_Init+0x46>
  {
    Error_Handler();
 800067a:	f000 f84b 	bl	8000714 <Error_Handler>
  }
  /* USER CODE BEGIN USART2_Init 2 */

  /* USER CODE END USART2_Init 2 */

}
 800067e:	bf00      	nop
 8000680:	bd80      	pop	{r7, pc}
 8000682:	bf00      	nop
 8000684:	20000028 	.word	0x20000028
 8000688:	40004400 	.word	0x40004400

0800068c <MX_GPIO_Init>:
  * @brief GPIO Initialization Function
  * @param None
  * @retval None
  */
static void MX_GPIO_Init(void)
{
 800068c:	b580      	push	{r7, lr}
 800068e:	b088      	sub	sp, #32
 8000690:	af00      	add	r7, sp, #0
  GPIO_InitTypeDef GPIO_InitStruct = {0};
 8000692:	f107 030c 	add.w	r3, r7, #12
 8000696:	2200      	movs	r2, #0
 8000698:	601a      	str	r2, [r3, #0]
 800069a:	605a      	str	r2, [r3, #4]
 800069c:	609a      	str	r2, [r3, #8]
 800069e:	60da      	str	r2, [r3, #12]
 80006a0:	611a      	str	r2, [r3, #16]
  /* USER CODE BEGIN MX_GPIO_Init_1 */

  /* USER CODE END MX_GPIO_Init_1 */

  /* GPIO Ports Clock Enable */
  __HAL_RCC_GPIOC_CLK_ENABLE();
 80006a2:	2300      	movs	r3, #0
 80006a4:	60bb      	str	r3, [r7, #8]
 80006a6:	4b19      	ldr	r3, [pc, #100]	@ (800070c <MX_GPIO_Init+0x80>)
 80006a8:	6b1b      	ldr	r3, [r3, #48]	@ 0x30
 80006aa:	4a18      	ldr	r2, [pc, #96]	@ (800070c <MX_GPIO_Init+0x80>)
 80006ac:	f043 0304 	orr.w	r3, r3, #4
 80006b0:	6313      	str	r3, [r2, #48]	@ 0x30
 80006b2:	4b16      	ldr	r3, [pc, #88]	@ (800070c <MX_GPIO_Init+0x80>)
 80006b4:	6b1b      	ldr	r3, [r3, #48]	@ 0x30
 80006b6:	f003 0304 	and.w	r3, r3, #4
 80006ba:	60bb      	str	r3, [r7, #8]
 80006bc:	68bb      	ldr	r3, [r7, #8]
  __HAL_RCC_GPIOA_CLK_ENABLE();
 80006be:	2300      	movs	r3, #0
 80006c0:	607b      	str	r3, [r7, #4]
 80006c2:	4b12      	ldr	r3, [pc, #72]	@ (800070c <MX_GPIO_Init+0x80>)
 80006c4:	6b1b      	ldr	r3, [r3, #48]	@ 0x30
 80006c6:	4a11      	ldr	r2, [pc, #68]	@ (800070c <MX_GPIO_Init+0x80>)
 80006c8:	f043 0301 	orr.w	r3, r3, #1
 80006cc:	6313      	str	r3, [r2, #48]	@ 0x30
 80006ce:	4b0f      	ldr	r3, [pc, #60]	@ (800070c <MX_GPIO_Init+0x80>)
 80006d0:	6b1b      	ldr	r3, [r3, #48]	@ 0x30
 80006d2:	f003 0301 	and.w	r3, r3, #1
 80006d6:	607b      	str	r3, [r7, #4]
 80006d8:	687b      	ldr	r3, [r7, #4]

  /*Configure GPIO pin Output Level */
  HAL_GPIO_WritePin(GPIOC, GPIO_PIN_13, GPIO_PIN_RESET);
 80006da:	2200      	movs	r2, #0
 80006dc:	f44f 5100 	mov.w	r1, #8192	@ 0x2000
 80006e0:	480b      	ldr	r0, [pc, #44]	@ (8000710 <MX_GPIO_Init+0x84>)
 80006e2:	f000 fbf9 	bl	8000ed8 <HAL_GPIO_WritePin>

  /*Configure GPIO pin : PC13 */
  GPIO_InitStruct.Pin = GPIO_PIN_13;
 80006e6:	f44f 5300 	mov.w	r3, #8192	@ 0x2000
 80006ea:	60fb      	str	r3, [r7, #12]
  GPIO_InitStruct.Mode = GPIO_MODE_OUTPUT_PP;
 80006ec:	2301      	movs	r3, #1
 80006ee:	613b      	str	r3, [r7, #16]
  GPIO_InitStruct.Pull = GPIO_NOPULL;
 80006f0:	2300      	movs	r3, #0
 80006f2:	617b      	str	r3, [r7, #20]
  GPIO_InitStruct.Speed = GPIO_SPEED_FREQ_LOW;
 80006f4:	2300      	movs	r3, #0
 80006f6:	61bb      	str	r3, [r7, #24]
  HAL_GPIO_Init(GPIOC, &GPIO_InitStruct);
 80006f8:	f107 030c 	add.w	r3, r7, #12
 80006fc:	4619      	mov	r1, r3
 80006fe:	4804      	ldr	r0, [pc, #16]	@ (8000710 <MX_GPIO_Init+0x84>)
 8000700:	f000 fa66 	bl	8000bd0 <HAL_GPIO_Init>

  /* USER CODE BEGIN MX_GPIO_Init_2 */

  /* USER CODE END MX_GPIO_Init_2 */
}
 8000704:	bf00      	nop
 8000706:	3720      	adds	r7, #32
 8000708:	46bd      	mov	sp, r7
 800070a:	bd80      	pop	{r7, pc}
 800070c:	40023800 	.word	0x40023800
 8000710:	40020800 	.word	0x40020800

08000714 <Error_Handler>:
/**
  * @brief  This function is executed in case of error occurrence.
  * @retval None
  */
void Error_Handler(void)
{
 8000714:	b480      	push	{r7}
 8000716:	af00      	add	r7, sp, #0
  \details Disables IRQ interrupts by setting special-purpose register PRIMASK.
           Can only be executed in Privileged modes.
 */
__STATIC_FORCEINLINE void __disable_irq(void)
{
  __ASM volatile ("cpsid i" : : : "memory");
 8000718:	b672      	cpsid	i
}
 800071a:	bf00      	nop
  /* USER CODE BEGIN Error_Handler_Debug */
  /* User can add his own implementation to report the HAL error return state */
  __disable_irq();
  while (1)
 800071c:	bf00      	nop
 800071e:	e7fd      	b.n	800071c <Error_Handler+0x8>

08000720 <HAL_MspInit>:
/* USER CODE END 0 */
/**
  * Initializes the Global MSP.
  */
void HAL_MspInit(void)
{
 8000720:	b480      	push	{r7}
 8000722:	b083      	sub	sp, #12
 8000724:	af00      	add	r7, sp, #0

  /* USER CODE BEGIN MspInit 0 */

  /* USER CODE END MspInit 0 */

  __HAL_RCC_SYSCFG_CLK_ENABLE();
 8000726:	2300      	movs	r3, #0
 8000728:	607b      	str	r3, [r7, #4]
 800072a:	4b10      	ldr	r3, [pc, #64]	@ (800076c <HAL_MspInit+0x4c>)
 800072c:	6c5b      	ldr	r3, [r3, #68]	@ 0x44
 800072e:	4a0f      	ldr	r2, [pc, #60]	@ (800076c <HAL_MspInit+0x4c>)
 8000730:	f443 4380 	orr.w	r3, r3, #16384	@ 0x4000
 8000734:	6453      	str	r3, [r2, #68]	@ 0x44
 8000736:	4b0d      	ldr	r3, [pc, #52]	@ (800076c <HAL_MspInit+0x4c>)
 8000738:	6c5b      	ldr	r3, [r3, #68]	@ 0x44
 800073a:	f403 4380 	and.w	r3, r3, #16384	@ 0x4000
 800073e:	607b      	str	r3, [r7, #4]
 8000740:	687b      	ldr	r3, [r7, #4]
  __HAL_RCC_PWR_CLK_ENABLE();
 8000742:	2300      	movs	r3, #0
 8000744:	603b      	str	r3, [r7, #0]
 8000746:	4b09      	ldr	r3, [pc, #36]	@ (800076c <HAL_MspInit+0x4c>)
 8000748:	6c1b      	ldr	r3, [r3, #64]	@ 0x40
 800074a:	4a08      	ldr	r2, [pc, #32]	@ (800076c <HAL_MspInit+0x4c>)
 800074c:	f043 5380 	orr.w	r3, r3, #268435456	@ 0x10000000
 8000750:	6413      	str	r3, [r2, #64]	@ 0x40
 8000752:	4b06      	ldr	r3, [pc, #24]	@ (800076c <HAL_MspInit+0x4c>)
 8000754:	6c1b      	ldr	r3, [r3, #64]	@ 0x40
 8000756:	f003 5380 	and.w	r3, r3, #268435456	@ 0x10000000
 800075a:	603b      	str	r3, [r7, #0]
 800075c:	683b      	ldr	r3, [r7, #0]
  /* System interrupt init*/

  /* USER CODE BEGIN MspInit 1 */

  /* USER CODE END MspInit 1 */
}
 800075e:	bf00      	nop
 8000760:	370c      	adds	r7, #12
 8000762:	46bd      	mov	sp, r7
 8000764:	f85d 7b04 	ldr.w	r7, [sp], #4
 8000768:	4770      	bx	lr
 800076a:	bf00      	nop
 800076c:	40023800 	.word	0x40023800

08000770 <HAL_UART_MspInit>:
  * This function configures the hardware resources used in this example
  * @param huart: UART handle pointer
  * @retval None
  */
void HAL_UART_MspInit(UART_HandleTypeDef* huart)
{
 8000770:	b580      	push	{r7, lr}
 8000772:	b08a      	sub	sp, #40	@ 0x28
 8000774:	af00      	add	r7, sp, #0
 8000776:	6078      	str	r0, [r7, #4]
  GPIO_InitTypeDef GPIO_InitStruct = {0};
 8000778:	f107 0314 	add.w	r3, r7, #20
 800077c:	2200      	movs	r2, #0
 800077e:	601a      	str	r2, [r3, #0]
 8000780:	605a      	str	r2, [r3, #4]
 8000782:	609a      	str	r2, [r3, #8]
 8000784:	60da      	str	r2, [r3, #12]
 8000786:	611a      	str	r2, [r3, #16]
  if(huart->Instance==USART2)
 8000788:	687b      	ldr	r3, [r7, #4]
 800078a:	681b      	ldr	r3, [r3, #0]
 800078c:	4a19      	ldr	r2, [pc, #100]	@ (80007f4 <HAL_UART_MspInit+0x84>)
 800078e:	4293      	cmp	r3, r2
 8000790:	d12b      	bne.n	80007ea <HAL_UART_MspInit+0x7a>
  {
    /* USER CODE BEGIN USART2_MspInit 0 */

    /* USER CODE END USART2_MspInit 0 */
    /* Peripheral clock enable */
    __HAL_RCC_USART2_CLK_ENABLE();
 8000792:	2300      	movs	r3, #0
 8000794:	613b      	str	r3, [r7, #16]
 8000796:	4b18      	ldr	r3, [pc, #96]	@ (80007f8 <HAL_UART_MspInit+0x88>)
 8000798:	6c1b      	ldr	r3, [r3, #64]	@ 0x40
 800079a:	4a17      	ldr	r2, [pc, #92]	@ (80007f8 <HAL_UART_MspInit+0x88>)
 800079c:	f443 3300 	orr.w	r3, r3, #131072	@ 0x20000
 80007a0:	6413      	str	r3, [r2, #64]	@ 0x40
 80007a2:	4b15      	ldr	r3, [pc, #84]	@ (80007f8 <HAL_UART_MspInit+0x88>)
 80007a4:	6c1b      	ldr	r3, [r3, #64]	@ 0x40
 80007a6:	f403 3300 	and.w	r3, r3, #131072	@ 0x20000
 80007aa:	613b      	str	r3, [r7, #16]
 80007ac:	693b      	ldr	r3, [r7, #16]

    __HAL_RCC_GPIOA_CLK_ENABLE();
 80007ae:	2300      	movs	r3, #0
 80007b0:	60fb      	str	r3, [r7, #12]
 80007b2:	4b11      	ldr	r3, [pc, #68]	@ (80007f8 <HAL_UART_MspInit+0x88>)
 80007b4:	6b1b      	ldr	r3, [r3, #48]	@ 0x30
 80007b6:	4a10      	ldr	r2, [pc, #64]	@ (80007f8 <HAL_UART_MspInit+0x88>)
 80007b8:	f043 0301 	orr.w	r3, r3, #1
 80007bc:	6313      	str	r3, [r2, #48]	@ 0x30
 80007be:	4b0e      	ldr	r3, [pc, #56]	@ (80007f8 <HAL_UART_MspInit+0x88>)
 80007c0:	6b1b      	ldr	r3, [r3, #48]	@ 0x30
 80007c2:	f003 0301 	and.w	r3, r3, #1
 80007c6:	60fb      	str	r3, [r7, #12]
 80007c8:	68fb      	ldr	r3, [r7, #12]
    /**USART2 GPIO Configuration
    PA2     ------> USART2_TX
    PA3     ------> USART2_RX
    */
    GPIO_InitStruct.Pin = GPIO_PIN_2|GPIO_PIN_3;
 80007ca:	230c      	movs	r3, #12
 80007cc:	617b      	str	r3, [r7, #20]
    GPIO_InitStruct.Mode = GPIO_MODE_AF_PP;
 80007ce:	2302      	movs	r3, #2
 80007d0:	61bb      	str	r3, [r7, #24]
    GPIO_InitStruct.Pull = GPIO_NOPULL;
 80007d2:	2300      	movs	r3, #0
 80007d4:	61fb      	str	r3, [r7, #28]
    GPIO_InitStruct.Speed = GPIO_SPEED_FREQ_VERY_HIGH;
 80007d6:	2303      	movs	r3, #3
 80007d8:	623b      	str	r3, [r7, #32]
    GPIO_InitStruct.Alternate = GPIO_AF7_USART2;
 80007da:	2307      	movs	r3, #7
 80007dc:	627b      	str	r3, [r7, #36]	@ 0x24
    HAL_GPIO_Init(GPIOA, &GPIO_InitStruct);
 80007de:	f107 0314 	add.w	r3, r7, #20
 80007e2:	4619      	mov	r1, r3
 80007e4:	4805      	ldr	r0, [pc, #20]	@ (80007fc <HAL_UART_MspInit+0x8c>)
 80007e6:	f000 f9f3 	bl	8000bd0 <HAL_GPIO_Init>

    /* USER CODE END USART2_MspInit 1 */

  }

}
 80007ea:	bf00      	nop
 80007ec:	3728      	adds	r7, #40	@ 0x28
 80007ee:	46bd      	mov	sp, r7
 80007f0:	bd80      	pop	{r7, pc}
 80007f2:	bf00      	nop
 80007f4:	40004400 	.word	0x40004400
 80007f8:	40023800 	.word	0x40023800
 80007fc:	40020000 	.word	0x40020000

08000800 <NMI_Handler>:
/******************************************************************************/
/**
  * @brief This function handles Non maskable interrupt.
  */
void NMI_Handler(void)
{
 8000800:	b480      	push	{r7}
 8000802:	af00      	add	r7, sp, #0
  /* USER CODE BEGIN NonMaskableInt_IRQn 0 */

  /* USER CODE END NonMaskableInt_IRQn 0 */
  /* USER CODE BEGIN NonMaskableInt_IRQn 1 */
   while (1)
 8000804:	bf00      	nop
 8000806:	e7fd      	b.n	8000804 <NMI_Handler+0x4>

08000808 <HardFault_Handler>:

/**
  * @brief This function handles Hard fault interrupt.
  */
void HardFault_Handler(void)
{
 8000808:	b480      	push	{r7}
 800080a:	af00      	add	r7, sp, #0
  /* USER CODE BEGIN HardFault_IRQn 0 */

  /* USER CODE END HardFault_IRQn 0 */
  while (1)
 800080c:	bf00      	nop
 800080e:	e7fd      	b.n	800080c <HardFault_Handler+0x4>

08000810 <MemManage_Handler>:

/**
  * @brief This function handles Memory management fault.
  */
void MemManage_Handler(void)
{
 8000810:	b480      	push	{r7}
 8000812:	af00      	add	r7, sp, #0
  /* USER CODE BEGIN MemoryManagement_IRQn 0 */

  /* USER CODE END MemoryManagement_IRQn 0 */
  while (1)
 8000814:	bf00      	nop
 8000816:	e7fd      	b.n	8000814 <MemManage_Handler+0x4>

08000818 <BusFault_Handler>:

/**
  * @brief This function handles Pre-fetch fault, memory access fault.
  */
void BusFault_Handler(void)
{
 8000818:	b480      	push	{r7}
 800081a:	af00      	add	r7, sp, #0
  /* USER CODE BEGIN BusFault_IRQn 0 */

  /* USER CODE END BusFault_IRQn 0 */
  while (1)
 800081c:	bf00      	nop
 800081e:	e7fd      	b.n	800081c <BusFault_Handler+0x4>

08000820 <UsageFault_Handler>:

/**
  * @brief This function handles Undefined instruction or illegal state.
  */
void UsageFault_Handler(void)
{
 8000820:	b480      	push	{r7}
 8000822:	af00      	add	r7, sp, #0
  /* USER CODE BEGIN UsageFault_IRQn 0 */

  /* USER CODE END UsageFault_IRQn 0 */
  while (1)
 8000824:	bf00      	nop
 8000826:	e7fd      	b.n	8000824 <UsageFault_Handler+0x4>

08000828 <SVC_Handler>:

/**
  * @brief This function handles System service call via SWI instruction.
  */
void SVC_Handler(void)
{
 8000828:	b480      	push	{r7}
 800082a:	af00      	add	r7, sp, #0

  /* USER CODE END SVCall_IRQn 0 */
  /* USER CODE BEGIN SVCall_IRQn 1 */

  /* USER CODE END SVCall_IRQn 1 */
}
 800082c:	bf00      	nop
 800082e:	46bd      	mov	sp, r7
 8000830:	f85d 7b04 	ldr.w	r7, [sp], #4
 8000834:	4770      	bx	lr

08000836 <DebugMon_Handler>:

/**
  * @brief This function handles Debug monitor.
  */
void DebugMon_Handler(void)
{
 8000836:	b480      	push	{r7}
 8000838:	af00      	add	r7, sp, #0

  /* USER CODE END DebugMonitor_IRQn 0 */
  /* USER CODE BEGIN DebugMonitor_IRQn 1 */

  /* USER CODE END DebugMonitor_IRQn 1 */
}
 800083a:	bf00      	nop
 800083c:	46bd      	mov	sp, r7
 800083e:	f85d 7b04 	ldr.w	r7, [sp], #4
 8000842:	4770      	bx	lr

08000844 <PendSV_Handler>:

/**
  * @brief This function handles Pendable request for system service.
  */
void PendSV_Handler(void)
{
 8000844:	b480      	push	{r7}
 8000846:	af00      	add	r7, sp, #0

  /* USER CODE END PendSV_IRQn 0 */
  /* USER CODE BEGIN PendSV_IRQn 1 */

  /* USER CODE END PendSV_IRQn 1 */
}
 8000848:	bf00      	nop
 800084a:	46bd      	mov	sp, r7
 800084c:	f85d 7b04 	ldr.w	r7, [sp], #4
 8000850:	4770      	bx	lr

08000852 <SysTick_Handler>:

/**
  * @brief This function handles System tick timer.
  */
void SysTick_Handler(void)
{
 8000852:	b580      	push	{r7, lr}
 8000854:	af00      	add	r7, sp, #0
  /* USER CODE BEGIN SysTick_IRQn 0 */

  /* USER CODE END SysTick_IRQn 0 */
  HAL_IncTick();
 8000856:	f000 f891 	bl	800097c <HAL_IncTick>
  /* USER CODE BEGIN SysTick_IRQn 1 */

  /* USER CODE END SysTick_IRQn 1 */
}
 800085a:	bf00      	nop
 800085c:	bd80      	pop	{r7, pc}
	...

08000860 <SystemInit>:
  *         configuration.
  * @param  None
  * @retval None
  */
void SystemInit(void)
{
 8000860:	b480      	push	{r7}
 8000862:	af00      	add	r7, sp, #0
  /* FPU settings ------------------------------------------------------------*/
  #if (__FPU_PRESENT == 1) && (__FPU_USED == 1)
    SCB->CPACR |= ((3UL << 10*2)|(3UL << 11*2));  /* set CP10 and CP11 Full Access */
 8000864:	4b06      	ldr	r3, [pc, #24]	@ (8000880 <SystemInit+0x20>)
 8000866:	f8d3 3088 	ldr.w	r3, [r3, #136]	@ 0x88
 800086a:	4a05      	ldr	r2, [pc, #20]	@ (8000880 <SystemInit+0x20>)
 800086c:	f443 0370 	orr.w	r3, r3, #15728640	@ 0xf00000
 8000870:	f8c2 3088 	str.w	r3, [r2, #136]	@ 0x88

  /* Configure the Vector Table location -------------------------------------*/
#if defined(USER_VECT_TAB_ADDRESS)
  SCB->VTOR = VECT_TAB_BASE_ADDRESS | VECT_TAB_OFFSET; /* Vector Table Relocation in Internal SRAM */
#endif /* USER_VECT_TAB_ADDRESS */
}
 8000874:	bf00      	nop
 8000876:	46bd      	mov	sp, r7
 8000878:	f85d 7b04 	ldr.w	r7, [sp], #4
 800087c:	4770      	bx	lr
 800087e:	bf00      	nop
 8000880:	e000ed00 	.word	0xe000ed00

08000884 <Reset_Handler>:

    .section  .text.Reset_Handler
  .weak  Reset_Handler
  .type  Reset_Handler, %function
Reset_Handler:  
  ldr   sp, =_estack      /* set stack pointer */
 8000884:	f8df d034 	ldr.w	sp, [pc, #52]	@ 80008bc <LoopFillZerobss+0xe>
  
/* Call the clock system initialization function.*/
  bl  SystemInit  
 8000888:	f7ff ffea 	bl	8000860 <SystemInit>

/* Copy the data segment initializers from flash to SRAM */  
  ldr r0, =_sdata
 800088c:	480c      	ldr	r0, [pc, #48]	@ (80008c0 <LoopFillZerobss+0x12>)
  ldr r1, =_edata
 800088e:	490d      	ldr	r1, [pc, #52]	@ (80008c4 <LoopFillZerobss+0x16>)
  ldr r2, =_sidata
 8000890:	4a0d      	ldr	r2, [pc, #52]	@ (80008c8 <LoopFillZerobss+0x1a>)
  movs r3, #0
 8000892:	2300      	movs	r3, #0
  b LoopCopyDataInit
 8000894:	e002      	b.n	800089c <LoopCopyDataInit>

08000896 <CopyDataInit>:

CopyDataInit:
  ldr r4, [r2, r3]
 8000896:	58d4      	ldr	r4, [r2, r3]
  str r4, [r0, r3]
 8000898:	50c4      	str	r4, [r0, r3]
  adds r3, r3, #4
 800089a:	3304      	adds	r3, #4

0800089c <LoopCopyDataInit>:

LoopCopyDataInit:
  adds r4, r0, r3
 800089c:	18c4      	adds	r4, r0, r3
  cmp r4, r1
 800089e:	428c      	cmp	r4, r1
  bcc CopyDataInit
 80008a0:	d3f9      	bcc.n	8000896 <CopyDataInit>
  
/* Zero fill the bss segment. */
  ldr r2, =_sbss
 80008a2:	4a0a      	ldr	r2, [pc, #40]	@ (80008cc <LoopFillZerobss+0x1e>)
  ldr r4, =_ebss
 80008a4:	4c0a      	ldr	r4, [pc, #40]	@ (80008d0 <LoopFillZerobss+0x22>)
  movs r3, #0
 80008a6:	2300      	movs	r3, #0
  b LoopFillZerobss
 80008a8:	e001      	b.n	80008ae <LoopFillZerobss>

080008aa <FillZerobss>:

FillZerobss:
  str  r3, [r2]
 80008aa:	6013      	str	r3, [r2, #0]
  adds r2, r2, #4
 80008ac:	3204      	adds	r2, #4

080008ae <LoopFillZerobss>:

LoopFillZerobss:
  cmp r2, r4
 80008ae:	42a2      	cmp	r2, r4
  bcc FillZerobss
 80008b0:	d3fb      	bcc.n	80008aa <FillZerobss>

/* Call static constructors */
    bl __libc_init_array
 80008b2:	f001 fbb1 	bl	8002018 <__libc_init_array>
/* Call the application's entry point.*/
  bl  main
 80008b6:	f7ff fe23 	bl	8000500 <main>
  bx  lr    
 80008ba:	4770      	bx	lr
  ldr   sp, =_estack      /* set stack pointer */
 80008bc:	20010000 	.word	0x20010000
  ldr r0, =_sdata
 80008c0:	20000000 	.word	0x20000000
  ldr r1, =_edata
 80008c4:	2000000c 	.word	0x2000000c
  ldr r2, =_sidata
 80008c8:	080020a4 	.word	0x080020a4
  ldr r2, =_sbss
 80008cc:	2000000c 	.word	0x2000000c
  ldr r4, =_ebss
 80008d0:	20000074 	.word	0x20000074

080008d4 <ADC_IRQHandler>:
 * @retval None       
*/
    .section  .text.Default_Handler,"ax",%progbits
Default_Handler:
Infinite_Loop:
  b  Infinite_Loop
 80008d4:	e7fe      	b.n	80008d4 <ADC_IRQHandler>
	...

080008d8 <HAL_Init>:
  *         need to ensure that the SysTick time base is always set to 1 millisecond
  *         to have correct HAL operation.
  * @retval HAL status
  */
HAL_StatusTypeDef HAL_Init(void)
{
 80008d8:	b580      	push	{r7, lr}
 80008da:	af00      	add	r7, sp, #0
  /* Configure Flash prefetch, Instruction cache, Data cache */ 
#if (INSTRUCTION_CACHE_ENABLE != 0U)
  __HAL_FLASH_INSTRUCTION_CACHE_ENABLE();
 80008dc:	4b0e      	ldr	r3, [pc, #56]	@ (8000918 <HAL_Init+0x40>)
 80008de:	681b      	ldr	r3, [r3, #0]
 80008e0:	4a0d      	ldr	r2, [pc, #52]	@ (8000918 <HAL_Init+0x40>)
 80008e2:	f443 7300 	orr.w	r3, r3, #512	@ 0x200
 80008e6:	6013      	str	r3, [r2, #0]
#endif /* INSTRUCTION_CACHE_ENABLE */

#if (DATA_CACHE_ENABLE != 0U)
  __HAL_FLASH_DATA_CACHE_ENABLE();
 80008e8:	4b0b      	ldr	r3, [pc, #44]	@ (8000918 <HAL_Init+0x40>)
 80008ea:	681b      	ldr	r3, [r3, #0]
 80008ec:	4a0a      	ldr	r2, [pc, #40]	@ (8000918 <HAL_Init+0x40>)
 80008ee:	f443 6380 	orr.w	r3, r3, #1024	@ 0x400
 80008f2:	6013      	str	r3, [r2, #0]
#endif /* DATA_CACHE_ENABLE */

#if (PREFETCH_ENABLE != 0U)
  __HAL_FLASH_PREFETCH_BUFFER_ENABLE();
 80008f4:	4b08      	ldr	r3, [pc, #32]	@ (8000918 <HAL_Init+0x40>)
 80008f6:	681b      	ldr	r3, [r3, #0]
 80008f8:	4a07      	ldr	r2, [pc, #28]	@ (8000918 <HAL_Init+0x40>)
 80008fa:	f443 7380 	orr.w	r3, r3, #256	@ 0x100
 80008fe:	6013      	str	r3, [r2, #0]
#endif /* PREFETCH_ENABLE */

  /* Set Interrupt Group Priority */
  HAL_NVIC_SetPriorityGrouping(NVIC_PRIORITYGROUP_4);
 8000900:	2003      	movs	r0, #3
 8000902:	f000 f931 	bl	8000b68 <HAL_NVIC_SetPriorityGrouping>

  /* Use systick as time base source and configure 1ms tick (default clock after Reset is HSI) */
  HAL_InitTick(TICK_INT_PRIORITY);
 8000906:	200f      	movs	r0, #15
 8000908:	f000 f808 	bl	800091c <HAL_InitTick>

  /* Init the low level hardware */
  HAL_MspInit();
 800090c:	f7ff ff08 	bl	8000720 <HAL_MspInit>

  /* Return function status */
  return HAL_OK;
 8000910:	2300      	movs	r3, #0
}
 8000912:	4618      	mov	r0, r3
 8000914:	bd80      	pop	{r7, pc}
 8000916:	bf00      	nop
 8000918:	40023c00 	.word	0x40023c00

0800091c <HAL_InitTick>:
  *       implementation  in user file.
  * @param TickPriority Tick interrupt priority.
  * @retval HAL status
  */
__weak HAL_StatusTypeDef HAL_InitTick(uint32_t TickPriority)
{
 800091c:	b580      	push	{r7, lr}
 800091e:	b082      	sub	sp, #8
 8000920:	af00      	add	r7, sp, #0
 8000922:	6078      	str	r0, [r7, #4]
  /* Configure the SysTick to have interrupt in 1ms time basis*/
  if (HAL_SYSTICK_Config(SystemCoreClock / (1000U / uwTickFreq)) > 0U)
 8000924:	4b12      	ldr	r3, [pc, #72]	@ (8000970 <HAL_InitTick+0x54>)
 8000926:	681a      	ldr	r2, [r3, #0]
 8000928:	4b12      	ldr	r3, [pc, #72]	@ (8000974 <HAL_InitTick+0x58>)
 800092a:	781b      	ldrb	r3, [r3, #0]
 800092c:	4619      	mov	r1, r3
 800092e:	f44f 737a 	mov.w	r3, #1000	@ 0x3e8
 8000932:	fbb3 f3f1 	udiv	r3, r3, r1
 8000936:	fbb2 f3f3 	udiv	r3, r2, r3
 800093a:	4618      	mov	r0, r3
 800093c:	f000 f93b 	bl	8000bb6 <HAL_SYSTICK_Config>
 8000940:	4603      	mov	r3, r0
 8000942:	2b00      	cmp	r3, #0
 8000944:	d001      	beq.n	800094a <HAL_InitTick+0x2e>
  {
    return HAL_ERROR;
 8000946:	2301      	movs	r3, #1
 8000948:	e00e      	b.n	8000968 <HAL_InitTick+0x4c>
  }

  /* Configure the SysTick IRQ priority */
  if (TickPriority < (1UL << __NVIC_PRIO_BITS))
 800094a:	687b      	ldr	r3, [r7, #4]
 800094c:	2b0f      	cmp	r3, #15
 800094e:	d80a      	bhi.n	8000966 <HAL_InitTick+0x4a>
  {
    HAL_NVIC_SetPriority(SysTick_IRQn, TickPriority, 0U);
 8000950:	2200      	movs	r2, #0
 8000952:	6879      	ldr	r1, [r7, #4]
 8000954:	f04f 30ff 	mov.w	r0, #4294967295
 8000958:	f000 f911 	bl	8000b7e <HAL_NVIC_SetPriority>
    uwTickPrio = TickPriority;
 800095c:	4a06      	ldr	r2, [pc, #24]	@ (8000978 <HAL_InitTick+0x5c>)
 800095e:	687b      	ldr	r3, [r7, #4]
 8000960:	6013      	str	r3, [r2, #0]
  {
    return HAL_ERROR;
  }

  /* Return function status */
  return HAL_OK;
 8000962:	2300      	movs	r3, #0
 8000964:	e000      	b.n	8000968 <HAL_InitTick+0x4c>
    return HAL_ERROR;
 8000966:	2301      	movs	r3, #1
}
 8000968:	4618      	mov	r0, r3
 800096a:	3708      	adds	r7, #8
 800096c:	46bd      	mov	sp, r7
 800096e:	bd80      	pop	{r7, pc}
 8000970:	20000000 	.word	0x20000000
 8000974:	20000008 	.word	0x20000008
 8000978:	20000004 	.word	0x20000004

0800097c <HAL_IncTick>:
 * @note This function is declared as __weak to be overwritten in case of other 
  *      implementations in user file.
  * @retval None
  */
__weak void HAL_IncTick(void)
{
 800097c:	b480      	push	{r7}
 800097e:	af00      	add	r7, sp, #0
  uwTick += uwTickFreq;
 8000980:	4b06      	ldr	r3, [pc, #24]	@ (800099c <HAL_IncTick+0x20>)
 8000982:	781b      	ldrb	r3, [r3, #0]
 8000984:	461a      	mov	r2, r3
 8000986:	4b06      	ldr	r3, [pc, #24]	@ (80009a0 <HAL_IncTick+0x24>)
 8000988:	681b      	ldr	r3, [r3, #0]
 800098a:	4413      	add	r3, r2
 800098c:	4a04      	ldr	r2, [pc, #16]	@ (80009a0 <HAL_IncTick+0x24>)
 800098e:	6013      	str	r3, [r2, #0]
}
 8000990:	bf00      	nop
 8000992:	46bd      	mov	sp, r7
 8000994:	f85d 7b04 	ldr.w	r7, [sp], #4
 8000998:	4770      	bx	lr
 800099a:	bf00      	nop
 800099c:	20000008 	.word	0x20000008
 80009a0:	20000070 	.word	0x20000070

080009a4 <HAL_GetTick>:
  * @note This function is declared as __weak to be overwritten in case of other 
  *       implementations in user file.
  * @retval tick value
  */
__weak uint32_t HAL_GetTick(void)
{
 80009a4:	b480      	push	{r7}
 80009a6:	af00      	add	r7, sp, #0
  return uwTick;
 80009a8:	4b03      	ldr	r3, [pc, #12]	@ (80009b8 <HAL_GetTick+0x14>)
 80009aa:	681b      	ldr	r3, [r3, #0]
}
 80009ac:	4618      	mov	r0, r3
 80009ae:	46bd      	mov	sp, r7
 80009b0:	f85d 7b04 	ldr.w	r7, [sp], #4
 80009b4:	4770      	bx	lr
 80009b6:	bf00      	nop
 80009b8:	20000070 	.word	0x20000070

080009bc <HAL_Delay>:
  *       implementations in user file.
  * @param Delay specifies the delay time length, in milliseconds.
  * @retval None
  */
__weak void HAL_Delay(uint32_t Delay)
{
 80009bc:	b580      	push	{r7, lr}
 80009be:	b084      	sub	sp, #16
 80009c0:	af00      	add	r7, sp, #0
 80009c2:	6078      	str	r0, [r7, #4]
  uint32_t tickstart = HAL_GetTick();
 80009c4:	f7ff ffee 	bl	80009a4 <HAL_GetTick>
 80009c8:	60b8      	str	r0, [r7, #8]
  uint32_t wait = Delay;
 80009ca:	687b      	ldr	r3, [r7, #4]
 80009cc:	60fb      	str	r3, [r7, #12]

  /* Add a freq to guarantee minimum wait */
  if (wait < HAL_MAX_DELAY)
 80009ce:	68fb      	ldr	r3, [r7, #12]
 80009d0:	f1b3 3fff 	cmp.w	r3, #4294967295
 80009d4:	d005      	beq.n	80009e2 <HAL_Delay+0x26>
  {
    wait += (uint32_t)(uwTickFreq);
 80009d6:	4b0a      	ldr	r3, [pc, #40]	@ (8000a00 <HAL_Delay+0x44>)
 80009d8:	781b      	ldrb	r3, [r3, #0]
 80009da:	461a      	mov	r2, r3
 80009dc:	68fb      	ldr	r3, [r7, #12]
 80009de:	4413      	add	r3, r2
 80009e0:	60fb      	str	r3, [r7, #12]
  }

  while((HAL_GetTick() - tickstart) < wait)
 80009e2:	bf00      	nop
 80009e4:	f7ff ffde 	bl	80009a4 <HAL_GetTick>
 80009e8:	4602      	mov	r2, r0
 80009ea:	68bb      	ldr	r3, [r7, #8]
 80009ec:	1ad3      	subs	r3, r2, r3
 80009ee:	68fa      	ldr	r2, [r7, #12]
 80009f0:	429a      	cmp	r2, r3
 80009f2:	d8f7      	bhi.n	80009e4 <HAL_Delay+0x28>
  {
  }
}
 80009f4:	bf00      	nop
 80009f6:	bf00      	nop
 80009f8:	3710      	adds	r7, #16
 80009fa:	46bd      	mov	sp, r7
 80009fc:	bd80      	pop	{r7, pc}
 80009fe:	bf00      	nop
 8000a00:	20000008 	.word	0x20000008

08000a04 <__NVIC_SetPriorityGrouping>:
           In case of a conflict between priority grouping and available
           priority bits (__NVIC_PRIO_BITS), the smallest possible priority group is set.
  \param [in]      PriorityGroup  Priority grouping field.
 */
__STATIC_INLINE void __NVIC_SetPriorityGrouping(uint32_t PriorityGroup)
{
 8000a04:	b480      	push	{r7}
 8000a06:	b085      	sub	sp, #20
 8000a08:	af00      	add	r7, sp, #0
 8000a0a:	6078      	str	r0, [r7, #4]
  uint32_t reg_value;
  uint32_t PriorityGroupTmp = (PriorityGroup & (uint32_t)0x07UL);             /* only values 0..7 are used          */
 8000a0c:	687b      	ldr	r3, [r7, #4]
 8000a0e:	f003 0307 	and.w	r3, r3, #7
 8000a12:	60fb      	str	r3, [r7, #12]

  reg_value  =  SCB->AIRCR;                                                   /* read old register configuration    */
 8000a14:	4b0c      	ldr	r3, [pc, #48]	@ (8000a48 <__NVIC_SetPriorityGrouping+0x44>)
 8000a16:	68db      	ldr	r3, [r3, #12]
 8000a18:	60bb      	str	r3, [r7, #8]
  reg_value &= ~((uint32_t)(SCB_AIRCR_VECTKEY_Msk | SCB_AIRCR_PRIGROUP_Msk)); /* clear bits to change               */
 8000a1a:	68ba      	ldr	r2, [r7, #8]
 8000a1c:	f64f 03ff 	movw	r3, #63743	@ 0xf8ff
 8000a20:	4013      	ands	r3, r2
 8000a22:	60bb      	str	r3, [r7, #8]
  reg_value  =  (reg_value                                   |
                ((uint32_t)0x5FAUL << SCB_AIRCR_VECTKEY_Pos) |
                (PriorityGroupTmp << SCB_AIRCR_PRIGROUP_Pos)  );              /* Insert write key and priority group */
 8000a24:	68fb      	ldr	r3, [r7, #12]
 8000a26:	021a      	lsls	r2, r3, #8
                ((uint32_t)0x5FAUL << SCB_AIRCR_VECTKEY_Pos) |
 8000a28:	68bb      	ldr	r3, [r7, #8]
 8000a2a:	4313      	orrs	r3, r2
  reg_value  =  (reg_value                                   |
 8000a2c:	f043 63bf 	orr.w	r3, r3, #100139008	@ 0x5f80000
 8000a30:	f443 3300 	orr.w	r3, r3, #131072	@ 0x20000
 8000a34:	60bb      	str	r3, [r7, #8]
  SCB->AIRCR =  reg_value;
 8000a36:	4a04      	ldr	r2, [pc, #16]	@ (8000a48 <__NVIC_SetPriorityGrouping+0x44>)
 8000a38:	68bb      	ldr	r3, [r7, #8]
 8000a3a:	60d3      	str	r3, [r2, #12]
}
 8000a3c:	bf00      	nop
 8000a3e:	3714      	adds	r7, #20
 8000a40:	46bd      	mov	sp, r7
 8000a42:	f85d 7b04 	ldr.w	r7, [sp], #4
 8000a46:	4770      	bx	lr
 8000a48:	e000ed00 	.word	0xe000ed00

08000a4c <__NVIC_GetPriorityGrouping>:
  \brief   Get Priority Grouping
  \details Reads the priority grouping field from the NVIC Interrupt Controller.
  \return                Priority grouping field (SCB->AIRCR [10:8] PRIGROUP field).
 */
__STATIC_INLINE uint32_t __NVIC_GetPriorityGrouping(void)
{
 8000a4c:	b480      	push	{r7}
 8000a4e:	af00      	add	r7, sp, #0
  return ((uint32_t)((SCB->AIRCR & SCB_AIRCR_PRIGROUP_Msk) >> SCB_AIRCR_PRIGROUP_Pos));
 8000a50:	4b04      	ldr	r3, [pc, #16]	@ (8000a64 <__NVIC_GetPriorityGrouping+0x18>)
 8000a52:	68db      	ldr	r3, [r3, #12]
 8000a54:	0a1b      	lsrs	r3, r3, #8
 8000a56:	f003 0307 	and.w	r3, r3, #7
}
 8000a5a:	4618      	mov	r0, r3
 8000a5c:	46bd      	mov	sp, r7
 8000a5e:	f85d 7b04 	ldr.w	r7, [sp], #4
 8000a62:	4770      	bx	lr
 8000a64:	e000ed00 	.word	0xe000ed00

08000a68 <__NVIC_SetPriority>:
  \param [in]      IRQn  Interrupt number.
  \param [in]  priority  Priority to set.
  \note    The priority cannot be set for every processor exception.
 */
__STATIC_INLINE void __NVIC_SetPriority(IRQn_Type IRQn, uint32_t priority)
{
 8000a68:	b480      	push	{r7}
 8000a6a:	b083      	sub	sp, #12
 8000a6c:	af00      	add	r7, sp, #0
 8000a6e:	4603      	mov	r3, r0
 8000a70:	6039      	str	r1, [r7, #0]
 8000a72:	71fb      	strb	r3, [r7, #7]
  if ((int32_t)(IRQn) >= 0)
 8000a74:	f997 3007 	ldrsb.w	r3, [r7, #7]
 8000a78:	2b00      	cmp	r3, #0
 8000a7a:	db0a      	blt.n	8000a92 <__NVIC_SetPriority+0x2a>
  {
    NVIC->IP[((uint32_t)IRQn)]               = (uint8_t)((priority << (8U - __NVIC_PRIO_BITS)) & (uint32_t)0xFFUL);
 8000a7c:	683b      	ldr	r3, [r7, #0]
 8000a7e:	b2da      	uxtb	r2, r3
 8000a80:	490c      	ldr	r1, [pc, #48]	@ (8000ab4 <__NVIC_SetPriority+0x4c>)
 8000a82:	f997 3007 	ldrsb.w	r3, [r7, #7]
 8000a86:	0112      	lsls	r2, r2, #4
 8000a88:	b2d2      	uxtb	r2, r2
 8000a8a:	440b      	add	r3, r1
 8000a8c:	f883 2300 	strb.w	r2, [r3, #768]	@ 0x300
  }
  else
  {
    SCB->SHP[(((uint32_t)IRQn) & 0xFUL)-4UL] = (uint8_t)((priority << (8U - __NVIC_PRIO_BITS)) & (uint32_t)0xFFUL);
  }
}
 8000a90:	e00a      	b.n	8000aa8 <__NVIC_SetPriority+0x40>
    SCB->SHP[(((uint32_t)IRQn) & 0xFUL)-4UL] = (uint8_t)((priority << (8U - __NVIC_PRIO_BITS)) & (uint32_t)0xFFUL);
 8000a92:	683b      	ldr	r3, [r7, #0]
 8000a94:	b2da      	uxtb	r2, r3
 8000a96:	4908      	ldr	r1, [pc, #32]	@ (8000ab8 <__NVIC_SetPriority+0x50>)
 8000a98:	79fb      	ldrb	r3, [r7, #7]
 8000a9a:	f003 030f 	and.w	r3, r3, #15
 8000a9e:	3b04      	subs	r3, #4
 8000aa0:	0112      	lsls	r2, r2, #4
 8000aa2:	b2d2      	uxtb	r2, r2
 8000aa4:	440b      	add	r3, r1
 8000aa6:	761a      	strb	r2, [r3, #24]
}
 8000aa8:	bf00      	nop
 8000aaa:	370c      	adds	r7, #12
 8000aac:	46bd      	mov	sp, r7
 8000aae:	f85d 7b04 	ldr.w	r7, [sp], #4
 8000ab2:	4770      	bx	lr
 8000ab4:	e000e100 	.word	0xe000e100
 8000ab8:	e000ed00 	.word	0xe000ed00

08000abc <NVIC_EncodePriority>:
  \param [in]   PreemptPriority  Preemptive priority value (starting from 0).
  \param [in]       SubPriority  Subpriority value (starting from 0).
  \return                        Encoded priority. Value can be used in the function \ref NVIC_SetPriority().
 */
__STATIC_INLINE uint32_t NVIC_EncodePriority (uint32_t PriorityGroup, uint32_t PreemptPriority, uint32_t SubPriority)
{
 8000abc:	b480      	push	{r7}
 8000abe:	b089      	sub	sp, #36	@ 0x24
 8000ac0:	af00      	add	r7, sp, #0
 8000ac2:	60f8      	str	r0, [r7, #12]
 8000ac4:	60b9      	str	r1, [r7, #8]
 8000ac6:	607a      	str	r2, [r7, #4]
  uint32_t PriorityGroupTmp = (PriorityGroup & (uint32_t)0x07UL);   /* only values 0..7 are used          */
 8000ac8:	68fb      	ldr	r3, [r7, #12]
 8000aca:	f003 0307 	and.w	r3, r3, #7
 8000ace:	61fb      	str	r3, [r7, #28]
  uint32_t PreemptPriorityBits;
  uint32_t SubPriorityBits;

  PreemptPriorityBits = ((7UL - PriorityGroupTmp) > (uint32_t)(__NVIC_PRIO_BITS)) ? (uint32_t)(__NVIC_PRIO_BITS) : (uint32_t)(7UL - PriorityGroupTmp);
 8000ad0:	69fb      	ldr	r3, [r7, #28]
 8000ad2:	f1c3 0307 	rsb	r3, r3, #7
 8000ad6:	2b04      	cmp	r3, #4
 8000ad8:	bf28      	it	cs
 8000ada:	2304      	movcs	r3, #4
 8000adc:	61bb      	str	r3, [r7, #24]
  SubPriorityBits     = ((PriorityGroupTmp + (uint32_t)(__NVIC_PRIO_BITS)) < (uint32_t)7UL) ? (uint32_t)0UL : (uint32_t)((PriorityGroupTmp - 7UL) + (uint32_t)(__NVIC_PRIO_BITS));
 8000ade:	69fb      	ldr	r3, [r7, #28]
 8000ae0:	3304      	adds	r3, #4
 8000ae2:	2b06      	cmp	r3, #6
 8000ae4:	d902      	bls.n	8000aec <NVIC_EncodePriority+0x30>
 8000ae6:	69fb      	ldr	r3, [r7, #28]
 8000ae8:	3b03      	subs	r3, #3
 8000aea:	e000      	b.n	8000aee <NVIC_EncodePriority+0x32>
 8000aec:	2300      	movs	r3, #0
 8000aee:	617b      	str	r3, [r7, #20]

  return (
           ((PreemptPriority & (uint32_t)((1UL << (PreemptPriorityBits)) - 1UL)) << SubPriorityBits) |
 8000af0:	f04f 32ff 	mov.w	r2, #4294967295
 8000af4:	69bb      	ldr	r3, [r7, #24]
 8000af6:	fa02 f303 	lsl.w	r3, r2, r3
 8000afa:	43da      	mvns	r2, r3
 8000afc:	68bb      	ldr	r3, [r7, #8]
 8000afe:	401a      	ands	r2, r3
 8000b00:	697b      	ldr	r3, [r7, #20]
 8000b02:	409a      	lsls	r2, r3
           ((SubPriority     & (uint32_t)((1UL << (SubPriorityBits    )) - 1UL)))
 8000b04:	f04f 31ff 	mov.w	r1, #4294967295
 8000b08:	697b      	ldr	r3, [r7, #20]
 8000b0a:	fa01 f303 	lsl.w	r3, r1, r3
 8000b0e:	43d9      	mvns	r1, r3
 8000b10:	687b      	ldr	r3, [r7, #4]
 8000b12:	400b      	ands	r3, r1
           ((PreemptPriority & (uint32_t)((1UL << (PreemptPriorityBits)) - 1UL)) << SubPriorityBits) |
 8000b14:	4313      	orrs	r3, r2
         );
}
 8000b16:	4618      	mov	r0, r3
 8000b18:	3724      	adds	r7, #36	@ 0x24
 8000b1a:	46bd      	mov	sp, r7
 8000b1c:	f85d 7b04 	ldr.w	r7, [sp], #4
 8000b20:	4770      	bx	lr
	...

08000b24 <SysTick_Config>:
  \note    When the variable <b>__Vendor_SysTickConfig</b> is set to 1, then the
           function <b>SysTick_Config</b> is not included. In this case, the file <b><i>device</i>.h</b>
           must contain a vendor-specific implementation of this function.
 */
__STATIC_INLINE uint32_t SysTick_Config(uint32_t ticks)
{
 8000b24:	b580      	push	{r7, lr}
 8000b26:	b082      	sub	sp, #8
 8000b28:	af00      	add	r7, sp, #0
 8000b2a:	6078      	str	r0, [r7, #4]
  if ((ticks - 1UL) > SysTick_LOAD_RELOAD_Msk)
 8000b2c:	687b      	ldr	r3, [r7, #4]
 8000b2e:	3b01      	subs	r3, #1
 8000b30:	f1b3 7f80 	cmp.w	r3, #16777216	@ 0x1000000
 8000b34:	d301      	bcc.n	8000b3a <SysTick_Config+0x16>
  {
    return (1UL);                                                   /* Reload value impossible */
 8000b36:	2301      	movs	r3, #1
 8000b38:	e00f      	b.n	8000b5a <SysTick_Config+0x36>
  }

  SysTick->LOAD  = (uint32_t)(ticks - 1UL);                         /* set reload register */
 8000b3a:	4a0a      	ldr	r2, [pc, #40]	@ (8000b64 <SysTick_Config+0x40>)
 8000b3c:	687b      	ldr	r3, [r7, #4]
 8000b3e:	3b01      	subs	r3, #1
 8000b40:	6053      	str	r3, [r2, #4]
  NVIC_SetPriority (SysTick_IRQn, (1UL << __NVIC_PRIO_BITS) - 1UL); /* set Priority for Systick Interrupt */
 8000b42:	210f      	movs	r1, #15
 8000b44:	f04f 30ff 	mov.w	r0, #4294967295
 8000b48:	f7ff ff8e 	bl	8000a68 <__NVIC_SetPriority>
  SysTick->VAL   = 0UL;                                             /* Load the SysTick Counter Value */
 8000b4c:	4b05      	ldr	r3, [pc, #20]	@ (8000b64 <SysTick_Config+0x40>)
 8000b4e:	2200      	movs	r2, #0
 8000b50:	609a      	str	r2, [r3, #8]
  SysTick->CTRL  = SysTick_CTRL_CLKSOURCE_Msk |
 8000b52:	4b04      	ldr	r3, [pc, #16]	@ (8000b64 <SysTick_Config+0x40>)
 8000b54:	2207      	movs	r2, #7
 8000b56:	601a      	str	r2, [r3, #0]
                   SysTick_CTRL_TICKINT_Msk   |
                   SysTick_CTRL_ENABLE_Msk;                         /* Enable SysTick IRQ and SysTick Timer */
  return (0UL);                                                     /* Function successful */
 8000b58:	2300      	movs	r3, #0
}
 8000b5a:	4618      	mov	r0, r3
 8000b5c:	3708      	adds	r7, #8
 8000b5e:	46bd      	mov	sp, r7
 8000b60:	bd80      	pop	{r7, pc}
 8000b62:	bf00      	nop
 8000b64:	e000e010 	.word	0xe000e010

08000b68 <HAL_NVIC_SetPriorityGrouping>:
  * @note   When the NVIC_PriorityGroup_0 is selected, IRQ preemption is no more possible. 
  *         The pending IRQ priority will be managed only by the subpriority. 
  * @retval None
  */
void HAL_NVIC_SetPriorityGrouping(uint32_t PriorityGroup)
{
 8000b68:	b580      	push	{r7, lr}
 8000b6a:	b082      	sub	sp, #8
 8000b6c:	af00      	add	r7, sp, #0
 8000b6e:	6078      	str	r0, [r7, #4]
  /* Check the parameters */
  assert_param(IS_NVIC_PRIORITY_GROUP(PriorityGroup));
  
  /* Set the PRIGROUP[10:8] bits according to the PriorityGroup parameter value */
  NVIC_SetPriorityGrouping(PriorityGroup);
 8000b70:	6878      	ldr	r0, [r7, #4]
 8000b72:	f7ff ff47 	bl	8000a04 <__NVIC_SetPriorityGrouping>
}
 8000b76:	bf00      	nop
 8000b78:	3708      	adds	r7, #8
 8000b7a:	46bd      	mov	sp, r7
 8000b7c:	bd80      	pop	{r7, pc}

08000b7e <HAL_NVIC_SetPriority>:
  *         This parameter can be a value between 0 and 15
  *         A lower priority value indicates a higher priority.          
  * @retval None
  */
void HAL_NVIC_SetPriority(IRQn_Type IRQn, uint32_t PreemptPriority, uint32_t SubPriority)
{ 
 8000b7e:	b580      	push	{r7, lr}
 8000b80:	b086      	sub	sp, #24
 8000b82:	af00      	add	r7, sp, #0
 8000b84:	4603      	mov	r3, r0
 8000b86:	60b9      	str	r1, [r7, #8]
 8000b88:	607a      	str	r2, [r7, #4]
 8000b8a:	73fb      	strb	r3, [r7, #15]
  uint32_t prioritygroup = 0x00U;
 8000b8c:	2300      	movs	r3, #0
 8000b8e:	617b      	str	r3, [r7, #20]
  
  /* Check the parameters */
  assert_param(IS_NVIC_SUB_PRIORITY(SubPriority));
  assert_param(IS_NVIC_PREEMPTION_PRIORITY(PreemptPriority));
  
  prioritygroup = NVIC_GetPriorityGrouping();
 8000b90:	f7ff ff5c 	bl	8000a4c <__NVIC_GetPriorityGrouping>
 8000b94:	6178      	str	r0, [r7, #20]
  
  NVIC_SetPriority(IRQn, NVIC_EncodePriority(prioritygroup, PreemptPriority, SubPriority));
 8000b96:	687a      	ldr	r2, [r7, #4]
 8000b98:	68b9      	ldr	r1, [r7, #8]
 8000b9a:	6978      	ldr	r0, [r7, #20]
 8000b9c:	f7ff ff8e 	bl	8000abc <NVIC_EncodePriority>
 8000ba0:	4602      	mov	r2, r0
 8000ba2:	f997 300f 	ldrsb.w	r3, [r7, #15]
 8000ba6:	4611      	mov	r1, r2
 8000ba8:	4618      	mov	r0, r3
 8000baa:	f7ff ff5d 	bl	8000a68 <__NVIC_SetPriority>
}
 8000bae:	bf00      	nop
 8000bb0:	3718      	adds	r7, #24
 8000bb2:	46bd      	mov	sp, r7
 8000bb4:	bd80      	pop	{r7, pc}

08000bb6 <HAL_SYSTICK_Config>:
  * @param  TicksNumb Specifies the ticks Number of ticks between two interrupts.
  * @retval status:  - 0  Function succeeded.
  *                  - 1  Function failed.
  */
uint32_t HAL_SYSTICK_Config(uint32_t TicksNumb)
{
 8000bb6:	b580      	push	{r7, lr}
 8000bb8:	b082      	sub	sp, #8
 8000bba:	af00      	add	r7, sp, #0
 8000bbc:	6078      	str	r0, [r7, #4]
   return SysTick_Config(TicksNumb);
 8000bbe:	6878      	ldr	r0, [r7, #4]
 8000bc0:	f7ff ffb0 	bl	8000b24 <SysTick_Config>
 8000bc4:	4603      	mov	r3, r0
}
 8000bc6:	4618      	mov	r0, r3
 8000bc8:	3708      	adds	r7, #8
 8000bca:	46bd      	mov	sp, r7
 8000bcc:	bd80      	pop	{r7, pc}
	...

08000bd0 <HAL_GPIO_Init>:
  * @param  GPIO_Init pointer to a GPIO_InitTypeDef structure that contains
  *         the configuration information for the specified GPIO peripheral.
  * @retval None
  */
void HAL_GPIO_Init(GPIO_TypeDef  *GPIOx, GPIO_InitTypeDef *GPIO_Init)
{
 8000bd0:	b480      	push	{r7}
 8000bd2:	b089      	sub	sp, #36	@ 0x24
 8000bd4:	af00      	add	r7, sp, #0
 8000bd6:	6078      	str	r0, [r7, #4]
 8000bd8:	6039      	str	r1, [r7, #0]
  uint32_t position;
  uint32_t ioposition = 0x00U;
 8000bda:	2300      	movs	r3, #0
 8000bdc:	617b      	str	r3, [r7, #20]
  uint32_t iocurrent = 0x00U;
 8000bde:	2300      	movs	r3, #0
 8000be0:	613b      	str	r3, [r7, #16]
  uint32_t temp = 0x00U;
 8000be2:	2300      	movs	r3, #0
 8000be4:	61bb      	str	r3, [r7, #24]
  assert_param(IS_GPIO_ALL_INSTANCE(GPIOx));
  assert_param(IS_GPIO_PIN(GPIO_Init->Pin));
  assert_param(IS_GPIO_MODE(GPIO_Init->Mode));

  /* Configure the port pins */
  for(position = 0U; position < GPIO_NUMBER; position++)
 8000be6:	2300      	movs	r3, #0
 8000be8:	61fb      	str	r3, [r7, #28]
 8000bea:	e159      	b.n	8000ea0 <HAL_GPIO_Init+0x2d0>
  {
    /* Get the IO position */
    ioposition = 0x01U << position;
 8000bec:	2201      	movs	r2, #1
 8000bee:	69fb      	ldr	r3, [r7, #28]
 8000bf0:	fa02 f303 	lsl.w	r3, r2, r3
 8000bf4:	617b      	str	r3, [r7, #20]
    /* Get the current IO position */
    iocurrent = (uint32_t)(GPIO_Init->Pin) & ioposition;
 8000bf6:	683b      	ldr	r3, [r7, #0]
 8000bf8:	681b      	ldr	r3, [r3, #0]
 8000bfa:	697a      	ldr	r2, [r7, #20]
 8000bfc:	4013      	ands	r3, r2
 8000bfe:	613b      	str	r3, [r7, #16]

    if(iocurrent == ioposition)
 8000c00:	693a      	ldr	r2, [r7, #16]
 8000c02:	697b      	ldr	r3, [r7, #20]
 8000c04:	429a      	cmp	r2, r3
 8000c06:	f040 8148 	bne.w	8000e9a <HAL_GPIO_Init+0x2ca>
    {
      /*--------------------- GPIO Mode Configuration ------------------------*/
      /* In case of Output or Alternate function mode selection */
      if(((GPIO_Init->Mode & GPIO_MODE) == MODE_OUTPUT) || \
 8000c0a:	683b      	ldr	r3, [r7, #0]
 8000c0c:	685b      	ldr	r3, [r3, #4]
 8000c0e:	f003 0303 	and.w	r3, r3, #3
 8000c12:	2b01      	cmp	r3, #1
 8000c14:	d005      	beq.n	8000c22 <HAL_GPIO_Init+0x52>
          (GPIO_Init->Mode & GPIO_MODE) == MODE_AF)
 8000c16:	683b      	ldr	r3, [r7, #0]
 8000c18:	685b      	ldr	r3, [r3, #4]
 8000c1a:	f003 0303 	and.w	r3, r3, #3
      if(((GPIO_Init->Mode & GPIO_MODE) == MODE_OUTPUT) || \
 8000c1e:	2b02      	cmp	r3, #2
 8000c20:	d130      	bne.n	8000c84 <HAL_GPIO_Init+0xb4>
      {
        /* Check the Speed parameter */
        assert_param(IS_GPIO_SPEED(GPIO_Init->Speed));
        /* Configure the IO Speed */
        temp = GPIOx->OSPEEDR; 
 8000c22:	687b      	ldr	r3, [r7, #4]
 8000c24:	689b      	ldr	r3, [r3, #8]
 8000c26:	61bb      	str	r3, [r7, #24]
        temp &= ~(GPIO_OSPEEDER_OSPEEDR0 << (position * 2U));
 8000c28:	69fb      	ldr	r3, [r7, #28]
 8000c2a:	005b      	lsls	r3, r3, #1
 8000c2c:	2203      	movs	r2, #3
 8000c2e:	fa02 f303 	lsl.w	r3, r2, r3
 8000c32:	43db      	mvns	r3, r3
 8000c34:	69ba      	ldr	r2, [r7, #24]
 8000c36:	4013      	ands	r3, r2
 8000c38:	61bb      	str	r3, [r7, #24]
        temp |= (GPIO_Init->Speed << (position * 2U));
 8000c3a:	683b      	ldr	r3, [r7, #0]
 8000c3c:	68da      	ldr	r2, [r3, #12]
 8000c3e:	69fb      	ldr	r3, [r7, #28]
 8000c40:	005b      	lsls	r3, r3, #1
 8000c42:	fa02 f303 	lsl.w	r3, r2, r3
 8000c46:	69ba      	ldr	r2, [r7, #24]
 8000c48:	4313      	orrs	r3, r2
 8000c4a:	61bb      	str	r3, [r7, #24]
        GPIOx->OSPEEDR = temp;
 8000c4c:	687b      	ldr	r3, [r7, #4]
 8000c4e:	69ba      	ldr	r2, [r7, #24]
 8000c50:	609a      	str	r2, [r3, #8]

        /* Configure the IO Output Type */
        temp = GPIOx->OTYPER;
 8000c52:	687b      	ldr	r3, [r7, #4]
 8000c54:	685b      	ldr	r3, [r3, #4]
 8000c56:	61bb      	str	r3, [r7, #24]
        temp &= ~(GPIO_OTYPER_OT_0 << position) ;
 8000c58:	2201      	movs	r2, #1
 8000c5a:	69fb      	ldr	r3, [r7, #28]
 8000c5c:	fa02 f303 	lsl.w	r3, r2, r3
 8000c60:	43db      	mvns	r3, r3
 8000c62:	69ba      	ldr	r2, [r7, #24]
 8000c64:	4013      	ands	r3, r2
 8000c66:	61bb      	str	r3, [r7, #24]
        temp |= (((GPIO_Init->Mode & OUTPUT_TYPE) >> OUTPUT_TYPE_Pos) << position);
 8000c68:	683b      	ldr	r3, [r7, #0]
 8000c6a:	685b      	ldr	r3, [r3, #4]
 8000c6c:	091b      	lsrs	r3, r3, #4
 8000c6e:	f003 0201 	and.w	r2, r3, #1
 8000c72:	69fb      	ldr	r3, [r7, #28]
 8000c74:	fa02 f303 	lsl.w	r3, r2, r3
 8000c78:	69ba      	ldr	r2, [r7, #24]
 8000c7a:	4313      	orrs	r3, r2
 8000c7c:	61bb      	str	r3, [r7, #24]
        GPIOx->OTYPER = temp;
 8000c7e:	687b      	ldr	r3, [r7, #4]
 8000c80:	69ba      	ldr	r2, [r7, #24]
 8000c82:	605a      	str	r2, [r3, #4]
       }

      if((GPIO_Init->Mode & GPIO_MODE) != MODE_ANALOG)
 8000c84:	683b      	ldr	r3, [r7, #0]
 8000c86:	685b      	ldr	r3, [r3, #4]
 8000c88:	f003 0303 	and.w	r3, r3, #3
 8000c8c:	2b03      	cmp	r3, #3
 8000c8e:	d017      	beq.n	8000cc0 <HAL_GPIO_Init+0xf0>
      {
        /* Check the parameters */
        assert_param(IS_GPIO_PULL(GPIO_Init->Pull));
        
        /* Activate the Pull-up or Pull down resistor for the current IO */
        temp = GPIOx->PUPDR;
 8000c90:	687b      	ldr	r3, [r7, #4]
 8000c92:	68db      	ldr	r3, [r3, #12]
 8000c94:	61bb      	str	r3, [r7, #24]
        temp &= ~(GPIO_PUPDR_PUPDR0 << (position * 2U));
 8000c96:	69fb      	ldr	r3, [r7, #28]
 8000c98:	005b      	lsls	r3, r3, #1
 8000c9a:	2203      	movs	r2, #3
 8000c9c:	fa02 f303 	lsl.w	r3, r2, r3
 8000ca0:	43db      	mvns	r3, r3
 8000ca2:	69ba      	ldr	r2, [r7, #24]
 8000ca4:	4013      	ands	r3, r2
 8000ca6:	61bb      	str	r3, [r7, #24]
        temp |= ((GPIO_Init->Pull) << (position * 2U));
 8000ca8:	683b      	ldr	r3, [r7, #0]
 8000caa:	689a      	ldr	r2, [r3, #8]
 8000cac:	69fb      	ldr	r3, [r7, #28]
 8000cae:	005b      	lsls	r3, r3, #1
 8000cb0:	fa02 f303 	lsl.w	r3, r2, r3
 8000cb4:	69ba      	ldr	r2, [r7, #24]
 8000cb6:	4313      	orrs	r3, r2
 8000cb8:	61bb      	str	r3, [r7, #24]
        GPIOx->PUPDR = temp;
 8000cba:	687b      	ldr	r3, [r7, #4]
 8000cbc:	69ba      	ldr	r2, [r7, #24]
 8000cbe:	60da      	str	r2, [r3, #12]
      }

      /* In case of Alternate function mode selection */
      if((GPIO_Init->Mode & GPIO_MODE) == MODE_AF)
 8000cc0:	683b      	ldr	r3, [r7, #0]
 8000cc2:	685b      	ldr	r3, [r3, #4]
 8000cc4:	f003 0303 	and.w	r3, r3, #3
 8000cc8:	2b02      	cmp	r3, #2
 8000cca:	d123      	bne.n	8000d14 <HAL_GPIO_Init+0x144>
      {
        /* Check the Alternate function parameter */
        assert_param(IS_GPIO_AF(GPIO_Init->Alternate));
        /* Configure Alternate function mapped with the current IO */
        temp = GPIOx->AFR[position >> 3U];
 8000ccc:	69fb      	ldr	r3, [r7, #28]
 8000cce:	08da      	lsrs	r2, r3, #3
 8000cd0:	687b      	ldr	r3, [r7, #4]
 8000cd2:	3208      	adds	r2, #8
 8000cd4:	f853 3022 	ldr.w	r3, [r3, r2, lsl #2]
 8000cd8:	61bb      	str	r3, [r7, #24]
        temp &= ~(0xFU << ((uint32_t)(position & 0x07U) * 4U)) ;
 8000cda:	69fb      	ldr	r3, [r7, #28]
 8000cdc:	f003 0307 	and.w	r3, r3, #7
 8000ce0:	009b      	lsls	r3, r3, #2
 8000ce2:	220f      	movs	r2, #15
 8000ce4:	fa02 f303 	lsl.w	r3, r2, r3
 8000ce8:	43db      	mvns	r3, r3
 8000cea:	69ba      	ldr	r2, [r7, #24]
 8000cec:	4013      	ands	r3, r2
 8000cee:	61bb      	str	r3, [r7, #24]
        temp |= ((uint32_t)(GPIO_Init->Alternate) << (((uint32_t)position & 0x07U) * 4U));
 8000cf0:	683b      	ldr	r3, [r7, #0]
 8000cf2:	691a      	ldr	r2, [r3, #16]
 8000cf4:	69fb      	ldr	r3, [r7, #28]
 8000cf6:	f003 0307 	and.w	r3, r3, #7
 8000cfa:	009b      	lsls	r3, r3, #2
 8000cfc:	fa02 f303 	lsl.w	r3, r2, r3
 8000d00:	69ba      	ldr	r2, [r7, #24]
 8000d02:	4313      	orrs	r3, r2
 8000d04:	61bb      	str	r3, [r7, #24]
        GPIOx->AFR[position >> 3U] = temp;
 8000d06:	69fb      	ldr	r3, [r7, #28]
 8000d08:	08da      	lsrs	r2, r3, #3
 8000d0a:	687b      	ldr	r3, [r7, #4]
 8000d0c:	3208      	adds	r2, #8
 8000d0e:	69b9      	ldr	r1, [r7, #24]
 8000d10:	f843 1022 	str.w	r1, [r3, r2, lsl #2]
      }

      /* Configure IO Direction mode (Input, Output, Alternate or Analog) */
      temp = GPIOx->MODER;
 8000d14:	687b      	ldr	r3, [r7, #4]
 8000d16:	681b      	ldr	r3, [r3, #0]
 8000d18:	61bb      	str	r3, [r7, #24]
      temp &= ~(GPIO_MODER_MODER0 << (position * 2U));
 8000d1a:	69fb      	ldr	r3, [r7, #28]
 8000d1c:	005b      	lsls	r3, r3, #1
 8000d1e:	2203      	movs	r2, #3
 8000d20:	fa02 f303 	lsl.w	r3, r2, r3
 8000d24:	43db      	mvns	r3, r3
 8000d26:	69ba      	ldr	r2, [r7, #24]
 8000d28:	4013      	ands	r3, r2
 8000d2a:	61bb      	str	r3, [r7, #24]
      temp |= ((GPIO_Init->Mode & GPIO_MODE) << (position * 2U));
 8000d2c:	683b      	ldr	r3, [r7, #0]
 8000d2e:	685b      	ldr	r3, [r3, #4]
 8000d30:	f003 0203 	and.w	r2, r3, #3
 8000d34:	69fb      	ldr	r3, [r7, #28]
 8000d36:	005b      	lsls	r3, r3, #1
 8000d38:	fa02 f303 	lsl.w	r3, r2, r3
 8000d3c:	69ba      	ldr	r2, [r7, #24]
 8000d3e:	4313      	orrs	r3, r2
 8000d40:	61bb      	str	r3, [r7, #24]
      GPIOx->MODER = temp;
 8000d42:	687b      	ldr	r3, [r7, #4]
 8000d44:	69ba      	ldr	r2, [r7, #24]
 8000d46:	601a      	str	r2, [r3, #0]

      /*--------------------- EXTI Mode Configuration ------------------------*/
      /* Configure the External Interrupt or event for the current IO */
      if((GPIO_Init->Mode & EXTI_MODE) != 0x00U)
 8000d48:	683b      	ldr	r3, [r7, #0]
 8000d4a:	685b      	ldr	r3, [r3, #4]
 8000d4c:	f403 3340 	and.w	r3, r3, #196608	@ 0x30000
 8000d50:	2b00      	cmp	r3, #0
 8000d52:	f000 80a2 	beq.w	8000e9a <HAL_GPIO_Init+0x2ca>
      {
        /* Enable SYSCFG Clock */
        __HAL_RCC_SYSCFG_CLK_ENABLE();
 8000d56:	2300      	movs	r3, #0
 8000d58:	60fb      	str	r3, [r7, #12]
 8000d5a:	4b57      	ldr	r3, [pc, #348]	@ (8000eb8 <HAL_GPIO_Init+0x2e8>)
 8000d5c:	6c5b      	ldr	r3, [r3, #68]	@ 0x44
 8000d5e:	4a56      	ldr	r2, [pc, #344]	@ (8000eb8 <HAL_GPIO_Init+0x2e8>)
 8000d60:	f443 4380 	orr.w	r3, r3, #16384	@ 0x4000
 8000d64:	6453      	str	r3, [r2, #68]	@ 0x44
 8000d66:	4b54      	ldr	r3, [pc, #336]	@ (8000eb8 <HAL_GPIO_Init+0x2e8>)
 8000d68:	6c5b      	ldr	r3, [r3, #68]	@ 0x44
 8000d6a:	f403 4380 	and.w	r3, r3, #16384	@ 0x4000
 8000d6e:	60fb      	str	r3, [r7, #12]
 8000d70:	68fb      	ldr	r3, [r7, #12]

        temp = SYSCFG->EXTICR[position >> 2U];
 8000d72:	4a52      	ldr	r2, [pc, #328]	@ (8000ebc <HAL_GPIO_Init+0x2ec>)
 8000d74:	69fb      	ldr	r3, [r7, #28]
 8000d76:	089b      	lsrs	r3, r3, #2
 8000d78:	3302      	adds	r3, #2
 8000d7a:	f852 3023 	ldr.w	r3, [r2, r3, lsl #2]
 8000d7e:	61bb      	str	r3, [r7, #24]
        temp &= ~(0x0FU << (4U * (position & 0x03U)));
 8000d80:	69fb      	ldr	r3, [r7, #28]
 8000d82:	f003 0303 	and.w	r3, r3, #3
 8000d86:	009b      	lsls	r3, r3, #2
 8000d88:	220f      	movs	r2, #15
 8000d8a:	fa02 f303 	lsl.w	r3, r2, r3
 8000d8e:	43db      	mvns	r3, r3
 8000d90:	69ba      	ldr	r2, [r7, #24]
 8000d92:	4013      	ands	r3, r2
 8000d94:	61bb      	str	r3, [r7, #24]
        temp |= ((uint32_t)(GPIO_GET_INDEX(GPIOx)) << (4U * (position & 0x03U)));
 8000d96:	687b      	ldr	r3, [r7, #4]
 8000d98:	4a49      	ldr	r2, [pc, #292]	@ (8000ec0 <HAL_GPIO_Init+0x2f0>)
 8000d9a:	4293      	cmp	r3, r2
 8000d9c:	d019      	beq.n	8000dd2 <HAL_GPIO_Init+0x202>
 8000d9e:	687b      	ldr	r3, [r7, #4]
 8000da0:	4a48      	ldr	r2, [pc, #288]	@ (8000ec4 <HAL_GPIO_Init+0x2f4>)
 8000da2:	4293      	cmp	r3, r2
 8000da4:	d013      	beq.n	8000dce <HAL_GPIO_Init+0x1fe>
 8000da6:	687b      	ldr	r3, [r7, #4]
 8000da8:	4a47      	ldr	r2, [pc, #284]	@ (8000ec8 <HAL_GPIO_Init+0x2f8>)
 8000daa:	4293      	cmp	r3, r2
 8000dac:	d00d      	beq.n	8000dca <HAL_GPIO_Init+0x1fa>
 8000dae:	687b      	ldr	r3, [r7, #4]
 8000db0:	4a46      	ldr	r2, [pc, #280]	@ (8000ecc <HAL_GPIO_Init+0x2fc>)
 8000db2:	4293      	cmp	r3, r2
 8000db4:	d007      	beq.n	8000dc6 <HAL_GPIO_Init+0x1f6>
 8000db6:	687b      	ldr	r3, [r7, #4]
 8000db8:	4a45      	ldr	r2, [pc, #276]	@ (8000ed0 <HAL_GPIO_Init+0x300>)
 8000dba:	4293      	cmp	r3, r2
 8000dbc:	d101      	bne.n	8000dc2 <HAL_GPIO_Init+0x1f2>
 8000dbe:	2304      	movs	r3, #4
 8000dc0:	e008      	b.n	8000dd4 <HAL_GPIO_Init+0x204>
 8000dc2:	2307      	movs	r3, #7
 8000dc4:	e006      	b.n	8000dd4 <HAL_GPIO_Init+0x204>
 8000dc6:	2303      	movs	r3, #3
 8000dc8:	e004      	b.n	8000dd4 <HAL_GPIO_Init+0x204>
 8000dca:	2302      	movs	r3, #2
 8000dcc:	e002      	b.n	8000dd4 <HAL_GPIO_Init+0x204>
 8000dce:	2301      	movs	r3, #1
 8000dd0:	e000      	b.n	8000dd4 <HAL_GPIO_Init+0x204>
 8000dd2:	2300      	movs	r3, #0
 8000dd4:	69fa      	ldr	r2, [r7, #28]
 8000dd6:	f002 0203 	and.w	r2, r2, #3
 8000dda:	0092      	lsls	r2, r2, #2
 8000ddc:	4093      	lsls	r3, r2
 8000dde:	69ba      	ldr	r2, [r7, #24]
 8000de0:	4313      	orrs	r3, r2
 8000de2:	61bb      	str	r3, [r7, #24]
        SYSCFG->EXTICR[position >> 2U] = temp;
 8000de4:	4935      	ldr	r1, [pc, #212]	@ (8000ebc <HAL_GPIO_Init+0x2ec>)
 8000de6:	69fb      	ldr	r3, [r7, #28]
 8000de8:	089b      	lsrs	r3, r3, #2
 8000dea:	3302      	adds	r3, #2
 8000dec:	69ba      	ldr	r2, [r7, #24]
 8000dee:	f841 2023 	str.w	r2, [r1, r3, lsl #2]

        /* Clear Rising Falling edge configuration */
        temp = EXTI->RTSR;
 8000df2:	4b38      	ldr	r3, [pc, #224]	@ (8000ed4 <HAL_GPIO_Init+0x304>)
 8000df4:	689b      	ldr	r3, [r3, #8]
 8000df6:	61bb      	str	r3, [r7, #24]
        temp &= ~((uint32_t)iocurrent);
 8000df8:	693b      	ldr	r3, [r7, #16]
 8000dfa:	43db      	mvns	r3, r3
 8000dfc:	69ba      	ldr	r2, [r7, #24]
 8000dfe:	4013      	ands	r3, r2
 8000e00:	61bb      	str	r3, [r7, #24]
        if((GPIO_Init->Mode & TRIGGER_RISING) != 0x00U)
 8000e02:	683b      	ldr	r3, [r7, #0]
 8000e04:	685b      	ldr	r3, [r3, #4]
 8000e06:	f403 1380 	and.w	r3, r3, #1048576	@ 0x100000
 8000e0a:	2b00      	cmp	r3, #0
 8000e0c:	d003      	beq.n	8000e16 <HAL_GPIO_Init+0x246>
        {
          temp |= iocurrent;
 8000e0e:	69ba      	ldr	r2, [r7, #24]
 8000e10:	693b      	ldr	r3, [r7, #16]
 8000e12:	4313      	orrs	r3, r2
 8000e14:	61bb      	str	r3, [r7, #24]
        }
        EXTI->RTSR = temp;
 8000e16:	4a2f      	ldr	r2, [pc, #188]	@ (8000ed4 <HAL_GPIO_Init+0x304>)
 8000e18:	69bb      	ldr	r3, [r7, #24]
 8000e1a:	6093      	str	r3, [r2, #8]

        temp = EXTI->FTSR;
 8000e1c:	4b2d      	ldr	r3, [pc, #180]	@ (8000ed4 <HAL_GPIO_Init+0x304>)
 8000e1e:	68db      	ldr	r3, [r3, #12]
 8000e20:	61bb      	str	r3, [r7, #24]
        temp &= ~((uint32_t)iocurrent);
 8000e22:	693b      	ldr	r3, [r7, #16]
 8000e24:	43db      	mvns	r3, r3
 8000e26:	69ba      	ldr	r2, [r7, #24]
 8000e28:	4013      	ands	r3, r2
 8000e2a:	61bb      	str	r3, [r7, #24]
        if((GPIO_Init->Mode & TRIGGER_FALLING) != 0x00U)
 8000e2c:	683b      	ldr	r3, [r7, #0]
 8000e2e:	685b      	ldr	r3, [r3, #4]
 8000e30:	f403 1300 	and.w	r3, r3, #2097152	@ 0x200000
 8000e34:	2b00      	cmp	r3, #0
 8000e36:	d003      	beq.n	8000e40 <HAL_GPIO_Init+0x270>
        {
          temp |= iocurrent;
 8000e38:	69ba      	ldr	r2, [r7, #24]
 8000e3a:	693b      	ldr	r3, [r7, #16]
 8000e3c:	4313      	orrs	r3, r2
 8000e3e:	61bb      	str	r3, [r7, #24]
        }
        EXTI->FTSR = temp;
 8000e40:	4a24      	ldr	r2, [pc, #144]	@ (8000ed4 <HAL_GPIO_Init+0x304>)
 8000e42:	69bb      	ldr	r3, [r7, #24]
 8000e44:	60d3      	str	r3, [r2, #12]

        temp = EXTI->EMR;
 8000e46:	4b23      	ldr	r3, [pc, #140]	@ (8000ed4 <HAL_GPIO_Init+0x304>)
 8000e48:	685b      	ldr	r3, [r3, #4]
 8000e4a:	61bb      	str	r3, [r7, #24]
        temp &= ~((uint32_t)iocurrent);
 8000e4c:	693b      	ldr	r3, [r7, #16]
 8000e4e:	43db      	mvns	r3, r3
 8000e50:	69ba      	ldr	r2, [r7, #24]
 8000e52:	4013      	ands	r3, r2
 8000e54:	61bb      	str	r3, [r7, #24]
        if((GPIO_Init->Mode & EXTI_EVT) != 0x00U)
 8000e56:	683b      	ldr	r3, [r7, #0]
 8000e58:	685b      	ldr	r3, [r3, #4]
 8000e5a:	f403 3300 	and.w	r3, r3, #131072	@ 0x20000
 8000e5e:	2b00      	cmp	r3, #0
 8000e60:	d003      	beq.n	8000e6a <HAL_GPIO_Init+0x29a>
        {
          temp |= iocurrent;
 8000e62:	69ba      	ldr	r2, [r7, #24]
 8000e64:	693b      	ldr	r3, [r7, #16]
 8000e66:	4313      	orrs	r3, r2
 8000e68:	61bb      	str	r3, [r7, #24]
        }
        EXTI->EMR = temp;
 8000e6a:	4a1a      	ldr	r2, [pc, #104]	@ (8000ed4 <HAL_GPIO_Init+0x304>)
 8000e6c:	69bb      	ldr	r3, [r7, #24]
 8000e6e:	6053      	str	r3, [r2, #4]

        /* Clear EXTI line configuration */
        temp = EXTI->IMR;
 8000e70:	4b18      	ldr	r3, [pc, #96]	@ (8000ed4 <HAL_GPIO_Init+0x304>)
 8000e72:	681b      	ldr	r3, [r3, #0]
 8000e74:	61bb      	str	r3, [r7, #24]
        temp &= ~((uint32_t)iocurrent);
 8000e76:	693b      	ldr	r3, [r7, #16]
 8000e78:	43db      	mvns	r3, r3
 8000e7a:	69ba      	ldr	r2, [r7, #24]
 8000e7c:	4013      	ands	r3, r2
 8000e7e:	61bb      	str	r3, [r7, #24]
        if((GPIO_Init->Mode & EXTI_IT) != 0x00U)
 8000e80:	683b      	ldr	r3, [r7, #0]
 8000e82:	685b      	ldr	r3, [r3, #4]
 8000e84:	f403 3380 	and.w	r3, r3, #65536	@ 0x10000
 8000e88:	2b00      	cmp	r3, #0
 8000e8a:	d003      	beq.n	8000e94 <HAL_GPIO_Init+0x2c4>
        {
          temp |= iocurrent;
 8000e8c:	69ba      	ldr	r2, [r7, #24]
 8000e8e:	693b      	ldr	r3, [r7, #16]
 8000e90:	4313      	orrs	r3, r2
 8000e92:	61bb      	str	r3, [r7, #24]
        }
        EXTI->IMR = temp;
 8000e94:	4a0f      	ldr	r2, [pc, #60]	@ (8000ed4 <HAL_GPIO_Init+0x304>)
 8000e96:	69bb      	ldr	r3, [r7, #24]
 8000e98:	6013      	str	r3, [r2, #0]
  for(position = 0U; position < GPIO_NUMBER; position++)
 8000e9a:	69fb      	ldr	r3, [r7, #28]
 8000e9c:	3301      	adds	r3, #1
 8000e9e:	61fb      	str	r3, [r7, #28]
 8000ea0:	69fb      	ldr	r3, [r7, #28]
 8000ea2:	2b0f      	cmp	r3, #15
 8000ea4:	f67f aea2 	bls.w	8000bec <HAL_GPIO_Init+0x1c>
      }
    }
  }
}
 8000ea8:	bf00      	nop
 8000eaa:	bf00      	nop
 8000eac:	3724      	adds	r7, #36	@ 0x24
 8000eae:	46bd      	mov	sp, r7
 8000eb0:	f85d 7b04 	ldr.w	r7, [sp], #4
 8000eb4:	4770      	bx	lr
 8000eb6:	bf00      	nop
 8000eb8:	40023800 	.word	0x40023800
 8000ebc:	40013800 	.word	0x40013800
 8000ec0:	40020000 	.word	0x40020000
 8000ec4:	40020400 	.word	0x40020400
 8000ec8:	40020800 	.word	0x40020800
 8000ecc:	40020c00 	.word	0x40020c00
 8000ed0:	40021000 	.word	0x40021000
 8000ed4:	40013c00 	.word	0x40013c00

08000ed8 <HAL_GPIO_WritePin>:
  *            @arg GPIO_PIN_RESET: to clear the port pin
  *            @arg GPIO_PIN_SET: to set the port pin
  * @retval None
  */
void HAL_GPIO_WritePin(GPIO_TypeDef* GPIOx, uint16_t GPIO_Pin, GPIO_PinState PinState)
{
 8000ed8:	b480      	push	{r7}
 8000eda:	b083      	sub	sp, #12
 8000edc:	af00      	add	r7, sp, #0
 8000ede:	6078      	str	r0, [r7, #4]
 8000ee0:	460b      	mov	r3, r1
 8000ee2:	807b      	strh	r3, [r7, #2]
 8000ee4:	4613      	mov	r3, r2
 8000ee6:	707b      	strb	r3, [r7, #1]
  /* Check the parameters */
  assert_param(IS_GPIO_PIN(GPIO_Pin));
  assert_param(IS_GPIO_PIN_ACTION(PinState));

  if(PinState != GPIO_PIN_RESET)
 8000ee8:	787b      	ldrb	r3, [r7, #1]
 8000eea:	2b00      	cmp	r3, #0
 8000eec:	d003      	beq.n	8000ef6 <HAL_GPIO_WritePin+0x1e>
  {
    GPIOx->BSRR = GPIO_Pin;
 8000eee:	887a      	ldrh	r2, [r7, #2]
 8000ef0:	687b      	ldr	r3, [r7, #4]
 8000ef2:	619a      	str	r2, [r3, #24]
  }
  else
  {
    GPIOx->BSRR = (uint32_t)GPIO_Pin << 16U;
  }
}
 8000ef4:	e003      	b.n	8000efe <HAL_GPIO_WritePin+0x26>
    GPIOx->BSRR = (uint32_t)GPIO_Pin << 16U;
 8000ef6:	887b      	ldrh	r3, [r7, #2]
 8000ef8:	041a      	lsls	r2, r3, #16
 8000efa:	687b      	ldr	r3, [r7, #4]
 8000efc:	619a      	str	r2, [r3, #24]
}
 8000efe:	bf00      	nop
 8000f00:	370c      	adds	r7, #12
 8000f02:	46bd      	mov	sp, r7
 8000f04:	f85d 7b04 	ldr.w	r7, [sp], #4
 8000f08:	4770      	bx	lr

08000f0a <HAL_GPIO_TogglePin>:
  *                      x can be (A..I) to select the GPIO peripheral for STM32F40XX and STM32F427X devices.
  * @param  GPIO_Pin Specifies the pins to be toggled.
  * @retval None
  */
void HAL_GPIO_TogglePin(GPIO_TypeDef* GPIOx, uint16_t GPIO_Pin)
{
 8000f0a:	b480      	push	{r7}
 8000f0c:	b085      	sub	sp, #20
 8000f0e:	af00      	add	r7, sp, #0
 8000f10:	6078      	str	r0, [r7, #4]
 8000f12:	460b      	mov	r3, r1
 8000f14:	807b      	strh	r3, [r7, #2]

  /* Check the parameters */
  assert_param(IS_GPIO_PIN(GPIO_Pin));

  /* get current Output Data Register value */
  odr = GPIOx->ODR;
 8000f16:	687b      	ldr	r3, [r7, #4]
 8000f18:	695b      	ldr	r3, [r3, #20]
 8000f1a:	60fb      	str	r3, [r7, #12]

  /* Set selected pins that were at low level, and reset ones that were high */
  GPIOx->BSRR = ((odr & GPIO_Pin) << GPIO_NUMBER) | (~odr & GPIO_Pin);
 8000f1c:	887a      	ldrh	r2, [r7, #2]
 8000f1e:	68fb      	ldr	r3, [r7, #12]
 8000f20:	4013      	ands	r3, r2
 8000f22:	041a      	lsls	r2, r3, #16
 8000f24:	68fb      	ldr	r3, [r7, #12]
 8000f26:	43d9      	mvns	r1, r3
 8000f28:	887b      	ldrh	r3, [r7, #2]
 8000f2a:	400b      	ands	r3, r1
 8000f2c:	431a      	orrs	r2, r3
 8000f2e:	687b      	ldr	r3, [r7, #4]
 8000f30:	619a      	str	r2, [r3, #24]
}
 8000f32:	bf00      	nop
 8000f34:	3714      	adds	r7, #20
 8000f36:	46bd      	mov	sp, r7
 8000f38:	f85d 7b04 	ldr.w	r7, [sp], #4
 8000f3c:	4770      	bx	lr
	...

08000f40 <HAL_RCC_OscConfig>:
  *         supported by this API. User should request a transition to HSE Off
  *         first and then HSE On or HSE Bypass.
  * @retval HAL status
  */
__weak HAL_StatusTypeDef HAL_RCC_OscConfig(const RCC_OscInitTypeDef  *RCC_OscInitStruct)
{
 8000f40:	b580      	push	{r7, lr}
 8000f42:	b086      	sub	sp, #24
 8000f44:	af00      	add	r7, sp, #0
 8000f46:	6078      	str	r0, [r7, #4]
  uint32_t tickstart;
  uint32_t pll_config;
  /* Check Null pointer */
  if (RCC_OscInitStruct == NULL)
 8000f48:	687b      	ldr	r3, [r7, #4]
 8000f4a:	2b00      	cmp	r3, #0
 8000f4c:	d101      	bne.n	8000f52 <HAL_RCC_OscConfig+0x12>
  {
    return HAL_ERROR;
 8000f4e:	2301      	movs	r3, #1
 8000f50:	e267      	b.n	8001422 <HAL_RCC_OscConfig+0x4e2>
  }

  /* Check the parameters */
  assert_param(IS_RCC_OSCILLATORTYPE(RCC_OscInitStruct->OscillatorType));
  /*------------------------------- HSE Configuration ------------------------*/
  if (((RCC_OscInitStruct->OscillatorType) & RCC_OSCILLATORTYPE_HSE) == RCC_OSCILLATORTYPE_HSE)
 8000f52:	687b      	ldr	r3, [r7, #4]
 8000f54:	681b      	ldr	r3, [r3, #0]
 8000f56:	f003 0301 	and.w	r3, r3, #1
 8000f5a:	2b00      	cmp	r3, #0
 8000f5c:	d075      	beq.n	800104a <HAL_RCC_OscConfig+0x10a>
  {
    /* Check the parameters */
    assert_param(IS_RCC_HSE(RCC_OscInitStruct->HSEState));
    /* When the HSE is used as system clock or clock source for PLL in these cases HSE will not disabled */
    if ((__HAL_RCC_GET_SYSCLK_SOURCE() == RCC_CFGR_SWS_HSE) || \
 8000f5e:	4b88      	ldr	r3, [pc, #544]	@ (8001180 <HAL_RCC_OscConfig+0x240>)
 8000f60:	689b      	ldr	r3, [r3, #8]
 8000f62:	f003 030c 	and.w	r3, r3, #12
 8000f66:	2b04      	cmp	r3, #4
 8000f68:	d00c      	beq.n	8000f84 <HAL_RCC_OscConfig+0x44>
        ((__HAL_RCC_GET_SYSCLK_SOURCE() == RCC_CFGR_SWS_PLL) && ((RCC->PLLCFGR & RCC_PLLCFGR_PLLSRC) == RCC_PLLCFGR_PLLSRC_HSE)))
 8000f6a:	4b85      	ldr	r3, [pc, #532]	@ (8001180 <HAL_RCC_OscConfig+0x240>)
 8000f6c:	689b      	ldr	r3, [r3, #8]
 8000f6e:	f003 030c 	and.w	r3, r3, #12
    if ((__HAL_RCC_GET_SYSCLK_SOURCE() == RCC_CFGR_SWS_HSE) || \
 8000f72:	2b08      	cmp	r3, #8
 8000f74:	d112      	bne.n	8000f9c <HAL_RCC_OscConfig+0x5c>
        ((__HAL_RCC_GET_SYSCLK_SOURCE() == RCC_CFGR_SWS_PLL) && ((RCC->PLLCFGR & RCC_PLLCFGR_PLLSRC) == RCC_PLLCFGR_PLLSRC_HSE)))
 8000f76:	4b82      	ldr	r3, [pc, #520]	@ (8001180 <HAL_RCC_OscConfig+0x240>)
 8000f78:	685b      	ldr	r3, [r3, #4]
 8000f7a:	f403 0380 	and.w	r3, r3, #4194304	@ 0x400000
 8000f7e:	f5b3 0f80 	cmp.w	r3, #4194304	@ 0x400000
 8000f82:	d10b      	bne.n	8000f9c <HAL_RCC_OscConfig+0x5c>
    {
      if ((__HAL_RCC_GET_FLAG(RCC_FLAG_HSERDY) != RESET) && (RCC_OscInitStruct->HSEState == RCC_HSE_OFF))
 8000f84:	4b7e      	ldr	r3, [pc, #504]	@ (8001180 <HAL_RCC_OscConfig+0x240>)
 8000f86:	681b      	ldr	r3, [r3, #0]
 8000f88:	f403 3300 	and.w	r3, r3, #131072	@ 0x20000
 8000f8c:	2b00      	cmp	r3, #0
 8000f8e:	d05b      	beq.n	8001048 <HAL_RCC_OscConfig+0x108>
 8000f90:	687b      	ldr	r3, [r7, #4]
 8000f92:	685b      	ldr	r3, [r3, #4]
 8000f94:	2b00      	cmp	r3, #0
 8000f96:	d157      	bne.n	8001048 <HAL_RCC_OscConfig+0x108>
      {
        return HAL_ERROR;
 8000f98:	2301      	movs	r3, #1
 8000f9a:	e242      	b.n	8001422 <HAL_RCC_OscConfig+0x4e2>
      }
    }
    else
    {
      /* Set the new HSE configuration ---------------------------------------*/
      __HAL_RCC_HSE_CONFIG(RCC_OscInitStruct->HSEState);
 8000f9c:	687b      	ldr	r3, [r7, #4]
 8000f9e:	685b      	ldr	r3, [r3, #4]
 8000fa0:	f5b3 3f80 	cmp.w	r3, #65536	@ 0x10000
 8000fa4:	d106      	bne.n	8000fb4 <HAL_RCC_OscConfig+0x74>
 8000fa6:	4b76      	ldr	r3, [pc, #472]	@ (8001180 <HAL_RCC_OscConfig+0x240>)
 8000fa8:	681b      	ldr	r3, [r3, #0]
 8000faa:	4a75      	ldr	r2, [pc, #468]	@ (8001180 <HAL_RCC_OscConfig+0x240>)
 8000fac:	f443 3380 	orr.w	r3, r3, #65536	@ 0x10000
 8000fb0:	6013      	str	r3, [r2, #0]
 8000fb2:	e01d      	b.n	8000ff0 <HAL_RCC_OscConfig+0xb0>
 8000fb4:	687b      	ldr	r3, [r7, #4]
 8000fb6:	685b      	ldr	r3, [r3, #4]
 8000fb8:	f5b3 2fa0 	cmp.w	r3, #327680	@ 0x50000
 8000fbc:	d10c      	bne.n	8000fd8 <HAL_RCC_OscConfig+0x98>
 8000fbe:	4b70      	ldr	r3, [pc, #448]	@ (8001180 <HAL_RCC_OscConfig+0x240>)
 8000fc0:	681b      	ldr	r3, [r3, #0]
 8000fc2:	4a6f      	ldr	r2, [pc, #444]	@ (8001180 <HAL_RCC_OscConfig+0x240>)
 8000fc4:	f443 2380 	orr.w	r3, r3, #262144	@ 0x40000
 8000fc8:	6013      	str	r3, [r2, #0]
 8000fca:	4b6d      	ldr	r3, [pc, #436]	@ (8001180 <HAL_RCC_OscConfig+0x240>)
 8000fcc:	681b      	ldr	r3, [r3, #0]
 8000fce:	4a6c      	ldr	r2, [pc, #432]	@ (8001180 <HAL_RCC_OscConfig+0x240>)
 8000fd0:	f443 3380 	orr.w	r3, r3, #65536	@ 0x10000
 8000fd4:	6013      	str	r3, [r2, #0]
 8000fd6:	e00b      	b.n	8000ff0 <HAL_RCC_OscConfig+0xb0>
 8000fd8:	4b69      	ldr	r3, [pc, #420]	@ (8001180 <HAL_RCC_OscConfig+0x240>)
 8000fda:	681b      	ldr	r3, [r3, #0]
 8000fdc:	4a68      	ldr	r2, [pc, #416]	@ (8001180 <HAL_RCC_OscConfig+0x240>)
 8000fde:	f423 3380 	bic.w	r3, r3, #65536	@ 0x10000
 8000fe2:	6013      	str	r3, [r2, #0]
 8000fe4:	4b66      	ldr	r3, [pc, #408]	@ (8001180 <HAL_RCC_OscConfig+0x240>)
 8000fe6:	681b      	ldr	r3, [r3, #0]
 8000fe8:	4a65      	ldr	r2, [pc, #404]	@ (8001180 <HAL_RCC_OscConfig+0x240>)
 8000fea:	f423 2380 	bic.w	r3, r3, #262144	@ 0x40000
 8000fee:	6013      	str	r3, [r2, #0]

      /* Check the HSE State */
      if ((RCC_OscInitStruct->HSEState) != RCC_HSE_OFF)
 8000ff0:	687b      	ldr	r3, [r7, #4]
 8000ff2:	685b      	ldr	r3, [r3, #4]
 8000ff4:	2b00      	cmp	r3, #0
 8000ff6:	d013      	beq.n	8001020 <HAL_RCC_OscConfig+0xe0>
      {
        /* Get Start Tick */
        tickstart = HAL_GetTick();
 8000ff8:	f7ff fcd4 	bl	80009a4 <HAL_GetTick>
 8000ffc:	6138      	str	r0, [r7, #16]

        /* Wait till HSE is ready */
        while (__HAL_RCC_GET_FLAG(RCC_FLAG_HSERDY) == RESET)
 8000ffe:	e008      	b.n	8001012 <HAL_RCC_OscConfig+0xd2>
        {
          if ((HAL_GetTick() - tickstart) > HSE_TIMEOUT_VALUE)
 8001000:	f7ff fcd0 	bl	80009a4 <HAL_GetTick>
 8001004:	4602      	mov	r2, r0
 8001006:	693b      	ldr	r3, [r7, #16]
 8001008:	1ad3      	subs	r3, r2, r3
 800100a:	2b64      	cmp	r3, #100	@ 0x64
 800100c:	d901      	bls.n	8001012 <HAL_RCC_OscConfig+0xd2>
          {
            return HAL_TIMEOUT;
 800100e:	2303      	movs	r3, #3
 8001010:	e207      	b.n	8001422 <HAL_RCC_OscConfig+0x4e2>
        while (__HAL_RCC_GET_FLAG(RCC_FLAG_HSERDY) == RESET)
 8001012:	4b5b      	ldr	r3, [pc, #364]	@ (8001180 <HAL_RCC_OscConfig+0x240>)
 8001014:	681b      	ldr	r3, [r3, #0]
 8001016:	f403 3300 	and.w	r3, r3, #131072	@ 0x20000
 800101a:	2b00      	cmp	r3, #0
 800101c:	d0f0      	beq.n	8001000 <HAL_RCC_OscConfig+0xc0>
 800101e:	e014      	b.n	800104a <HAL_RCC_OscConfig+0x10a>
        }
      }
      else
      {
        /* Get Start Tick */
        tickstart = HAL_GetTick();
 8001020:	f7ff fcc0 	bl	80009a4 <HAL_GetTick>
 8001024:	6138      	str	r0, [r7, #16]

        /* Wait till HSE is bypassed or disabled */
        while (__HAL_RCC_GET_FLAG(RCC_FLAG_HSERDY) != RESET)
 8001026:	e008      	b.n	800103a <HAL_RCC_OscConfig+0xfa>
        {
          if ((HAL_GetTick() - tickstart) > HSE_TIMEOUT_VALUE)
 8001028:	f7ff fcbc 	bl	80009a4 <HAL_GetTick>
 800102c:	4602      	mov	r2, r0
 800102e:	693b      	ldr	r3, [r7, #16]
 8001030:	1ad3      	subs	r3, r2, r3
 8001032:	2b64      	cmp	r3, #100	@ 0x64
 8001034:	d901      	bls.n	800103a <HAL_RCC_OscConfig+0xfa>
          {
            return HAL_TIMEOUT;
 8001036:	2303      	movs	r3, #3
 8001038:	e1f3      	b.n	8001422 <HAL_RCC_OscConfig+0x4e2>
        while (__HAL_RCC_GET_FLAG(RCC_FLAG_HSERDY) != RESET)
 800103a:	4b51      	ldr	r3, [pc, #324]	@ (8001180 <HAL_RCC_OscConfig+0x240>)
 800103c:	681b      	ldr	r3, [r3, #0]
 800103e:	f403 3300 	and.w	r3, r3, #131072	@ 0x20000
 8001042:	2b00      	cmp	r3, #0
 8001044:	d1f0      	bne.n	8001028 <HAL_RCC_OscConfig+0xe8>
 8001046:	e000      	b.n	800104a <HAL_RCC_OscConfig+0x10a>
      if ((__HAL_RCC_GET_FLAG(RCC_FLAG_HSERDY) != RESET) && (RCC_OscInitStruct->HSEState == RCC_HSE_OFF))
 8001048:	bf00      	nop
        }
      }
    }
  }
  /*----------------------------- HSI Configuration --------------------------*/
  if (((RCC_OscInitStruct->OscillatorType) & RCC_OSCILLATORTYPE_HSI) == RCC_OSCILLATORTYPE_HSI)
 800104a:	687b      	ldr	r3, [r7, #4]
 800104c:	681b      	ldr	r3, [r3, #0]
 800104e:	f003 0302 	and.w	r3, r3, #2
 8001052:	2b00      	cmp	r3, #0
 8001054:	d063      	beq.n	800111e <HAL_RCC_OscConfig+0x1de>
    /* Check the parameters */
    assert_param(IS_RCC_HSI(RCC_OscInitStruct->HSIState));
    assert_param(IS_RCC_CALIBRATION_VALUE(RCC_OscInitStruct->HSICalibrationValue));

    /* Check if HSI is used as system clock or as PLL source when PLL is selected as system clock */
    if ((__HAL_RCC_GET_SYSCLK_SOURCE() == RCC_CFGR_SWS_HSI) || \
 8001056:	4b4a      	ldr	r3, [pc, #296]	@ (8001180 <HAL_RCC_OscConfig+0x240>)
 8001058:	689b      	ldr	r3, [r3, #8]
 800105a:	f003 030c 	and.w	r3, r3, #12
 800105e:	2b00      	cmp	r3, #0
 8001060:	d00b      	beq.n	800107a <HAL_RCC_OscConfig+0x13a>
        ((__HAL_RCC_GET_SYSCLK_SOURCE() == RCC_CFGR_SWS_PLL) && ((RCC->PLLCFGR & RCC_PLLCFGR_PLLSRC) == RCC_PLLCFGR_PLLSRC_HSI)))
 8001062:	4b47      	ldr	r3, [pc, #284]	@ (8001180 <HAL_RCC_OscConfig+0x240>)
 8001064:	689b      	ldr	r3, [r3, #8]
 8001066:	f003 030c 	and.w	r3, r3, #12
    if ((__HAL_RCC_GET_SYSCLK_SOURCE() == RCC_CFGR_SWS_HSI) || \
 800106a:	2b08      	cmp	r3, #8
 800106c:	d11c      	bne.n	80010a8 <HAL_RCC_OscConfig+0x168>
        ((__HAL_RCC_GET_SYSCLK_SOURCE() == RCC_CFGR_SWS_PLL) && ((RCC->PLLCFGR & RCC_PLLCFGR_PLLSRC) == RCC_PLLCFGR_PLLSRC_HSI)))
 800106e:	4b44      	ldr	r3, [pc, #272]	@ (8001180 <HAL_RCC_OscConfig+0x240>)
 8001070:	685b      	ldr	r3, [r3, #4]
 8001072:	f403 0380 	and.w	r3, r3, #4194304	@ 0x400000
 8001076:	2b00      	cmp	r3, #0
 8001078:	d116      	bne.n	80010a8 <HAL_RCC_OscConfig+0x168>
    {
      /* When HSI is used as system clock it will not disabled */
      if ((__HAL_RCC_GET_FLAG(RCC_FLAG_HSIRDY) != RESET) && (RCC_OscInitStruct->HSIState != RCC_HSI_ON))
 800107a:	4b41      	ldr	r3, [pc, #260]	@ (8001180 <HAL_RCC_OscConfig+0x240>)
 800107c:	681b      	ldr	r3, [r3, #0]
 800107e:	f003 0302 	and.w	r3, r3, #2
 8001082:	2b00      	cmp	r3, #0
 8001084:	d005      	beq.n	8001092 <HAL_RCC_OscConfig+0x152>
 8001086:	687b      	ldr	r3, [r7, #4]
 8001088:	68db      	ldr	r3, [r3, #12]
 800108a:	2b01      	cmp	r3, #1
 800108c:	d001      	beq.n	8001092 <HAL_RCC_OscConfig+0x152>
      {
        return HAL_ERROR;
 800108e:	2301      	movs	r3, #1
 8001090:	e1c7      	b.n	8001422 <HAL_RCC_OscConfig+0x4e2>
      }
      /* Otherwise, just the calibration is allowed */
      else
      {
        /* Adjusts the Internal High Speed oscillator (HSI) calibration value.*/
        __HAL_RCC_HSI_CALIBRATIONVALUE_ADJUST(RCC_OscInitStruct->HSICalibrationValue);
 8001092:	4b3b      	ldr	r3, [pc, #236]	@ (8001180 <HAL_RCC_OscConfig+0x240>)
 8001094:	681b      	ldr	r3, [r3, #0]
 8001096:	f023 02f8 	bic.w	r2, r3, #248	@ 0xf8
 800109a:	687b      	ldr	r3, [r7, #4]
 800109c:	691b      	ldr	r3, [r3, #16]
 800109e:	00db      	lsls	r3, r3, #3
 80010a0:	4937      	ldr	r1, [pc, #220]	@ (8001180 <HAL_RCC_OscConfig+0x240>)
 80010a2:	4313      	orrs	r3, r2
 80010a4:	600b      	str	r3, [r1, #0]
      if ((__HAL_RCC_GET_FLAG(RCC_FLAG_HSIRDY) != RESET) && (RCC_OscInitStruct->HSIState != RCC_HSI_ON))
 80010a6:	e03a      	b.n	800111e <HAL_RCC_OscConfig+0x1de>
      }
    }
    else
    {
      /* Check the HSI State */
      if ((RCC_OscInitStruct->HSIState) != RCC_HSI_OFF)
 80010a8:	687b      	ldr	r3, [r7, #4]
 80010aa:	68db      	ldr	r3, [r3, #12]
 80010ac:	2b00      	cmp	r3, #0
 80010ae:	d020      	beq.n	80010f2 <HAL_RCC_OscConfig+0x1b2>
      {
        /* Enable the Internal High Speed oscillator (HSI). */
        __HAL_RCC_HSI_ENABLE();
 80010b0:	4b34      	ldr	r3, [pc, #208]	@ (8001184 <HAL_RCC_OscConfig+0x244>)
 80010b2:	2201      	movs	r2, #1
 80010b4:	601a      	str	r2, [r3, #0]

        /* Get Start Tick*/
        tickstart = HAL_GetTick();
 80010b6:	f7ff fc75 	bl	80009a4 <HAL_GetTick>
 80010ba:	6138      	str	r0, [r7, #16]

        /* Wait till HSI is ready */
        while (__HAL_RCC_GET_FLAG(RCC_FLAG_HSIRDY) == RESET)
 80010bc:	e008      	b.n	80010d0 <HAL_RCC_OscConfig+0x190>
        {
          if ((HAL_GetTick() - tickstart) > HSI_TIMEOUT_VALUE)
 80010be:	f7ff fc71 	bl	80009a4 <HAL_GetTick>
 80010c2:	4602      	mov	r2, r0
 80010c4:	693b      	ldr	r3, [r7, #16]
 80010c6:	1ad3      	subs	r3, r2, r3
 80010c8:	2b02      	cmp	r3, #2
 80010ca:	d901      	bls.n	80010d0 <HAL_RCC_OscConfig+0x190>
          {
            return HAL_TIMEOUT;
 80010cc:	2303      	movs	r3, #3
 80010ce:	e1a8      	b.n	8001422 <HAL_RCC_OscConfig+0x4e2>
        while (__HAL_RCC_GET_FLAG(RCC_FLAG_HSIRDY) == RESET)
 80010d0:	4b2b      	ldr	r3, [pc, #172]	@ (8001180 <HAL_RCC_OscConfig+0x240>)
 80010d2:	681b      	ldr	r3, [r3, #0]
 80010d4:	f003 0302 	and.w	r3, r3, #2
 80010d8:	2b00      	cmp	r3, #0
 80010da:	d0f0      	beq.n	80010be <HAL_RCC_OscConfig+0x17e>
          }
        }

        /* Adjusts the Internal High Speed oscillator (HSI) calibration value. */
        __HAL_RCC_HSI_CALIBRATIONVALUE_ADJUST(RCC_OscInitStruct->HSICalibrationValue);
 80010dc:	4b28      	ldr	r3, [pc, #160]	@ (8001180 <HAL_RCC_OscConfig+0x240>)
 80010de:	681b      	ldr	r3, [r3, #0]
 80010e0:	f023 02f8 	bic.w	r2, r3, #248	@ 0xf8
 80010e4:	687b      	ldr	r3, [r7, #4]
 80010e6:	691b      	ldr	r3, [r3, #16]
 80010e8:	00db      	lsls	r3, r3, #3
 80010ea:	4925      	ldr	r1, [pc, #148]	@ (8001180 <HAL_RCC_OscConfig+0x240>)
 80010ec:	4313      	orrs	r3, r2
 80010ee:	600b      	str	r3, [r1, #0]
 80010f0:	e015      	b.n	800111e <HAL_RCC_OscConfig+0x1de>
      }
      else
      {
        /* Disable the Internal High Speed oscillator (HSI). */
        __HAL_RCC_HSI_DISABLE();
 80010f2:	4b24      	ldr	r3, [pc, #144]	@ (8001184 <HAL_RCC_OscConfig+0x244>)
 80010f4:	2200      	movs	r2, #0
 80010f6:	601a      	str	r2, [r3, #0]

        /* Get Start Tick*/
        tickstart = HAL_GetTick();
 80010f8:	f7ff fc54 	bl	80009a4 <HAL_GetTick>
 80010fc:	6138      	str	r0, [r7, #16]

        /* Wait till HSI is ready */
        while (__HAL_RCC_GET_FLAG(RCC_FLAG_HSIRDY) != RESET)
 80010fe:	e008      	b.n	8001112 <HAL_RCC_OscConfig+0x1d2>
        {
          if ((HAL_GetTick() - tickstart) > HSI_TIMEOUT_VALUE)
 8001100:	f7ff fc50 	bl	80009a4 <HAL_GetTick>
 8001104:	4602      	mov	r2, r0
 8001106:	693b      	ldr	r3, [r7, #16]
 8001108:	1ad3      	subs	r3, r2, r3
 800110a:	2b02      	cmp	r3, #2
 800110c:	d901      	bls.n	8001112 <HAL_RCC_OscConfig+0x1d2>
          {
            return HAL_TIMEOUT;
 800110e:	2303      	movs	r3, #3
 8001110:	e187      	b.n	8001422 <HAL_RCC_OscConfig+0x4e2>
        while (__HAL_RCC_GET_FLAG(RCC_FLAG_HSIRDY) != RESET)
 8001112:	4b1b      	ldr	r3, [pc, #108]	@ (8001180 <HAL_RCC_OscConfig+0x240>)
 8001114:	681b      	ldr	r3, [r3, #0]
 8001116:	f003 0302 	and.w	r3, r3, #2
 800111a:	2b00      	cmp	r3, #0
 800111c:	d1f0      	bne.n	8001100 <HAL_RCC_OscConfig+0x1c0>
        }
      }
    }
  }
  /*------------------------------ LSI Configuration -------------------------*/
  if (((RCC_OscInitStruct->OscillatorType) & RCC_OSCILLATORTYPE_LSI) == RCC_OSCILLATORTYPE_LSI)
 800111e:	687b      	ldr	r3, [r7, #4]
 8001120:	681b      	ldr	r3, [r3, #0]
 8001122:	f003 0308 	and.w	r3, r3, #8
 8001126:	2b00      	cmp	r3, #0
 8001128:	d036      	beq.n	8001198 <HAL_RCC_OscConfig+0x258>
  {
    /* Check the parameters */
    assert_param(IS_RCC_LSI(RCC_OscInitStruct->LSIState));

    /* Check the LSI State */
    if ((RCC_OscInitStruct->LSIState) != RCC_LSI_OFF)
 800112a:	687b      	ldr	r3, [r7, #4]
 800112c:	695b      	ldr	r3, [r3, #20]
 800112e:	2b00      	cmp	r3, #0
 8001130:	d016      	beq.n	8001160 <HAL_RCC_OscConfig+0x220>
    {
      /* Enable the Internal Low Speed oscillator (LSI). */
      __HAL_RCC_LSI_ENABLE();
 8001132:	4b15      	ldr	r3, [pc, #84]	@ (8001188 <HAL_RCC_OscConfig+0x248>)
 8001134:	2201      	movs	r2, #1
 8001136:	601a      	str	r2, [r3, #0]

      /* Get Start Tick*/
      tickstart = HAL_GetTick();
 8001138:	f7ff fc34 	bl	80009a4 <HAL_GetTick>
 800113c:	6138      	str	r0, [r7, #16]

      /* Wait till LSI is ready */
      while (__HAL_RCC_GET_FLAG(RCC_FLAG_LSIRDY) == RESET)
 800113e:	e008      	b.n	8001152 <HAL_RCC_OscConfig+0x212>
      {
        if ((HAL_GetTick() - tickstart) > LSI_TIMEOUT_VALUE)
 8001140:	f7ff fc30 	bl	80009a4 <HAL_GetTick>
 8001144:	4602      	mov	r2, r0
 8001146:	693b      	ldr	r3, [r7, #16]
 8001148:	1ad3      	subs	r3, r2, r3
 800114a:	2b02      	cmp	r3, #2
 800114c:	d901      	bls.n	8001152 <HAL_RCC_OscConfig+0x212>
        {
          return HAL_TIMEOUT;
 800114e:	2303      	movs	r3, #3
 8001150:	e167      	b.n	8001422 <HAL_RCC_OscConfig+0x4e2>
      while (__HAL_RCC_GET_FLAG(RCC_FLAG_LSIRDY) == RESET)
 8001152:	4b0b      	ldr	r3, [pc, #44]	@ (8001180 <HAL_RCC_OscConfig+0x240>)
 8001154:	6f5b      	ldr	r3, [r3, #116]	@ 0x74
 8001156:	f003 0302 	and.w	r3, r3, #2
 800115a:	2b00      	cmp	r3, #0
 800115c:	d0f0      	beq.n	8001140 <HAL_RCC_OscConfig+0x200>
 800115e:	e01b      	b.n	8001198 <HAL_RCC_OscConfig+0x258>
      }
    }
    else
    {
      /* Disable the Internal Low Speed oscillator (LSI). */
      __HAL_RCC_LSI_DISABLE();
 8001160:	4b09      	ldr	r3, [pc, #36]	@ (8001188 <HAL_RCC_OscConfig+0x248>)
 8001162:	2200      	movs	r2, #0
 8001164:	601a      	str	r2, [r3, #0]

      /* Get Start Tick */
      tickstart = HAL_GetTick();
 8001166:	f7ff fc1d 	bl	80009a4 <HAL_GetTick>
 800116a:	6138      	str	r0, [r7, #16]

      /* Wait till LSI is ready */
      while (__HAL_RCC_GET_FLAG(RCC_FLAG_LSIRDY) != RESET)
 800116c:	e00e      	b.n	800118c <HAL_RCC_OscConfig+0x24c>
      {
        if ((HAL_GetTick() - tickstart) > LSI_TIMEOUT_VALUE)
 800116e:	f7ff fc19 	bl	80009a4 <HAL_GetTick>
 8001172:	4602      	mov	r2, r0
 8001174:	693b      	ldr	r3, [r7, #16]
 8001176:	1ad3      	subs	r3, r2, r3
 8001178:	2b02      	cmp	r3, #2
 800117a:	d907      	bls.n	800118c <HAL_RCC_OscConfig+0x24c>
        {
          return HAL_TIMEOUT;
 800117c:	2303      	movs	r3, #3
 800117e:	e150      	b.n	8001422 <HAL_RCC_OscConfig+0x4e2>
 8001180:	40023800 	.word	0x40023800
 8001184:	42470000 	.word	0x42470000
 8001188:	42470e80 	.word	0x42470e80
      while (__HAL_RCC_GET_FLAG(RCC_FLAG_LSIRDY) != RESET)
 800118c:	4b88      	ldr	r3, [pc, #544]	@ (80013b0 <HAL_RCC_OscConfig+0x470>)
 800118e:	6f5b      	ldr	r3, [r3, #116]	@ 0x74
 8001190:	f003 0302 	and.w	r3, r3, #2
 8001194:	2b00      	cmp	r3, #0
 8001196:	d1ea      	bne.n	800116e <HAL_RCC_OscConfig+0x22e>
        }
      }
    }
  }
  /*------------------------------ LSE Configuration -------------------------*/
  if (((RCC_OscInitStruct->OscillatorType) & RCC_OSCILLATORTYPE_LSE) == RCC_OSCILLATORTYPE_LSE)
 8001198:	687b      	ldr	r3, [r7, #4]
 800119a:	681b      	ldr	r3, [r3, #0]
 800119c:	f003 0304 	and.w	r3, r3, #4
 80011a0:	2b00      	cmp	r3, #0
 80011a2:	f000 8097 	beq.w	80012d4 <HAL_RCC_OscConfig+0x394>
  {
    FlagStatus       pwrclkchanged = RESET;
 80011a6:	2300      	movs	r3, #0
 80011a8:	75fb      	strb	r3, [r7, #23]
    /* Check the parameters */
    assert_param(IS_RCC_LSE(RCC_OscInitStruct->LSEState));

    /* Update LSE configuration in Backup Domain control register    */
    /* Requires to enable write access to Backup Domain of necessary */
    if (__HAL_RCC_PWR_IS_CLK_DISABLED())
 80011aa:	4b81      	ldr	r3, [pc, #516]	@ (80013b0 <HAL_RCC_OscConfig+0x470>)
 80011ac:	6c1b      	ldr	r3, [r3, #64]	@ 0x40
 80011ae:	f003 5380 	and.w	r3, r3, #268435456	@ 0x10000000
 80011b2:	2b00      	cmp	r3, #0
 80011b4:	d10f      	bne.n	80011d6 <HAL_RCC_OscConfig+0x296>
    {
      __HAL_RCC_PWR_CLK_ENABLE();
 80011b6:	2300      	movs	r3, #0
 80011b8:	60bb      	str	r3, [r7, #8]
 80011ba:	4b7d      	ldr	r3, [pc, #500]	@ (80013b0 <HAL_RCC_OscConfig+0x470>)
 80011bc:	6c1b      	ldr	r3, [r3, #64]	@ 0x40
 80011be:	4a7c      	ldr	r2, [pc, #496]	@ (80013b0 <HAL_RCC_OscConfig+0x470>)
 80011c0:	f043 5380 	orr.w	r3, r3, #268435456	@ 0x10000000
 80011c4:	6413      	str	r3, [r2, #64]	@ 0x40
 80011c6:	4b7a      	ldr	r3, [pc, #488]	@ (80013b0 <HAL_RCC_OscConfig+0x470>)
 80011c8:	6c1b      	ldr	r3, [r3, #64]	@ 0x40
 80011ca:	f003 5380 	and.w	r3, r3, #268435456	@ 0x10000000
 80011ce:	60bb      	str	r3, [r7, #8]
 80011d0:	68bb      	ldr	r3, [r7, #8]
      pwrclkchanged = SET;
 80011d2:	2301      	movs	r3, #1
 80011d4:	75fb      	strb	r3, [r7, #23]
    }

    if (HAL_IS_BIT_CLR(PWR->CR, PWR_CR_DBP))
 80011d6:	4b77      	ldr	r3, [pc, #476]	@ (80013b4 <HAL_RCC_OscConfig+0x474>)
 80011d8:	681b      	ldr	r3, [r3, #0]
 80011da:	f403 7380 	and.w	r3, r3, #256	@ 0x100
 80011de:	2b00      	cmp	r3, #0
 80011e0:	d118      	bne.n	8001214 <HAL_RCC_OscConfig+0x2d4>
    {
      /* Enable write access to Backup domain */
      SET_BIT(PWR->CR, PWR_CR_DBP);
 80011e2:	4b74      	ldr	r3, [pc, #464]	@ (80013b4 <HAL_RCC_OscConfig+0x474>)
 80011e4:	681b      	ldr	r3, [r3, #0]
 80011e6:	4a73      	ldr	r2, [pc, #460]	@ (80013b4 <HAL_RCC_OscConfig+0x474>)
 80011e8:	f443 7380 	orr.w	r3, r3, #256	@ 0x100
 80011ec:	6013      	str	r3, [r2, #0]

      /* Wait for Backup domain Write protection disable */
      tickstart = HAL_GetTick();
 80011ee:	f7ff fbd9 	bl	80009a4 <HAL_GetTick>
 80011f2:	6138      	str	r0, [r7, #16]

      while (HAL_IS_BIT_CLR(PWR->CR, PWR_CR_DBP))
 80011f4:	e008      	b.n	8001208 <HAL_RCC_OscConfig+0x2c8>
      {
        if ((HAL_GetTick() - tickstart) > RCC_DBP_TIMEOUT_VALUE)
 80011f6:	f7ff fbd5 	bl	80009a4 <HAL_GetTick>
 80011fa:	4602      	mov	r2, r0
 80011fc:	693b      	ldr	r3, [r7, #16]
 80011fe:	1ad3      	subs	r3, r2, r3
 8001200:	2b02      	cmp	r3, #2
 8001202:	d901      	bls.n	8001208 <HAL_RCC_OscConfig+0x2c8>
        {
          return HAL_TIMEOUT;
 8001204:	2303      	movs	r3, #3
 8001206:	e10c      	b.n	8001422 <HAL_RCC_OscConfig+0x4e2>
      while (HAL_IS_BIT_CLR(PWR->CR, PWR_CR_DBP))
 8001208:	4b6a      	ldr	r3, [pc, #424]	@ (80013b4 <HAL_RCC_OscConfig+0x474>)
 800120a:	681b      	ldr	r3, [r3, #0]
 800120c:	f403 7380 	and.w	r3, r3, #256	@ 0x100
 8001210:	2b00      	cmp	r3, #0
 8001212:	d0f0      	beq.n	80011f6 <HAL_RCC_OscConfig+0x2b6>
        }
      }
    }

    /* Set the new LSE configuration -----------------------------------------*/
    __HAL_RCC_LSE_CONFIG(RCC_OscInitStruct->LSEState);
 8001214:	687b      	ldr	r3, [r7, #4]
 8001216:	689b      	ldr	r3, [r3, #8]
 8001218:	2b01      	cmp	r3, #1
 800121a:	d106      	bne.n	800122a <HAL_RCC_OscConfig+0x2ea>
 800121c:	4b64      	ldr	r3, [pc, #400]	@ (80013b0 <HAL_RCC_OscConfig+0x470>)
 800121e:	6f1b      	ldr	r3, [r3, #112]	@ 0x70
 8001220:	4a63      	ldr	r2, [pc, #396]	@ (80013b0 <HAL_RCC_OscConfig+0x470>)
 8001222:	f043 0301 	orr.w	r3, r3, #1
 8001226:	6713      	str	r3, [r2, #112]	@ 0x70
 8001228:	e01c      	b.n	8001264 <HAL_RCC_OscConfig+0x324>
 800122a:	687b      	ldr	r3, [r7, #4]
 800122c:	689b      	ldr	r3, [r3, #8]
 800122e:	2b05      	cmp	r3, #5
 8001230:	d10c      	bne.n	800124c <HAL_RCC_OscConfig+0x30c>
 8001232:	4b5f      	ldr	r3, [pc, #380]	@ (80013b0 <HAL_RCC_OscConfig+0x470>)
 8001234:	6f1b      	ldr	r3, [r3, #112]	@ 0x70
 8001236:	4a5e      	ldr	r2, [pc, #376]	@ (80013b0 <HAL_RCC_OscConfig+0x470>)
 8001238:	f043 0304 	orr.w	r3, r3, #4
 800123c:	6713      	str	r3, [r2, #112]	@ 0x70
 800123e:	4b5c      	ldr	r3, [pc, #368]	@ (80013b0 <HAL_RCC_OscConfig+0x470>)
 8001240:	6f1b      	ldr	r3, [r3, #112]	@ 0x70
 8001242:	4a5b      	ldr	r2, [pc, #364]	@ (80013b0 <HAL_RCC_OscConfig+0x470>)
 8001244:	f043 0301 	orr.w	r3, r3, #1
 8001248:	6713      	str	r3, [r2, #112]	@ 0x70
 800124a:	e00b      	b.n	8001264 <HAL_RCC_OscConfig+0x324>
 800124c:	4b58      	ldr	r3, [pc, #352]	@ (80013b0 <HAL_RCC_OscConfig+0x470>)
 800124e:	6f1b      	ldr	r3, [r3, #112]	@ 0x70
 8001250:	4a57      	ldr	r2, [pc, #348]	@ (80013b0 <HAL_RCC_OscConfig+0x470>)
 8001252:	f023 0301 	bic.w	r3, r3, #1
 8001256:	6713      	str	r3, [r2, #112]	@ 0x70
 8001258:	4b55      	ldr	r3, [pc, #340]	@ (80013b0 <HAL_RCC_OscConfig+0x470>)
 800125a:	6f1b      	ldr	r3, [r3, #112]	@ 0x70
 800125c:	4a54      	ldr	r2, [pc, #336]	@ (80013b0 <HAL_RCC_OscConfig+0x470>)
 800125e:	f023 0304 	bic.w	r3, r3, #4
 8001262:	6713      	str	r3, [r2, #112]	@ 0x70
    /* Check the LSE State */
    if ((RCC_OscInitStruct->LSEState) != RCC_LSE_OFF)
 8001264:	687b      	ldr	r3, [r7, #4]
 8001266:	689b      	ldr	r3, [r3, #8]
 8001268:	2b00      	cmp	r3, #0
 800126a:	d015      	beq.n	8001298 <HAL_RCC_OscConfig+0x358>
    {
      /* Get Start Tick*/
      tickstart = HAL_GetTick();
 800126c:	f7ff fb9a 	bl	80009a4 <HAL_GetTick>
 8001270:	6138      	str	r0, [r7, #16]

      /* Wait till LSE is ready */
      while (__HAL_RCC_GET_FLAG(RCC_FLAG_LSERDY) == RESET)
 8001272:	e00a      	b.n	800128a <HAL_RCC_OscConfig+0x34a>
      {
        if ((HAL_GetTick() - tickstart) > RCC_LSE_TIMEOUT_VALUE)
 8001274:	f7ff fb96 	bl	80009a4 <HAL_GetTick>
 8001278:	4602      	mov	r2, r0
 800127a:	693b      	ldr	r3, [r7, #16]
 800127c:	1ad3      	subs	r3, r2, r3
 800127e:	f241 3288 	movw	r2, #5000	@ 0x1388
 8001282:	4293      	cmp	r3, r2
 8001284:	d901      	bls.n	800128a <HAL_RCC_OscConfig+0x34a>
        {
          return HAL_TIMEOUT;
 8001286:	2303      	movs	r3, #3
 8001288:	e0cb      	b.n	8001422 <HAL_RCC_OscConfig+0x4e2>
      while (__HAL_RCC_GET_FLAG(RCC_FLAG_LSERDY) == RESET)
 800128a:	4b49      	ldr	r3, [pc, #292]	@ (80013b0 <HAL_RCC_OscConfig+0x470>)
 800128c:	6f1b      	ldr	r3, [r3, #112]	@ 0x70
 800128e:	f003 0302 	and.w	r3, r3, #2
 8001292:	2b00      	cmp	r3, #0
 8001294:	d0ee      	beq.n	8001274 <HAL_RCC_OscConfig+0x334>
 8001296:	e014      	b.n	80012c2 <HAL_RCC_OscConfig+0x382>
      }
    }
    else
    {
      /* Get Start Tick */
      tickstart = HAL_GetTick();
 8001298:	f7ff fb84 	bl	80009a4 <HAL_GetTick>
 800129c:	6138      	str	r0, [r7, #16]

      /* Wait till LSE is ready */
      while (__HAL_RCC_GET_FLAG(RCC_FLAG_LSERDY) != RESET)
 800129e:	e00a      	b.n	80012b6 <HAL_RCC_OscConfig+0x376>
      {
        if ((HAL_GetTick() - tickstart) > RCC_LSE_TIMEOUT_VALUE)
 80012a0:	f7ff fb80 	bl	80009a4 <HAL_GetTick>
 80012a4:	4602      	mov	r2, r0
 80012a6:	693b      	ldr	r3, [r7, #16]
 80012a8:	1ad3      	subs	r3, r2, r3
 80012aa:	f241 3288 	movw	r2, #5000	@ 0x1388
 80012ae:	4293      	cmp	r3, r2
 80012b0:	d901      	bls.n	80012b6 <HAL_RCC_OscConfig+0x376>
        {
          return HAL_TIMEOUT;
 80012b2:	2303      	movs	r3, #3
 80012b4:	e0b5      	b.n	8001422 <HAL_RCC_OscConfig+0x4e2>
      while (__HAL_RCC_GET_FLAG(RCC_FLAG_LSERDY) != RESET)
 80012b6:	4b3e      	ldr	r3, [pc, #248]	@ (80013b0 <HAL_RCC_OscConfig+0x470>)
 80012b8:	6f1b      	ldr	r3, [r3, #112]	@ 0x70
 80012ba:	f003 0302 	and.w	r3, r3, #2
 80012be:	2b00      	cmp	r3, #0
 80012c0:	d1ee      	bne.n	80012a0 <HAL_RCC_OscConfig+0x360>
        }
      }
    }

    /* Restore clock configuration if changed */
    if (pwrclkchanged == SET)
 80012c2:	7dfb      	ldrb	r3, [r7, #23]
 80012c4:	2b01      	cmp	r3, #1
 80012c6:	d105      	bne.n	80012d4 <HAL_RCC_OscConfig+0x394>
    {
      __HAL_RCC_PWR_CLK_DISABLE();
 80012c8:	4b39      	ldr	r3, [pc, #228]	@ (80013b0 <HAL_RCC_OscConfig+0x470>)
 80012ca:	6c1b      	ldr	r3, [r3, #64]	@ 0x40
 80012cc:	4a38      	ldr	r2, [pc, #224]	@ (80013b0 <HAL_RCC_OscConfig+0x470>)
 80012ce:	f023 5380 	bic.w	r3, r3, #268435456	@ 0x10000000
 80012d2:	6413      	str	r3, [r2, #64]	@ 0x40
    }
  }
  /*-------------------------------- PLL Configuration -----------------------*/
  /* Check the parameters */
  assert_param(IS_RCC_PLL(RCC_OscInitStruct->PLL.PLLState));
  if ((RCC_OscInitStruct->PLL.PLLState) != RCC_PLL_NONE)
 80012d4:	687b      	ldr	r3, [r7, #4]
 80012d6:	699b      	ldr	r3, [r3, #24]
 80012d8:	2b00      	cmp	r3, #0
 80012da:	f000 80a1 	beq.w	8001420 <HAL_RCC_OscConfig+0x4e0>
  {
    /* Check if the PLL is used as system clock or not */
    if (__HAL_RCC_GET_SYSCLK_SOURCE() != RCC_CFGR_SWS_PLL)
 80012de:	4b34      	ldr	r3, [pc, #208]	@ (80013b0 <HAL_RCC_OscConfig+0x470>)
 80012e0:	689b      	ldr	r3, [r3, #8]
 80012e2:	f003 030c 	and.w	r3, r3, #12
 80012e6:	2b08      	cmp	r3, #8
 80012e8:	d05c      	beq.n	80013a4 <HAL_RCC_OscConfig+0x464>
    {
      if ((RCC_OscInitStruct->PLL.PLLState) == RCC_PLL_ON)
 80012ea:	687b      	ldr	r3, [r7, #4]
 80012ec:	699b      	ldr	r3, [r3, #24]
 80012ee:	2b02      	cmp	r3, #2
 80012f0:	d141      	bne.n	8001376 <HAL_RCC_OscConfig+0x436>
        assert_param(IS_RCC_PLLN_VALUE(RCC_OscInitStruct->PLL.PLLN));
        assert_param(IS_RCC_PLLP_VALUE(RCC_OscInitStruct->PLL.PLLP));
        assert_param(IS_RCC_PLLQ_VALUE(RCC_OscInitStruct->PLL.PLLQ));

        /* Disable the main PLL. */
        __HAL_RCC_PLL_DISABLE();
 80012f2:	4b31      	ldr	r3, [pc, #196]	@ (80013b8 <HAL_RCC_OscConfig+0x478>)
 80012f4:	2200      	movs	r2, #0
 80012f6:	601a      	str	r2, [r3, #0]

        /* Get Start Tick */
        tickstart = HAL_GetTick();
 80012f8:	f7ff fb54 	bl	80009a4 <HAL_GetTick>
 80012fc:	6138      	str	r0, [r7, #16]

        /* Wait till PLL is disabled */
        while (__HAL_RCC_GET_FLAG(RCC_FLAG_PLLRDY) != RESET)
 80012fe:	e008      	b.n	8001312 <HAL_RCC_OscConfig+0x3d2>
        {
          if ((HAL_GetTick() - tickstart) > PLL_TIMEOUT_VALUE)
 8001300:	f7ff fb50 	bl	80009a4 <HAL_GetTick>
 8001304:	4602      	mov	r2, r0
 8001306:	693b      	ldr	r3, [r7, #16]
 8001308:	1ad3      	subs	r3, r2, r3
 800130a:	2b02      	cmp	r3, #2
 800130c:	d901      	bls.n	8001312 <HAL_RCC_OscConfig+0x3d2>
          {
            return HAL_TIMEOUT;
 800130e:	2303      	movs	r3, #3
 8001310:	e087      	b.n	8001422 <HAL_RCC_OscConfig+0x4e2>
        while (__HAL_RCC_GET_FLAG(RCC_FLAG_PLLRDY) != RESET)
 8001312:	4b27      	ldr	r3, [pc, #156]	@ (80013b0 <HAL_RCC_OscConfig+0x470>)
 8001314:	681b      	ldr	r3, [r3, #0]
 8001316:	f003 7300 	and.w	r3, r3, #33554432	@ 0x2000000
 800131a:	2b00      	cmp	r3, #0
 800131c:	d1f0      	bne.n	8001300 <HAL_RCC_OscConfig+0x3c0>
          }
        }

        /* Configure the main PLL clock source, multiplication and division factors. */
        WRITE_REG(RCC->PLLCFGR, (RCC_OscInitStruct->PLL.PLLSource                                            | \
 800131e:	687b      	ldr	r3, [r7, #4]
 8001320:	69da      	ldr	r2, [r3, #28]
 8001322:	687b      	ldr	r3, [r7, #4]
 8001324:	6a1b      	ldr	r3, [r3, #32]
 8001326:	431a      	orrs	r2, r3
 8001328:	687b      	ldr	r3, [r7, #4]
 800132a:	6a5b      	ldr	r3, [r3, #36]	@ 0x24
 800132c:	019b      	lsls	r3, r3, #6
 800132e:	431a      	orrs	r2, r3
 8001330:	687b      	ldr	r3, [r7, #4]
 8001332:	6a9b      	ldr	r3, [r3, #40]	@ 0x28
 8001334:	085b      	lsrs	r3, r3, #1
 8001336:	3b01      	subs	r3, #1
 8001338:	041b      	lsls	r3, r3, #16
 800133a:	431a      	orrs	r2, r3
 800133c:	687b      	ldr	r3, [r7, #4]
 800133e:	6adb      	ldr	r3, [r3, #44]	@ 0x2c
 8001340:	061b      	lsls	r3, r3, #24
 8001342:	491b      	ldr	r1, [pc, #108]	@ (80013b0 <HAL_RCC_OscConfig+0x470>)
 8001344:	4313      	orrs	r3, r2
 8001346:	604b      	str	r3, [r1, #4]
                                 RCC_OscInitStruct->PLL.PLLM                                                 | \
                                 (RCC_OscInitStruct->PLL.PLLN << RCC_PLLCFGR_PLLN_Pos)             | \
                                 (((RCC_OscInitStruct->PLL.PLLP >> 1U) - 1U) << RCC_PLLCFGR_PLLP_Pos) | \
                                 (RCC_OscInitStruct->PLL.PLLQ << RCC_PLLCFGR_PLLQ_Pos)));
        /* Enable the main PLL. */
        __HAL_RCC_PLL_ENABLE();
 8001348:	4b1b      	ldr	r3, [pc, #108]	@ (80013b8 <HAL_RCC_OscConfig+0x478>)
 800134a:	2201      	movs	r2, #1
 800134c:	601a      	str	r2, [r3, #0]

        /* Get Start Tick */
        tickstart = HAL_GetTick();
 800134e:	f7ff fb29 	bl	80009a4 <HAL_GetTick>
 8001352:	6138      	str	r0, [r7, #16]

        /* Wait till PLL is ready */
        while (__HAL_RCC_GET_FLAG(RCC_FLAG_PLLRDY) == RESET)
 8001354:	e008      	b.n	8001368 <HAL_RCC_OscConfig+0x428>
        {
          if ((HAL_GetTick() - tickstart) > PLL_TIMEOUT_VALUE)
 8001356:	f7ff fb25 	bl	80009a4 <HAL_GetTick>
 800135a:	4602      	mov	r2, r0
 800135c:	693b      	ldr	r3, [r7, #16]
 800135e:	1ad3      	subs	r3, r2, r3
 8001360:	2b02      	cmp	r3, #2
 8001362:	d901      	bls.n	8001368 <HAL_RCC_OscConfig+0x428>
          {
            return HAL_TIMEOUT;
 8001364:	2303      	movs	r3, #3
 8001366:	e05c      	b.n	8001422 <HAL_RCC_OscConfig+0x4e2>
        while (__HAL_RCC_GET_FLAG(RCC_FLAG_PLLRDY) == RESET)
 8001368:	4b11      	ldr	r3, [pc, #68]	@ (80013b0 <HAL_RCC_OscConfig+0x470>)
 800136a:	681b      	ldr	r3, [r3, #0]
 800136c:	f003 7300 	and.w	r3, r3, #33554432	@ 0x2000000
 8001370:	2b00      	cmp	r3, #0
 8001372:	d0f0      	beq.n	8001356 <HAL_RCC_OscConfig+0x416>
 8001374:	e054      	b.n	8001420 <HAL_RCC_OscConfig+0x4e0>
        }
      }
      else
      {
        /* Disable the main PLL. */
        __HAL_RCC_PLL_DISABLE();
 8001376:	4b10      	ldr	r3, [pc, #64]	@ (80013b8 <HAL_RCC_OscConfig+0x478>)
 8001378:	2200      	movs	r2, #0
 800137a:	601a      	str	r2, [r3, #0]

        /* Get Start Tick */
        tickstart = HAL_GetTick();
 800137c:	f7ff fb12 	bl	80009a4 <HAL_GetTick>
 8001380:	6138      	str	r0, [r7, #16]

        /* Wait till PLL is disabled */
        while (__HAL_RCC_GET_FLAG(RCC_FLAG_PLLRDY) != RESET)
 8001382:	e008      	b.n	8001396 <HAL_RCC_OscConfig+0x456>
        {
          if ((HAL_GetTick() - tickstart) > PLL_TIMEOUT_VALUE)
 8001384:	f7ff fb0e 	bl	80009a4 <HAL_GetTick>
 8001388:	4602      	mov	r2, r0
 800138a:	693b      	ldr	r3, [r7, #16]
 800138c:	1ad3      	subs	r3, r2, r3
 800138e:	2b02      	cmp	r3, #2
 8001390:	d901      	bls.n	8001396 <HAL_RCC_OscConfig+0x456>
          {
            return HAL_TIMEOUT;
 8001392:	2303      	movs	r3, #3
 8001394:	e045      	b.n	8001422 <HAL_RCC_OscConfig+0x4e2>
        while (__HAL_RCC_GET_FLAG(RCC_FLAG_PLLRDY) != RESET)
 8001396:	4b06      	ldr	r3, [pc, #24]	@ (80013b0 <HAL_RCC_OscConfig+0x470>)
 8001398:	681b      	ldr	r3, [r3, #0]
 800139a:	f003 7300 	and.w	r3, r3, #33554432	@ 0x2000000
 800139e:	2b00      	cmp	r3, #0
 80013a0:	d1f0      	bne.n	8001384 <HAL_RCC_OscConfig+0x444>
 80013a2:	e03d      	b.n	8001420 <HAL_RCC_OscConfig+0x4e0>
      }
    }
    else
    {
      /* Check if there is a request to disable the PLL used as System clock source */
      if ((RCC_OscInitStruct->PLL.PLLState) == RCC_PLL_OFF)
 80013a4:	687b      	ldr	r3, [r7, #4]
 80013a6:	699b      	ldr	r3, [r3, #24]
 80013a8:	2b01      	cmp	r3, #1
 80013aa:	d107      	bne.n	80013bc <HAL_RCC_OscConfig+0x47c>
      {
        return HAL_ERROR;
 80013ac:	2301      	movs	r3, #1
 80013ae:	e038      	b.n	8001422 <HAL_RCC_OscConfig+0x4e2>
 80013b0:	40023800 	.word	0x40023800
 80013b4:	40007000 	.word	0x40007000
 80013b8:	42470060 	.word	0x42470060
      }
      else
      {
        /* Do not return HAL_ERROR if request repeats the current configuration */
        pll_config = RCC->PLLCFGR;
 80013bc:	4b1b      	ldr	r3, [pc, #108]	@ (800142c <HAL_RCC_OscConfig+0x4ec>)
 80013be:	685b      	ldr	r3, [r3, #4]
 80013c0:	60fb      	str	r3, [r7, #12]
            (READ_BIT(pll_config, RCC_PLLCFGR_PLLN) != (RCC_OscInitStruct->PLL.PLLN) << RCC_PLLCFGR_PLLN_Pos) ||
            (READ_BIT(pll_config, RCC_PLLCFGR_PLLP) != (((RCC_OscInitStruct->PLL.PLLP >> 1U) - 1U)) << RCC_PLLCFGR_PLLP_Pos) ||
            (READ_BIT(pll_config, RCC_PLLCFGR_PLLQ) != (RCC_OscInitStruct->PLL.PLLQ << RCC_PLLCFGR_PLLQ_Pos)) ||
            (READ_BIT(pll_config, RCC_PLLCFGR_PLLR) != (RCC_OscInitStruct->PLL.PLLR << RCC_PLLCFGR_PLLR_Pos)))
#else
        if (((RCC_OscInitStruct->PLL.PLLState) == RCC_PLL_OFF) ||
 80013c2:	687b      	ldr	r3, [r7, #4]
 80013c4:	699b      	ldr	r3, [r3, #24]
 80013c6:	2b01      	cmp	r3, #1
 80013c8:	d028      	beq.n	800141c <HAL_RCC_OscConfig+0x4dc>
            (READ_BIT(pll_config, RCC_PLLCFGR_PLLSRC) != RCC_OscInitStruct->PLL.PLLSource) ||
 80013ca:	68fb      	ldr	r3, [r7, #12]
 80013cc:	f403 0280 	and.w	r2, r3, #4194304	@ 0x400000
 80013d0:	687b      	ldr	r3, [r7, #4]
 80013d2:	69db      	ldr	r3, [r3, #28]
        if (((RCC_OscInitStruct->PLL.PLLState) == RCC_PLL_OFF) ||
 80013d4:	429a      	cmp	r2, r3
 80013d6:	d121      	bne.n	800141c <HAL_RCC_OscConfig+0x4dc>
            (READ_BIT(pll_config, RCC_PLLCFGR_PLLM) != (RCC_OscInitStruct->PLL.PLLM) << RCC_PLLCFGR_PLLM_Pos) ||
 80013d8:	68fb      	ldr	r3, [r7, #12]
 80013da:	f003 023f 	and.w	r2, r3, #63	@ 0x3f
 80013de:	687b      	ldr	r3, [r7, #4]
 80013e0:	6a1b      	ldr	r3, [r3, #32]
            (READ_BIT(pll_config, RCC_PLLCFGR_PLLSRC) != RCC_OscInitStruct->PLL.PLLSource) ||
 80013e2:	429a      	cmp	r2, r3
 80013e4:	d11a      	bne.n	800141c <HAL_RCC_OscConfig+0x4dc>
            (READ_BIT(pll_config, RCC_PLLCFGR_PLLN) != (RCC_OscInitStruct->PLL.PLLN) << RCC_PLLCFGR_PLLN_Pos) ||
 80013e6:	68fa      	ldr	r2, [r7, #12]
 80013e8:	f647 73c0 	movw	r3, #32704	@ 0x7fc0
 80013ec:	4013      	ands	r3, r2
 80013ee:	687a      	ldr	r2, [r7, #4]
 80013f0:	6a52      	ldr	r2, [r2, #36]	@ 0x24
 80013f2:	0192      	lsls	r2, r2, #6
            (READ_BIT(pll_config, RCC_PLLCFGR_PLLM) != (RCC_OscInitStruct->PLL.PLLM) << RCC_PLLCFGR_PLLM_Pos) ||
 80013f4:	4293      	cmp	r3, r2
 80013f6:	d111      	bne.n	800141c <HAL_RCC_OscConfig+0x4dc>
            (READ_BIT(pll_config, RCC_PLLCFGR_PLLP) != (((RCC_OscInitStruct->PLL.PLLP >> 1U) - 1U)) << RCC_PLLCFGR_PLLP_Pos) ||
 80013f8:	68fb      	ldr	r3, [r7, #12]
 80013fa:	f403 3240 	and.w	r2, r3, #196608	@ 0x30000
 80013fe:	687b      	ldr	r3, [r7, #4]
 8001400:	6a9b      	ldr	r3, [r3, #40]	@ 0x28
 8001402:	085b      	lsrs	r3, r3, #1
 8001404:	3b01      	subs	r3, #1
 8001406:	041b      	lsls	r3, r3, #16
            (READ_BIT(pll_config, RCC_PLLCFGR_PLLN) != (RCC_OscInitStruct->PLL.PLLN) << RCC_PLLCFGR_PLLN_Pos) ||
 8001408:	429a      	cmp	r2, r3
 800140a:	d107      	bne.n	800141c <HAL_RCC_OscConfig+0x4dc>
            (READ_BIT(pll_config, RCC_PLLCFGR_PLLQ) != (RCC_OscInitStruct->PLL.PLLQ << RCC_PLLCFGR_PLLQ_Pos)))
 800140c:	68fb      	ldr	r3, [r7, #12]
 800140e:	f003 6270 	and.w	r2, r3, #251658240	@ 0xf000000
 8001412:	687b      	ldr	r3, [r7, #4]
 8001414:	6adb      	ldr	r3, [r3, #44]	@ 0x2c
 8001416:	061b      	lsls	r3, r3, #24
            (READ_BIT(pll_config, RCC_PLLCFGR_PLLP) != (((RCC_OscInitStruct->PLL.PLLP >> 1U) - 1U)) << RCC_PLLCFGR_PLLP_Pos) ||
 8001418:	429a      	cmp	r2, r3
 800141a:	d001      	beq.n	8001420 <HAL_RCC_OscConfig+0x4e0>
#endif /* RCC_PLLCFGR_PLLR */
        {
          return HAL_ERROR;
 800141c:	2301      	movs	r3, #1
 800141e:	e000      	b.n	8001422 <HAL_RCC_OscConfig+0x4e2>
        }
      }
    }
  }
  return HAL_OK;
 8001420:	2300      	movs	r3, #0
}
 8001422:	4618      	mov	r0, r3
 8001424:	3718      	adds	r7, #24
 8001426:	46bd      	mov	sp, r7
 8001428:	bd80      	pop	{r7, pc}
 800142a:	bf00      	nop
 800142c:	40023800 	.word	0x40023800

08001430 <HAL_RCC_ClockConfig>:
  *         HPRE[3:0] bits to ensure that HCLK not exceed the maximum allowed frequency
  *         (for more details refer to section above "Initialization/de-initialization functions")
  * @retval None
  */
HAL_StatusTypeDef HAL_RCC_ClockConfig(const RCC_ClkInitTypeDef  *RCC_ClkInitStruct, uint32_t FLatency)
{
 8001430:	b580      	push	{r7, lr}
 8001432:	b084      	sub	sp, #16
 8001434:	af00      	add	r7, sp, #0
 8001436:	6078      	str	r0, [r7, #4]
 8001438:	6039      	str	r1, [r7, #0]
  uint32_t tickstart;

  /* Check Null pointer */
  if (RCC_ClkInitStruct == NULL)
 800143a:	687b      	ldr	r3, [r7, #4]
 800143c:	2b00      	cmp	r3, #0
 800143e:	d101      	bne.n	8001444 <HAL_RCC_ClockConfig+0x14>
  {
    return HAL_ERROR;
 8001440:	2301      	movs	r3, #1
 8001442:	e0cc      	b.n	80015de <HAL_RCC_ClockConfig+0x1ae>
  /* To correctly read data from FLASH memory, the number of wait states (LATENCY)
    must be correctly programmed according to the frequency of the CPU clock
    (HCLK) and the supply voltage of the device. */

  /* Increasing the number of wait states because of higher CPU frequency */
  if (FLatency > __HAL_FLASH_GET_LATENCY())
 8001444:	4b68      	ldr	r3, [pc, #416]	@ (80015e8 <HAL_RCC_ClockConfig+0x1b8>)
 8001446:	681b      	ldr	r3, [r3, #0]
 8001448:	f003 0307 	and.w	r3, r3, #7
 800144c:	683a      	ldr	r2, [r7, #0]
 800144e:	429a      	cmp	r2, r3
 8001450:	d90c      	bls.n	800146c <HAL_RCC_ClockConfig+0x3c>
  {
    /* Program the new number of wait states to the LATENCY bits in the FLASH_ACR register */
    __HAL_FLASH_SET_LATENCY(FLatency);
 8001452:	4b65      	ldr	r3, [pc, #404]	@ (80015e8 <HAL_RCC_ClockConfig+0x1b8>)
 8001454:	683a      	ldr	r2, [r7, #0]
 8001456:	b2d2      	uxtb	r2, r2
 8001458:	701a      	strb	r2, [r3, #0]

    /* Check that the new number of wait states is taken into account to access the Flash
    memory by reading the FLASH_ACR register */
    if (__HAL_FLASH_GET_LATENCY() != FLatency)
 800145a:	4b63      	ldr	r3, [pc, #396]	@ (80015e8 <HAL_RCC_ClockConfig+0x1b8>)
 800145c:	681b      	ldr	r3, [r3, #0]
 800145e:	f003 0307 	and.w	r3, r3, #7
 8001462:	683a      	ldr	r2, [r7, #0]
 8001464:	429a      	cmp	r2, r3
 8001466:	d001      	beq.n	800146c <HAL_RCC_ClockConfig+0x3c>
    {
      return HAL_ERROR;
 8001468:	2301      	movs	r3, #1
 800146a:	e0b8      	b.n	80015de <HAL_RCC_ClockConfig+0x1ae>
    }
  }

  /*-------------------------- HCLK Configuration --------------------------*/
  if (((RCC_ClkInitStruct->ClockType) & RCC_CLOCKTYPE_HCLK) == RCC_CLOCKTYPE_HCLK)
 800146c:	687b      	ldr	r3, [r7, #4]
 800146e:	681b      	ldr	r3, [r3, #0]
 8001470:	f003 0302 	and.w	r3, r3, #2
 8001474:	2b00      	cmp	r3, #0
 8001476:	d020      	beq.n	80014ba <HAL_RCC_ClockConfig+0x8a>
  {
    /* Set the highest APBx dividers in order to ensure that we do not go through
       a non-spec phase whatever we decrease or increase HCLK. */
    if (((RCC_ClkInitStruct->ClockType) & RCC_CLOCKTYPE_PCLK1) == RCC_CLOCKTYPE_PCLK1)
 8001478:	687b      	ldr	r3, [r7, #4]
 800147a:	681b      	ldr	r3, [r3, #0]
 800147c:	f003 0304 	and.w	r3, r3, #4
 8001480:	2b00      	cmp	r3, #0
 8001482:	d005      	beq.n	8001490 <HAL_RCC_ClockConfig+0x60>
    {
      MODIFY_REG(RCC->CFGR, RCC_CFGR_PPRE1, RCC_HCLK_DIV16);
 8001484:	4b59      	ldr	r3, [pc, #356]	@ (80015ec <HAL_RCC_ClockConfig+0x1bc>)
 8001486:	689b      	ldr	r3, [r3, #8]
 8001488:	4a58      	ldr	r2, [pc, #352]	@ (80015ec <HAL_RCC_ClockConfig+0x1bc>)
 800148a:	f443 53e0 	orr.w	r3, r3, #7168	@ 0x1c00
 800148e:	6093      	str	r3, [r2, #8]
    }

    if (((RCC_ClkInitStruct->ClockType) & RCC_CLOCKTYPE_PCLK2) == RCC_CLOCKTYPE_PCLK2)
 8001490:	687b      	ldr	r3, [r7, #4]
 8001492:	681b      	ldr	r3, [r3, #0]
 8001494:	f003 0308 	and.w	r3, r3, #8
 8001498:	2b00      	cmp	r3, #0
 800149a:	d005      	beq.n	80014a8 <HAL_RCC_ClockConfig+0x78>
    {
      MODIFY_REG(RCC->CFGR, RCC_CFGR_PPRE2, (RCC_HCLK_DIV16 << 3));
 800149c:	4b53      	ldr	r3, [pc, #332]	@ (80015ec <HAL_RCC_ClockConfig+0x1bc>)
 800149e:	689b      	ldr	r3, [r3, #8]
 80014a0:	4a52      	ldr	r2, [pc, #328]	@ (80015ec <HAL_RCC_ClockConfig+0x1bc>)
 80014a2:	f443 4360 	orr.w	r3, r3, #57344	@ 0xe000
 80014a6:	6093      	str	r3, [r2, #8]
    }

    assert_param(IS_RCC_HCLK(RCC_ClkInitStruct->AHBCLKDivider));
    MODIFY_REG(RCC->CFGR, RCC_CFGR_HPRE, RCC_ClkInitStruct->AHBCLKDivider);
 80014a8:	4b50      	ldr	r3, [pc, #320]	@ (80015ec <HAL_RCC_ClockConfig+0x1bc>)
 80014aa:	689b      	ldr	r3, [r3, #8]
 80014ac:	f023 02f0 	bic.w	r2, r3, #240	@ 0xf0
 80014b0:	687b      	ldr	r3, [r7, #4]
 80014b2:	689b      	ldr	r3, [r3, #8]
 80014b4:	494d      	ldr	r1, [pc, #308]	@ (80015ec <HAL_RCC_ClockConfig+0x1bc>)
 80014b6:	4313      	orrs	r3, r2
 80014b8:	608b      	str	r3, [r1, #8]
  }

  /*------------------------- SYSCLK Configuration ---------------------------*/
  if (((RCC_ClkInitStruct->ClockType) & RCC_CLOCKTYPE_SYSCLK) == RCC_CLOCKTYPE_SYSCLK)
 80014ba:	687b      	ldr	r3, [r7, #4]
 80014bc:	681b      	ldr	r3, [r3, #0]
 80014be:	f003 0301 	and.w	r3, r3, #1
 80014c2:	2b00      	cmp	r3, #0
 80014c4:	d044      	beq.n	8001550 <HAL_RCC_ClockConfig+0x120>
  {
    assert_param(IS_RCC_SYSCLKSOURCE(RCC_ClkInitStruct->SYSCLKSource));

    /* HSE is selected as System Clock Source */
    if (RCC_ClkInitStruct->SYSCLKSource == RCC_SYSCLKSOURCE_HSE)
 80014c6:	687b      	ldr	r3, [r7, #4]
 80014c8:	685b      	ldr	r3, [r3, #4]
 80014ca:	2b01      	cmp	r3, #1
 80014cc:	d107      	bne.n	80014de <HAL_RCC_ClockConfig+0xae>
    {
      /* Check the HSE ready flag */
      if (__HAL_RCC_GET_FLAG(RCC_FLAG_HSERDY) == RESET)
 80014ce:	4b47      	ldr	r3, [pc, #284]	@ (80015ec <HAL_RCC_ClockConfig+0x1bc>)
 80014d0:	681b      	ldr	r3, [r3, #0]
 80014d2:	f403 3300 	and.w	r3, r3, #131072	@ 0x20000
 80014d6:	2b00      	cmp	r3, #0
 80014d8:	d119      	bne.n	800150e <HAL_RCC_ClockConfig+0xde>
      {
        return HAL_ERROR;
 80014da:	2301      	movs	r3, #1
 80014dc:	e07f      	b.n	80015de <HAL_RCC_ClockConfig+0x1ae>
      }
    }
    /* PLL is selected as System Clock Source */
    else if ((RCC_ClkInitStruct->SYSCLKSource == RCC_SYSCLKSOURCE_PLLCLK)   ||
 80014de:	687b      	ldr	r3, [r7, #4]
 80014e0:	685b      	ldr	r3, [r3, #4]
 80014e2:	2b02      	cmp	r3, #2
 80014e4:	d003      	beq.n	80014ee <HAL_RCC_ClockConfig+0xbe>
             (RCC_ClkInitStruct->SYSCLKSource == RCC_SYSCLKSOURCE_PLLRCLK))
 80014e6:	687b      	ldr	r3, [r7, #4]
 80014e8:	685b      	ldr	r3, [r3, #4]
    else if ((RCC_ClkInitStruct->SYSCLKSource == RCC_SYSCLKSOURCE_PLLCLK)   ||
 80014ea:	2b03      	cmp	r3, #3
 80014ec:	d107      	bne.n	80014fe <HAL_RCC_ClockConfig+0xce>
    {
      /* Check the PLL ready flag */
      if (__HAL_RCC_GET_FLAG(RCC_FLAG_PLLRDY) == RESET)
 80014ee:	4b3f      	ldr	r3, [pc, #252]	@ (80015ec <HAL_RCC_ClockConfig+0x1bc>)
 80014f0:	681b      	ldr	r3, [r3, #0]
 80014f2:	f003 7300 	and.w	r3, r3, #33554432	@ 0x2000000
 80014f6:	2b00      	cmp	r3, #0
 80014f8:	d109      	bne.n	800150e <HAL_RCC_ClockConfig+0xde>
      {
        return HAL_ERROR;
 80014fa:	2301      	movs	r3, #1
 80014fc:	e06f      	b.n	80015de <HAL_RCC_ClockConfig+0x1ae>
    }
    /* HSI is selected as System Clock Source */
    else
    {
      /* Check the HSI ready flag */
      if (__HAL_RCC_GET_FLAG(RCC_FLAG_HSIRDY) == RESET)
 80014fe:	4b3b      	ldr	r3, [pc, #236]	@ (80015ec <HAL_RCC_ClockConfig+0x1bc>)
 8001500:	681b      	ldr	r3, [r3, #0]
 8001502:	f003 0302 	and.w	r3, r3, #2
 8001506:	2b00      	cmp	r3, #0
 8001508:	d101      	bne.n	800150e <HAL_RCC_ClockConfig+0xde>
      {
        return HAL_ERROR;
 800150a:	2301      	movs	r3, #1
 800150c:	e067      	b.n	80015de <HAL_RCC_ClockConfig+0x1ae>
      }
    }

    __HAL_RCC_SYSCLK_CONFIG(RCC_ClkInitStruct->SYSCLKSource);
 800150e:	4b37      	ldr	r3, [pc, #220]	@ (80015ec <HAL_RCC_ClockConfig+0x1bc>)
 8001510:	689b      	ldr	r3, [r3, #8]
 8001512:	f023 0203 	bic.w	r2, r3, #3
 8001516:	687b      	ldr	r3, [r7, #4]
 8001518:	685b      	ldr	r3, [r3, #4]
 800151a:	4934      	ldr	r1, [pc, #208]	@ (80015ec <HAL_RCC_ClockConfig+0x1bc>)
 800151c:	4313      	orrs	r3, r2
 800151e:	608b      	str	r3, [r1, #8]

    /* Get Start Tick */
    tickstart = HAL_GetTick();
 8001520:	f7ff fa40 	bl	80009a4 <HAL_GetTick>
 8001524:	60f8      	str	r0, [r7, #12]

    while (__HAL_RCC_GET_SYSCLK_SOURCE() != (RCC_ClkInitStruct->SYSCLKSource << RCC_CFGR_SWS_Pos))
 8001526:	e00a      	b.n	800153e <HAL_RCC_ClockConfig+0x10e>
    {
      if ((HAL_GetTick() - tickstart) > CLOCKSWITCH_TIMEOUT_VALUE)
 8001528:	f7ff fa3c 	bl	80009a4 <HAL_GetTick>
 800152c:	4602      	mov	r2, r0
 800152e:	68fb      	ldr	r3, [r7, #12]
 8001530:	1ad3      	subs	r3, r2, r3
 8001532:	f241 3288 	movw	r2, #5000	@ 0x1388
 8001536:	4293      	cmp	r3, r2
 8001538:	d901      	bls.n	800153e <HAL_RCC_ClockConfig+0x10e>
      {
        return HAL_TIMEOUT;
 800153a:	2303      	movs	r3, #3
 800153c:	e04f      	b.n	80015de <HAL_RCC_ClockConfig+0x1ae>
    while (__HAL_RCC_GET_SYSCLK_SOURCE() != (RCC_ClkInitStruct->SYSCLKSource << RCC_CFGR_SWS_Pos))
 800153e:	4b2b      	ldr	r3, [pc, #172]	@ (80015ec <HAL_RCC_ClockConfig+0x1bc>)
 8001540:	689b      	ldr	r3, [r3, #8]
 8001542:	f003 020c 	and.w	r2, r3, #12
 8001546:	687b      	ldr	r3, [r7, #4]
 8001548:	685b      	ldr	r3, [r3, #4]
 800154a:	009b      	lsls	r3, r3, #2
 800154c:	429a      	cmp	r2, r3
 800154e:	d1eb      	bne.n	8001528 <HAL_RCC_ClockConfig+0xf8>
      }
    }
  }

  /* Decreasing the number of wait states because of lower CPU frequency */
  if (FLatency < __HAL_FLASH_GET_LATENCY())
 8001550:	4b25      	ldr	r3, [pc, #148]	@ (80015e8 <HAL_RCC_ClockConfig+0x1b8>)
 8001552:	681b      	ldr	r3, [r3, #0]
 8001554:	f003 0307 	and.w	r3, r3, #7
 8001558:	683a      	ldr	r2, [r7, #0]
 800155a:	429a      	cmp	r2, r3
 800155c:	d20c      	bcs.n	8001578 <HAL_RCC_ClockConfig+0x148>
  {
    /* Program the new number of wait states to the LATENCY bits in the FLASH_ACR register */
    __HAL_FLASH_SET_LATENCY(FLatency);
 800155e:	4b22      	ldr	r3, [pc, #136]	@ (80015e8 <HAL_RCC_ClockConfig+0x1b8>)
 8001560:	683a      	ldr	r2, [r7, #0]
 8001562:	b2d2      	uxtb	r2, r2
 8001564:	701a      	strb	r2, [r3, #0]

    /* Check that the new number of wait states is taken into account to access the Flash
    memory by reading the FLASH_ACR register */
    if (__HAL_FLASH_GET_LATENCY() != FLatency)
 8001566:	4b20      	ldr	r3, [pc, #128]	@ (80015e8 <HAL_RCC_ClockConfig+0x1b8>)
 8001568:	681b      	ldr	r3, [r3, #0]
 800156a:	f003 0307 	and.w	r3, r3, #7
 800156e:	683a      	ldr	r2, [r7, #0]
 8001570:	429a      	cmp	r2, r3
 8001572:	d001      	beq.n	8001578 <HAL_RCC_ClockConfig+0x148>
    {
      return HAL_ERROR;
 8001574:	2301      	movs	r3, #1
 8001576:	e032      	b.n	80015de <HAL_RCC_ClockConfig+0x1ae>
    }
  }

  /*-------------------------- PCLK1 Configuration ---------------------------*/
  if (((RCC_ClkInitStruct->ClockType) & RCC_CLOCKTYPE_PCLK1) == RCC_CLOCKTYPE_PCLK1)
 8001578:	687b      	ldr	r3, [r7, #4]
 800157a:	681b      	ldr	r3, [r3, #0]
 800157c:	f003 0304 	and.w	r3, r3, #4
 8001580:	2b00      	cmp	r3, #0
 8001582:	d008      	beq.n	8001596 <HAL_RCC_ClockConfig+0x166>
  {
    assert_param(IS_RCC_PCLK(RCC_ClkInitStruct->APB1CLKDivider));
    MODIFY_REG(RCC->CFGR, RCC_CFGR_PPRE1, RCC_ClkInitStruct->APB1CLKDivider);
 8001584:	4b19      	ldr	r3, [pc, #100]	@ (80015ec <HAL_RCC_ClockConfig+0x1bc>)
 8001586:	689b      	ldr	r3, [r3, #8]
 8001588:	f423 52e0 	bic.w	r2, r3, #7168	@ 0x1c00
 800158c:	687b      	ldr	r3, [r7, #4]
 800158e:	68db      	ldr	r3, [r3, #12]
 8001590:	4916      	ldr	r1, [pc, #88]	@ (80015ec <HAL_RCC_ClockConfig+0x1bc>)
 8001592:	4313      	orrs	r3, r2
 8001594:	608b      	str	r3, [r1, #8]
  }

  /*-------------------------- PCLK2 Configuration ---------------------------*/
  if (((RCC_ClkInitStruct->ClockType) & RCC_CLOCKTYPE_PCLK2) == RCC_CLOCKTYPE_PCLK2)
 8001596:	687b      	ldr	r3, [r7, #4]
 8001598:	681b      	ldr	r3, [r3, #0]
 800159a:	f003 0308 	and.w	r3, r3, #8
 800159e:	2b00      	cmp	r3, #0
 80015a0:	d009      	beq.n	80015b6 <HAL_RCC_ClockConfig+0x186>
  {
    assert_param(IS_RCC_PCLK(RCC_ClkInitStruct->APB2CLKDivider));
    MODIFY_REG(RCC->CFGR, RCC_CFGR_PPRE2, ((RCC_ClkInitStruct->APB2CLKDivider) << 3U));
 80015a2:	4b12      	ldr	r3, [pc, #72]	@ (80015ec <HAL_RCC_ClockConfig+0x1bc>)
 80015a4:	689b      	ldr	r3, [r3, #8]
 80015a6:	f423 4260 	bic.w	r2, r3, #57344	@ 0xe000
 80015aa:	687b      	ldr	r3, [r7, #4]
 80015ac:	691b      	ldr	r3, [r3, #16]
 80015ae:	00db      	lsls	r3, r3, #3
 80015b0:	490e      	ldr	r1, [pc, #56]	@ (80015ec <HAL_RCC_ClockConfig+0x1bc>)
 80015b2:	4313      	orrs	r3, r2
 80015b4:	608b      	str	r3, [r1, #8]
  }

  /* Update the SystemCoreClock global variable */
  SystemCoreClock = HAL_RCC_GetSysClockFreq() >> AHBPrescTable[(RCC->CFGR & RCC_CFGR_HPRE) >> RCC_CFGR_HPRE_Pos];
 80015b6:	f000 f821 	bl	80015fc <HAL_RCC_GetSysClockFreq>
 80015ba:	4602      	mov	r2, r0
 80015bc:	4b0b      	ldr	r3, [pc, #44]	@ (80015ec <HAL_RCC_ClockConfig+0x1bc>)
 80015be:	689b      	ldr	r3, [r3, #8]
 80015c0:	091b      	lsrs	r3, r3, #4
 80015c2:	f003 030f 	and.w	r3, r3, #15
 80015c6:	490a      	ldr	r1, [pc, #40]	@ (80015f0 <HAL_RCC_ClockConfig+0x1c0>)
 80015c8:	5ccb      	ldrb	r3, [r1, r3]
 80015ca:	fa22 f303 	lsr.w	r3, r2, r3
 80015ce:	4a09      	ldr	r2, [pc, #36]	@ (80015f4 <HAL_RCC_ClockConfig+0x1c4>)
 80015d0:	6013      	str	r3, [r2, #0]

  /* Configure the source of time base considering new system clocks settings */
  HAL_InitTick(uwTickPrio);
 80015d2:	4b09      	ldr	r3, [pc, #36]	@ (80015f8 <HAL_RCC_ClockConfig+0x1c8>)
 80015d4:	681b      	ldr	r3, [r3, #0]
 80015d6:	4618      	mov	r0, r3
 80015d8:	f7ff f9a0 	bl	800091c <HAL_InitTick>

  return HAL_OK;
 80015dc:	2300      	movs	r3, #0
}
 80015de:	4618      	mov	r0, r3
 80015e0:	3710      	adds	r7, #16
 80015e2:	46bd      	mov	sp, r7
 80015e4:	bd80      	pop	{r7, pc}
 80015e6:	bf00      	nop
 80015e8:	40023c00 	.word	0x40023c00
 80015ec:	40023800 	.word	0x40023800
 80015f0:	0800207c 	.word	0x0800207c
 80015f4:	20000000 	.word	0x20000000
 80015f8:	20000004 	.word	0x20000004

080015fc <HAL_RCC_GetSysClockFreq>:
  *
  *
  * @retval SYSCLK frequency
  */
__weak uint32_t HAL_RCC_GetSysClockFreq(void)
{
 80015fc:	e92d 4fb0 	stmdb	sp!, {r4, r5, r7, r8, r9, sl, fp, lr}
 8001600:	b090      	sub	sp, #64	@ 0x40
 8001602:	af00      	add	r7, sp, #0
  uint32_t pllm = 0U;
 8001604:	2300      	movs	r3, #0
 8001606:	637b      	str	r3, [r7, #52]	@ 0x34
  uint32_t pllvco = 0U;
 8001608:	2300      	movs	r3, #0
 800160a:	63fb      	str	r3, [r7, #60]	@ 0x3c
  uint32_t pllp = 0U;
 800160c:	2300      	movs	r3, #0
 800160e:	633b      	str	r3, [r7, #48]	@ 0x30
  uint32_t sysclockfreq = 0U;
 8001610:	2300      	movs	r3, #0
 8001612:	63bb      	str	r3, [r7, #56]	@ 0x38

  /* Get SYSCLK source -------------------------------------------------------*/
  switch (RCC->CFGR & RCC_CFGR_SWS)
 8001614:	4b59      	ldr	r3, [pc, #356]	@ (800177c <HAL_RCC_GetSysClockFreq+0x180>)
 8001616:	689b      	ldr	r3, [r3, #8]
 8001618:	f003 030c 	and.w	r3, r3, #12
 800161c:	2b08      	cmp	r3, #8
 800161e:	d00d      	beq.n	800163c <HAL_RCC_GetSysClockFreq+0x40>
 8001620:	2b08      	cmp	r3, #8
 8001622:	f200 80a1 	bhi.w	8001768 <HAL_RCC_GetSysClockFreq+0x16c>
 8001626:	2b00      	cmp	r3, #0
 8001628:	d002      	beq.n	8001630 <HAL_RCC_GetSysClockFreq+0x34>
 800162a:	2b04      	cmp	r3, #4
 800162c:	d003      	beq.n	8001636 <HAL_RCC_GetSysClockFreq+0x3a>
 800162e:	e09b      	b.n	8001768 <HAL_RCC_GetSysClockFreq+0x16c>
  {
    case RCC_CFGR_SWS_HSI:  /* HSI used as system clock source */
    {
      sysclockfreq = HSI_VALUE;
 8001630:	4b53      	ldr	r3, [pc, #332]	@ (8001780 <HAL_RCC_GetSysClockFreq+0x184>)
 8001632:	63bb      	str	r3, [r7, #56]	@ 0x38
      break;
 8001634:	e09b      	b.n	800176e <HAL_RCC_GetSysClockFreq+0x172>
    }
    case RCC_CFGR_SWS_HSE:  /* HSE used as system clock  source */
    {
      sysclockfreq = HSE_VALUE;
 8001636:	4b53      	ldr	r3, [pc, #332]	@ (8001784 <HAL_RCC_GetSysClockFreq+0x188>)
 8001638:	63bb      	str	r3, [r7, #56]	@ 0x38
      break;
 800163a:	e098      	b.n	800176e <HAL_RCC_GetSysClockFreq+0x172>
    }
    case RCC_CFGR_SWS_PLL:  /* PLL used as system clock  source */
    {
      /* PLL_VCO = (HSE_VALUE or HSI_VALUE / PLLM) * PLLN
      SYSCLK = PLL_VCO / PLLP */
      pllm = RCC->PLLCFGR & RCC_PLLCFGR_PLLM;
 800163c:	4b4f      	ldr	r3, [pc, #316]	@ (800177c <HAL_RCC_GetSysClockFreq+0x180>)
 800163e:	685b      	ldr	r3, [r3, #4]
 8001640:	f003 033f 	and.w	r3, r3, #63	@ 0x3f
 8001644:	637b      	str	r3, [r7, #52]	@ 0x34
      if (__HAL_RCC_GET_PLL_OSCSOURCE() != RCC_PLLSOURCE_HSI)
 8001646:	4b4d      	ldr	r3, [pc, #308]	@ (800177c <HAL_RCC_GetSysClockFreq+0x180>)
 8001648:	685b      	ldr	r3, [r3, #4]
 800164a:	f403 0380 	and.w	r3, r3, #4194304	@ 0x400000
 800164e:	2b00      	cmp	r3, #0
 8001650:	d028      	beq.n	80016a4 <HAL_RCC_GetSysClockFreq+0xa8>
      {
        /* HSE used as PLL clock source */
        pllvco = (uint32_t)((((uint64_t) HSE_VALUE * ((uint64_t)((RCC->PLLCFGR & RCC_PLLCFGR_PLLN) >> RCC_PLLCFGR_PLLN_Pos)))) / (uint64_t)pllm);
 8001652:	4b4a      	ldr	r3, [pc, #296]	@ (800177c <HAL_RCC_GetSysClockFreq+0x180>)
 8001654:	685b      	ldr	r3, [r3, #4]
 8001656:	099b      	lsrs	r3, r3, #6
 8001658:	2200      	movs	r2, #0
 800165a:	623b      	str	r3, [r7, #32]
 800165c:	627a      	str	r2, [r7, #36]	@ 0x24
 800165e:	6a3b      	ldr	r3, [r7, #32]
 8001660:	f3c3 0008 	ubfx	r0, r3, #0, #9
 8001664:	2100      	movs	r1, #0
 8001666:	4b47      	ldr	r3, [pc, #284]	@ (8001784 <HAL_RCC_GetSysClockFreq+0x188>)
 8001668:	fb03 f201 	mul.w	r2, r3, r1
 800166c:	2300      	movs	r3, #0
 800166e:	fb00 f303 	mul.w	r3, r0, r3
 8001672:	4413      	add	r3, r2
 8001674:	4a43      	ldr	r2, [pc, #268]	@ (8001784 <HAL_RCC_GetSysClockFreq+0x188>)
 8001676:	fba0 1202 	umull	r1, r2, r0, r2
 800167a:	62fa      	str	r2, [r7, #44]	@ 0x2c
 800167c:	460a      	mov	r2, r1
 800167e:	62ba      	str	r2, [r7, #40]	@ 0x28
 8001680:	6afa      	ldr	r2, [r7, #44]	@ 0x2c
 8001682:	4413      	add	r3, r2
 8001684:	62fb      	str	r3, [r7, #44]	@ 0x2c
 8001686:	6b7b      	ldr	r3, [r7, #52]	@ 0x34
 8001688:	2200      	movs	r2, #0
 800168a:	61bb      	str	r3, [r7, #24]
 800168c:	61fa      	str	r2, [r7, #28]
 800168e:	e9d7 2306 	ldrd	r2, r3, [r7, #24]
 8001692:	e9d7 010a 	ldrd	r0, r1, [r7, #40]	@ 0x28
 8001696:	f7fe fd9d 	bl	80001d4 <__aeabi_uldivmod>
 800169a:	4602      	mov	r2, r0
 800169c:	460b      	mov	r3, r1
 800169e:	4613      	mov	r3, r2
 80016a0:	63fb      	str	r3, [r7, #60]	@ 0x3c
 80016a2:	e053      	b.n	800174c <HAL_RCC_GetSysClockFreq+0x150>
      }
      else
      {
        /* HSI used as PLL clock source */
        pllvco = (uint32_t)((((uint64_t) HSI_VALUE * ((uint64_t)((RCC->PLLCFGR & RCC_PLLCFGR_PLLN) >> RCC_PLLCFGR_PLLN_Pos)))) / (uint64_t)pllm);
 80016a4:	4b35      	ldr	r3, [pc, #212]	@ (800177c <HAL_RCC_GetSysClockFreq+0x180>)
 80016a6:	685b      	ldr	r3, [r3, #4]
 80016a8:	099b      	lsrs	r3, r3, #6
 80016aa:	2200      	movs	r2, #0
 80016ac:	613b      	str	r3, [r7, #16]
 80016ae:	617a      	str	r2, [r7, #20]
 80016b0:	693b      	ldr	r3, [r7, #16]
 80016b2:	f3c3 0a08 	ubfx	sl, r3, #0, #9
 80016b6:	f04f 0b00 	mov.w	fp, #0
 80016ba:	4652      	mov	r2, sl
 80016bc:	465b      	mov	r3, fp
 80016be:	f04f 0000 	mov.w	r0, #0
 80016c2:	f04f 0100 	mov.w	r1, #0
 80016c6:	0159      	lsls	r1, r3, #5
 80016c8:	ea41 61d2 	orr.w	r1, r1, r2, lsr #27
 80016cc:	0150      	lsls	r0, r2, #5
 80016ce:	4602      	mov	r2, r0
 80016d0:	460b      	mov	r3, r1
 80016d2:	ebb2 080a 	subs.w	r8, r2, sl
 80016d6:	eb63 090b 	sbc.w	r9, r3, fp
 80016da:	f04f 0200 	mov.w	r2, #0
 80016de:	f04f 0300 	mov.w	r3, #0
 80016e2:	ea4f 1389 	mov.w	r3, r9, lsl #6
 80016e6:	ea43 6398 	orr.w	r3, r3, r8, lsr #26
 80016ea:	ea4f 1288 	mov.w	r2, r8, lsl #6
 80016ee:	ebb2 0408 	subs.w	r4, r2, r8
 80016f2:	eb63 0509 	sbc.w	r5, r3, r9
 80016f6:	f04f 0200 	mov.w	r2, #0
 80016fa:	f04f 0300 	mov.w	r3, #0
 80016fe:	00eb      	lsls	r3, r5, #3
 8001700:	ea43 7354 	orr.w	r3, r3, r4, lsr #29
 8001704:	00e2      	lsls	r2, r4, #3
 8001706:	4614      	mov	r4, r2
 8001708:	461d      	mov	r5, r3
 800170a:	eb14 030a 	adds.w	r3, r4, sl
 800170e:	603b      	str	r3, [r7, #0]
 8001710:	eb45 030b 	adc.w	r3, r5, fp
 8001714:	607b      	str	r3, [r7, #4]
 8001716:	f04f 0200 	mov.w	r2, #0
 800171a:	f04f 0300 	mov.w	r3, #0
 800171e:	e9d7 4500 	ldrd	r4, r5, [r7]
 8001722:	4629      	mov	r1, r5
 8001724:	028b      	lsls	r3, r1, #10
 8001726:	4621      	mov	r1, r4
 8001728:	ea43 5391 	orr.w	r3, r3, r1, lsr #22
 800172c:	4621      	mov	r1, r4
 800172e:	028a      	lsls	r2, r1, #10
 8001730:	4610      	mov	r0, r2
 8001732:	4619      	mov	r1, r3
 8001734:	6b7b      	ldr	r3, [r7, #52]	@ 0x34
 8001736:	2200      	movs	r2, #0
 8001738:	60bb      	str	r3, [r7, #8]
 800173a:	60fa      	str	r2, [r7, #12]
 800173c:	e9d7 2302 	ldrd	r2, r3, [r7, #8]
 8001740:	f7fe fd48 	bl	80001d4 <__aeabi_uldivmod>
 8001744:	4602      	mov	r2, r0
 8001746:	460b      	mov	r3, r1
 8001748:	4613      	mov	r3, r2
 800174a:	63fb      	str	r3, [r7, #60]	@ 0x3c
      }
      pllp = ((((RCC->PLLCFGR & RCC_PLLCFGR_PLLP) >> RCC_PLLCFGR_PLLP_Pos) + 1U) * 2U);
 800174c:	4b0b      	ldr	r3, [pc, #44]	@ (800177c <HAL_RCC_GetSysClockFreq+0x180>)
 800174e:	685b      	ldr	r3, [r3, #4]
 8001750:	0c1b      	lsrs	r3, r3, #16
 8001752:	f003 0303 	and.w	r3, r3, #3
 8001756:	3301      	adds	r3, #1
 8001758:	005b      	lsls	r3, r3, #1
 800175a:	633b      	str	r3, [r7, #48]	@ 0x30

      sysclockfreq = pllvco / pllp;
 800175c:	6bfa      	ldr	r2, [r7, #60]	@ 0x3c
 800175e:	6b3b      	ldr	r3, [r7, #48]	@ 0x30
 8001760:	fbb2 f3f3 	udiv	r3, r2, r3
 8001764:	63bb      	str	r3, [r7, #56]	@ 0x38
      break;
 8001766:	e002      	b.n	800176e <HAL_RCC_GetSysClockFreq+0x172>
    }
    default:
    {
      sysclockfreq = HSI_VALUE;
 8001768:	4b05      	ldr	r3, [pc, #20]	@ (8001780 <HAL_RCC_GetSysClockFreq+0x184>)
 800176a:	63bb      	str	r3, [r7, #56]	@ 0x38
      break;
 800176c:	bf00      	nop
    }
  }
  return sysclockfreq;
 800176e:	6bbb      	ldr	r3, [r7, #56]	@ 0x38
}
 8001770:	4618      	mov	r0, r3
 8001772:	3740      	adds	r7, #64	@ 0x40
 8001774:	46bd      	mov	sp, r7
 8001776:	e8bd 8fb0 	ldmia.w	sp!, {r4, r5, r7, r8, r9, sl, fp, pc}
 800177a:	bf00      	nop
 800177c:	40023800 	.word	0x40023800
 8001780:	00f42400 	.word	0x00f42400
 8001784:	017d7840 	.word	0x017d7840

08001788 <HAL_RCC_GetHCLKFreq>:
  * @note   The SystemCoreClock CMSIS variable is used to store System Clock Frequency
  *         and updated within this function
  * @retval HCLK frequency
  */
uint32_t HAL_RCC_GetHCLKFreq(void)
{
 8001788:	b480      	push	{r7}
 800178a:	af00      	add	r7, sp, #0
  return SystemCoreClock;
 800178c:	4b03      	ldr	r3, [pc, #12]	@ (800179c <HAL_RCC_GetHCLKFreq+0x14>)
 800178e:	681b      	ldr	r3, [r3, #0]
}
 8001790:	4618      	mov	r0, r3
 8001792:	46bd      	mov	sp, r7
 8001794:	f85d 7b04 	ldr.w	r7, [sp], #4
 8001798:	4770      	bx	lr
 800179a:	bf00      	nop
 800179c:	20000000 	.word	0x20000000

080017a0 <HAL_RCC_GetPCLK1Freq>:
  * @note   Each time PCLK1 changes, this function must be called to update the
  *         right PCLK1 value. Otherwise, any configuration based on this function will be incorrect.
  * @retval PCLK1 frequency
  */
uint32_t HAL_RCC_GetPCLK1Freq(void)
{
 80017a0:	b580      	push	{r7, lr}
 80017a2:	af00      	add	r7, sp, #0
  /* Get HCLK source and Compute PCLK1 frequency ---------------------------*/
  return (HAL_RCC_GetHCLKFreq() >> APBPrescTable[(RCC->CFGR & RCC_CFGR_PPRE1) >> RCC_CFGR_PPRE1_Pos]);
 80017a4:	f7ff fff0 	bl	8001788 <HAL_RCC_GetHCLKFreq>
 80017a8:	4602      	mov	r2, r0
 80017aa:	4b05      	ldr	r3, [pc, #20]	@ (80017c0 <HAL_RCC_GetPCLK1Freq+0x20>)
 80017ac:	689b      	ldr	r3, [r3, #8]
 80017ae:	0a9b      	lsrs	r3, r3, #10
 80017b0:	f003 0307 	and.w	r3, r3, #7
 80017b4:	4903      	ldr	r1, [pc, #12]	@ (80017c4 <HAL_RCC_GetPCLK1Freq+0x24>)
 80017b6:	5ccb      	ldrb	r3, [r1, r3]
 80017b8:	fa22 f303 	lsr.w	r3, r2, r3
}
 80017bc:	4618      	mov	r0, r3
 80017be:	bd80      	pop	{r7, pc}
 80017c0:	40023800 	.word	0x40023800
 80017c4:	0800208c 	.word	0x0800208c

080017c8 <HAL_RCC_GetPCLK2Freq>:
  * @note   Each time PCLK2 changes, this function must be called to update the
  *         right PCLK2 value. Otherwise, any configuration based on this function will be incorrect.
  * @retval PCLK2 frequency
  */
uint32_t HAL_RCC_GetPCLK2Freq(void)
{
 80017c8:	b580      	push	{r7, lr}
 80017ca:	af00      	add	r7, sp, #0
  /* Get HCLK source and Compute PCLK2 frequency ---------------------------*/
  return (HAL_RCC_GetHCLKFreq() >> APBPrescTable[(RCC->CFGR & RCC_CFGR_PPRE2) >> RCC_CFGR_PPRE2_Pos]);
 80017cc:	f7ff ffdc 	bl	8001788 <HAL_RCC_GetHCLKFreq>
 80017d0:	4602      	mov	r2, r0
 80017d2:	4b05      	ldr	r3, [pc, #20]	@ (80017e8 <HAL_RCC_GetPCLK2Freq+0x20>)
 80017d4:	689b      	ldr	r3, [r3, #8]
 80017d6:	0b5b      	lsrs	r3, r3, #13
 80017d8:	f003 0307 	and.w	r3, r3, #7
 80017dc:	4903      	ldr	r1, [pc, #12]	@ (80017ec <HAL_RCC_GetPCLK2Freq+0x24>)
 80017de:	5ccb      	ldrb	r3, [r1, r3]
 80017e0:	fa22 f303 	lsr.w	r3, r2, r3
}
 80017e4:	4618      	mov	r0, r3
 80017e6:	bd80      	pop	{r7, pc}
 80017e8:	40023800 	.word	0x40023800
 80017ec:	0800208c 	.word	0x0800208c

080017f0 <HAL_UART_Init>:
  * @param  huart  Pointer to a UART_HandleTypeDef structure that contains
  *                the configuration information for the specified UART module.
  * @retval HAL status
  */
HAL_StatusTypeDef HAL_UART_Init(UART_HandleTypeDef *huart)
{
 80017f0:	b580      	push	{r7, lr}
 80017f2:	b082      	sub	sp, #8
 80017f4:	af00      	add	r7, sp, #0
 80017f6:	6078      	str	r0, [r7, #4]
  /* Check the UART handle allocation */
  if (huart == NULL)
 80017f8:	687b      	ldr	r3, [r7, #4]
 80017fa:	2b00      	cmp	r3, #0
 80017fc:	d101      	bne.n	8001802 <HAL_UART_Init+0x12>
  {
    return HAL_ERROR;
 80017fe:	2301      	movs	r3, #1
 8001800:	e042      	b.n	8001888 <HAL_UART_Init+0x98>
    assert_param(IS_UART_INSTANCE(huart->Instance));
  }
  assert_param(IS_UART_WORD_LENGTH(huart->Init.WordLength));
  assert_param(IS_UART_OVERSAMPLING(huart->Init.OverSampling));

  if (huart->gState == HAL_UART_STATE_RESET)
 8001802:	687b      	ldr	r3, [r7, #4]
 8001804:	f893 3041 	ldrb.w	r3, [r3, #65]	@ 0x41
 8001808:	b2db      	uxtb	r3, r3
 800180a:	2b00      	cmp	r3, #0
 800180c:	d106      	bne.n	800181c <HAL_UART_Init+0x2c>
  {
    /* Allocate lock resource and initialize it */
    huart->Lock = HAL_UNLOCKED;
 800180e:	687b      	ldr	r3, [r7, #4]
 8001810:	2200      	movs	r2, #0
 8001812:	f883 2040 	strb.w	r2, [r3, #64]	@ 0x40

    /* Init the low level hardware */
    huart->MspInitCallback(huart);
#else
    /* Init the low level hardware : GPIO, CLOCK */
    HAL_UART_MspInit(huart);
 8001816:	6878      	ldr	r0, [r7, #4]
 8001818:	f7fe ffaa 	bl	8000770 <HAL_UART_MspInit>
#endif /* (USE_HAL_UART_REGISTER_CALLBACKS) */
  }

  huart->gState = HAL_UART_STATE_BUSY;
 800181c:	687b      	ldr	r3, [r7, #4]
 800181e:	2224      	movs	r2, #36	@ 0x24
 8001820:	f883 2041 	strb.w	r2, [r3, #65]	@ 0x41

  /* Disable the peripheral */
  __HAL_UART_DISABLE(huart);
 8001824:	687b      	ldr	r3, [r7, #4]
 8001826:	681b      	ldr	r3, [r3, #0]
 8001828:	68da      	ldr	r2, [r3, #12]
 800182a:	687b      	ldr	r3, [r7, #4]
 800182c:	681b      	ldr	r3, [r3, #0]
 800182e:	f422 5200 	bic.w	r2, r2, #8192	@ 0x2000
 8001832:	60da      	str	r2, [r3, #12]

  /* Set the UART Communication parameters */
  UART_SetConfig(huart);
 8001834:	6878      	ldr	r0, [r7, #4]
 8001836:	f000 f973 	bl	8001b20 <UART_SetConfig>

  /* In asynchronous mode, the following bits must be kept cleared:
     - LINEN and CLKEN bits in the USART_CR2 register,
     - SCEN, HDSEL and IREN  bits in the USART_CR3 register.*/
  CLEAR_BIT(huart->Instance->CR2, (USART_CR2_LINEN | USART_CR2_CLKEN));
 800183a:	687b      	ldr	r3, [r7, #4]
 800183c:	681b      	ldr	r3, [r3, #0]
 800183e:	691a      	ldr	r2, [r3, #16]
 8001840:	687b      	ldr	r3, [r7, #4]
 8001842:	681b      	ldr	r3, [r3, #0]
 8001844:	f422 4290 	bic.w	r2, r2, #18432	@ 0x4800
 8001848:	611a      	str	r2, [r3, #16]
  CLEAR_BIT(huart->Instance->CR3, (USART_CR3_SCEN | USART_CR3_HDSEL | USART_CR3_IREN));
 800184a:	687b      	ldr	r3, [r7, #4]
 800184c:	681b      	ldr	r3, [r3, #0]
 800184e:	695a      	ldr	r2, [r3, #20]
 8001850:	687b      	ldr	r3, [r7, #4]
 8001852:	681b      	ldr	r3, [r3, #0]
 8001854:	f022 022a 	bic.w	r2, r2, #42	@ 0x2a
 8001858:	615a      	str	r2, [r3, #20]

  /* Enable the peripheral */
  __HAL_UART_ENABLE(huart);
 800185a:	687b      	ldr	r3, [r7, #4]
 800185c:	681b      	ldr	r3, [r3, #0]
 800185e:	68da      	ldr	r2, [r3, #12]
 8001860:	687b      	ldr	r3, [r7, #4]
 8001862:	681b      	ldr	r3, [r3, #0]
 8001864:	f442 5200 	orr.w	r2, r2, #8192	@ 0x2000
 8001868:	60da      	str	r2, [r3, #12]

  /* Initialize the UART state */
  huart->ErrorCode = HAL_UART_ERROR_NONE;
 800186a:	687b      	ldr	r3, [r7, #4]
 800186c:	2200      	movs	r2, #0
 800186e:	645a      	str	r2, [r3, #68]	@ 0x44
  huart->gState = HAL_UART_STATE_READY;
 8001870:	687b      	ldr	r3, [r7, #4]
 8001872:	2220      	movs	r2, #32
 8001874:	f883 2041 	strb.w	r2, [r3, #65]	@ 0x41
  huart->RxState = HAL_UART_STATE_READY;
 8001878:	687b      	ldr	r3, [r7, #4]
 800187a:	2220      	movs	r2, #32
 800187c:	f883 2042 	strb.w	r2, [r3, #66]	@ 0x42
  huart->RxEventType = HAL_UART_RXEVENT_TC;
 8001880:	687b      	ldr	r3, [r7, #4]
 8001882:	2200      	movs	r2, #0
 8001884:	635a      	str	r2, [r3, #52]	@ 0x34

  return HAL_OK;
 8001886:	2300      	movs	r3, #0
}
 8001888:	4618      	mov	r0, r3
 800188a:	3708      	adds	r7, #8
 800188c:	46bd      	mov	sp, r7
 800188e:	bd80      	pop	{r7, pc}

08001890 <HAL_UART_Transmit>:
  * @param  Size  Amount of data elements (u8 or u16) to be sent
  * @param  Timeout Timeout duration
  * @retval HAL status
  */
HAL_StatusTypeDef HAL_UART_Transmit(UART_HandleTypeDef *huart, const uint8_t *pData, uint16_t Size, uint32_t Timeout)
{
 8001890:	b580      	push	{r7, lr}
 8001892:	b08a      	sub	sp, #40	@ 0x28
 8001894:	af02      	add	r7, sp, #8
 8001896:	60f8      	str	r0, [r7, #12]
 8001898:	60b9      	str	r1, [r7, #8]
 800189a:	603b      	str	r3, [r7, #0]
 800189c:	4613      	mov	r3, r2
 800189e:	80fb      	strh	r3, [r7, #6]
  const uint8_t  *pdata8bits;
  const uint16_t *pdata16bits;
  uint32_t tickstart = 0U;
 80018a0:	2300      	movs	r3, #0
 80018a2:	617b      	str	r3, [r7, #20]

  /* Check that a Tx process is not already ongoing */
  if (huart->gState == HAL_UART_STATE_READY)
 80018a4:	68fb      	ldr	r3, [r7, #12]
 80018a6:	f893 3041 	ldrb.w	r3, [r3, #65]	@ 0x41
 80018aa:	b2db      	uxtb	r3, r3
 80018ac:	2b20      	cmp	r3, #32
 80018ae:	d175      	bne.n	800199c <HAL_UART_Transmit+0x10c>
  {
    if ((pData == NULL) || (Size == 0U))
 80018b0:	68bb      	ldr	r3, [r7, #8]
 80018b2:	2b00      	cmp	r3, #0
 80018b4:	d002      	beq.n	80018bc <HAL_UART_Transmit+0x2c>
 80018b6:	88fb      	ldrh	r3, [r7, #6]
 80018b8:	2b00      	cmp	r3, #0
 80018ba:	d101      	bne.n	80018c0 <HAL_UART_Transmit+0x30>
    {
      return  HAL_ERROR;
 80018bc:	2301      	movs	r3, #1
 80018be:	e06e      	b.n	800199e <HAL_UART_Transmit+0x10e>
    }

    huart->ErrorCode = HAL_UART_ERROR_NONE;
 80018c0:	68fb      	ldr	r3, [r7, #12]
 80018c2:	2200      	movs	r2, #0
 80018c4:	645a      	str	r2, [r3, #68]	@ 0x44
    huart->gState = HAL_UART_STATE_BUSY_TX;
 80018c6:	68fb      	ldr	r3, [r7, #12]
 80018c8:	2221      	movs	r2, #33	@ 0x21
 80018ca:	f883 2041 	strb.w	r2, [r3, #65]	@ 0x41

    /* Init tickstart for timeout management */
    tickstart = HAL_GetTick();
 80018ce:	f7ff f869 	bl	80009a4 <HAL_GetTick>
 80018d2:	6178      	str	r0, [r7, #20]

    huart->TxXferSize = Size;
 80018d4:	68fb      	ldr	r3, [r7, #12]
 80018d6:	88fa      	ldrh	r2, [r7, #6]
 80018d8:	849a      	strh	r2, [r3, #36]	@ 0x24
    huart->TxXferCount = Size;
 80018da:	68fb      	ldr	r3, [r7, #12]
 80018dc:	88fa      	ldrh	r2, [r7, #6]
 80018de:	84da      	strh	r2, [r3, #38]	@ 0x26

    /* In case of 9bits/No Parity transfer, pData needs to be handled as a uint16_t pointer */
    if ((huart->Init.WordLength == UART_WORDLENGTH_9B) && (huart->Init.Parity == UART_PARITY_NONE))
 80018e0:	68fb      	ldr	r3, [r7, #12]
 80018e2:	689b      	ldr	r3, [r3, #8]
 80018e4:	f5b3 5f80 	cmp.w	r3, #4096	@ 0x1000
 80018e8:	d108      	bne.n	80018fc <HAL_UART_Transmit+0x6c>
 80018ea:	68fb      	ldr	r3, [r7, #12]
 80018ec:	691b      	ldr	r3, [r3, #16]
 80018ee:	2b00      	cmp	r3, #0
 80018f0:	d104      	bne.n	80018fc <HAL_UART_Transmit+0x6c>
    {
      pdata8bits  = NULL;
 80018f2:	2300      	movs	r3, #0
 80018f4:	61fb      	str	r3, [r7, #28]
      pdata16bits = (const uint16_t *) pData;
 80018f6:	68bb      	ldr	r3, [r7, #8]
 80018f8:	61bb      	str	r3, [r7, #24]
 80018fa:	e003      	b.n	8001904 <HAL_UART_Transmit+0x74>
    }
    else
    {
      pdata8bits  = pData;
 80018fc:	68bb      	ldr	r3, [r7, #8]
 80018fe:	61fb      	str	r3, [r7, #28]
      pdata16bits = NULL;
 8001900:	2300      	movs	r3, #0
 8001902:	61bb      	str	r3, [r7, #24]
    }

    while (huart->TxXferCount > 0U)
 8001904:	e02e      	b.n	8001964 <HAL_UART_Transmit+0xd4>
    {
      if (UART_WaitOnFlagUntilTimeout(huart, UART_FLAG_TXE, RESET, tickstart, Timeout) != HAL_OK)
 8001906:	683b      	ldr	r3, [r7, #0]
 8001908:	9300      	str	r3, [sp, #0]
 800190a:	697b      	ldr	r3, [r7, #20]
 800190c:	2200      	movs	r2, #0
 800190e:	2180      	movs	r1, #128	@ 0x80
 8001910:	68f8      	ldr	r0, [r7, #12]
 8001912:	f000 f848 	bl	80019a6 <UART_WaitOnFlagUntilTimeout>
 8001916:	4603      	mov	r3, r0
 8001918:	2b00      	cmp	r3, #0
 800191a:	d005      	beq.n	8001928 <HAL_UART_Transmit+0x98>
      {
        huart->gState = HAL_UART_STATE_READY;
 800191c:	68fb      	ldr	r3, [r7, #12]
 800191e:	2220      	movs	r2, #32
 8001920:	f883 2041 	strb.w	r2, [r3, #65]	@ 0x41

        return HAL_TIMEOUT;
 8001924:	2303      	movs	r3, #3
 8001926:	e03a      	b.n	800199e <HAL_UART_Transmit+0x10e>
      }
      if (pdata8bits == NULL)
 8001928:	69fb      	ldr	r3, [r7, #28]
 800192a:	2b00      	cmp	r3, #0
 800192c:	d10b      	bne.n	8001946 <HAL_UART_Transmit+0xb6>
      {
        huart->Instance->DR = (uint16_t)(*pdata16bits & 0x01FFU);
 800192e:	69bb      	ldr	r3, [r7, #24]
 8001930:	881b      	ldrh	r3, [r3, #0]
 8001932:	461a      	mov	r2, r3
 8001934:	68fb      	ldr	r3, [r7, #12]
 8001936:	681b      	ldr	r3, [r3, #0]
 8001938:	f3c2 0208 	ubfx	r2, r2, #0, #9
 800193c:	605a      	str	r2, [r3, #4]
        pdata16bits++;
 800193e:	69bb      	ldr	r3, [r7, #24]
 8001940:	3302      	adds	r3, #2
 8001942:	61bb      	str	r3, [r7, #24]
 8001944:	e007      	b.n	8001956 <HAL_UART_Transmit+0xc6>
      }
      else
      {
        huart->Instance->DR = (uint8_t)(*pdata8bits & 0xFFU);
 8001946:	69fb      	ldr	r3, [r7, #28]
 8001948:	781a      	ldrb	r2, [r3, #0]
 800194a:	68fb      	ldr	r3, [r7, #12]
 800194c:	681b      	ldr	r3, [r3, #0]
 800194e:	605a      	str	r2, [r3, #4]
        pdata8bits++;
 8001950:	69fb      	ldr	r3, [r7, #28]
 8001952:	3301      	adds	r3, #1
 8001954:	61fb      	str	r3, [r7, #28]
      }
      huart->TxXferCount--;
 8001956:	68fb      	ldr	r3, [r7, #12]
 8001958:	8cdb      	ldrh	r3, [r3, #38]	@ 0x26
 800195a:	b29b      	uxth	r3, r3
 800195c:	3b01      	subs	r3, #1
 800195e:	b29a      	uxth	r2, r3
 8001960:	68fb      	ldr	r3, [r7, #12]
 8001962:	84da      	strh	r2, [r3, #38]	@ 0x26
    while (huart->TxXferCount > 0U)
 8001964:	68fb      	ldr	r3, [r7, #12]
 8001966:	8cdb      	ldrh	r3, [r3, #38]	@ 0x26
 8001968:	b29b      	uxth	r3, r3
 800196a:	2b00      	cmp	r3, #0
 800196c:	d1cb      	bne.n	8001906 <HAL_UART_Transmit+0x76>
    }

    if (UART_WaitOnFlagUntilTimeout(huart, UART_FLAG_TC, RESET, tickstart, Timeout) != HAL_OK)
 800196e:	683b      	ldr	r3, [r7, #0]
 8001970:	9300      	str	r3, [sp, #0]
 8001972:	697b      	ldr	r3, [r7, #20]
 8001974:	2200      	movs	r2, #0
 8001976:	2140      	movs	r1, #64	@ 0x40
 8001978:	68f8      	ldr	r0, [r7, #12]
 800197a:	f000 f814 	bl	80019a6 <UART_WaitOnFlagUntilTimeout>
 800197e:	4603      	mov	r3, r0
 8001980:	2b00      	cmp	r3, #0
 8001982:	d005      	beq.n	8001990 <HAL_UART_Transmit+0x100>
    {
      huart->gState = HAL_UART_STATE_READY;
 8001984:	68fb      	ldr	r3, [r7, #12]
 8001986:	2220      	movs	r2, #32
 8001988:	f883 2041 	strb.w	r2, [r3, #65]	@ 0x41

      return HAL_TIMEOUT;
 800198c:	2303      	movs	r3, #3
 800198e:	e006      	b.n	800199e <HAL_UART_Transmit+0x10e>
    }

    /* At end of Tx process, restore huart->gState to Ready */
    huart->gState = HAL_UART_STATE_READY;
 8001990:	68fb      	ldr	r3, [r7, #12]
 8001992:	2220      	movs	r2, #32
 8001994:	f883 2041 	strb.w	r2, [r3, #65]	@ 0x41

    return HAL_OK;
 8001998:	2300      	movs	r3, #0
 800199a:	e000      	b.n	800199e <HAL_UART_Transmit+0x10e>
  }
  else
  {
    return HAL_BUSY;
 800199c:	2302      	movs	r3, #2
  }
}
 800199e:	4618      	mov	r0, r3
 80019a0:	3720      	adds	r7, #32
 80019a2:	46bd      	mov	sp, r7
 80019a4:	bd80      	pop	{r7, pc}

080019a6 <UART_WaitOnFlagUntilTimeout>:
  * @param  Timeout Timeout duration
  * @retval HAL status
  */
static HAL_StatusTypeDef UART_WaitOnFlagUntilTimeout(UART_HandleTypeDef *huart, uint32_t Flag, FlagStatus Status,
                                                     uint32_t Tickstart, uint32_t Timeout)
{
 80019a6:	b580      	push	{r7, lr}
 80019a8:	b086      	sub	sp, #24
 80019aa:	af00      	add	r7, sp, #0
 80019ac:	60f8      	str	r0, [r7, #12]
 80019ae:	60b9      	str	r1, [r7, #8]
 80019b0:	603b      	str	r3, [r7, #0]
 80019b2:	4613      	mov	r3, r2
 80019b4:	71fb      	strb	r3, [r7, #7]
  /* Wait until flag is set */
  while ((__HAL_UART_GET_FLAG(huart, Flag) ? SET : RESET) == Status)
 80019b6:	e03b      	b.n	8001a30 <UART_WaitOnFlagUntilTimeout+0x8a>
  {
    /* Check for the Timeout */
    if (Timeout != HAL_MAX_DELAY)
 80019b8:	6a3b      	ldr	r3, [r7, #32]
 80019ba:	f1b3 3fff 	cmp.w	r3, #4294967295
 80019be:	d037      	beq.n	8001a30 <UART_WaitOnFlagUntilTimeout+0x8a>
    {
      if (((HAL_GetTick() - Tickstart) > Timeout) || (Timeout == 0U))
 80019c0:	f7fe fff0 	bl	80009a4 <HAL_GetTick>
 80019c4:	4602      	mov	r2, r0
 80019c6:	683b      	ldr	r3, [r7, #0]
 80019c8:	1ad3      	subs	r3, r2, r3
 80019ca:	6a3a      	ldr	r2, [r7, #32]
 80019cc:	429a      	cmp	r2, r3
 80019ce:	d302      	bcc.n	80019d6 <UART_WaitOnFlagUntilTimeout+0x30>
 80019d0:	6a3b      	ldr	r3, [r7, #32]
 80019d2:	2b00      	cmp	r3, #0
 80019d4:	d101      	bne.n	80019da <UART_WaitOnFlagUntilTimeout+0x34>
      {

        return HAL_TIMEOUT;
 80019d6:	2303      	movs	r3, #3
 80019d8:	e03a      	b.n	8001a50 <UART_WaitOnFlagUntilTimeout+0xaa>
      }

      if ((READ_BIT(huart->Instance->CR1, USART_CR1_RE) != 0U) && (Flag != UART_FLAG_TXE) && (Flag != UART_FLAG_TC))
 80019da:	68fb      	ldr	r3, [r7, #12]
 80019dc:	681b      	ldr	r3, [r3, #0]
 80019de:	68db      	ldr	r3, [r3, #12]
 80019e0:	f003 0304 	and.w	r3, r3, #4
 80019e4:	2b00      	cmp	r3, #0
 80019e6:	d023      	beq.n	8001a30 <UART_WaitOnFlagUntilTimeout+0x8a>
 80019e8:	68bb      	ldr	r3, [r7, #8]
 80019ea:	2b80      	cmp	r3, #128	@ 0x80
 80019ec:	d020      	beq.n	8001a30 <UART_WaitOnFlagUntilTimeout+0x8a>
 80019ee:	68bb      	ldr	r3, [r7, #8]
 80019f0:	2b40      	cmp	r3, #64	@ 0x40
 80019f2:	d01d      	beq.n	8001a30 <UART_WaitOnFlagUntilTimeout+0x8a>
      {
        if (__HAL_UART_GET_FLAG(huart, UART_FLAG_ORE) == SET)
 80019f4:	68fb      	ldr	r3, [r7, #12]
 80019f6:	681b      	ldr	r3, [r3, #0]
 80019f8:	681b      	ldr	r3, [r3, #0]
 80019fa:	f003 0308 	and.w	r3, r3, #8
 80019fe:	2b08      	cmp	r3, #8
 8001a00:	d116      	bne.n	8001a30 <UART_WaitOnFlagUntilTimeout+0x8a>
        {
          /* Clear Overrun Error flag*/
          __HAL_UART_CLEAR_OREFLAG(huart);
 8001a02:	2300      	movs	r3, #0
 8001a04:	617b      	str	r3, [r7, #20]
 8001a06:	68fb      	ldr	r3, [r7, #12]
 8001a08:	681b      	ldr	r3, [r3, #0]
 8001a0a:	681b      	ldr	r3, [r3, #0]
 8001a0c:	617b      	str	r3, [r7, #20]
 8001a0e:	68fb      	ldr	r3, [r7, #12]
 8001a10:	681b      	ldr	r3, [r3, #0]
 8001a12:	685b      	ldr	r3, [r3, #4]
 8001a14:	617b      	str	r3, [r7, #20]
 8001a16:	697b      	ldr	r3, [r7, #20]

          /* Blocking error : transfer is aborted
          Set the UART state ready to be able to start again the process,
          Disable Rx Interrupts if ongoing */
          UART_EndRxTransfer(huart);
 8001a18:	68f8      	ldr	r0, [r7, #12]
 8001a1a:	f000 f81d 	bl	8001a58 <UART_EndRxTransfer>

          huart->ErrorCode = HAL_UART_ERROR_ORE;
 8001a1e:	68fb      	ldr	r3, [r7, #12]
 8001a20:	2208      	movs	r2, #8
 8001a22:	645a      	str	r2, [r3, #68]	@ 0x44

          /* Process Unlocked */
          __HAL_UNLOCK(huart);
 8001a24:	68fb      	ldr	r3, [r7, #12]
 8001a26:	2200      	movs	r2, #0
 8001a28:	f883 2040 	strb.w	r2, [r3, #64]	@ 0x40

          return HAL_ERROR;
 8001a2c:	2301      	movs	r3, #1
 8001a2e:	e00f      	b.n	8001a50 <UART_WaitOnFlagUntilTimeout+0xaa>
  while ((__HAL_UART_GET_FLAG(huart, Flag) ? SET : RESET) == Status)
 8001a30:	68fb      	ldr	r3, [r7, #12]
 8001a32:	681b      	ldr	r3, [r3, #0]
 8001a34:	681a      	ldr	r2, [r3, #0]
 8001a36:	68bb      	ldr	r3, [r7, #8]
 8001a38:	4013      	ands	r3, r2
 8001a3a:	68ba      	ldr	r2, [r7, #8]
 8001a3c:	429a      	cmp	r2, r3
 8001a3e:	bf0c      	ite	eq
 8001a40:	2301      	moveq	r3, #1
 8001a42:	2300      	movne	r3, #0
 8001a44:	b2db      	uxtb	r3, r3
 8001a46:	461a      	mov	r2, r3
 8001a48:	79fb      	ldrb	r3, [r7, #7]
 8001a4a:	429a      	cmp	r2, r3
 8001a4c:	d0b4      	beq.n	80019b8 <UART_WaitOnFlagUntilTimeout+0x12>
        }
      }
    }
  }
  return HAL_OK;
 8001a4e:	2300      	movs	r3, #0
}
 8001a50:	4618      	mov	r0, r3
 8001a52:	3718      	adds	r7, #24
 8001a54:	46bd      	mov	sp, r7
 8001a56:	bd80      	pop	{r7, pc}

08001a58 <UART_EndRxTransfer>:
  * @brief  End ongoing Rx transfer on UART peripheral (following error detection or Reception completion).
  * @param  huart UART handle.
  * @retval None
  */
static void UART_EndRxTransfer(UART_HandleTypeDef *huart)
{
 8001a58:	b480      	push	{r7}
 8001a5a:	b095      	sub	sp, #84	@ 0x54
 8001a5c:	af00      	add	r7, sp, #0
 8001a5e:	6078      	str	r0, [r7, #4]
  /* Disable RXNE, PE and ERR (Frame error, noise error, overrun error) interrupts */
  ATOMIC_CLEAR_BIT(huart->Instance->CR1, (USART_CR1_RXNEIE | USART_CR1_PEIE));
 8001a60:	687b      	ldr	r3, [r7, #4]
 8001a62:	681b      	ldr	r3, [r3, #0]
 8001a64:	330c      	adds	r3, #12
 8001a66:	637b      	str	r3, [r7, #52]	@ 0x34
   __ASM volatile ("ldrex %0, %1" : "=r" (result) : "Q" (*addr) );
 8001a68:	6b7b      	ldr	r3, [r7, #52]	@ 0x34
 8001a6a:	e853 3f00 	ldrex	r3, [r3]
 8001a6e:	633b      	str	r3, [r7, #48]	@ 0x30
   return(result);
 8001a70:	6b3b      	ldr	r3, [r7, #48]	@ 0x30
 8001a72:	f423 7390 	bic.w	r3, r3, #288	@ 0x120
 8001a76:	64fb      	str	r3, [r7, #76]	@ 0x4c
 8001a78:	687b      	ldr	r3, [r7, #4]
 8001a7a:	681b      	ldr	r3, [r3, #0]
 8001a7c:	330c      	adds	r3, #12
 8001a7e:	6cfa      	ldr	r2, [r7, #76]	@ 0x4c
 8001a80:	643a      	str	r2, [r7, #64]	@ 0x40
 8001a82:	63fb      	str	r3, [r7, #60]	@ 0x3c
   __ASM volatile ("strex %0, %2, %1" : "=&r" (result), "=Q" (*addr) : "r" (value) );
 8001a84:	6bf9      	ldr	r1, [r7, #60]	@ 0x3c
 8001a86:	6c3a      	ldr	r2, [r7, #64]	@ 0x40
 8001a88:	e841 2300 	strex	r3, r2, [r1]
 8001a8c:	63bb      	str	r3, [r7, #56]	@ 0x38
   return(result);
 8001a8e:	6bbb      	ldr	r3, [r7, #56]	@ 0x38
 8001a90:	2b00      	cmp	r3, #0
 8001a92:	d1e5      	bne.n	8001a60 <UART_EndRxTransfer+0x8>
  ATOMIC_CLEAR_BIT(huart->Instance->CR3, USART_CR3_EIE);
 8001a94:	687b      	ldr	r3, [r7, #4]
 8001a96:	681b      	ldr	r3, [r3, #0]
 8001a98:	3314      	adds	r3, #20
 8001a9a:	623b      	str	r3, [r7, #32]
   __ASM volatile ("ldrex %0, %1" : "=r" (result) : "Q" (*addr) );
 8001a9c:	6a3b      	ldr	r3, [r7, #32]
 8001a9e:	e853 3f00 	ldrex	r3, [r3]
 8001aa2:	61fb      	str	r3, [r7, #28]
   return(result);
 8001aa4:	69fb      	ldr	r3, [r7, #28]
 8001aa6:	f023 0301 	bic.w	r3, r3, #1
 8001aaa:	64bb      	str	r3, [r7, #72]	@ 0x48
 8001aac:	687b      	ldr	r3, [r7, #4]
 8001aae:	681b      	ldr	r3, [r3, #0]
 8001ab0:	3314      	adds	r3, #20
 8001ab2:	6cba      	ldr	r2, [r7, #72]	@ 0x48
 8001ab4:	62fa      	str	r2, [r7, #44]	@ 0x2c
 8001ab6:	62bb      	str	r3, [r7, #40]	@ 0x28
   __ASM volatile ("strex %0, %2, %1" : "=&r" (result), "=Q" (*addr) : "r" (value) );
 8001ab8:	6ab9      	ldr	r1, [r7, #40]	@ 0x28
 8001aba:	6afa      	ldr	r2, [r7, #44]	@ 0x2c
 8001abc:	e841 2300 	strex	r3, r2, [r1]
 8001ac0:	627b      	str	r3, [r7, #36]	@ 0x24
   return(result);
 8001ac2:	6a7b      	ldr	r3, [r7, #36]	@ 0x24
 8001ac4:	2b00      	cmp	r3, #0
 8001ac6:	d1e5      	bne.n	8001a94 <UART_EndRxTransfer+0x3c>

  /* In case of reception waiting for IDLE event, disable also the IDLE IE interrupt source */
  if (huart->ReceptionType == HAL_UART_RECEPTION_TOIDLE)
 8001ac8:	687b      	ldr	r3, [r7, #4]
 8001aca:	6b1b      	ldr	r3, [r3, #48]	@ 0x30
 8001acc:	2b01      	cmp	r3, #1
 8001ace:	d119      	bne.n	8001b04 <UART_EndRxTransfer+0xac>
  {
    ATOMIC_CLEAR_BIT(huart->Instance->CR1, USART_CR1_IDLEIE);
 8001ad0:	687b      	ldr	r3, [r7, #4]
 8001ad2:	681b      	ldr	r3, [r3, #0]
 8001ad4:	330c      	adds	r3, #12
 8001ad6:	60fb      	str	r3, [r7, #12]
   __ASM volatile ("ldrex %0, %1" : "=r" (result) : "Q" (*addr) );
 8001ad8:	68fb      	ldr	r3, [r7, #12]
 8001ada:	e853 3f00 	ldrex	r3, [r3]
 8001ade:	60bb      	str	r3, [r7, #8]
   return(result);
 8001ae0:	68bb      	ldr	r3, [r7, #8]
 8001ae2:	f023 0310 	bic.w	r3, r3, #16
 8001ae6:	647b      	str	r3, [r7, #68]	@ 0x44
 8001ae8:	687b      	ldr	r3, [r7, #4]
 8001aea:	681b      	ldr	r3, [r3, #0]
 8001aec:	330c      	adds	r3, #12
 8001aee:	6c7a      	ldr	r2, [r7, #68]	@ 0x44
 8001af0:	61ba      	str	r2, [r7, #24]
 8001af2:	617b      	str	r3, [r7, #20]
   __ASM volatile ("strex %0, %2, %1" : "=&r" (result), "=Q" (*addr) : "r" (value) );
 8001af4:	6979      	ldr	r1, [r7, #20]
 8001af6:	69ba      	ldr	r2, [r7, #24]
 8001af8:	e841 2300 	strex	r3, r2, [r1]
 8001afc:	613b      	str	r3, [r7, #16]
   return(result);
 8001afe:	693b      	ldr	r3, [r7, #16]
 8001b00:	2b00      	cmp	r3, #0
 8001b02:	d1e5      	bne.n	8001ad0 <UART_EndRxTransfer+0x78>
  }

  /* At end of Rx process, restore huart->RxState to Ready */
  huart->RxState = HAL_UART_STATE_READY;
 8001b04:	687b      	ldr	r3, [r7, #4]
 8001b06:	2220      	movs	r2, #32
 8001b08:	f883 2042 	strb.w	r2, [r3, #66]	@ 0x42
  huart->ReceptionType = HAL_UART_RECEPTION_STANDARD;
 8001b0c:	687b      	ldr	r3, [r7, #4]
 8001b0e:	2200      	movs	r2, #0
 8001b10:	631a      	str	r2, [r3, #48]	@ 0x30
}
 8001b12:	bf00      	nop
 8001b14:	3754      	adds	r7, #84	@ 0x54
 8001b16:	46bd      	mov	sp, r7
 8001b18:	f85d 7b04 	ldr.w	r7, [sp], #4
 8001b1c:	4770      	bx	lr
	...

08001b20 <UART_SetConfig>:
  * @param  huart  Pointer to a UART_HandleTypeDef structure that contains
  *                the configuration information for the specified UART module.
  * @retval None
  */
static void UART_SetConfig(UART_HandleTypeDef *huart)
{
 8001b20:	e92d 4fb0 	stmdb	sp!, {r4, r5, r7, r8, r9, sl, fp, lr}
 8001b24:	b0c0      	sub	sp, #256	@ 0x100
 8001b26:	af00      	add	r7, sp, #0
 8001b28:	f8c7 00f4 	str.w	r0, [r7, #244]	@ 0xf4
  assert_param(IS_UART_MODE(huart->Init.Mode));

  /*-------------------------- USART CR2 Configuration -----------------------*/
  /* Configure the UART Stop Bits: Set STOP[13:12] bits
     according to huart->Init.StopBits value */
  MODIFY_REG(huart->Instance->CR2, USART_CR2_STOP, huart->Init.StopBits);
 8001b2c:	f8d7 30f4 	ldr.w	r3, [r7, #244]	@ 0xf4
 8001b30:	681b      	ldr	r3, [r3, #0]
 8001b32:	691b      	ldr	r3, [r3, #16]
 8001b34:	f423 5040 	bic.w	r0, r3, #12288	@ 0x3000
 8001b38:	f8d7 30f4 	ldr.w	r3, [r7, #244]	@ 0xf4
 8001b3c:	68d9      	ldr	r1, [r3, #12]
 8001b3e:	f8d7 30f4 	ldr.w	r3, [r7, #244]	@ 0xf4
 8001b42:	681a      	ldr	r2, [r3, #0]
 8001b44:	ea40 0301 	orr.w	r3, r0, r1
 8001b48:	6113      	str	r3, [r2, #16]
     Set the M bits according to huart->Init.WordLength value
     Set PCE and PS bits according to huart->Init.Parity value
     Set TE and RE bits according to huart->Init.Mode value
     Set OVER8 bit according to huart->Init.OverSampling value */

  tmpreg = (uint32_t)huart->Init.WordLength | huart->Init.Parity | huart->Init.Mode | huart->Init.OverSampling;
 8001b4a:	f8d7 30f4 	ldr.w	r3, [r7, #244]	@ 0xf4
 8001b4e:	689a      	ldr	r2, [r3, #8]
 8001b50:	f8d7 30f4 	ldr.w	r3, [r7, #244]	@ 0xf4
 8001b54:	691b      	ldr	r3, [r3, #16]
 8001b56:	431a      	orrs	r2, r3
 8001b58:	f8d7 30f4 	ldr.w	r3, [r7, #244]	@ 0xf4
 8001b5c:	695b      	ldr	r3, [r3, #20]
 8001b5e:	431a      	orrs	r2, r3
 8001b60:	f8d7 30f4 	ldr.w	r3, [r7, #244]	@ 0xf4
 8001b64:	69db      	ldr	r3, [r3, #28]
 8001b66:	4313      	orrs	r3, r2
 8001b68:	f8c7 30f8 	str.w	r3, [r7, #248]	@ 0xf8
  MODIFY_REG(huart->Instance->CR1,
 8001b6c:	f8d7 30f4 	ldr.w	r3, [r7, #244]	@ 0xf4
 8001b70:	681b      	ldr	r3, [r3, #0]
 8001b72:	68db      	ldr	r3, [r3, #12]
 8001b74:	f423 4116 	bic.w	r1, r3, #38400	@ 0x9600
 8001b78:	f021 010c 	bic.w	r1, r1, #12
 8001b7c:	f8d7 30f4 	ldr.w	r3, [r7, #244]	@ 0xf4
 8001b80:	681a      	ldr	r2, [r3, #0]
 8001b82:	f8d7 30f8 	ldr.w	r3, [r7, #248]	@ 0xf8
 8001b86:	430b      	orrs	r3, r1
 8001b88:	60d3      	str	r3, [r2, #12]
             (uint32_t)(USART_CR1_M | USART_CR1_PCE | USART_CR1_PS | USART_CR1_TE | USART_CR1_RE | USART_CR1_OVER8),
             tmpreg);

  /*-------------------------- USART CR3 Configuration -----------------------*/
  /* Configure the UART HFC: Set CTSE and RTSE bits according to huart->Init.HwFlowCtl value */
  MODIFY_REG(huart->Instance->CR3, (USART_CR3_RTSE | USART_CR3_CTSE), huart->Init.HwFlowCtl);
 8001b8a:	f8d7 30f4 	ldr.w	r3, [r7, #244]	@ 0xf4
 8001b8e:	681b      	ldr	r3, [r3, #0]
 8001b90:	695b      	ldr	r3, [r3, #20]
 8001b92:	f423 7040 	bic.w	r0, r3, #768	@ 0x300
 8001b96:	f8d7 30f4 	ldr.w	r3, [r7, #244]	@ 0xf4
 8001b9a:	6999      	ldr	r1, [r3, #24]
 8001b9c:	f8d7 30f4 	ldr.w	r3, [r7, #244]	@ 0xf4
 8001ba0:	681a      	ldr	r2, [r3, #0]
 8001ba2:	ea40 0301 	orr.w	r3, r0, r1
 8001ba6:	6153      	str	r3, [r2, #20]
    if ((huart->Instance == USART1) || (huart->Instance == USART6) || (huart->Instance == UART9) || (huart->Instance == UART10))
    {
      pclk = HAL_RCC_GetPCLK2Freq();
    }
#elif defined(USART6)
    if ((huart->Instance == USART1) || (huart->Instance == USART6))
 8001ba8:	f8d7 30f4 	ldr.w	r3, [r7, #244]	@ 0xf4
 8001bac:	681a      	ldr	r2, [r3, #0]
 8001bae:	4b8f      	ldr	r3, [pc, #572]	@ (8001dec <UART_SetConfig+0x2cc>)
 8001bb0:	429a      	cmp	r2, r3
 8001bb2:	d005      	beq.n	8001bc0 <UART_SetConfig+0xa0>
 8001bb4:	f8d7 30f4 	ldr.w	r3, [r7, #244]	@ 0xf4
 8001bb8:	681a      	ldr	r2, [r3, #0]
 8001bba:	4b8d      	ldr	r3, [pc, #564]	@ (8001df0 <UART_SetConfig+0x2d0>)
 8001bbc:	429a      	cmp	r2, r3
 8001bbe:	d104      	bne.n	8001bca <UART_SetConfig+0xaa>
    {
      pclk = HAL_RCC_GetPCLK2Freq();
 8001bc0:	f7ff fe02 	bl	80017c8 <HAL_RCC_GetPCLK2Freq>
 8001bc4:	f8c7 00fc 	str.w	r0, [r7, #252]	@ 0xfc
 8001bc8:	e003      	b.n	8001bd2 <UART_SetConfig+0xb2>
      pclk = HAL_RCC_GetPCLK2Freq();
    }
#endif /* USART6 */
    else
    {
      pclk = HAL_RCC_GetPCLK1Freq();
 8001bca:	f7ff fde9 	bl	80017a0 <HAL_RCC_GetPCLK1Freq>
 8001bce:	f8c7 00fc 	str.w	r0, [r7, #252]	@ 0xfc
    }
  /*-------------------------- USART BRR Configuration ---------------------*/
  if (huart->Init.OverSampling == UART_OVERSAMPLING_8)
 8001bd2:	f8d7 30f4 	ldr.w	r3, [r7, #244]	@ 0xf4
 8001bd6:	69db      	ldr	r3, [r3, #28]
 8001bd8:	f5b3 4f00 	cmp.w	r3, #32768	@ 0x8000
 8001bdc:	f040 810c 	bne.w	8001df8 <UART_SetConfig+0x2d8>
  {
    huart->Instance->BRR = UART_BRR_SAMPLING8(pclk, huart->Init.BaudRate);
 8001be0:	f8d7 30fc 	ldr.w	r3, [r7, #252]	@ 0xfc
 8001be4:	2200      	movs	r2, #0
 8001be6:	f8c7 30e8 	str.w	r3, [r7, #232]	@ 0xe8
 8001bea:	f8c7 20ec 	str.w	r2, [r7, #236]	@ 0xec
 8001bee:	e9d7 453a 	ldrd	r4, r5, [r7, #232]	@ 0xe8
 8001bf2:	4622      	mov	r2, r4
 8001bf4:	462b      	mov	r3, r5
 8001bf6:	1891      	adds	r1, r2, r2
 8001bf8:	65b9      	str	r1, [r7, #88]	@ 0x58
 8001bfa:	415b      	adcs	r3, r3
 8001bfc:	65fb      	str	r3, [r7, #92]	@ 0x5c
 8001bfe:	e9d7 2316 	ldrd	r2, r3, [r7, #88]	@ 0x58
 8001c02:	4621      	mov	r1, r4
 8001c04:	eb12 0801 	adds.w	r8, r2, r1
 8001c08:	4629      	mov	r1, r5
 8001c0a:	eb43 0901 	adc.w	r9, r3, r1
 8001c0e:	f04f 0200 	mov.w	r2, #0
 8001c12:	f04f 0300 	mov.w	r3, #0
 8001c16:	ea4f 03c9 	mov.w	r3, r9, lsl #3
 8001c1a:	ea43 7358 	orr.w	r3, r3, r8, lsr #29
 8001c1e:	ea4f 02c8 	mov.w	r2, r8, lsl #3
 8001c22:	4690      	mov	r8, r2
 8001c24:	4699      	mov	r9, r3
 8001c26:	4623      	mov	r3, r4
 8001c28:	eb18 0303 	adds.w	r3, r8, r3
 8001c2c:	f8c7 30e0 	str.w	r3, [r7, #224]	@ 0xe0
 8001c30:	462b      	mov	r3, r5
 8001c32:	eb49 0303 	adc.w	r3, r9, r3
 8001c36:	f8c7 30e4 	str.w	r3, [r7, #228]	@ 0xe4
 8001c3a:	f8d7 30f4 	ldr.w	r3, [r7, #244]	@ 0xf4
 8001c3e:	685b      	ldr	r3, [r3, #4]
 8001c40:	2200      	movs	r2, #0
 8001c42:	f8c7 30d8 	str.w	r3, [r7, #216]	@ 0xd8
 8001c46:	f8c7 20dc 	str.w	r2, [r7, #220]	@ 0xdc
 8001c4a:	e9d7 1236 	ldrd	r1, r2, [r7, #216]	@ 0xd8
 8001c4e:	460b      	mov	r3, r1
 8001c50:	18db      	adds	r3, r3, r3
 8001c52:	653b      	str	r3, [r7, #80]	@ 0x50
 8001c54:	4613      	mov	r3, r2
 8001c56:	eb42 0303 	adc.w	r3, r2, r3
 8001c5a:	657b      	str	r3, [r7, #84]	@ 0x54
 8001c5c:	e9d7 2314 	ldrd	r2, r3, [r7, #80]	@ 0x50
 8001c60:	e9d7 0138 	ldrd	r0, r1, [r7, #224]	@ 0xe0
 8001c64:	f7fe fab6 	bl	80001d4 <__aeabi_uldivmod>
 8001c68:	4602      	mov	r2, r0
 8001c6a:	460b      	mov	r3, r1
 8001c6c:	4b61      	ldr	r3, [pc, #388]	@ (8001df4 <UART_SetConfig+0x2d4>)
 8001c6e:	fba3 2302 	umull	r2, r3, r3, r2
 8001c72:	095b      	lsrs	r3, r3, #5
 8001c74:	011c      	lsls	r4, r3, #4
 8001c76:	f8d7 30fc 	ldr.w	r3, [r7, #252]	@ 0xfc
 8001c7a:	2200      	movs	r2, #0
 8001c7c:	f8c7 30d0 	str.w	r3, [r7, #208]	@ 0xd0
 8001c80:	f8c7 20d4 	str.w	r2, [r7, #212]	@ 0xd4
 8001c84:	e9d7 8934 	ldrd	r8, r9, [r7, #208]	@ 0xd0
 8001c88:	4642      	mov	r2, r8
 8001c8a:	464b      	mov	r3, r9
 8001c8c:	1891      	adds	r1, r2, r2
 8001c8e:	64b9      	str	r1, [r7, #72]	@ 0x48
 8001c90:	415b      	adcs	r3, r3
 8001c92:	64fb      	str	r3, [r7, #76]	@ 0x4c
 8001c94:	e9d7 2312 	ldrd	r2, r3, [r7, #72]	@ 0x48
 8001c98:	4641      	mov	r1, r8
 8001c9a:	eb12 0a01 	adds.w	sl, r2, r1
 8001c9e:	4649      	mov	r1, r9
 8001ca0:	eb43 0b01 	adc.w	fp, r3, r1
 8001ca4:	f04f 0200 	mov.w	r2, #0
 8001ca8:	f04f 0300 	mov.w	r3, #0
 8001cac:	ea4f 03cb 	mov.w	r3, fp, lsl #3
 8001cb0:	ea43 735a 	orr.w	r3, r3, sl, lsr #29
 8001cb4:	ea4f 02ca 	mov.w	r2, sl, lsl #3
 8001cb8:	4692      	mov	sl, r2
 8001cba:	469b      	mov	fp, r3
 8001cbc:	4643      	mov	r3, r8
 8001cbe:	eb1a 0303 	adds.w	r3, sl, r3
 8001cc2:	f8c7 30c8 	str.w	r3, [r7, #200]	@ 0xc8
 8001cc6:	464b      	mov	r3, r9
 8001cc8:	eb4b 0303 	adc.w	r3, fp, r3
 8001ccc:	f8c7 30cc 	str.w	r3, [r7, #204]	@ 0xcc
 8001cd0:	f8d7 30f4 	ldr.w	r3, [r7, #244]	@ 0xf4
 8001cd4:	685b      	ldr	r3, [r3, #4]
 8001cd6:	2200      	movs	r2, #0
 8001cd8:	f8c7 30c0 	str.w	r3, [r7, #192]	@ 0xc0
 8001cdc:	f8c7 20c4 	str.w	r2, [r7, #196]	@ 0xc4
 8001ce0:	e9d7 1230 	ldrd	r1, r2, [r7, #192]	@ 0xc0
 8001ce4:	460b      	mov	r3, r1
 8001ce6:	18db      	adds	r3, r3, r3
 8001ce8:	643b      	str	r3, [r7, #64]	@ 0x40
 8001cea:	4613      	mov	r3, r2
 8001cec:	eb42 0303 	adc.w	r3, r2, r3
 8001cf0:	647b      	str	r3, [r7, #68]	@ 0x44
 8001cf2:	e9d7 2310 	ldrd	r2, r3, [r7, #64]	@ 0x40
 8001cf6:	e9d7 0132 	ldrd	r0, r1, [r7, #200]	@ 0xc8
 8001cfa:	f7fe fa6b 	bl	80001d4 <__aeabi_uldivmod>
 8001cfe:	4602      	mov	r2, r0
 8001d00:	460b      	mov	r3, r1
 8001d02:	4611      	mov	r1, r2
 8001d04:	4b3b      	ldr	r3, [pc, #236]	@ (8001df4 <UART_SetConfig+0x2d4>)
 8001d06:	fba3 2301 	umull	r2, r3, r3, r1
 8001d0a:	095b      	lsrs	r3, r3, #5
 8001d0c:	2264      	movs	r2, #100	@ 0x64
 8001d0e:	fb02 f303 	mul.w	r3, r2, r3
 8001d12:	1acb      	subs	r3, r1, r3
 8001d14:	00db      	lsls	r3, r3, #3
 8001d16:	f103 0232 	add.w	r2, r3, #50	@ 0x32
 8001d1a:	4b36      	ldr	r3, [pc, #216]	@ (8001df4 <UART_SetConfig+0x2d4>)
 8001d1c:	fba3 2302 	umull	r2, r3, r3, r2
 8001d20:	095b      	lsrs	r3, r3, #5
 8001d22:	005b      	lsls	r3, r3, #1
 8001d24:	f403 73f8 	and.w	r3, r3, #496	@ 0x1f0
 8001d28:	441c      	add	r4, r3
 8001d2a:	f8d7 30fc 	ldr.w	r3, [r7, #252]	@ 0xfc
 8001d2e:	2200      	movs	r2, #0
 8001d30:	f8c7 30b8 	str.w	r3, [r7, #184]	@ 0xb8
 8001d34:	f8c7 20bc 	str.w	r2, [r7, #188]	@ 0xbc
 8001d38:	e9d7 892e 	ldrd	r8, r9, [r7, #184]	@ 0xb8
 8001d3c:	4642      	mov	r2, r8
 8001d3e:	464b      	mov	r3, r9
 8001d40:	1891      	adds	r1, r2, r2
 8001d42:	63b9      	str	r1, [r7, #56]	@ 0x38
 8001d44:	415b      	adcs	r3, r3
 8001d46:	63fb      	str	r3, [r7, #60]	@ 0x3c
 8001d48:	e9d7 230e 	ldrd	r2, r3, [r7, #56]	@ 0x38
 8001d4c:	4641      	mov	r1, r8
 8001d4e:	1851      	adds	r1, r2, r1
 8001d50:	6339      	str	r1, [r7, #48]	@ 0x30
 8001d52:	4649      	mov	r1, r9
 8001d54:	414b      	adcs	r3, r1
 8001d56:	637b      	str	r3, [r7, #52]	@ 0x34
 8001d58:	f04f 0200 	mov.w	r2, #0
 8001d5c:	f04f 0300 	mov.w	r3, #0
 8001d60:	e9d7 ab0c 	ldrd	sl, fp, [r7, #48]	@ 0x30
 8001d64:	4659      	mov	r1, fp
 8001d66:	00cb      	lsls	r3, r1, #3
 8001d68:	4651      	mov	r1, sl
 8001d6a:	ea43 7351 	orr.w	r3, r3, r1, lsr #29
 8001d6e:	4651      	mov	r1, sl
 8001d70:	00ca      	lsls	r2, r1, #3
 8001d72:	4610      	mov	r0, r2
 8001d74:	4619      	mov	r1, r3
 8001d76:	4603      	mov	r3, r0
 8001d78:	4642      	mov	r2, r8
 8001d7a:	189b      	adds	r3, r3, r2
 8001d7c:	f8c7 30b0 	str.w	r3, [r7, #176]	@ 0xb0
 8001d80:	464b      	mov	r3, r9
 8001d82:	460a      	mov	r2, r1
 8001d84:	eb42 0303 	adc.w	r3, r2, r3
 8001d88:	f8c7 30b4 	str.w	r3, [r7, #180]	@ 0xb4
 8001d8c:	f8d7 30f4 	ldr.w	r3, [r7, #244]	@ 0xf4
 8001d90:	685b      	ldr	r3, [r3, #4]
 8001d92:	2200      	movs	r2, #0
 8001d94:	f8c7 30a8 	str.w	r3, [r7, #168]	@ 0xa8
 8001d98:	f8c7 20ac 	str.w	r2, [r7, #172]	@ 0xac
 8001d9c:	e9d7 122a 	ldrd	r1, r2, [r7, #168]	@ 0xa8
 8001da0:	460b      	mov	r3, r1
 8001da2:	18db      	adds	r3, r3, r3
 8001da4:	62bb      	str	r3, [r7, #40]	@ 0x28
 8001da6:	4613      	mov	r3, r2
 8001da8:	eb42 0303 	adc.w	r3, r2, r3
 8001dac:	62fb      	str	r3, [r7, #44]	@ 0x2c
 8001dae:	e9d7 230a 	ldrd	r2, r3, [r7, #40]	@ 0x28
 8001db2:	e9d7 012c 	ldrd	r0, r1, [r7, #176]	@ 0xb0
 8001db6:	f7fe fa0d 	bl	80001d4 <__aeabi_uldivmod>
 8001dba:	4602      	mov	r2, r0
 8001dbc:	460b      	mov	r3, r1
 8001dbe:	4b0d      	ldr	r3, [pc, #52]	@ (8001df4 <UART_SetConfig+0x2d4>)
 8001dc0:	fba3 1302 	umull	r1, r3, r3, r2
 8001dc4:	095b      	lsrs	r3, r3, #5
 8001dc6:	2164      	movs	r1, #100	@ 0x64
 8001dc8:	fb01 f303 	mul.w	r3, r1, r3
 8001dcc:	1ad3      	subs	r3, r2, r3
 8001dce:	00db      	lsls	r3, r3, #3
 8001dd0:	3332      	adds	r3, #50	@ 0x32
 8001dd2:	4a08      	ldr	r2, [pc, #32]	@ (8001df4 <UART_SetConfig+0x2d4>)
 8001dd4:	fba2 2303 	umull	r2, r3, r2, r3
 8001dd8:	095b      	lsrs	r3, r3, #5
 8001dda:	f003 0207 	and.w	r2, r3, #7
 8001dde:	f8d7 30f4 	ldr.w	r3, [r7, #244]	@ 0xf4
 8001de2:	681b      	ldr	r3, [r3, #0]
 8001de4:	4422      	add	r2, r4
 8001de6:	609a      	str	r2, [r3, #8]
  }
  else
  {
    huart->Instance->BRR = UART_BRR_SAMPLING16(pclk, huart->Init.BaudRate);
  }
}
 8001de8:	e106      	b.n	8001ff8 <UART_SetConfig+0x4d8>
 8001dea:	bf00      	nop
 8001dec:	40011000 	.word	0x40011000
 8001df0:	40011400 	.word	0x40011400
 8001df4:	51eb851f 	.word	0x51eb851f
    huart->Instance->BRR = UART_BRR_SAMPLING16(pclk, huart->Init.BaudRate);
 8001df8:	f8d7 30fc 	ldr.w	r3, [r7, #252]	@ 0xfc
 8001dfc:	2200      	movs	r2, #0
 8001dfe:	f8c7 30a0 	str.w	r3, [r7, #160]	@ 0xa0
 8001e02:	f8c7 20a4 	str.w	r2, [r7, #164]	@ 0xa4
 8001e06:	e9d7 8928 	ldrd	r8, r9, [r7, #160]	@ 0xa0
 8001e0a:	4642      	mov	r2, r8
 8001e0c:	464b      	mov	r3, r9
 8001e0e:	1891      	adds	r1, r2, r2
 8001e10:	6239      	str	r1, [r7, #32]
 8001e12:	415b      	adcs	r3, r3
 8001e14:	627b      	str	r3, [r7, #36]	@ 0x24
 8001e16:	e9d7 2308 	ldrd	r2, r3, [r7, #32]
 8001e1a:	4641      	mov	r1, r8
 8001e1c:	1854      	adds	r4, r2, r1
 8001e1e:	4649      	mov	r1, r9
 8001e20:	eb43 0501 	adc.w	r5, r3, r1
 8001e24:	f04f 0200 	mov.w	r2, #0
 8001e28:	f04f 0300 	mov.w	r3, #0
 8001e2c:	00eb      	lsls	r3, r5, #3
 8001e2e:	ea43 7354 	orr.w	r3, r3, r4, lsr #29
 8001e32:	00e2      	lsls	r2, r4, #3
 8001e34:	4614      	mov	r4, r2
 8001e36:	461d      	mov	r5, r3
 8001e38:	4643      	mov	r3, r8
 8001e3a:	18e3      	adds	r3, r4, r3
 8001e3c:	f8c7 3098 	str.w	r3, [r7, #152]	@ 0x98
 8001e40:	464b      	mov	r3, r9
 8001e42:	eb45 0303 	adc.w	r3, r5, r3
 8001e46:	f8c7 309c 	str.w	r3, [r7, #156]	@ 0x9c
 8001e4a:	f8d7 30f4 	ldr.w	r3, [r7, #244]	@ 0xf4
 8001e4e:	685b      	ldr	r3, [r3, #4]
 8001e50:	2200      	movs	r2, #0
 8001e52:	f8c7 3090 	str.w	r3, [r7, #144]	@ 0x90
 8001e56:	f8c7 2094 	str.w	r2, [r7, #148]	@ 0x94
 8001e5a:	f04f 0200 	mov.w	r2, #0
 8001e5e:	f04f 0300 	mov.w	r3, #0
 8001e62:	e9d7 4524 	ldrd	r4, r5, [r7, #144]	@ 0x90
 8001e66:	4629      	mov	r1, r5
 8001e68:	008b      	lsls	r3, r1, #2
 8001e6a:	4621      	mov	r1, r4
 8001e6c:	ea43 7391 	orr.w	r3, r3, r1, lsr #30
 8001e70:	4621      	mov	r1, r4
 8001e72:	008a      	lsls	r2, r1, #2
 8001e74:	e9d7 0126 	ldrd	r0, r1, [r7, #152]	@ 0x98
 8001e78:	f7fe f9ac 	bl	80001d4 <__aeabi_uldivmod>
 8001e7c:	4602      	mov	r2, r0
 8001e7e:	460b      	mov	r3, r1
 8001e80:	4b60      	ldr	r3, [pc, #384]	@ (8002004 <UART_SetConfig+0x4e4>)
 8001e82:	fba3 2302 	umull	r2, r3, r3, r2
 8001e86:	095b      	lsrs	r3, r3, #5
 8001e88:	011c      	lsls	r4, r3, #4
 8001e8a:	f8d7 30fc 	ldr.w	r3, [r7, #252]	@ 0xfc
 8001e8e:	2200      	movs	r2, #0
 8001e90:	f8c7 3088 	str.w	r3, [r7, #136]	@ 0x88
 8001e94:	f8c7 208c 	str.w	r2, [r7, #140]	@ 0x8c
 8001e98:	e9d7 8922 	ldrd	r8, r9, [r7, #136]	@ 0x88
 8001e9c:	4642      	mov	r2, r8
 8001e9e:	464b      	mov	r3, r9
 8001ea0:	1891      	adds	r1, r2, r2
 8001ea2:	61b9      	str	r1, [r7, #24]
 8001ea4:	415b      	adcs	r3, r3
 8001ea6:	61fb      	str	r3, [r7, #28]
 8001ea8:	e9d7 2306 	ldrd	r2, r3, [r7, #24]
 8001eac:	4641      	mov	r1, r8
 8001eae:	1851      	adds	r1, r2, r1
 8001eb0:	6139      	str	r1, [r7, #16]
 8001eb2:	4649      	mov	r1, r9
 8001eb4:	414b      	adcs	r3, r1
 8001eb6:	617b      	str	r3, [r7, #20]
 8001eb8:	f04f 0200 	mov.w	r2, #0
 8001ebc:	f04f 0300 	mov.w	r3, #0
 8001ec0:	e9d7 ab04 	ldrd	sl, fp, [r7, #16]
 8001ec4:	4659      	mov	r1, fp
 8001ec6:	00cb      	lsls	r3, r1, #3
 8001ec8:	4651      	mov	r1, sl
 8001eca:	ea43 7351 	orr.w	r3, r3, r1, lsr #29
 8001ece:	4651      	mov	r1, sl
 8001ed0:	00ca      	lsls	r2, r1, #3
 8001ed2:	4610      	mov	r0, r2
 8001ed4:	4619      	mov	r1, r3
 8001ed6:	4603      	mov	r3, r0
 8001ed8:	4642      	mov	r2, r8
 8001eda:	189b      	adds	r3, r3, r2
 8001edc:	f8c7 3080 	str.w	r3, [r7, #128]	@ 0x80
 8001ee0:	464b      	mov	r3, r9
 8001ee2:	460a      	mov	r2, r1
 8001ee4:	eb42 0303 	adc.w	r3, r2, r3
 8001ee8:	f8c7 3084 	str.w	r3, [r7, #132]	@ 0x84
 8001eec:	f8d7 30f4 	ldr.w	r3, [r7, #244]	@ 0xf4
 8001ef0:	685b      	ldr	r3, [r3, #4]
 8001ef2:	2200      	movs	r2, #0
 8001ef4:	67bb      	str	r3, [r7, #120]	@ 0x78
 8001ef6:	67fa      	str	r2, [r7, #124]	@ 0x7c
 8001ef8:	f04f 0200 	mov.w	r2, #0
 8001efc:	f04f 0300 	mov.w	r3, #0
 8001f00:	e9d7 891e 	ldrd	r8, r9, [r7, #120]	@ 0x78
 8001f04:	4649      	mov	r1, r9
 8001f06:	008b      	lsls	r3, r1, #2
 8001f08:	4641      	mov	r1, r8
 8001f0a:	ea43 7391 	orr.w	r3, r3, r1, lsr #30
 8001f0e:	4641      	mov	r1, r8
 8001f10:	008a      	lsls	r2, r1, #2
 8001f12:	e9d7 0120 	ldrd	r0, r1, [r7, #128]	@ 0x80
 8001f16:	f7fe f95d 	bl	80001d4 <__aeabi_uldivmod>
 8001f1a:	4602      	mov	r2, r0
 8001f1c:	460b      	mov	r3, r1
 8001f1e:	4611      	mov	r1, r2
 8001f20:	4b38      	ldr	r3, [pc, #224]	@ (8002004 <UART_SetConfig+0x4e4>)
 8001f22:	fba3 2301 	umull	r2, r3, r3, r1
 8001f26:	095b      	lsrs	r3, r3, #5
 8001f28:	2264      	movs	r2, #100	@ 0x64
 8001f2a:	fb02 f303 	mul.w	r3, r2, r3
 8001f2e:	1acb      	subs	r3, r1, r3
 8001f30:	011b      	lsls	r3, r3, #4
 8001f32:	3332      	adds	r3, #50	@ 0x32
 8001f34:	4a33      	ldr	r2, [pc, #204]	@ (8002004 <UART_SetConfig+0x4e4>)
 8001f36:	fba2 2303 	umull	r2, r3, r2, r3
 8001f3a:	095b      	lsrs	r3, r3, #5
 8001f3c:	f003 03f0 	and.w	r3, r3, #240	@ 0xf0
 8001f40:	441c      	add	r4, r3
 8001f42:	f8d7 30fc 	ldr.w	r3, [r7, #252]	@ 0xfc
 8001f46:	2200      	movs	r2, #0
 8001f48:	673b      	str	r3, [r7, #112]	@ 0x70
 8001f4a:	677a      	str	r2, [r7, #116]	@ 0x74
 8001f4c:	e9d7 891c 	ldrd	r8, r9, [r7, #112]	@ 0x70
 8001f50:	4642      	mov	r2, r8
 8001f52:	464b      	mov	r3, r9
 8001f54:	1891      	adds	r1, r2, r2
 8001f56:	60b9      	str	r1, [r7, #8]
 8001f58:	415b      	adcs	r3, r3
 8001f5a:	60fb      	str	r3, [r7, #12]
 8001f5c:	e9d7 2302 	ldrd	r2, r3, [r7, #8]
 8001f60:	4641      	mov	r1, r8
 8001f62:	1851      	adds	r1, r2, r1
 8001f64:	6039      	str	r1, [r7, #0]
 8001f66:	4649      	mov	r1, r9
 8001f68:	414b      	adcs	r3, r1
 8001f6a:	607b      	str	r3, [r7, #4]
 8001f6c:	f04f 0200 	mov.w	r2, #0
 8001f70:	f04f 0300 	mov.w	r3, #0
 8001f74:	e9d7 ab00 	ldrd	sl, fp, [r7]
 8001f78:	4659      	mov	r1, fp
 8001f7a:	00cb      	lsls	r3, r1, #3
 8001f7c:	4651      	mov	r1, sl
 8001f7e:	ea43 7351 	orr.w	r3, r3, r1, lsr #29
 8001f82:	4651      	mov	r1, sl
 8001f84:	00ca      	lsls	r2, r1, #3
 8001f86:	4610      	mov	r0, r2
 8001f88:	4619      	mov	r1, r3
 8001f8a:	4603      	mov	r3, r0
 8001f8c:	4642      	mov	r2, r8
 8001f8e:	189b      	adds	r3, r3, r2
 8001f90:	66bb      	str	r3, [r7, #104]	@ 0x68
 8001f92:	464b      	mov	r3, r9
 8001f94:	460a      	mov	r2, r1
 8001f96:	eb42 0303 	adc.w	r3, r2, r3
 8001f9a:	66fb      	str	r3, [r7, #108]	@ 0x6c
 8001f9c:	f8d7 30f4 	ldr.w	r3, [r7, #244]	@ 0xf4
 8001fa0:	685b      	ldr	r3, [r3, #4]
 8001fa2:	2200      	movs	r2, #0
 8001fa4:	663b      	str	r3, [r7, #96]	@ 0x60
 8001fa6:	667a      	str	r2, [r7, #100]	@ 0x64
 8001fa8:	f04f 0200 	mov.w	r2, #0
 8001fac:	f04f 0300 	mov.w	r3, #0
 8001fb0:	e9d7 8918 	ldrd	r8, r9, [r7, #96]	@ 0x60
 8001fb4:	4649      	mov	r1, r9
 8001fb6:	008b      	lsls	r3, r1, #2
 8001fb8:	4641      	mov	r1, r8
 8001fba:	ea43 7391 	orr.w	r3, r3, r1, lsr #30
 8001fbe:	4641      	mov	r1, r8
 8001fc0:	008a      	lsls	r2, r1, #2
 8001fc2:	e9d7 011a 	ldrd	r0, r1, [r7, #104]	@ 0x68
 8001fc6:	f7fe f905 	bl	80001d4 <__aeabi_uldivmod>
 8001fca:	4602      	mov	r2, r0
 8001fcc:	460b      	mov	r3, r1
 8001fce:	4b0d      	ldr	r3, [pc, #52]	@ (8002004 <UART_SetConfig+0x4e4>)
 8001fd0:	fba3 1302 	umull	r1, r3, r3, r2
 8001fd4:	095b      	lsrs	r3, r3, #5
 8001fd6:	2164      	movs	r1, #100	@ 0x64
 8001fd8:	fb01 f303 	mul.w	r3, r1, r3
 8001fdc:	1ad3      	subs	r3, r2, r3
 8001fde:	011b      	lsls	r3, r3, #4
 8001fe0:	3332      	adds	r3, #50	@ 0x32
 8001fe2:	4a08      	ldr	r2, [pc, #32]	@ (8002004 <UART_SetConfig+0x4e4>)
 8001fe4:	fba2 2303 	umull	r2, r3, r2, r3
 8001fe8:	095b      	lsrs	r3, r3, #5
 8001fea:	f003 020f 	and.w	r2, r3, #15
 8001fee:	f8d7 30f4 	ldr.w	r3, [r7, #244]	@ 0xf4
 8001ff2:	681b      	ldr	r3, [r3, #0]
 8001ff4:	4422      	add	r2, r4
 8001ff6:	609a      	str	r2, [r3, #8]
}
 8001ff8:	bf00      	nop
 8001ffa:	f507 7780 	add.w	r7, r7, #256	@ 0x100
 8001ffe:	46bd      	mov	sp, r7
 8002000:	e8bd 8fb0 	ldmia.w	sp!, {r4, r5, r7, r8, r9, sl, fp, pc}
 8002004:	51eb851f 	.word	0x51eb851f

08002008 <memset>:
 8002008:	4402      	add	r2, r0
 800200a:	4603      	mov	r3, r0
 800200c:	4293      	cmp	r3, r2
 800200e:	d100      	bne.n	8002012 <memset+0xa>
 8002010:	4770      	bx	lr
 8002012:	f803 1b01 	strb.w	r1, [r3], #1
 8002016:	e7f9      	b.n	800200c <memset+0x4>

08002018 <__libc_init_array>:
 8002018:	b570      	push	{r4, r5, r6, lr}
 800201a:	4d0d      	ldr	r5, [pc, #52]	@ (8002050 <__libc_init_array+0x38>)
 800201c:	4c0d      	ldr	r4, [pc, #52]	@ (8002054 <__libc_init_array+0x3c>)
 800201e:	1b64      	subs	r4, r4, r5
 8002020:	10a4      	asrs	r4, r4, #2
 8002022:	2600      	movs	r6, #0
 8002024:	42a6      	cmp	r6, r4
 8002026:	d109      	bne.n	800203c <__libc_init_array+0x24>
 8002028:	4d0b      	ldr	r5, [pc, #44]	@ (8002058 <__libc_init_array+0x40>)
 800202a:	4c0c      	ldr	r4, [pc, #48]	@ (800205c <__libc_init_array+0x44>)
 800202c:	f000 f818 	bl	8002060 <_init>
 8002030:	1b64      	subs	r4, r4, r5
 8002032:	10a4      	asrs	r4, r4, #2
 8002034:	2600      	movs	r6, #0
 8002036:	42a6      	cmp	r6, r4
 8002038:	d105      	bne.n	8002046 <__libc_init_array+0x2e>
 800203a:	bd70      	pop	{r4, r5, r6, pc}
 800203c:	f855 3b04 	ldr.w	r3, [r5], #4
 8002040:	4798      	blx	r3
 8002042:	3601      	adds	r6, #1
 8002044:	e7ee      	b.n	8002024 <__libc_init_array+0xc>
 8002046:	f855 3b04 	ldr.w	r3, [r5], #4
 800204a:	4798      	blx	r3
 800204c:	3601      	adds	r6, #1
 800204e:	e7f2      	b.n	8002036 <__libc_init_array+0x1e>
 8002050:	0800209c 	.word	0x0800209c
 8002054:	0800209c 	.word	0x0800209c
 8002058:	0800209c 	.word	0x0800209c
 800205c:	080020a0 	.word	0x080020a0

08002060 <_init>:
 8002060:	b5f8      	push	{r3, r4, r5, r6, r7, lr}
 8002062:	bf00      	nop
 8002064:	bcf8      	pop	{r3, r4, r5, r6, r7}
 8002066:	bc08      	pop	{r3}
 8002068:	469e      	mov	lr, r3
 800206a:	4770      	bx	lr

0800206c <_fini>:
 800206c:	b5f8      	push	{r3, r4, r5, r6, r7, lr}
 800206e:	bf00      	nop
 8002070:	bcf8      	pop	{r3, r4, r5, r6, r7}
 8002072:	bc08      	pop	{r3}
 8002074:	469e      	mov	lr, r3
 8002076:	4770      	bx	lr
