
testSTM.elf:     file format elf32-littlearm

Sections:
Idx Name          Size      VMA       LMA       File off  Algn
  0 .isr_vector   00000194  08000000  08000000  00001000  2**0
                  CONTENTS, ALLOC, LOAD, READONLY, DATA
  1 .text         00009840  080001a0  080001a0  000011a0  2**4
                  CONTENTS, ALLOC, LOAD, READONLY, CODE
  2 .rodata       000004f0  080099e0  080099e0  0000a9e0  2**3
                  CONTENTS, ALLOC, LOAD, READONLY, DATA
  3 .ARM.extab    00000000  08009ed0  08009ed0  0000b1d8  2**0
                  CONTENTS, READONLY
  4 .ARM          00000008  08009ed0  08009ed0  0000aed0  2**2
                  CONTENTS, ALLOC, LOAD, READONLY, DATA
  5 .preinit_array 00000000  08009ed8  08009ed8  0000b1d8  2**0
                  CONTENTS, ALLOC, LOAD, DATA
  6 .init_array   00000004  08009ed8  08009ed8  0000aed8  2**2
                  CONTENTS, ALLOC, LOAD, READONLY, DATA
  7 .fini_array   00000004  08009edc  08009edc  0000aedc  2**2
                  CONTENTS, ALLOC, LOAD, READONLY, DATA
  8 .data         000001d8  20000000  08009ee0  0000b000  2**2
                  CONTENTS, ALLOC, LOAD, DATA
  9 .bss          00000310  200001d8  0800a0b8  0000b1d8  2**2
                  ALLOC
 10 ._user_heap_stack 00000600  200004e8  0800a0b8  0000b4e8  2**0
                  ALLOC
 11 .ARM.attributes 00000030  00000000  00000000  0000b1d8  2**0
                  CONTENTS, READONLY
 12 .debug_info   0000be35  00000000  00000000  0000b208  2**0
                  CONTENTS, READONLY, DEBUGGING, OCTETS
 13 .debug_abbrev 00001c46  00000000  00000000  0001703d  2**0
                  CONTENTS, READONLY, DEBUGGING, OCTETS
 14 .debug_aranges 00000a98  00000000  00000000  00018c88  2**3
                  CONTENTS, READONLY, DEBUGGING, OCTETS
 15 .debug_rnglists 00000865  00000000  00000000  00019720  2**0
                  CONTENTS, READONLY, DEBUGGING, OCTETS
 16 .debug_macro  00015a92  00000000  00000000  00019f85  2**0
                  CONTENTS, READONLY, DEBUGGING, OCTETS
 17 .debug_line   0000d7f5  00000000  00000000  0002fa17  2**0
                  CONTENTS, READONLY, DEBUGGING, OCTETS
 18 .debug_str    0008a0b4  00000000  00000000  0003d20c  2**0
                  CONTENTS, READONLY, DEBUGGING, OCTETS
 19 .comment      00000043  00000000  00000000  000c72c0  2**0
                  CONTENTS, READONLY
 20 .debug_frame  000040cc  00000000  00000000  000c7304  2**2
                  CONTENTS, READONLY, DEBUGGING, OCTETS
 21 .debug_line_str 0000005d  00000000  00000000  000cb3d0  2**0
                  CONTENTS, READONLY, DEBUGGING, OCTETS

Disassembly of section .text:

080001a0 <__do_global_dtors_aux>:
 80001a0:	b510      	push	{r4, lr}
 80001a2:	4c05      	ldr	r4, [pc, #20]	@ (80001b8 <__do_global_dtors_aux+0x18>)
 80001a4:	7823      	ldrb	r3, [r4, #0]
 80001a6:	b933      	cbnz	r3, 80001b6 <__do_global_dtors_aux+0x16>
 80001a8:	4b04      	ldr	r3, [pc, #16]	@ (80001bc <__do_global_dtors_aux+0x1c>)
 80001aa:	b113      	cbz	r3, 80001b2 <__do_global_dtors_aux+0x12>
 80001ac:	4804      	ldr	r0, [pc, #16]	@ (80001c0 <__do_global_dtors_aux+0x20>)
 80001ae:	f3af 8000 	nop.w
 80001b2:	2301      	movs	r3, #1
 80001b4:	7023      	strb	r3, [r4, #0]
 80001b6:	bd10      	pop	{r4, pc}
 80001b8:	200001d8 	.word	0x200001d8
 80001bc:	00000000 	.word	0x00000000
 80001c0:	080099c8 	.word	0x080099c8

080001c4 <frame_dummy>:
 80001c4:	b508      	push	{r3, lr}
 80001c6:	4b03      	ldr	r3, [pc, #12]	@ (80001d4 <frame_dummy+0x10>)
 80001c8:	b11b      	cbz	r3, 80001d2 <frame_dummy+0xe>
 80001ca:	4903      	ldr	r1, [pc, #12]	@ (80001d8 <frame_dummy+0x14>)
 80001cc:	4803      	ldr	r0, [pc, #12]	@ (80001dc <frame_dummy+0x18>)
 80001ce:	f3af 8000 	nop.w
 80001d2:	bd08      	pop	{r3, pc}
 80001d4:	00000000 	.word	0x00000000
 80001d8:	200001dc 	.word	0x200001dc
 80001dc:	080099c8 	.word	0x080099c8

080001e0 <memchr>:
 80001e0:	f001 01ff 	and.w	r1, r1, #255	@ 0xff
 80001e4:	2a10      	cmp	r2, #16
 80001e6:	db2b      	blt.n	8000240 <memchr+0x60>
 80001e8:	f010 0f07 	tst.w	r0, #7
 80001ec:	d008      	beq.n	8000200 <memchr+0x20>
 80001ee:	f810 3b01 	ldrb.w	r3, [r0], #1
 80001f2:	3a01      	subs	r2, #1
 80001f4:	428b      	cmp	r3, r1
 80001f6:	d02d      	beq.n	8000254 <memchr+0x74>
 80001f8:	f010 0f07 	tst.w	r0, #7
 80001fc:	b342      	cbz	r2, 8000250 <memchr+0x70>
 80001fe:	d1f6      	bne.n	80001ee <memchr+0xe>
 8000200:	b4f0      	push	{r4, r5, r6, r7}
 8000202:	ea41 2101 	orr.w	r1, r1, r1, lsl #8
 8000206:	ea41 4101 	orr.w	r1, r1, r1, lsl #16
 800020a:	f022 0407 	bic.w	r4, r2, #7
 800020e:	f07f 0700 	mvns.w	r7, #0
 8000212:	2300      	movs	r3, #0
 8000214:	e8f0 5602 	ldrd	r5, r6, [r0], #8
 8000218:	3c08      	subs	r4, #8
 800021a:	ea85 0501 	eor.w	r5, r5, r1
 800021e:	ea86 0601 	eor.w	r6, r6, r1
 8000222:	fa85 f547 	uadd8	r5, r5, r7
 8000226:	faa3 f587 	sel	r5, r3, r7
 800022a:	fa86 f647 	uadd8	r6, r6, r7
 800022e:	faa5 f687 	sel	r6, r5, r7
 8000232:	b98e      	cbnz	r6, 8000258 <memchr+0x78>
 8000234:	d1ee      	bne.n	8000214 <memchr+0x34>
 8000236:	bcf0      	pop	{r4, r5, r6, r7}
 8000238:	f001 01ff 	and.w	r1, r1, #255	@ 0xff
 800023c:	f002 0207 	and.w	r2, r2, #7
 8000240:	b132      	cbz	r2, 8000250 <memchr+0x70>
 8000242:	f810 3b01 	ldrb.w	r3, [r0], #1
 8000246:	3a01      	subs	r2, #1
 8000248:	ea83 0301 	eor.w	r3, r3, r1
 800024c:	b113      	cbz	r3, 8000254 <memchr+0x74>
 800024e:	d1f8      	bne.n	8000242 <memchr+0x62>
 8000250:	2000      	movs	r0, #0
 8000252:	4770      	bx	lr
 8000254:	3801      	subs	r0, #1
 8000256:	4770      	bx	lr
 8000258:	2d00      	cmp	r5, #0
 800025a:	bf06      	itte	eq
 800025c:	4635      	moveq	r5, r6
 800025e:	3803      	subeq	r0, #3
 8000260:	3807      	subne	r0, #7
 8000262:	f015 0f01 	tst.w	r5, #1
 8000266:	d107      	bne.n	8000278 <memchr+0x98>
 8000268:	3001      	adds	r0, #1
 800026a:	f415 7f80 	tst.w	r5, #256	@ 0x100
 800026e:	bf02      	ittt	eq
 8000270:	3001      	addeq	r0, #1
 8000272:	f415 3fc0 	tsteq.w	r5, #98304	@ 0x18000
 8000276:	3001      	addeq	r0, #1
 8000278:	bcf0      	pop	{r4, r5, r6, r7}
 800027a:	3801      	subs	r0, #1
 800027c:	4770      	bx	lr
 800027e:	bf00      	nop

08000280 <strlen>:
 8000280:	4603      	mov	r3, r0
 8000282:	f813 2b01 	ldrb.w	r2, [r3], #1
 8000286:	2a00      	cmp	r2, #0
 8000288:	d1fb      	bne.n	8000282 <strlen+0x2>
 800028a:	1a18      	subs	r0, r3, r0
 800028c:	3801      	subs	r0, #1
 800028e:	4770      	bx	lr

08000290 <__aeabi_drsub>:
 8000290:	f081 4100 	eor.w	r1, r1, #2147483648	@ 0x80000000
 8000294:	e002      	b.n	800029c <__adddf3>
 8000296:	bf00      	nop

08000298 <__aeabi_dsub>:
 8000298:	f083 4300 	eor.w	r3, r3, #2147483648	@ 0x80000000

0800029c <__adddf3>:
 800029c:	b530      	push	{r4, r5, lr}
 800029e:	ea4f 0441 	mov.w	r4, r1, lsl #1
 80002a2:	ea4f 0543 	mov.w	r5, r3, lsl #1
 80002a6:	ea94 0f05 	teq	r4, r5
 80002aa:	bf08      	it	eq
 80002ac:	ea90 0f02 	teqeq	r0, r2
 80002b0:	bf1f      	itttt	ne
 80002b2:	ea54 0c00 	orrsne.w	ip, r4, r0
 80002b6:	ea55 0c02 	orrsne.w	ip, r5, r2
 80002ba:	ea7f 5c64 	mvnsne.w	ip, r4, asr #21
 80002be:	ea7f 5c65 	mvnsne.w	ip, r5, asr #21
 80002c2:	f000 80e2 	beq.w	800048a <__adddf3+0x1ee>
 80002c6:	ea4f 5454 	mov.w	r4, r4, lsr #21
 80002ca:	ebd4 5555 	rsbs	r5, r4, r5, lsr #21
 80002ce:	bfb8      	it	lt
 80002d0:	426d      	neglt	r5, r5
 80002d2:	dd0c      	ble.n	80002ee <__adddf3+0x52>
 80002d4:	442c      	add	r4, r5
 80002d6:	ea80 0202 	eor.w	r2, r0, r2
 80002da:	ea81 0303 	eor.w	r3, r1, r3
 80002de:	ea82 0000 	eor.w	r0, r2, r0
 80002e2:	ea83 0101 	eor.w	r1, r3, r1
 80002e6:	ea80 0202 	eor.w	r2, r0, r2
 80002ea:	ea81 0303 	eor.w	r3, r1, r3
 80002ee:	2d36      	cmp	r5, #54	@ 0x36
 80002f0:	bf88      	it	hi
 80002f2:	bd30      	pophi	{r4, r5, pc}
 80002f4:	f011 4f00 	tst.w	r1, #2147483648	@ 0x80000000
 80002f8:	ea4f 3101 	mov.w	r1, r1, lsl #12
 80002fc:	f44f 1c80 	mov.w	ip, #1048576	@ 0x100000
 8000300:	ea4c 3111 	orr.w	r1, ip, r1, lsr #12
 8000304:	d002      	beq.n	800030c <__adddf3+0x70>
 8000306:	4240      	negs	r0, r0
 8000308:	eb61 0141 	sbc.w	r1, r1, r1, lsl #1
 800030c:	f013 4f00 	tst.w	r3, #2147483648	@ 0x80000000
 8000310:	ea4f 3303 	mov.w	r3, r3, lsl #12
 8000314:	ea4c 3313 	orr.w	r3, ip, r3, lsr #12
 8000318:	d002      	beq.n	8000320 <__adddf3+0x84>
 800031a:	4252      	negs	r2, r2
 800031c:	eb63 0343 	sbc.w	r3, r3, r3, lsl #1
 8000320:	ea94 0f05 	teq	r4, r5
 8000324:	f000 80a7 	beq.w	8000476 <__adddf3+0x1da>
 8000328:	f1a4 0401 	sub.w	r4, r4, #1
 800032c:	f1d5 0e20 	rsbs	lr, r5, #32
 8000330:	db0d      	blt.n	800034e <__adddf3+0xb2>
 8000332:	fa02 fc0e 	lsl.w	ip, r2, lr
 8000336:	fa22 f205 	lsr.w	r2, r2, r5
 800033a:	1880      	adds	r0, r0, r2
 800033c:	f141 0100 	adc.w	r1, r1, #0
 8000340:	fa03 f20e 	lsl.w	r2, r3, lr
 8000344:	1880      	adds	r0, r0, r2
 8000346:	fa43 f305 	asr.w	r3, r3, r5
 800034a:	4159      	adcs	r1, r3
 800034c:	e00e      	b.n	800036c <__adddf3+0xd0>
 800034e:	f1a5 0520 	sub.w	r5, r5, #32
 8000352:	f10e 0e20 	add.w	lr, lr, #32
 8000356:	2a01      	cmp	r2, #1
 8000358:	fa03 fc0e 	lsl.w	ip, r3, lr
 800035c:	bf28      	it	cs
 800035e:	f04c 0c02 	orrcs.w	ip, ip, #2
 8000362:	fa43 f305 	asr.w	r3, r3, r5
 8000366:	18c0      	adds	r0, r0, r3
 8000368:	eb51 71e3 	adcs.w	r1, r1, r3, asr #31
 800036c:	f001 4500 	and.w	r5, r1, #2147483648	@ 0x80000000
 8000370:	d507      	bpl.n	8000382 <__adddf3+0xe6>
 8000372:	f04f 0e00 	mov.w	lr, #0
 8000376:	f1dc 0c00 	rsbs	ip, ip, #0
 800037a:	eb7e 0000 	sbcs.w	r0, lr, r0
 800037e:	eb6e 0101 	sbc.w	r1, lr, r1
 8000382:	f5b1 1f80 	cmp.w	r1, #1048576	@ 0x100000
 8000386:	d31b      	bcc.n	80003c0 <__adddf3+0x124>
 8000388:	f5b1 1f00 	cmp.w	r1, #2097152	@ 0x200000
 800038c:	d30c      	bcc.n	80003a8 <__adddf3+0x10c>
 800038e:	0849      	lsrs	r1, r1, #1
 8000390:	ea5f 0030 	movs.w	r0, r0, rrx
 8000394:	ea4f 0c3c 	mov.w	ip, ip, rrx
 8000398:	f104 0401 	add.w	r4, r4, #1
 800039c:	ea4f 5244 	mov.w	r2, r4, lsl #21
 80003a0:	f512 0f80 	cmn.w	r2, #4194304	@ 0x400000
 80003a4:	f080 809a 	bcs.w	80004dc <__adddf3+0x240>
 80003a8:	f1bc 4f00 	cmp.w	ip, #2147483648	@ 0x80000000
 80003ac:	bf08      	it	eq
 80003ae:	ea5f 0c50 	movseq.w	ip, r0, lsr #1
 80003b2:	f150 0000 	adcs.w	r0, r0, #0
 80003b6:	eb41 5104 	adc.w	r1, r1, r4, lsl #20
 80003ba:	ea41 0105 	orr.w	r1, r1, r5
 80003be:	bd30      	pop	{r4, r5, pc}
 80003c0:	ea5f 0c4c 	movs.w	ip, ip, lsl #1
 80003c4:	4140      	adcs	r0, r0
 80003c6:	eb41 0101 	adc.w	r1, r1, r1
 80003ca:	3c01      	subs	r4, #1
 80003cc:	bf28      	it	cs
 80003ce:	f5b1 1f80 	cmpcs.w	r1, #1048576	@ 0x100000
 80003d2:	d2e9      	bcs.n	80003a8 <__adddf3+0x10c>
 80003d4:	f091 0f00 	teq	r1, #0
 80003d8:	bf04      	itt	eq
 80003da:	4601      	moveq	r1, r0
 80003dc:	2000      	moveq	r0, #0
 80003de:	fab1 f381 	clz	r3, r1
 80003e2:	bf08      	it	eq
 80003e4:	3320      	addeq	r3, #32
 80003e6:	f1a3 030b 	sub.w	r3, r3, #11
 80003ea:	f1b3 0220 	subs.w	r2, r3, #32
 80003ee:	da0c      	bge.n	800040a <__adddf3+0x16e>
 80003f0:	320c      	adds	r2, #12
 80003f2:	dd08      	ble.n	8000406 <__adddf3+0x16a>
 80003f4:	f102 0c14 	add.w	ip, r2, #20
 80003f8:	f1c2 020c 	rsb	r2, r2, #12
 80003fc:	fa01 f00c 	lsl.w	r0, r1, ip
 8000400:	fa21 f102 	lsr.w	r1, r1, r2
 8000404:	e00c      	b.n	8000420 <__adddf3+0x184>
 8000406:	f102 0214 	add.w	r2, r2, #20
 800040a:	bfd8      	it	le
 800040c:	f1c2 0c20 	rsble	ip, r2, #32
 8000410:	fa01 f102 	lsl.w	r1, r1, r2
 8000414:	fa20 fc0c 	lsr.w	ip, r0, ip
 8000418:	bfdc      	itt	le
 800041a:	ea41 010c 	orrle.w	r1, r1, ip
 800041e:	4090      	lslle	r0, r2
 8000420:	1ae4      	subs	r4, r4, r3
 8000422:	bfa2      	ittt	ge
 8000424:	eb01 5104 	addge.w	r1, r1, r4, lsl #20
 8000428:	4329      	orrge	r1, r5
 800042a:	bd30      	popge	{r4, r5, pc}
 800042c:	ea6f 0404 	mvn.w	r4, r4
 8000430:	3c1f      	subs	r4, #31
 8000432:	da1c      	bge.n	800046e <__adddf3+0x1d2>
 8000434:	340c      	adds	r4, #12
 8000436:	dc0e      	bgt.n	8000456 <__adddf3+0x1ba>
 8000438:	f104 0414 	add.w	r4, r4, #20
 800043c:	f1c4 0220 	rsb	r2, r4, #32
 8000440:	fa20 f004 	lsr.w	r0, r0, r4
 8000444:	fa01 f302 	lsl.w	r3, r1, r2
 8000448:	ea40 0003 	orr.w	r0, r0, r3
 800044c:	fa21 f304 	lsr.w	r3, r1, r4
 8000450:	ea45 0103 	orr.w	r1, r5, r3
 8000454:	bd30      	pop	{r4, r5, pc}
 8000456:	f1c4 040c 	rsb	r4, r4, #12
 800045a:	f1c4 0220 	rsb	r2, r4, #32
 800045e:	fa20 f002 	lsr.w	r0, r0, r2
 8000462:	fa01 f304 	lsl.w	r3, r1, r4
 8000466:	ea40 0003 	orr.w	r0, r0, r3
 800046a:	4629      	mov	r1, r5
 800046c:	bd30      	pop	{r4, r5, pc}
 800046e:	fa21 f004 	lsr.w	r0, r1, r4
 8000472:	4629      	mov	r1, r5
 8000474:	bd30      	pop	{r4, r5, pc}
 8000476:	f094 0f00 	teq	r4, #0
 800047a:	f483 1380 	eor.w	r3, r3, #1048576	@ 0x100000
 800047e:	bf06      	itte	eq
 8000480:	f481 1180 	eoreq.w	r1, r1, #1048576	@ 0x100000
 8000484:	3401      	addeq	r4, #1
 8000486:	3d01      	subne	r5, #1
 8000488:	e74e      	b.n	8000328 <__adddf3+0x8c>
 800048a:	ea7f 5c64 	mvns.w	ip, r4, asr #21
 800048e:	bf18      	it	ne
 8000490:	ea7f 5c65 	mvnsne.w	ip, r5, asr #21
 8000494:	d029      	beq.n	80004ea <__adddf3+0x24e>
 8000496:	ea94 0f05 	teq	r4, r5
 800049a:	bf08      	it	eq
 800049c:	ea90 0f02 	teqeq	r0, r2
 80004a0:	d005      	beq.n	80004ae <__adddf3+0x212>
 80004a2:	ea54 0c00 	orrs.w	ip, r4, r0
 80004a6:	bf04      	itt	eq
 80004a8:	4619      	moveq	r1, r3
 80004aa:	4610      	moveq	r0, r2
 80004ac:	bd30      	pop	{r4, r5, pc}
 80004ae:	ea91 0f03 	teq	r1, r3
 80004b2:	bf1e      	ittt	ne
 80004b4:	2100      	movne	r1, #0
 80004b6:	2000      	movne	r0, #0
 80004b8:	bd30      	popne	{r4, r5, pc}
 80004ba:	ea5f 5c54 	movs.w	ip, r4, lsr #21
 80004be:	d105      	bne.n	80004cc <__adddf3+0x230>
 80004c0:	0040      	lsls	r0, r0, #1
 80004c2:	4149      	adcs	r1, r1
 80004c4:	bf28      	it	cs
 80004c6:	f041 4100 	orrcs.w	r1, r1, #2147483648	@ 0x80000000
 80004ca:	bd30      	pop	{r4, r5, pc}
 80004cc:	f514 0480 	adds.w	r4, r4, #4194304	@ 0x400000
 80004d0:	bf3c      	itt	cc
 80004d2:	f501 1180 	addcc.w	r1, r1, #1048576	@ 0x100000
 80004d6:	bd30      	popcc	{r4, r5, pc}
 80004d8:	f001 4500 	and.w	r5, r1, #2147483648	@ 0x80000000
 80004dc:	f045 41fe 	orr.w	r1, r5, #2130706432	@ 0x7f000000
 80004e0:	f441 0170 	orr.w	r1, r1, #15728640	@ 0xf00000
 80004e4:	f04f 0000 	mov.w	r0, #0
 80004e8:	bd30      	pop	{r4, r5, pc}
 80004ea:	ea7f 5c64 	mvns.w	ip, r4, asr #21
 80004ee:	bf1a      	itte	ne
 80004f0:	4619      	movne	r1, r3
 80004f2:	4610      	movne	r0, r2
 80004f4:	ea7f 5c65 	mvnseq.w	ip, r5, asr #21
 80004f8:	bf1c      	itt	ne
 80004fa:	460b      	movne	r3, r1
 80004fc:	4602      	movne	r2, r0
 80004fe:	ea50 3401 	orrs.w	r4, r0, r1, lsl #12
 8000502:	bf06      	itte	eq
 8000504:	ea52 3503 	orrseq.w	r5, r2, r3, lsl #12
 8000508:	ea91 0f03 	teqeq	r1, r3
 800050c:	f441 2100 	orrne.w	r1, r1, #524288	@ 0x80000
 8000510:	bd30      	pop	{r4, r5, pc}
 8000512:	bf00      	nop

08000514 <__aeabi_ui2d>:
 8000514:	f090 0f00 	teq	r0, #0
 8000518:	bf04      	itt	eq
 800051a:	2100      	moveq	r1, #0
 800051c:	4770      	bxeq	lr
 800051e:	b530      	push	{r4, r5, lr}
 8000520:	f44f 6480 	mov.w	r4, #1024	@ 0x400
 8000524:	f104 0432 	add.w	r4, r4, #50	@ 0x32
 8000528:	f04f 0500 	mov.w	r5, #0
 800052c:	f04f 0100 	mov.w	r1, #0
 8000530:	e750      	b.n	80003d4 <__adddf3+0x138>
 8000532:	bf00      	nop

08000534 <__aeabi_i2d>:
 8000534:	f090 0f00 	teq	r0, #0
 8000538:	bf04      	itt	eq
 800053a:	2100      	moveq	r1, #0
 800053c:	4770      	bxeq	lr
 800053e:	b530      	push	{r4, r5, lr}
 8000540:	f44f 6480 	mov.w	r4, #1024	@ 0x400
 8000544:	f104 0432 	add.w	r4, r4, #50	@ 0x32
 8000548:	f010 4500 	ands.w	r5, r0, #2147483648	@ 0x80000000
 800054c:	bf48      	it	mi
 800054e:	4240      	negmi	r0, r0
 8000550:	f04f 0100 	mov.w	r1, #0
 8000554:	e73e      	b.n	80003d4 <__adddf3+0x138>
 8000556:	bf00      	nop

08000558 <__aeabi_f2d>:
 8000558:	0042      	lsls	r2, r0, #1
 800055a:	ea4f 01e2 	mov.w	r1, r2, asr #3
 800055e:	ea4f 0131 	mov.w	r1, r1, rrx
 8000562:	ea4f 7002 	mov.w	r0, r2, lsl #28
 8000566:	bf1f      	itttt	ne
 8000568:	f012 437f 	andsne.w	r3, r2, #4278190080	@ 0xff000000
 800056c:	f093 4f7f 	teqne	r3, #4278190080	@ 0xff000000
 8000570:	f081 5160 	eorne.w	r1, r1, #939524096	@ 0x38000000
 8000574:	4770      	bxne	lr
 8000576:	f032 427f 	bics.w	r2, r2, #4278190080	@ 0xff000000
 800057a:	bf08      	it	eq
 800057c:	4770      	bxeq	lr
 800057e:	f093 4f7f 	teq	r3, #4278190080	@ 0xff000000
 8000582:	bf04      	itt	eq
 8000584:	f441 2100 	orreq.w	r1, r1, #524288	@ 0x80000
 8000588:	4770      	bxeq	lr
 800058a:	b530      	push	{r4, r5, lr}
 800058c:	f44f 7460 	mov.w	r4, #896	@ 0x380
 8000590:	f001 4500 	and.w	r5, r1, #2147483648	@ 0x80000000
 8000594:	f021 4100 	bic.w	r1, r1, #2147483648	@ 0x80000000
 8000598:	e71c      	b.n	80003d4 <__adddf3+0x138>
 800059a:	bf00      	nop

0800059c <__aeabi_ul2d>:
 800059c:	ea50 0201 	orrs.w	r2, r0, r1
 80005a0:	bf08      	it	eq
 80005a2:	4770      	bxeq	lr
 80005a4:	b530      	push	{r4, r5, lr}
 80005a6:	f04f 0500 	mov.w	r5, #0
 80005aa:	e00a      	b.n	80005c2 <__aeabi_l2d+0x16>

080005ac <__aeabi_l2d>:
 80005ac:	ea50 0201 	orrs.w	r2, r0, r1
 80005b0:	bf08      	it	eq
 80005b2:	4770      	bxeq	lr
 80005b4:	b530      	push	{r4, r5, lr}
 80005b6:	f011 4500 	ands.w	r5, r1, #2147483648	@ 0x80000000
 80005ba:	d502      	bpl.n	80005c2 <__aeabi_l2d+0x16>
 80005bc:	4240      	negs	r0, r0
 80005be:	eb61 0141 	sbc.w	r1, r1, r1, lsl #1
 80005c2:	f44f 6480 	mov.w	r4, #1024	@ 0x400
 80005c6:	f104 0432 	add.w	r4, r4, #50	@ 0x32
 80005ca:	ea5f 5c91 	movs.w	ip, r1, lsr #22
 80005ce:	f43f aed8 	beq.w	8000382 <__adddf3+0xe6>
 80005d2:	f04f 0203 	mov.w	r2, #3
 80005d6:	ea5f 0cdc 	movs.w	ip, ip, lsr #3
 80005da:	bf18      	it	ne
 80005dc:	3203      	addne	r2, #3
 80005de:	ea5f 0cdc 	movs.w	ip, ip, lsr #3
 80005e2:	bf18      	it	ne
 80005e4:	3203      	addne	r2, #3
 80005e6:	eb02 02dc 	add.w	r2, r2, ip, lsr #3
 80005ea:	f1c2 0320 	rsb	r3, r2, #32
 80005ee:	fa00 fc03 	lsl.w	ip, r0, r3
 80005f2:	fa20 f002 	lsr.w	r0, r0, r2
 80005f6:	fa01 fe03 	lsl.w	lr, r1, r3
 80005fa:	ea40 000e 	orr.w	r0, r0, lr
 80005fe:	fa21 f102 	lsr.w	r1, r1, r2
 8000602:	4414      	add	r4, r2
 8000604:	e6bd      	b.n	8000382 <__adddf3+0xe6>
 8000606:	bf00      	nop

08000608 <__aeabi_dmul>:
 8000608:	b570      	push	{r4, r5, r6, lr}
 800060a:	f04f 0cff 	mov.w	ip, #255	@ 0xff
 800060e:	f44c 6ce0 	orr.w	ip, ip, #1792	@ 0x700
 8000612:	ea1c 5411 	ands.w	r4, ip, r1, lsr #20
 8000616:	bf1d      	ittte	ne
 8000618:	ea1c 5513 	andsne.w	r5, ip, r3, lsr #20
 800061c:	ea94 0f0c 	teqne	r4, ip
 8000620:	ea95 0f0c 	teqne	r5, ip
 8000624:	f000 f8de 	bleq	80007e4 <__aeabi_dmul+0x1dc>
 8000628:	442c      	add	r4, r5
 800062a:	ea81 0603 	eor.w	r6, r1, r3
 800062e:	ea21 514c 	bic.w	r1, r1, ip, lsl #21
 8000632:	ea23 534c 	bic.w	r3, r3, ip, lsl #21
 8000636:	ea50 3501 	orrs.w	r5, r0, r1, lsl #12
 800063a:	bf18      	it	ne
 800063c:	ea52 3503 	orrsne.w	r5, r2, r3, lsl #12
 8000640:	f441 1180 	orr.w	r1, r1, #1048576	@ 0x100000
 8000644:	f443 1380 	orr.w	r3, r3, #1048576	@ 0x100000
 8000648:	d038      	beq.n	80006bc <__aeabi_dmul+0xb4>
 800064a:	fba0 ce02 	umull	ip, lr, r0, r2
 800064e:	f04f 0500 	mov.w	r5, #0
 8000652:	fbe1 e502 	umlal	lr, r5, r1, r2
 8000656:	f006 4200 	and.w	r2, r6, #2147483648	@ 0x80000000
 800065a:	fbe0 e503 	umlal	lr, r5, r0, r3
 800065e:	f04f 0600 	mov.w	r6, #0
 8000662:	fbe1 5603 	umlal	r5, r6, r1, r3
 8000666:	f09c 0f00 	teq	ip, #0
 800066a:	bf18      	it	ne
 800066c:	f04e 0e01 	orrne.w	lr, lr, #1
 8000670:	f1a4 04ff 	sub.w	r4, r4, #255	@ 0xff
 8000674:	f5b6 7f00 	cmp.w	r6, #512	@ 0x200
 8000678:	f564 7440 	sbc.w	r4, r4, #768	@ 0x300
 800067c:	d204      	bcs.n	8000688 <__aeabi_dmul+0x80>
 800067e:	ea5f 0e4e 	movs.w	lr, lr, lsl #1
 8000682:	416d      	adcs	r5, r5
 8000684:	eb46 0606 	adc.w	r6, r6, r6
 8000688:	ea42 21c6 	orr.w	r1, r2, r6, lsl #11
 800068c:	ea41 5155 	orr.w	r1, r1, r5, lsr #21
 8000690:	ea4f 20c5 	mov.w	r0, r5, lsl #11
 8000694:	ea40 505e 	orr.w	r0, r0, lr, lsr #21
 8000698:	ea4f 2ece 	mov.w	lr, lr, lsl #11
 800069c:	f1b4 0cfd 	subs.w	ip, r4, #253	@ 0xfd
 80006a0:	bf88      	it	hi
 80006a2:	f5bc 6fe0 	cmphi.w	ip, #1792	@ 0x700
 80006a6:	d81e      	bhi.n	80006e6 <__aeabi_dmul+0xde>
 80006a8:	f1be 4f00 	cmp.w	lr, #2147483648	@ 0x80000000
 80006ac:	bf08      	it	eq
 80006ae:	ea5f 0e50 	movseq.w	lr, r0, lsr #1
 80006b2:	f150 0000 	adcs.w	r0, r0, #0
 80006b6:	eb41 5104 	adc.w	r1, r1, r4, lsl #20
 80006ba:	bd70      	pop	{r4, r5, r6, pc}
 80006bc:	f006 4600 	and.w	r6, r6, #2147483648	@ 0x80000000
 80006c0:	ea46 0101 	orr.w	r1, r6, r1
 80006c4:	ea40 0002 	orr.w	r0, r0, r2
 80006c8:	ea81 0103 	eor.w	r1, r1, r3
 80006cc:	ebb4 045c 	subs.w	r4, r4, ip, lsr #1
 80006d0:	bfc2      	ittt	gt
 80006d2:	ebd4 050c 	rsbsgt	r5, r4, ip
 80006d6:	ea41 5104 	orrgt.w	r1, r1, r4, lsl #20
 80006da:	bd70      	popgt	{r4, r5, r6, pc}
 80006dc:	f441 1180 	orr.w	r1, r1, #1048576	@ 0x100000
 80006e0:	f04f 0e00 	mov.w	lr, #0
 80006e4:	3c01      	subs	r4, #1
 80006e6:	f300 80ab 	bgt.w	8000840 <__aeabi_dmul+0x238>
 80006ea:	f114 0f36 	cmn.w	r4, #54	@ 0x36
 80006ee:	bfde      	ittt	le
 80006f0:	2000      	movle	r0, #0
 80006f2:	f001 4100 	andle.w	r1, r1, #2147483648	@ 0x80000000
 80006f6:	bd70      	pople	{r4, r5, r6, pc}
 80006f8:	f1c4 0400 	rsb	r4, r4, #0
 80006fc:	3c20      	subs	r4, #32
 80006fe:	da35      	bge.n	800076c <__aeabi_dmul+0x164>
 8000700:	340c      	adds	r4, #12
 8000702:	dc1b      	bgt.n	800073c <__aeabi_dmul+0x134>
 8000704:	f104 0414 	add.w	r4, r4, #20
 8000708:	f1c4 0520 	rsb	r5, r4, #32
 800070c:	fa00 f305 	lsl.w	r3, r0, r5
 8000710:	fa20 f004 	lsr.w	r0, r0, r4
 8000714:	fa01 f205 	lsl.w	r2, r1, r5
 8000718:	ea40 0002 	orr.w	r0, r0, r2
 800071c:	f001 4200 	and.w	r2, r1, #2147483648	@ 0x80000000
 8000720:	f021 4100 	bic.w	r1, r1, #2147483648	@ 0x80000000
 8000724:	eb10 70d3 	adds.w	r0, r0, r3, lsr #31
 8000728:	fa21 f604 	lsr.w	r6, r1, r4
 800072c:	eb42 0106 	adc.w	r1, r2, r6
 8000730:	ea5e 0e43 	orrs.w	lr, lr, r3, lsl #1
 8000734:	bf08      	it	eq
 8000736:	ea20 70d3 	biceq.w	r0, r0, r3, lsr #31
 800073a:	bd70      	pop	{r4, r5, r6, pc}
 800073c:	f1c4 040c 	rsb	r4, r4, #12
 8000740:	f1c4 0520 	rsb	r5, r4, #32
 8000744:	fa00 f304 	lsl.w	r3, r0, r4
 8000748:	fa20 f005 	lsr.w	r0, r0, r5
 800074c:	fa01 f204 	lsl.w	r2, r1, r4
 8000750:	ea40 0002 	orr.w	r0, r0, r2
 8000754:	f001 4100 	and.w	r1, r1, #2147483648	@ 0x80000000
 8000758:	eb10 70d3 	adds.w	r0, r0, r3, lsr #31
 800075c:	f141 0100 	adc.w	r1, r1, #0
 8000760:	ea5e 0e43 	orrs.w	lr, lr, r3, lsl #1
 8000764:	bf08      	it	eq
 8000766:	ea20 70d3 	biceq.w	r0, r0, r3, lsr #31
 800076a:	bd70      	pop	{r4, r5, r6, pc}
 800076c:	f1c4 0520 	rsb	r5, r4, #32
 8000770:	fa00 f205 	lsl.w	r2, r0, r5
 8000774:	ea4e 0e02 	orr.w	lr, lr, r2
 8000778:	fa20 f304 	lsr.w	r3, r0, r4
 800077c:	fa01 f205 	lsl.w	r2, r1, r5
 8000780:	ea43 0302 	orr.w	r3, r3, r2
 8000784:	fa21 f004 	lsr.w	r0, r1, r4
 8000788:	f001 4100 	and.w	r1, r1, #2147483648	@ 0x80000000
 800078c:	fa21 f204 	lsr.w	r2, r1, r4
 8000790:	ea20 0002 	bic.w	r0, r0, r2
 8000794:	eb00 70d3 	add.w	r0, r0, r3, lsr #31
 8000798:	ea5e 0e43 	orrs.w	lr, lr, r3, lsl #1
 800079c:	bf08      	it	eq
 800079e:	ea20 70d3 	biceq.w	r0, r0, r3, lsr #31
 80007a2:	bd70      	pop	{r4, r5, r6, pc}
 80007a4:	f094 0f00 	teq	r4, #0
 80007a8:	d10f      	bne.n	80007ca <__aeabi_dmul+0x1c2>
 80007aa:	f001 4600 	and.w	r6, r1, #2147483648	@ 0x80000000
 80007ae:	0040      	lsls	r0, r0, #1
 80007b0:	eb41 0101 	adc.w	r1, r1, r1
 80007b4:	f411 1f80 	tst.w	r1, #1048576	@ 0x100000
 80007b8:	bf08      	it	eq
 80007ba:	3c01      	subeq	r4, #1
 80007bc:	d0f7      	beq.n	80007ae <__aeabi_dmul+0x1a6>
 80007be:	ea41 0106 	orr.w	r1, r1, r6
 80007c2:	f095 0f00 	teq	r5, #0
 80007c6:	bf18      	it	ne
 80007c8:	4770      	bxne	lr
 80007ca:	f003 4600 	and.w	r6, r3, #2147483648	@ 0x80000000
 80007ce:	0052      	lsls	r2, r2, #1
 80007d0:	eb43 0303 	adc.w	r3, r3, r3
 80007d4:	f413 1f80 	tst.w	r3, #1048576	@ 0x100000
 80007d8:	bf08      	it	eq
 80007da:	3d01      	subeq	r5, #1
 80007dc:	d0f7      	beq.n	80007ce <__aeabi_dmul+0x1c6>
 80007de:	ea43 0306 	orr.w	r3, r3, r6
 80007e2:	4770      	bx	lr
 80007e4:	ea94 0f0c 	teq	r4, ip
 80007e8:	ea0c 5513 	and.w	r5, ip, r3, lsr #20
 80007ec:	bf18      	it	ne
 80007ee:	ea95 0f0c 	teqne	r5, ip
 80007f2:	d00c      	beq.n	800080e <__aeabi_dmul+0x206>
 80007f4:	ea50 0641 	orrs.w	r6, r0, r1, lsl #1
 80007f8:	bf18      	it	ne
 80007fa:	ea52 0643 	orrsne.w	r6, r2, r3, lsl #1
 80007fe:	d1d1      	bne.n	80007a4 <__aeabi_dmul+0x19c>
 8000800:	ea81 0103 	eor.w	r1, r1, r3
 8000804:	f001 4100 	and.w	r1, r1, #2147483648	@ 0x80000000
 8000808:	f04f 0000 	mov.w	r0, #0
 800080c:	bd70      	pop	{r4, r5, r6, pc}
 800080e:	ea50 0641 	orrs.w	r6, r0, r1, lsl #1
 8000812:	bf06      	itte	eq
 8000814:	4610      	moveq	r0, r2
 8000816:	4619      	moveq	r1, r3
 8000818:	ea52 0643 	orrsne.w	r6, r2, r3, lsl #1
 800081c:	d019      	beq.n	8000852 <__aeabi_dmul+0x24a>
 800081e:	ea94 0f0c 	teq	r4, ip
 8000822:	d102      	bne.n	800082a <__aeabi_dmul+0x222>
 8000824:	ea50 3601 	orrs.w	r6, r0, r1, lsl #12
 8000828:	d113      	bne.n	8000852 <__aeabi_dmul+0x24a>
 800082a:	ea95 0f0c 	teq	r5, ip
 800082e:	d105      	bne.n	800083c <__aeabi_dmul+0x234>
 8000830:	ea52 3603 	orrs.w	r6, r2, r3, lsl #12
 8000834:	bf1c      	itt	ne
 8000836:	4610      	movne	r0, r2
 8000838:	4619      	movne	r1, r3
 800083a:	d10a      	bne.n	8000852 <__aeabi_dmul+0x24a>
 800083c:	ea81 0103 	eor.w	r1, r1, r3
 8000840:	f001 4100 	and.w	r1, r1, #2147483648	@ 0x80000000
 8000844:	f041 41fe 	orr.w	r1, r1, #2130706432	@ 0x7f000000
 8000848:	f441 0170 	orr.w	r1, r1, #15728640	@ 0xf00000
 800084c:	f04f 0000 	mov.w	r0, #0
 8000850:	bd70      	pop	{r4, r5, r6, pc}
 8000852:	f041 41fe 	orr.w	r1, r1, #2130706432	@ 0x7f000000
 8000856:	f441 0178 	orr.w	r1, r1, #16252928	@ 0xf80000
 800085a:	bd70      	pop	{r4, r5, r6, pc}

0800085c <__aeabi_ddiv>:
 800085c:	b570      	push	{r4, r5, r6, lr}
 800085e:	f04f 0cff 	mov.w	ip, #255	@ 0xff
 8000862:	f44c 6ce0 	orr.w	ip, ip, #1792	@ 0x700
 8000866:	ea1c 5411 	ands.w	r4, ip, r1, lsr #20
 800086a:	bf1d      	ittte	ne
 800086c:	ea1c 5513 	andsne.w	r5, ip, r3, lsr #20
 8000870:	ea94 0f0c 	teqne	r4, ip
 8000874:	ea95 0f0c 	teqne	r5, ip
 8000878:	f000 f8a7 	bleq	80009ca <__aeabi_ddiv+0x16e>
 800087c:	eba4 0405 	sub.w	r4, r4, r5
 8000880:	ea81 0e03 	eor.w	lr, r1, r3
 8000884:	ea52 3503 	orrs.w	r5, r2, r3, lsl #12
 8000888:	ea4f 3101 	mov.w	r1, r1, lsl #12
 800088c:	f000 8088 	beq.w	80009a0 <__aeabi_ddiv+0x144>
 8000890:	ea4f 3303 	mov.w	r3, r3, lsl #12
 8000894:	f04f 5580 	mov.w	r5, #268435456	@ 0x10000000
 8000898:	ea45 1313 	orr.w	r3, r5, r3, lsr #4
 800089c:	ea43 6312 	orr.w	r3, r3, r2, lsr #24
 80008a0:	ea4f 2202 	mov.w	r2, r2, lsl #8
 80008a4:	ea45 1511 	orr.w	r5, r5, r1, lsr #4
 80008a8:	ea45 6510 	orr.w	r5, r5, r0, lsr #24
 80008ac:	ea4f 2600 	mov.w	r6, r0, lsl #8
 80008b0:	f00e 4100 	and.w	r1, lr, #2147483648	@ 0x80000000
 80008b4:	429d      	cmp	r5, r3
 80008b6:	bf08      	it	eq
 80008b8:	4296      	cmpeq	r6, r2
 80008ba:	f144 04fd 	adc.w	r4, r4, #253	@ 0xfd
 80008be:	f504 7440 	add.w	r4, r4, #768	@ 0x300
 80008c2:	d202      	bcs.n	80008ca <__aeabi_ddiv+0x6e>
 80008c4:	085b      	lsrs	r3, r3, #1
 80008c6:	ea4f 0232 	mov.w	r2, r2, rrx
 80008ca:	1ab6      	subs	r6, r6, r2
 80008cc:	eb65 0503 	sbc.w	r5, r5, r3
 80008d0:	085b      	lsrs	r3, r3, #1
 80008d2:	ea4f 0232 	mov.w	r2, r2, rrx
 80008d6:	f44f 1080 	mov.w	r0, #1048576	@ 0x100000
 80008da:	f44f 2c00 	mov.w	ip, #524288	@ 0x80000
 80008de:	ebb6 0e02 	subs.w	lr, r6, r2
 80008e2:	eb75 0e03 	sbcs.w	lr, r5, r3
 80008e6:	bf22      	ittt	cs
 80008e8:	1ab6      	subcs	r6, r6, r2
 80008ea:	4675      	movcs	r5, lr
 80008ec:	ea40 000c 	orrcs.w	r0, r0, ip
 80008f0:	085b      	lsrs	r3, r3, #1
 80008f2:	ea4f 0232 	mov.w	r2, r2, rrx
 80008f6:	ebb6 0e02 	subs.w	lr, r6, r2
 80008fa:	eb75 0e03 	sbcs.w	lr, r5, r3
 80008fe:	bf22      	ittt	cs
 8000900:	1ab6      	subcs	r6, r6, r2
 8000902:	4675      	movcs	r5, lr
 8000904:	ea40 005c 	orrcs.w	r0, r0, ip, lsr #1
 8000908:	085b      	lsrs	r3, r3, #1
 800090a:	ea4f 0232 	mov.w	r2, r2, rrx
 800090e:	ebb6 0e02 	subs.w	lr, r6, r2
 8000912:	eb75 0e03 	sbcs.w	lr, r5, r3
 8000916:	bf22      	ittt	cs
 8000918:	1ab6      	subcs	r6, r6, r2
 800091a:	4675      	movcs	r5, lr
 800091c:	ea40 009c 	orrcs.w	r0, r0, ip, lsr #2
 8000920:	085b      	lsrs	r3, r3, #1
 8000922:	ea4f 0232 	mov.w	r2, r2, rrx
 8000926:	ebb6 0e02 	subs.w	lr, r6, r2
 800092a:	eb75 0e03 	sbcs.w	lr, r5, r3
 800092e:	bf22      	ittt	cs
 8000930:	1ab6      	subcs	r6, r6, r2
 8000932:	4675      	movcs	r5, lr
 8000934:	ea40 00dc 	orrcs.w	r0, r0, ip, lsr #3
 8000938:	ea55 0e06 	orrs.w	lr, r5, r6
 800093c:	d018      	beq.n	8000970 <__aeabi_ddiv+0x114>
 800093e:	ea4f 1505 	mov.w	r5, r5, lsl #4
 8000942:	ea45 7516 	orr.w	r5, r5, r6, lsr #28
 8000946:	ea4f 1606 	mov.w	r6, r6, lsl #4
 800094a:	ea4f 03c3 	mov.w	r3, r3, lsl #3
 800094e:	ea43 7352 	orr.w	r3, r3, r2, lsr #29
 8000952:	ea4f 02c2 	mov.w	r2, r2, lsl #3
 8000956:	ea5f 1c1c 	movs.w	ip, ip, lsr #4
 800095a:	d1c0      	bne.n	80008de <__aeabi_ddiv+0x82>
 800095c:	f411 1f80 	tst.w	r1, #1048576	@ 0x100000
 8000960:	d10b      	bne.n	800097a <__aeabi_ddiv+0x11e>
 8000962:	ea41 0100 	orr.w	r1, r1, r0
 8000966:	f04f 0000 	mov.w	r0, #0
 800096a:	f04f 4c00 	mov.w	ip, #2147483648	@ 0x80000000
 800096e:	e7b6      	b.n	80008de <__aeabi_ddiv+0x82>
 8000970:	f411 1f80 	tst.w	r1, #1048576	@ 0x100000
 8000974:	bf04      	itt	eq
 8000976:	4301      	orreq	r1, r0
 8000978:	2000      	moveq	r0, #0
 800097a:	f1b4 0cfd 	subs.w	ip, r4, #253	@ 0xfd
 800097e:	bf88      	it	hi
 8000980:	f5bc 6fe0 	cmphi.w	ip, #1792	@ 0x700
 8000984:	f63f aeaf 	bhi.w	80006e6 <__aeabi_dmul+0xde>
 8000988:	ebb5 0c03 	subs.w	ip, r5, r3
 800098c:	bf04      	itt	eq
 800098e:	ebb6 0c02 	subseq.w	ip, r6, r2
 8000992:	ea5f 0c50 	movseq.w	ip, r0, lsr #1
 8000996:	f150 0000 	adcs.w	r0, r0, #0
 800099a:	eb41 5104 	adc.w	r1, r1, r4, lsl #20
 800099e:	bd70      	pop	{r4, r5, r6, pc}
 80009a0:	f00e 4e00 	and.w	lr, lr, #2147483648	@ 0x80000000
 80009a4:	ea4e 3111 	orr.w	r1, lr, r1, lsr #12
 80009a8:	eb14 045c 	adds.w	r4, r4, ip, lsr #1
 80009ac:	bfc2      	ittt	gt
 80009ae:	ebd4 050c 	rsbsgt	r5, r4, ip
 80009b2:	ea41 5104 	orrgt.w	r1, r1, r4, lsl #20
 80009b6:	bd70      	popgt	{r4, r5, r6, pc}
 80009b8:	f441 1180 	orr.w	r1, r1, #1048576	@ 0x100000
 80009bc:	f04f 0e00 	mov.w	lr, #0
 80009c0:	3c01      	subs	r4, #1
 80009c2:	e690      	b.n	80006e6 <__aeabi_dmul+0xde>
 80009c4:	ea45 0e06 	orr.w	lr, r5, r6
 80009c8:	e68d      	b.n	80006e6 <__aeabi_dmul+0xde>
 80009ca:	ea0c 5513 	and.w	r5, ip, r3, lsr #20
 80009ce:	ea94 0f0c 	teq	r4, ip
 80009d2:	bf08      	it	eq
 80009d4:	ea95 0f0c 	teqeq	r5, ip
 80009d8:	f43f af3b 	beq.w	8000852 <__aeabi_dmul+0x24a>
 80009dc:	ea94 0f0c 	teq	r4, ip
 80009e0:	d10a      	bne.n	80009f8 <__aeabi_ddiv+0x19c>
 80009e2:	ea50 3401 	orrs.w	r4, r0, r1, lsl #12
 80009e6:	f47f af34 	bne.w	8000852 <__aeabi_dmul+0x24a>
 80009ea:	ea95 0f0c 	teq	r5, ip
 80009ee:	f47f af25 	bne.w	800083c <__aeabi_dmul+0x234>
 80009f2:	4610      	mov	r0, r2
 80009f4:	4619      	mov	r1, r3
 80009f6:	e72c      	b.n	8000852 <__aeabi_dmul+0x24a>
 80009f8:	ea95 0f0c 	teq	r5, ip
 80009fc:	d106      	bne.n	8000a0c <__aeabi_ddiv+0x1b0>
 80009fe:	ea52 3503 	orrs.w	r5, r2, r3, lsl #12
 8000a02:	f43f aefd 	beq.w	8000800 <__aeabi_dmul+0x1f8>
 8000a06:	4610      	mov	r0, r2
 8000a08:	4619      	mov	r1, r3
 8000a0a:	e722      	b.n	8000852 <__aeabi_dmul+0x24a>
 8000a0c:	ea50 0641 	orrs.w	r6, r0, r1, lsl #1
 8000a10:	bf18      	it	ne
 8000a12:	ea52 0643 	orrsne.w	r6, r2, r3, lsl #1
 8000a16:	f47f aec5 	bne.w	80007a4 <__aeabi_dmul+0x19c>
 8000a1a:	ea50 0441 	orrs.w	r4, r0, r1, lsl #1
 8000a1e:	f47f af0d 	bne.w	800083c <__aeabi_dmul+0x234>
 8000a22:	ea52 0543 	orrs.w	r5, r2, r3, lsl #1
 8000a26:	f47f aeeb 	bne.w	8000800 <__aeabi_dmul+0x1f8>
 8000a2a:	e712      	b.n	8000852 <__aeabi_dmul+0x24a>

08000a2c <__gedf2>:
 8000a2c:	f04f 3cff 	mov.w	ip, #4294967295
 8000a30:	e006      	b.n	8000a40 <__cmpdf2+0x4>
 8000a32:	bf00      	nop

08000a34 <__ledf2>:
 8000a34:	f04f 0c01 	mov.w	ip, #1
 8000a38:	e002      	b.n	8000a40 <__cmpdf2+0x4>
 8000a3a:	bf00      	nop

08000a3c <__cmpdf2>:
 8000a3c:	f04f 0c01 	mov.w	ip, #1
 8000a40:	f84d cd04 	str.w	ip, [sp, #-4]!
 8000a44:	ea4f 0c41 	mov.w	ip, r1, lsl #1
 8000a48:	ea7f 5c6c 	mvns.w	ip, ip, asr #21
 8000a4c:	ea4f 0c43 	mov.w	ip, r3, lsl #1
 8000a50:	bf18      	it	ne
 8000a52:	ea7f 5c6c 	mvnsne.w	ip, ip, asr #21
 8000a56:	d01b      	beq.n	8000a90 <__cmpdf2+0x54>
 8000a58:	b001      	add	sp, #4
 8000a5a:	ea50 0c41 	orrs.w	ip, r0, r1, lsl #1
 8000a5e:	bf0c      	ite	eq
 8000a60:	ea52 0c43 	orrseq.w	ip, r2, r3, lsl #1
 8000a64:	ea91 0f03 	teqne	r1, r3
 8000a68:	bf02      	ittt	eq
 8000a6a:	ea90 0f02 	teqeq	r0, r2
 8000a6e:	2000      	moveq	r0, #0
 8000a70:	4770      	bxeq	lr
 8000a72:	f110 0f00 	cmn.w	r0, #0
 8000a76:	ea91 0f03 	teq	r1, r3
 8000a7a:	bf58      	it	pl
 8000a7c:	4299      	cmppl	r1, r3
 8000a7e:	bf08      	it	eq
 8000a80:	4290      	cmpeq	r0, r2
 8000a82:	bf2c      	ite	cs
 8000a84:	17d8      	asrcs	r0, r3, #31
 8000a86:	ea6f 70e3 	mvncc.w	r0, r3, asr #31
 8000a8a:	f040 0001 	orr.w	r0, r0, #1
 8000a8e:	4770      	bx	lr
 8000a90:	ea4f 0c41 	mov.w	ip, r1, lsl #1
 8000a94:	ea7f 5c6c 	mvns.w	ip, ip, asr #21
 8000a98:	d102      	bne.n	8000aa0 <__cmpdf2+0x64>
 8000a9a:	ea50 3c01 	orrs.w	ip, r0, r1, lsl #12
 8000a9e:	d107      	bne.n	8000ab0 <__cmpdf2+0x74>
 8000aa0:	ea4f 0c43 	mov.w	ip, r3, lsl #1
 8000aa4:	ea7f 5c6c 	mvns.w	ip, ip, asr #21
 8000aa8:	d1d6      	bne.n	8000a58 <__cmpdf2+0x1c>
 8000aaa:	ea52 3c03 	orrs.w	ip, r2, r3, lsl #12
 8000aae:	d0d3      	beq.n	8000a58 <__cmpdf2+0x1c>
 8000ab0:	f85d 0b04 	ldr.w	r0, [sp], #4
 8000ab4:	4770      	bx	lr
 8000ab6:	bf00      	nop

08000ab8 <__aeabi_cdrcmple>:
 8000ab8:	4684      	mov	ip, r0
 8000aba:	4610      	mov	r0, r2
 8000abc:	4662      	mov	r2, ip
 8000abe:	468c      	mov	ip, r1
 8000ac0:	4619      	mov	r1, r3
 8000ac2:	4663      	mov	r3, ip
 8000ac4:	e000      	b.n	8000ac8 <__aeabi_cdcmpeq>
 8000ac6:	bf00      	nop

08000ac8 <__aeabi_cdcmpeq>:
 8000ac8:	b501      	push	{r0, lr}
 8000aca:	f7ff ffb7 	bl	8000a3c <__cmpdf2>
 8000ace:	2800      	cmp	r0, #0
 8000ad0:	bf48      	it	mi
 8000ad2:	f110 0f00 	cmnmi.w	r0, #0
 8000ad6:	bd01      	pop	{r0, pc}

08000ad8 <__aeabi_dcmpeq>:
 8000ad8:	f84d ed08 	str.w	lr, [sp, #-8]!
 8000adc:	f7ff fff4 	bl	8000ac8 <__aeabi_cdcmpeq>
 8000ae0:	bf0c      	ite	eq
 8000ae2:	2001      	moveq	r0, #1
 8000ae4:	2000      	movne	r0, #0
 8000ae6:	f85d fb08 	ldr.w	pc, [sp], #8
 8000aea:	bf00      	nop

08000aec <__aeabi_dcmplt>:
 8000aec:	f84d ed08 	str.w	lr, [sp, #-8]!
 8000af0:	f7ff ffea 	bl	8000ac8 <__aeabi_cdcmpeq>
 8000af4:	bf34      	ite	cc
 8000af6:	2001      	movcc	r0, #1
 8000af8:	2000      	movcs	r0, #0
 8000afa:	f85d fb08 	ldr.w	pc, [sp], #8
 8000afe:	bf00      	nop

08000b00 <__aeabi_dcmple>:
 8000b00:	f84d ed08 	str.w	lr, [sp, #-8]!
 8000b04:	f7ff ffe0 	bl	8000ac8 <__aeabi_cdcmpeq>
 8000b08:	bf94      	ite	ls
 8000b0a:	2001      	movls	r0, #1
 8000b0c:	2000      	movhi	r0, #0
 8000b0e:	f85d fb08 	ldr.w	pc, [sp], #8
 8000b12:	bf00      	nop

08000b14 <__aeabi_dcmpge>:
 8000b14:	f84d ed08 	str.w	lr, [sp, #-8]!
 8000b18:	f7ff ffce 	bl	8000ab8 <__aeabi_cdrcmple>
 8000b1c:	bf94      	ite	ls
 8000b1e:	2001      	movls	r0, #1
 8000b20:	2000      	movhi	r0, #0
 8000b22:	f85d fb08 	ldr.w	pc, [sp], #8
 8000b26:	bf00      	nop

08000b28 <__aeabi_dcmpgt>:
 8000b28:	f84d ed08 	str.w	lr, [sp, #-8]!
 8000b2c:	f7ff ffc4 	bl	8000ab8 <__aeabi_cdrcmple>
 8000b30:	bf34      	ite	cc
 8000b32:	2001      	movcc	r0, #1
 8000b34:	2000      	movcs	r0, #0
 8000b36:	f85d fb08 	ldr.w	pc, [sp], #8
 8000b3a:	bf00      	nop

08000b3c <__aeabi_dcmpun>:
 8000b3c:	ea4f 0c41 	mov.w	ip, r1, lsl #1
 8000b40:	ea7f 5c6c 	mvns.w	ip, ip, asr #21
 8000b44:	d102      	bne.n	8000b4c <__aeabi_dcmpun+0x10>
 8000b46:	ea50 3c01 	orrs.w	ip, r0, r1, lsl #12
 8000b4a:	d10a      	bne.n	8000b62 <__aeabi_dcmpun+0x26>
 8000b4c:	ea4f 0c43 	mov.w	ip, r3, lsl #1
 8000b50:	ea7f 5c6c 	mvns.w	ip, ip, asr #21
 8000b54:	d102      	bne.n	8000b5c <__aeabi_dcmpun+0x20>
 8000b56:	ea52 3c03 	orrs.w	ip, r2, r3, lsl #12
 8000b5a:	d102      	bne.n	8000b62 <__aeabi_dcmpun+0x26>
 8000b5c:	f04f 0000 	mov.w	r0, #0
 8000b60:	4770      	bx	lr
 8000b62:	f04f 0001 	mov.w	r0, #1
 8000b66:	4770      	bx	lr

08000b68 <__aeabi_d2iz>:
 8000b68:	ea4f 0241 	mov.w	r2, r1, lsl #1
 8000b6c:	f512 1200 	adds.w	r2, r2, #2097152	@ 0x200000
 8000b70:	d215      	bcs.n	8000b9e <__aeabi_d2iz+0x36>
 8000b72:	d511      	bpl.n	8000b98 <__aeabi_d2iz+0x30>
 8000b74:	f46f 7378 	mvn.w	r3, #992	@ 0x3e0
 8000b78:	ebb3 5262 	subs.w	r2, r3, r2, asr #21
 8000b7c:	d912      	bls.n	8000ba4 <__aeabi_d2iz+0x3c>
 8000b7e:	ea4f 23c1 	mov.w	r3, r1, lsl #11
 8000b82:	f043 4300 	orr.w	r3, r3, #2147483648	@ 0x80000000
 8000b86:	ea43 5350 	orr.w	r3, r3, r0, lsr #21
 8000b8a:	f011 4f00 	tst.w	r1, #2147483648	@ 0x80000000
 8000b8e:	fa23 f002 	lsr.w	r0, r3, r2
 8000b92:	bf18      	it	ne
 8000b94:	4240      	negne	r0, r0
 8000b96:	4770      	bx	lr
 8000b98:	f04f 0000 	mov.w	r0, #0
 8000b9c:	4770      	bx	lr
 8000b9e:	ea50 3001 	orrs.w	r0, r0, r1, lsl #12
 8000ba2:	d105      	bne.n	8000bb0 <__aeabi_d2iz+0x48>
 8000ba4:	f011 4000 	ands.w	r0, r1, #2147483648	@ 0x80000000
 8000ba8:	bf08      	it	eq
 8000baa:	f06f 4000 	mvneq.w	r0, #2147483648	@ 0x80000000
 8000bae:	4770      	bx	lr
 8000bb0:	f04f 0000 	mov.w	r0, #0
 8000bb4:	4770      	bx	lr
 8000bb6:	bf00      	nop

08000bb8 <__aeabi_d2uiz>:
 8000bb8:	004a      	lsls	r2, r1, #1
 8000bba:	d211      	bcs.n	8000be0 <__aeabi_d2uiz+0x28>
 8000bbc:	f512 1200 	adds.w	r2, r2, #2097152	@ 0x200000
 8000bc0:	d211      	bcs.n	8000be6 <__aeabi_d2uiz+0x2e>
 8000bc2:	d50d      	bpl.n	8000be0 <__aeabi_d2uiz+0x28>
 8000bc4:	f46f 7378 	mvn.w	r3, #992	@ 0x3e0
 8000bc8:	ebb3 5262 	subs.w	r2, r3, r2, asr #21
 8000bcc:	d40e      	bmi.n	8000bec <__aeabi_d2uiz+0x34>
 8000bce:	ea4f 23c1 	mov.w	r3, r1, lsl #11
 8000bd2:	f043 4300 	orr.w	r3, r3, #2147483648	@ 0x80000000
 8000bd6:	ea43 5350 	orr.w	r3, r3, r0, lsr #21
 8000bda:	fa23 f002 	lsr.w	r0, r3, r2
 8000bde:	4770      	bx	lr
 8000be0:	f04f 0000 	mov.w	r0, #0
 8000be4:	4770      	bx	lr
 8000be6:	ea50 3001 	orrs.w	r0, r0, r1, lsl #12
 8000bea:	d102      	bne.n	8000bf2 <__aeabi_d2uiz+0x3a>
 8000bec:	f04f 30ff 	mov.w	r0, #4294967295
 8000bf0:	4770      	bx	lr
 8000bf2:	f04f 0000 	mov.w	r0, #0
 8000bf6:	4770      	bx	lr

08000bf8 <__aeabi_d2f>:
 8000bf8:	ea4f 0241 	mov.w	r2, r1, lsl #1
 8000bfc:	f1b2 43e0 	subs.w	r3, r2, #1879048192	@ 0x70000000
 8000c00:	bf24      	itt	cs
 8000c02:	f5b3 1c00 	subscs.w	ip, r3, #2097152	@ 0x200000
 8000c06:	f1dc 5cfe 	rsbscs	ip, ip, #532676608	@ 0x1fc00000
 8000c0a:	d90d      	bls.n	8000c28 <__aeabi_d2f+0x30>
 8000c0c:	f001 4c00 	and.w	ip, r1, #2147483648	@ 0x80000000
 8000c10:	ea4f 02c0 	mov.w	r2, r0, lsl #3
 8000c14:	ea4c 7050 	orr.w	r0, ip, r0, lsr #29
 8000c18:	f1b2 4f00 	cmp.w	r2, #2147483648	@ 0x80000000
 8000c1c:	eb40 0083 	adc.w	r0, r0, r3, lsl #2
 8000c20:	bf08      	it	eq
 8000c22:	f020 0001 	biceq.w	r0, r0, #1
 8000c26:	4770      	bx	lr
 8000c28:	f011 4f80 	tst.w	r1, #1073741824	@ 0x40000000
 8000c2c:	d121      	bne.n	8000c72 <__aeabi_d2f+0x7a>
 8000c2e:	f113 7238 	adds.w	r2, r3, #48234496	@ 0x2e00000
 8000c32:	bfbc      	itt	lt
 8000c34:	f001 4000 	andlt.w	r0, r1, #2147483648	@ 0x80000000
 8000c38:	4770      	bxlt	lr
 8000c3a:	f441 1180 	orr.w	r1, r1, #1048576	@ 0x100000
 8000c3e:	ea4f 5252 	mov.w	r2, r2, lsr #21
 8000c42:	f1c2 0218 	rsb	r2, r2, #24
 8000c46:	f1c2 0c20 	rsb	ip, r2, #32
 8000c4a:	fa10 f30c 	lsls.w	r3, r0, ip
 8000c4e:	fa20 f002 	lsr.w	r0, r0, r2
 8000c52:	bf18      	it	ne
 8000c54:	f040 0001 	orrne.w	r0, r0, #1
 8000c58:	ea4f 23c1 	mov.w	r3, r1, lsl #11
 8000c5c:	ea4f 23d3 	mov.w	r3, r3, lsr #11
 8000c60:	fa03 fc0c 	lsl.w	ip, r3, ip
 8000c64:	ea40 000c 	orr.w	r0, r0, ip
 8000c68:	fa23 f302 	lsr.w	r3, r3, r2
 8000c6c:	ea4f 0343 	mov.w	r3, r3, lsl #1
 8000c70:	e7cc      	b.n	8000c0c <__aeabi_d2f+0x14>
 8000c72:	ea7f 5362 	mvns.w	r3, r2, asr #21
 8000c76:	d107      	bne.n	8000c88 <__aeabi_d2f+0x90>
 8000c78:	ea50 3301 	orrs.w	r3, r0, r1, lsl #12
 8000c7c:	bf1e      	ittt	ne
 8000c7e:	f04f 40fe 	movne.w	r0, #2130706432	@ 0x7f000000
 8000c82:	f440 0040 	orrne.w	r0, r0, #12582912	@ 0xc00000
 8000c86:	4770      	bxne	lr
 8000c88:	f001 4000 	and.w	r0, r1, #2147483648	@ 0x80000000
 8000c8c:	f040 40fe 	orr.w	r0, r0, #2130706432	@ 0x7f000000
 8000c90:	f440 0000 	orr.w	r0, r0, #8388608	@ 0x800000
 8000c94:	4770      	bx	lr
 8000c96:	bf00      	nop

08000c98 <__aeabi_uldivmod>:
 8000c98:	b953      	cbnz	r3, 8000cb0 <__aeabi_uldivmod+0x18>
 8000c9a:	b94a      	cbnz	r2, 8000cb0 <__aeabi_uldivmod+0x18>
 8000c9c:	2900      	cmp	r1, #0
 8000c9e:	bf08      	it	eq
 8000ca0:	2800      	cmpeq	r0, #0
 8000ca2:	bf1c      	itt	ne
 8000ca4:	f04f 31ff 	movne.w	r1, #4294967295
 8000ca8:	f04f 30ff 	movne.w	r0, #4294967295
 8000cac:	f000 b9be 	b.w	800102c <__aeabi_idiv0>
 8000cb0:	f1ad 0c08 	sub.w	ip, sp, #8
 8000cb4:	e96d ce04 	strd	ip, lr, [sp, #-16]!
 8000cb8:	f000 f83c 	bl	8000d34 <__udivmoddi4>
 8000cbc:	f8dd e004 	ldr.w	lr, [sp, #4]
 8000cc0:	e9dd 2302 	ldrd	r2, r3, [sp, #8]
 8000cc4:	b004      	add	sp, #16
 8000cc6:	4770      	bx	lr

08000cc8 <__aeabi_d2lz>:
 8000cc8:	b538      	push	{r3, r4, r5, lr}
 8000cca:	2200      	movs	r2, #0
 8000ccc:	2300      	movs	r3, #0
 8000cce:	4604      	mov	r4, r0
 8000cd0:	460d      	mov	r5, r1
 8000cd2:	f7ff ff0b 	bl	8000aec <__aeabi_dcmplt>
 8000cd6:	b928      	cbnz	r0, 8000ce4 <__aeabi_d2lz+0x1c>
 8000cd8:	4620      	mov	r0, r4
 8000cda:	4629      	mov	r1, r5
 8000cdc:	e8bd 4038 	ldmia.w	sp!, {r3, r4, r5, lr}
 8000ce0:	f000 b80a 	b.w	8000cf8 <__aeabi_d2ulz>
 8000ce4:	4620      	mov	r0, r4
 8000ce6:	f105 4100 	add.w	r1, r5, #2147483648	@ 0x80000000
 8000cea:	f000 f805 	bl	8000cf8 <__aeabi_d2ulz>
 8000cee:	4240      	negs	r0, r0
 8000cf0:	eb61 0141 	sbc.w	r1, r1, r1, lsl #1
 8000cf4:	bd38      	pop	{r3, r4, r5, pc}
 8000cf6:	bf00      	nop

08000cf8 <__aeabi_d2ulz>:
 8000cf8:	b5d0      	push	{r4, r6, r7, lr}
 8000cfa:	4b0c      	ldr	r3, [pc, #48]	@ (8000d2c <__aeabi_d2ulz+0x34>)
 8000cfc:	2200      	movs	r2, #0
 8000cfe:	4606      	mov	r6, r0
 8000d00:	460f      	mov	r7, r1
 8000d02:	f7ff fc81 	bl	8000608 <__aeabi_dmul>
 8000d06:	f7ff ff57 	bl	8000bb8 <__aeabi_d2uiz>
 8000d0a:	4604      	mov	r4, r0
 8000d0c:	f7ff fc02 	bl	8000514 <__aeabi_ui2d>
 8000d10:	4b07      	ldr	r3, [pc, #28]	@ (8000d30 <__aeabi_d2ulz+0x38>)
 8000d12:	2200      	movs	r2, #0
 8000d14:	f7ff fc78 	bl	8000608 <__aeabi_dmul>
 8000d18:	4602      	mov	r2, r0
 8000d1a:	460b      	mov	r3, r1
 8000d1c:	4630      	mov	r0, r6
 8000d1e:	4639      	mov	r1, r7
 8000d20:	f7ff faba 	bl	8000298 <__aeabi_dsub>
 8000d24:	f7ff ff48 	bl	8000bb8 <__aeabi_d2uiz>
 8000d28:	4621      	mov	r1, r4
 8000d2a:	bdd0      	pop	{r4, r6, r7, pc}
 8000d2c:	3df00000 	.word	0x3df00000
 8000d30:	41f00000 	.word	0x41f00000

08000d34 <__udivmoddi4>:
 8000d34:	e92d 47f0 	stmdb	sp!, {r4, r5, r6, r7, r8, r9, sl, lr}
 8000d38:	9d08      	ldr	r5, [sp, #32]
 8000d3a:	468e      	mov	lr, r1
 8000d3c:	4604      	mov	r4, r0
 8000d3e:	4688      	mov	r8, r1
 8000d40:	2b00      	cmp	r3, #0
 8000d42:	d14a      	bne.n	8000dda <__udivmoddi4+0xa6>
 8000d44:	428a      	cmp	r2, r1
 8000d46:	4617      	mov	r7, r2
 8000d48:	d962      	bls.n	8000e10 <__udivmoddi4+0xdc>
 8000d4a:	fab2 f682 	clz	r6, r2
 8000d4e:	b14e      	cbz	r6, 8000d64 <__udivmoddi4+0x30>
 8000d50:	f1c6 0320 	rsb	r3, r6, #32
 8000d54:	fa01 f806 	lsl.w	r8, r1, r6
 8000d58:	fa20 f303 	lsr.w	r3, r0, r3
 8000d5c:	40b7      	lsls	r7, r6
 8000d5e:	ea43 0808 	orr.w	r8, r3, r8
 8000d62:	40b4      	lsls	r4, r6
 8000d64:	ea4f 4e17 	mov.w	lr, r7, lsr #16
 8000d68:	fa1f fc87 	uxth.w	ip, r7
 8000d6c:	fbb8 f1fe 	udiv	r1, r8, lr
 8000d70:	0c23      	lsrs	r3, r4, #16
 8000d72:	fb0e 8811 	mls	r8, lr, r1, r8
 8000d76:	ea43 4308 	orr.w	r3, r3, r8, lsl #16
 8000d7a:	fb01 f20c 	mul.w	r2, r1, ip
 8000d7e:	429a      	cmp	r2, r3
 8000d80:	d909      	bls.n	8000d96 <__udivmoddi4+0x62>
 8000d82:	18fb      	adds	r3, r7, r3
 8000d84:	f101 30ff 	add.w	r0, r1, #4294967295
 8000d88:	f080 80ea 	bcs.w	8000f60 <__udivmoddi4+0x22c>
 8000d8c:	429a      	cmp	r2, r3
 8000d8e:	f240 80e7 	bls.w	8000f60 <__udivmoddi4+0x22c>
 8000d92:	3902      	subs	r1, #2
 8000d94:	443b      	add	r3, r7
 8000d96:	1a9a      	subs	r2, r3, r2
 8000d98:	b2a3      	uxth	r3, r4
 8000d9a:	fbb2 f0fe 	udiv	r0, r2, lr
 8000d9e:	fb0e 2210 	mls	r2, lr, r0, r2
 8000da2:	ea43 4302 	orr.w	r3, r3, r2, lsl #16
 8000da6:	fb00 fc0c 	mul.w	ip, r0, ip
 8000daa:	459c      	cmp	ip, r3
 8000dac:	d909      	bls.n	8000dc2 <__udivmoddi4+0x8e>
 8000dae:	18fb      	adds	r3, r7, r3
 8000db0:	f100 32ff 	add.w	r2, r0, #4294967295
 8000db4:	f080 80d6 	bcs.w	8000f64 <__udivmoddi4+0x230>
 8000db8:	459c      	cmp	ip, r3
 8000dba:	f240 80d3 	bls.w	8000f64 <__udivmoddi4+0x230>
 8000dbe:	443b      	add	r3, r7
 8000dc0:	3802      	subs	r0, #2
 8000dc2:	ea40 4001 	orr.w	r0, r0, r1, lsl #16
 8000dc6:	eba3 030c 	sub.w	r3, r3, ip
 8000dca:	2100      	movs	r1, #0
 8000dcc:	b11d      	cbz	r5, 8000dd6 <__udivmoddi4+0xa2>
 8000dce:	40f3      	lsrs	r3, r6
 8000dd0:	2200      	movs	r2, #0
 8000dd2:	e9c5 3200 	strd	r3, r2, [r5]
 8000dd6:	e8bd 87f0 	ldmia.w	sp!, {r4, r5, r6, r7, r8, r9, sl, pc}
 8000dda:	428b      	cmp	r3, r1
 8000ddc:	d905      	bls.n	8000dea <__udivmoddi4+0xb6>
 8000dde:	b10d      	cbz	r5, 8000de4 <__udivmoddi4+0xb0>
 8000de0:	e9c5 0100 	strd	r0, r1, [r5]
 8000de4:	2100      	movs	r1, #0
 8000de6:	4608      	mov	r0, r1
 8000de8:	e7f5      	b.n	8000dd6 <__udivmoddi4+0xa2>
 8000dea:	fab3 f183 	clz	r1, r3
 8000dee:	2900      	cmp	r1, #0
 8000df0:	d146      	bne.n	8000e80 <__udivmoddi4+0x14c>
 8000df2:	4573      	cmp	r3, lr
 8000df4:	d302      	bcc.n	8000dfc <__udivmoddi4+0xc8>
 8000df6:	4282      	cmp	r2, r0
 8000df8:	f200 8105 	bhi.w	8001006 <__udivmoddi4+0x2d2>
 8000dfc:	1a84      	subs	r4, r0, r2
 8000dfe:	eb6e 0203 	sbc.w	r2, lr, r3
 8000e02:	2001      	movs	r0, #1
 8000e04:	4690      	mov	r8, r2
 8000e06:	2d00      	cmp	r5, #0
 8000e08:	d0e5      	beq.n	8000dd6 <__udivmoddi4+0xa2>
 8000e0a:	e9c5 4800 	strd	r4, r8, [r5]
 8000e0e:	e7e2      	b.n	8000dd6 <__udivmoddi4+0xa2>
 8000e10:	2a00      	cmp	r2, #0
 8000e12:	f000 8090 	beq.w	8000f36 <__udivmoddi4+0x202>
 8000e16:	fab2 f682 	clz	r6, r2
 8000e1a:	2e00      	cmp	r6, #0
 8000e1c:	f040 80a4 	bne.w	8000f68 <__udivmoddi4+0x234>
 8000e20:	1a8a      	subs	r2, r1, r2
 8000e22:	0c03      	lsrs	r3, r0, #16
 8000e24:	ea4f 4e17 	mov.w	lr, r7, lsr #16
 8000e28:	b280      	uxth	r0, r0
 8000e2a:	b2bc      	uxth	r4, r7
 8000e2c:	2101      	movs	r1, #1
 8000e2e:	fbb2 fcfe 	udiv	ip, r2, lr
 8000e32:	fb0e 221c 	mls	r2, lr, ip, r2
 8000e36:	ea43 4302 	orr.w	r3, r3, r2, lsl #16
 8000e3a:	fb04 f20c 	mul.w	r2, r4, ip
 8000e3e:	429a      	cmp	r2, r3
 8000e40:	d907      	bls.n	8000e52 <__udivmoddi4+0x11e>
 8000e42:	18fb      	adds	r3, r7, r3
 8000e44:	f10c 38ff 	add.w	r8, ip, #4294967295
 8000e48:	d202      	bcs.n	8000e50 <__udivmoddi4+0x11c>
 8000e4a:	429a      	cmp	r2, r3
 8000e4c:	f200 80e0 	bhi.w	8001010 <__udivmoddi4+0x2dc>
 8000e50:	46c4      	mov	ip, r8
 8000e52:	1a9b      	subs	r3, r3, r2
 8000e54:	fbb3 f2fe 	udiv	r2, r3, lr
 8000e58:	fb0e 3312 	mls	r3, lr, r2, r3
 8000e5c:	ea40 4303 	orr.w	r3, r0, r3, lsl #16
 8000e60:	fb02 f404 	mul.w	r4, r2, r4
 8000e64:	429c      	cmp	r4, r3
 8000e66:	d907      	bls.n	8000e78 <__udivmoddi4+0x144>
 8000e68:	18fb      	adds	r3, r7, r3
 8000e6a:	f102 30ff 	add.w	r0, r2, #4294967295
 8000e6e:	d202      	bcs.n	8000e76 <__udivmoddi4+0x142>
 8000e70:	429c      	cmp	r4, r3
 8000e72:	f200 80ca 	bhi.w	800100a <__udivmoddi4+0x2d6>
 8000e76:	4602      	mov	r2, r0
 8000e78:	1b1b      	subs	r3, r3, r4
 8000e7a:	ea42 400c 	orr.w	r0, r2, ip, lsl #16
 8000e7e:	e7a5      	b.n	8000dcc <__udivmoddi4+0x98>
 8000e80:	f1c1 0620 	rsb	r6, r1, #32
 8000e84:	408b      	lsls	r3, r1
 8000e86:	fa22 f706 	lsr.w	r7, r2, r6
 8000e8a:	431f      	orrs	r7, r3
 8000e8c:	fa0e f401 	lsl.w	r4, lr, r1
 8000e90:	fa20 f306 	lsr.w	r3, r0, r6
 8000e94:	fa2e fe06 	lsr.w	lr, lr, r6
 8000e98:	ea4f 4917 	mov.w	r9, r7, lsr #16
 8000e9c:	4323      	orrs	r3, r4
 8000e9e:	fa00 f801 	lsl.w	r8, r0, r1
 8000ea2:	fa1f fc87 	uxth.w	ip, r7
 8000ea6:	fbbe f0f9 	udiv	r0, lr, r9
 8000eaa:	0c1c      	lsrs	r4, r3, #16
 8000eac:	fb09 ee10 	mls	lr, r9, r0, lr
 8000eb0:	ea44 440e 	orr.w	r4, r4, lr, lsl #16
 8000eb4:	fb00 fe0c 	mul.w	lr, r0, ip
 8000eb8:	45a6      	cmp	lr, r4
 8000eba:	fa02 f201 	lsl.w	r2, r2, r1
 8000ebe:	d909      	bls.n	8000ed4 <__udivmoddi4+0x1a0>
 8000ec0:	193c      	adds	r4, r7, r4
 8000ec2:	f100 3aff 	add.w	sl, r0, #4294967295
 8000ec6:	f080 809c 	bcs.w	8001002 <__udivmoddi4+0x2ce>
 8000eca:	45a6      	cmp	lr, r4
 8000ecc:	f240 8099 	bls.w	8001002 <__udivmoddi4+0x2ce>
 8000ed0:	3802      	subs	r0, #2
 8000ed2:	443c      	add	r4, r7
 8000ed4:	eba4 040e 	sub.w	r4, r4, lr
 8000ed8:	fa1f fe83 	uxth.w	lr, r3
 8000edc:	fbb4 f3f9 	udiv	r3, r4, r9
 8000ee0:	fb09 4413 	mls	r4, r9, r3, r4
 8000ee4:	ea4e 4404 	orr.w	r4, lr, r4, lsl #16
 8000ee8:	fb03 fc0c 	mul.w	ip, r3, ip
 8000eec:	45a4      	cmp	ip, r4
 8000eee:	d908      	bls.n	8000f02 <__udivmoddi4+0x1ce>
 8000ef0:	193c      	adds	r4, r7, r4
 8000ef2:	f103 3eff 	add.w	lr, r3, #4294967295
 8000ef6:	f080 8082 	bcs.w	8000ffe <__udivmoddi4+0x2ca>
 8000efa:	45a4      	cmp	ip, r4
 8000efc:	d97f      	bls.n	8000ffe <__udivmoddi4+0x2ca>
 8000efe:	3b02      	subs	r3, #2
 8000f00:	443c      	add	r4, r7
 8000f02:	ea43 4000 	orr.w	r0, r3, r0, lsl #16
 8000f06:	eba4 040c 	sub.w	r4, r4, ip
 8000f0a:	fba0 ec02 	umull	lr, ip, r0, r2
 8000f0e:	4564      	cmp	r4, ip
 8000f10:	4673      	mov	r3, lr
 8000f12:	46e1      	mov	r9, ip
 8000f14:	d362      	bcc.n	8000fdc <__udivmoddi4+0x2a8>
 8000f16:	d05f      	beq.n	8000fd8 <__udivmoddi4+0x2a4>
 8000f18:	b15d      	cbz	r5, 8000f32 <__udivmoddi4+0x1fe>
 8000f1a:	ebb8 0203 	subs.w	r2, r8, r3
 8000f1e:	eb64 0409 	sbc.w	r4, r4, r9
 8000f22:	fa04 f606 	lsl.w	r6, r4, r6
 8000f26:	fa22 f301 	lsr.w	r3, r2, r1
 8000f2a:	431e      	orrs	r6, r3
 8000f2c:	40cc      	lsrs	r4, r1
 8000f2e:	e9c5 6400 	strd	r6, r4, [r5]
 8000f32:	2100      	movs	r1, #0
 8000f34:	e74f      	b.n	8000dd6 <__udivmoddi4+0xa2>
 8000f36:	fbb1 fcf2 	udiv	ip, r1, r2
 8000f3a:	0c01      	lsrs	r1, r0, #16
 8000f3c:	ea41 410e 	orr.w	r1, r1, lr, lsl #16
 8000f40:	b280      	uxth	r0, r0
 8000f42:	ea40 4201 	orr.w	r2, r0, r1, lsl #16
 8000f46:	463b      	mov	r3, r7
 8000f48:	4638      	mov	r0, r7
 8000f4a:	463c      	mov	r4, r7
 8000f4c:	46b8      	mov	r8, r7
 8000f4e:	46be      	mov	lr, r7
 8000f50:	2620      	movs	r6, #32
 8000f52:	fbb1 f1f7 	udiv	r1, r1, r7
 8000f56:	eba2 0208 	sub.w	r2, r2, r8
 8000f5a:	ea41 410c 	orr.w	r1, r1, ip, lsl #16
 8000f5e:	e766      	b.n	8000e2e <__udivmoddi4+0xfa>
 8000f60:	4601      	mov	r1, r0
 8000f62:	e718      	b.n	8000d96 <__udivmoddi4+0x62>
 8000f64:	4610      	mov	r0, r2
 8000f66:	e72c      	b.n	8000dc2 <__udivmoddi4+0x8e>
 8000f68:	f1c6 0220 	rsb	r2, r6, #32
 8000f6c:	fa2e f302 	lsr.w	r3, lr, r2
 8000f70:	40b7      	lsls	r7, r6
 8000f72:	40b1      	lsls	r1, r6
 8000f74:	fa20 f202 	lsr.w	r2, r0, r2
 8000f78:	ea4f 4e17 	mov.w	lr, r7, lsr #16
 8000f7c:	430a      	orrs	r2, r1
 8000f7e:	fbb3 f8fe 	udiv	r8, r3, lr
 8000f82:	b2bc      	uxth	r4, r7
 8000f84:	fb0e 3318 	mls	r3, lr, r8, r3
 8000f88:	0c11      	lsrs	r1, r2, #16
 8000f8a:	ea41 4103 	orr.w	r1, r1, r3, lsl #16
 8000f8e:	fb08 f904 	mul.w	r9, r8, r4
 8000f92:	40b0      	lsls	r0, r6
 8000f94:	4589      	cmp	r9, r1
 8000f96:	ea4f 4310 	mov.w	r3, r0, lsr #16
 8000f9a:	b280      	uxth	r0, r0
 8000f9c:	d93e      	bls.n	800101c <__udivmoddi4+0x2e8>
 8000f9e:	1879      	adds	r1, r7, r1
 8000fa0:	f108 3cff 	add.w	ip, r8, #4294967295
 8000fa4:	d201      	bcs.n	8000faa <__udivmoddi4+0x276>
 8000fa6:	4589      	cmp	r9, r1
 8000fa8:	d81f      	bhi.n	8000fea <__udivmoddi4+0x2b6>
 8000faa:	eba1 0109 	sub.w	r1, r1, r9
 8000fae:	fbb1 f9fe 	udiv	r9, r1, lr
 8000fb2:	fb09 f804 	mul.w	r8, r9, r4
 8000fb6:	fb0e 1119 	mls	r1, lr, r9, r1
 8000fba:	b292      	uxth	r2, r2
 8000fbc:	ea42 4201 	orr.w	r2, r2, r1, lsl #16
 8000fc0:	4542      	cmp	r2, r8
 8000fc2:	d229      	bcs.n	8001018 <__udivmoddi4+0x2e4>
 8000fc4:	18ba      	adds	r2, r7, r2
 8000fc6:	f109 31ff 	add.w	r1, r9, #4294967295
 8000fca:	d2c4      	bcs.n	8000f56 <__udivmoddi4+0x222>
 8000fcc:	4542      	cmp	r2, r8
 8000fce:	d2c2      	bcs.n	8000f56 <__udivmoddi4+0x222>
 8000fd0:	f1a9 0102 	sub.w	r1, r9, #2
 8000fd4:	443a      	add	r2, r7
 8000fd6:	e7be      	b.n	8000f56 <__udivmoddi4+0x222>
 8000fd8:	45f0      	cmp	r8, lr
 8000fda:	d29d      	bcs.n	8000f18 <__udivmoddi4+0x1e4>
 8000fdc:	ebbe 0302 	subs.w	r3, lr, r2
 8000fe0:	eb6c 0c07 	sbc.w	ip, ip, r7
 8000fe4:	3801      	subs	r0, #1
 8000fe6:	46e1      	mov	r9, ip
 8000fe8:	e796      	b.n	8000f18 <__udivmoddi4+0x1e4>
 8000fea:	eba7 0909 	sub.w	r9, r7, r9
 8000fee:	4449      	add	r1, r9
 8000ff0:	f1a8 0c02 	sub.w	ip, r8, #2
 8000ff4:	fbb1 f9fe 	udiv	r9, r1, lr
 8000ff8:	fb09 f804 	mul.w	r8, r9, r4
 8000ffc:	e7db      	b.n	8000fb6 <__udivmoddi4+0x282>
 8000ffe:	4673      	mov	r3, lr
 8001000:	e77f      	b.n	8000f02 <__udivmoddi4+0x1ce>
 8001002:	4650      	mov	r0, sl
 8001004:	e766      	b.n	8000ed4 <__udivmoddi4+0x1a0>
 8001006:	4608      	mov	r0, r1
 8001008:	e6fd      	b.n	8000e06 <__udivmoddi4+0xd2>
 800100a:	443b      	add	r3, r7
 800100c:	3a02      	subs	r2, #2
 800100e:	e733      	b.n	8000e78 <__udivmoddi4+0x144>
 8001010:	f1ac 0c02 	sub.w	ip, ip, #2
 8001014:	443b      	add	r3, r7
 8001016:	e71c      	b.n	8000e52 <__udivmoddi4+0x11e>
 8001018:	4649      	mov	r1, r9
 800101a:	e79c      	b.n	8000f56 <__udivmoddi4+0x222>
 800101c:	eba1 0109 	sub.w	r1, r1, r9
 8001020:	46c4      	mov	ip, r8
 8001022:	fbb1 f9fe 	udiv	r9, r1, lr
 8001026:	fb09 f804 	mul.w	r8, r9, r4
 800102a:	e7c4      	b.n	8000fb6 <__udivmoddi4+0x282>

0800102c <__aeabi_idiv0>:
 800102c:	4770      	bx	lr
 800102e:	bf00      	nop

08001030 <main>:
uint8_t MPU6050_Init(void);
void MPU6050_Calibrate(void);
void MPU6050_Read_AccelGyro(void);
void Parse_GGA_Generic(char *nmea);

int main(void) {
 8001030:	e92d 4fb0 	stmdb	sp!, {r4, r5, r7, r8, r9, sl, fp, lr}
 8001034:	b094      	sub	sp, #80	@ 0x50
 8001036:	af06      	add	r7, sp, #24
	HAL_Init();
 8001038:	f001 fb98 	bl	800276c <HAL_Init>
	SystemClock_Config();
 800103c:	f001 f87c 	bl	8002138 <SystemClock_Config>
	MX_GPIO_Init();
 8001040:	f001 f928 	bl	8002294 <MX_GPIO_Init>
	MX_I2C1_Init();
 8001044:	f001 f8d8 	bl	80021f8 <MX_I2C1_Init>
	MX_USART1_UART_Init();
 8001048:	f001 f900 	bl	800224c <MX_USART1_UART_Init>
	MX_USART2_UART_Init(); // This function now includes the Interrupt Enable fix
 800104c:	f000 fd32 	bl	8001ab4 <MX_USART2_UART_Init>

	printf("\n--- VeloCET Payload: Data Fusion Active ---\n");
 8001050:	4897      	ldr	r0, [pc, #604]	@ (80012b0 <main+0x280>)
 8001052:	f006 f8a1 	bl	8007198 <puts>

	if (MPU6050_Init() == 0)
 8001056:	f000 fdd9 	bl	8001c0c <MPU6050_Init>
 800105a:	4603      	mov	r3, r0
 800105c:	2b00      	cmp	r3, #0
 800105e:	d103      	bne.n	8001068 <main+0x38>
		printf("MPU6050 OK.\n");
 8001060:	4894      	ldr	r0, [pc, #592]	@ (80012b4 <main+0x284>)
 8001062:	f006 f899 	bl	8007198 <puts>
 8001066:	e002      	b.n	800106e <main+0x3e>
	else
		printf("MPU6050 FAIL.\n");
 8001068:	4893      	ldr	r0, [pc, #588]	@ (80012b8 <main+0x288>)
 800106a:	f006 f895 	bl	8007198 <puts>

	printf("Calibrating IMU... Keep Still.\n");
 800106e:	4893      	ldr	r0, [pc, #588]	@ (80012bc <main+0x28c>)
 8001070:	f006 f892 	bl	8007198 <puts>
	HAL_Delay(2000);
 8001074:	f44f 60fa 	mov.w	r0, #2000	@ 0x7d0
 8001078:	f001 fbea 	bl	8002850 <HAL_Delay>
	MPU6050_Calibrate();
 800107c:	f000 fe10 	bl	8001ca0 <MPU6050_Calibrate>
	printf("Ready. Listening for GPS & Barometer...\n");
 8001080:	488f      	ldr	r0, [pc, #572]	@ (80012c0 <main+0x290>)
 8001082:	f006 f889 	bl	8007198 <puts>

	// Start Interrupts
	HAL_UART_Receive_IT(&huart1, &gps_rx_char, 1);
 8001086:	2201      	movs	r2, #1
 8001088:	498e      	ldr	r1, [pc, #568]	@ (80012c4 <main+0x294>)
 800108a:	488f      	ldr	r0, [pc, #572]	@ (80012c8 <main+0x298>)
 800108c:	f003 fcb7 	bl	80049fe <HAL_UART_Receive_IT>
	HAL_UART_Receive_IT(&huart2, &baro_rx_byte, 1);
 8001090:	2201      	movs	r2, #1
 8001092:	498e      	ldr	r1, [pc, #568]	@ (80012cc <main+0x29c>)
 8001094:	488e      	ldr	r0, [pc, #568]	@ (80012d0 <main+0x2a0>)
 8001096:	f003 fcb2 	bl	80049fe <HAL_UART_Receive_IT>

	uint32_t start_time = HAL_GetTick();
 800109a:	f001 fbcd 	bl	8002838 <HAL_GetTick>
 800109e:	6378      	str	r0, [r7, #52]	@ 0x34

	float f_ax, f_ay, f_az, f_gx, f_gy, f_gz;

	quaternion rocketQ = { 0 };
 80010a0:	1d3b      	adds	r3, r7, #4
 80010a2:	2200      	movs	r2, #0
 80010a4:	601a      	str	r2, [r3, #0]
 80010a6:	605a      	str	r2, [r3, #4]
 80010a8:	609a      	str	r2, [r3, #8]
 80010aa:	60da      	str	r2, [r3, #12]
 80010ac:	611a      	str	r2, [r3, #16]
 80010ae:	615a      	str	r2, [r3, #20]
	rocketQ.beta = 0.1;
 80010b0:	4b88      	ldr	r3, [pc, #544]	@ (80012d4 <main+0x2a4>)
 80010b2:	617b      	str	r3, [r7, #20]
	rocketQ.q0 = 1.0;
 80010b4:	f04f 537e 	mov.w	r3, #1065353216	@ 0x3f800000
 80010b8:	607b      	str	r3, [r7, #4]
	rocketQ.sampleFreq = 100.0;
 80010ba:	4b87      	ldr	r3, [pc, #540]	@ (80012d8 <main+0x2a8>)
 80010bc:	61bb      	str	r3, [r7, #24]

	while (1) {
		HAL_GPIO_TogglePin(GPIOC, GPIO_PIN_13);
 80010be:	f44f 5100 	mov.w	r1, #8192	@ 0x2000
 80010c2:	4886      	ldr	r0, [pc, #536]	@ (80012dc <main+0x2ac>)
 80010c4:	f001 ff29 	bl	8002f1a <HAL_GPIO_TogglePin>

		//100hz
		if (HAL_GetTick() - start_time > 10) {
 80010c8:	f001 fbb6 	bl	8002838 <HAL_GetTick>
 80010cc:	4602      	mov	r2, r0
 80010ce:	6b7b      	ldr	r3, [r7, #52]	@ 0x34
 80010d0:	1ad3      	subs	r3, r2, r3
 80010d2:	2b0a      	cmp	r3, #10
 80010d4:	d9f3      	bls.n	80010be <main+0x8e>
			//gps data ready
			if (gps_data_ready) {
 80010d6:	4b82      	ldr	r3, [pc, #520]	@ (80012e0 <main+0x2b0>)
 80010d8:	781b      	ldrb	r3, [r3, #0]
 80010da:	b2db      	uxtb	r3, r3
 80010dc:	2b00      	cmp	r3, #0
 80010de:	d00c      	beq.n	80010fa <main+0xca>
				if (strstr(nmea_buffer, "GGA") != NULL)
 80010e0:	4980      	ldr	r1, [pc, #512]	@ (80012e4 <main+0x2b4>)
 80010e2:	4881      	ldr	r0, [pc, #516]	@ (80012e8 <main+0x2b8>)
 80010e4:	f006 f95f 	bl	80073a6 <strstr>
 80010e8:	4603      	mov	r3, r0
 80010ea:	2b00      	cmp	r3, #0
 80010ec:	d002      	beq.n	80010f4 <main+0xc4>
					Parse_GGA_Generic(nmea_buffer);
 80010ee:	487e      	ldr	r0, [pc, #504]	@ (80012e8 <main+0x2b8>)
 80010f0:	f000 fd12 	bl	8001b18 <Parse_GGA_Generic>
				//update current position with GPS correction for EKF
				gps_data_ready = 0;
 80010f4:	4b7a      	ldr	r3, [pc, #488]	@ (80012e0 <main+0x2b0>)
 80010f6:	2200      	movs	r2, #0
 80010f8:	701a      	strb	r2, [r3, #0]
			}
			MPU6050_Read_AccelGyro();
 80010fa:	f000 ff25 	bl	8001f48 <MPU6050_Read_AccelGyro>
			//convert raw data to float
			f_ax = vehicleState.AccX;
 80010fe:	4b7b      	ldr	r3, [pc, #492]	@ (80012ec <main+0x2bc>)
 8001100:	f9b3 3000 	ldrsh.w	r3, [r3]
 8001104:	ee07 3a90 	vmov	s15, r3
 8001108:	eef8 7ae7 	vcvt.f32.s32	s15, s15
 800110c:	edc7 7a0c 	vstr	s15, [r7, #48]	@ 0x30
			f_ay = vehicleState.AccY;
 8001110:	4b76      	ldr	r3, [pc, #472]	@ (80012ec <main+0x2bc>)
 8001112:	f9b3 3002 	ldrsh.w	r3, [r3, #2]
 8001116:	ee07 3a90 	vmov	s15, r3
 800111a:	eef8 7ae7 	vcvt.f32.s32	s15, s15
 800111e:	edc7 7a0b 	vstr	s15, [r7, #44]	@ 0x2c
			f_az = vehicleState.AccZ;
 8001122:	4b72      	ldr	r3, [pc, #456]	@ (80012ec <main+0x2bc>)
 8001124:	f9b3 3004 	ldrsh.w	r3, [r3, #4]
 8001128:	ee07 3a90 	vmov	s15, r3
 800112c:	eef8 7ae7 	vcvt.f32.s32	s15, s15
 8001130:	edc7 7a0a 	vstr	s15, [r7, #40]	@ 0x28
			f_gx = vehicleState.GyroX;
 8001134:	4b6d      	ldr	r3, [pc, #436]	@ (80012ec <main+0x2bc>)
 8001136:	f9b3 3006 	ldrsh.w	r3, [r3, #6]
 800113a:	ee07 3a90 	vmov	s15, r3
 800113e:	eef8 7ae7 	vcvt.f32.s32	s15, s15
 8001142:	edc7 7a09 	vstr	s15, [r7, #36]	@ 0x24
			f_gy = vehicleState.GyroY;
 8001146:	4b69      	ldr	r3, [pc, #420]	@ (80012ec <main+0x2bc>)
 8001148:	f9b3 3008 	ldrsh.w	r3, [r3, #8]
 800114c:	ee07 3a90 	vmov	s15, r3
 8001150:	eef8 7ae7 	vcvt.f32.s32	s15, s15
 8001154:	edc7 7a08 	vstr	s15, [r7, #32]
			f_gz = vehicleState.GyroZ;
 8001158:	4b64      	ldr	r3, [pc, #400]	@ (80012ec <main+0x2bc>)
 800115a:	f9b3 300a 	ldrsh.w	r3, [r3, #10]
 800115e:	ee07 3a90 	vmov	s15, r3
 8001162:	eef8 7ae7 	vcvt.f32.s32	s15, s15
 8001166:	edc7 7a07 	vstr	s15, [r7, #28]

			//acc:
			f_ax /= 2048;
 800116a:	ed97 7a0c 	vldr	s14, [r7, #48]	@ 0x30
 800116e:	eddf 6a60 	vldr	s13, [pc, #384]	@ 80012f0 <main+0x2c0>
 8001172:	eec7 7a26 	vdiv.f32	s15, s14, s13
 8001176:	edc7 7a0c 	vstr	s15, [r7, #48]	@ 0x30
			f_ay /= 2048;
 800117a:	ed97 7a0b 	vldr	s14, [r7, #44]	@ 0x2c
 800117e:	eddf 6a5c 	vldr	s13, [pc, #368]	@ 80012f0 <main+0x2c0>
 8001182:	eec7 7a26 	vdiv.f32	s15, s14, s13
 8001186:	edc7 7a0b 	vstr	s15, [r7, #44]	@ 0x2c
			f_az /= 2048;
 800118a:	ed97 7a0a 	vldr	s14, [r7, #40]	@ 0x28
 800118e:	eddf 6a58 	vldr	s13, [pc, #352]	@ 80012f0 <main+0x2c0>
 8001192:	eec7 7a26 	vdiv.f32	s15, s14, s13
 8001196:	edc7 7a0a 	vstr	s15, [r7, #40]	@ 0x28

			//gyro:
			f_gx = (f_gx / 16.4) * (PI / 180);
 800119a:	6a78      	ldr	r0, [r7, #36]	@ 0x24
 800119c:	f7ff f9dc 	bl	8000558 <__aeabi_f2d>
 80011a0:	a33f      	add	r3, pc, #252	@ (adr r3, 80012a0 <main+0x270>)
 80011a2:	e9d3 2300 	ldrd	r2, r3, [r3]
 80011a6:	f7ff fb59 	bl	800085c <__aeabi_ddiv>
 80011aa:	4602      	mov	r2, r0
 80011ac:	460b      	mov	r3, r1
 80011ae:	4610      	mov	r0, r2
 80011b0:	4619      	mov	r1, r3
 80011b2:	a33d      	add	r3, pc, #244	@ (adr r3, 80012a8 <main+0x278>)
 80011b4:	e9d3 2300 	ldrd	r2, r3, [r3]
 80011b8:	f7ff fa26 	bl	8000608 <__aeabi_dmul>
 80011bc:	4602      	mov	r2, r0
 80011be:	460b      	mov	r3, r1
 80011c0:	4610      	mov	r0, r2
 80011c2:	4619      	mov	r1, r3
 80011c4:	f7ff fd18 	bl	8000bf8 <__aeabi_d2f>
 80011c8:	4603      	mov	r3, r0
 80011ca:	627b      	str	r3, [r7, #36]	@ 0x24
			f_gy = (f_gy / 16.4) * (PI / 180);
 80011cc:	6a38      	ldr	r0, [r7, #32]
 80011ce:	f7ff f9c3 	bl	8000558 <__aeabi_f2d>
 80011d2:	a333      	add	r3, pc, #204	@ (adr r3, 80012a0 <main+0x270>)
 80011d4:	e9d3 2300 	ldrd	r2, r3, [r3]
 80011d8:	f7ff fb40 	bl	800085c <__aeabi_ddiv>
 80011dc:	4602      	mov	r2, r0
 80011de:	460b      	mov	r3, r1
 80011e0:	4610      	mov	r0, r2
 80011e2:	4619      	mov	r1, r3
 80011e4:	a330      	add	r3, pc, #192	@ (adr r3, 80012a8 <main+0x278>)
 80011e6:	e9d3 2300 	ldrd	r2, r3, [r3]
 80011ea:	f7ff fa0d 	bl	8000608 <__aeabi_dmul>
 80011ee:	4602      	mov	r2, r0
 80011f0:	460b      	mov	r3, r1
 80011f2:	4610      	mov	r0, r2
 80011f4:	4619      	mov	r1, r3
 80011f6:	f7ff fcff 	bl	8000bf8 <__aeabi_d2f>
 80011fa:	4603      	mov	r3, r0
 80011fc:	623b      	str	r3, [r7, #32]
			f_gz = (f_gz / 16.4) * (PI / 180);
 80011fe:	69f8      	ldr	r0, [r7, #28]
 8001200:	f7ff f9aa 	bl	8000558 <__aeabi_f2d>
 8001204:	a326      	add	r3, pc, #152	@ (adr r3, 80012a0 <main+0x270>)
 8001206:	e9d3 2300 	ldrd	r2, r3, [r3]
 800120a:	f7ff fb27 	bl	800085c <__aeabi_ddiv>
 800120e:	4602      	mov	r2, r0
 8001210:	460b      	mov	r3, r1
 8001212:	4610      	mov	r0, r2
 8001214:	4619      	mov	r1, r3
 8001216:	a324      	add	r3, pc, #144	@ (adr r3, 80012a8 <main+0x278>)
 8001218:	e9d3 2300 	ldrd	r2, r3, [r3]
 800121c:	f7ff f9f4 	bl	8000608 <__aeabi_dmul>
 8001220:	4602      	mov	r2, r0
 8001222:	460b      	mov	r3, r1
 8001224:	4610      	mov	r0, r2
 8001226:	4619      	mov	r1, r3
 8001228:	f7ff fce6 	bl	8000bf8 <__aeabi_d2f>
 800122c:	4603      	mov	r3, r0
 800122e:	61fb      	str	r3, [r7, #28]

			madgwickUpdate(&rocketQ, f_ax, f_ay, f_az, f_gx, f_gy, f_gz);
 8001230:	1d3b      	adds	r3, r7, #4
 8001232:	edd7 2a07 	vldr	s5, [r7, #28]
 8001236:	ed97 2a08 	vldr	s4, [r7, #32]
 800123a:	edd7 1a09 	vldr	s3, [r7, #36]	@ 0x24
 800123e:	ed97 1a0a 	vldr	s2, [r7, #40]	@ 0x28
 8001242:	edd7 0a0b 	vldr	s1, [r7, #44]	@ 0x2c
 8001246:	ed97 0a0c 	vldr	s0, [r7, #48]	@ 0x30
 800124a:	4618      	mov	r0, r3
 800124c:	f000 f854 	bl	80012f8 <madgwickUpdate>

			printf("Q: %.3f, %.3f, %.3f, %.3f\r\n", rocketQ.q0, rocketQ.q1,
 8001250:	687b      	ldr	r3, [r7, #4]
 8001252:	4618      	mov	r0, r3
 8001254:	f7ff f980 	bl	8000558 <__aeabi_f2d>
 8001258:	4682      	mov	sl, r0
 800125a:	468b      	mov	fp, r1
 800125c:	68bb      	ldr	r3, [r7, #8]
 800125e:	4618      	mov	r0, r3
 8001260:	f7ff f97a 	bl	8000558 <__aeabi_f2d>
 8001264:	4604      	mov	r4, r0
 8001266:	460d      	mov	r5, r1
					rocketQ.q2, rocketQ.q3);
 8001268:	68fb      	ldr	r3, [r7, #12]
			printf("Q: %.3f, %.3f, %.3f, %.3f\r\n", rocketQ.q0, rocketQ.q1,
 800126a:	4618      	mov	r0, r3
 800126c:	f7ff f974 	bl	8000558 <__aeabi_f2d>
 8001270:	4680      	mov	r8, r0
 8001272:	4689      	mov	r9, r1
					rocketQ.q2, rocketQ.q3);
 8001274:	693b      	ldr	r3, [r7, #16]
			printf("Q: %.3f, %.3f, %.3f, %.3f\r\n", rocketQ.q0, rocketQ.q1,
 8001276:	4618      	mov	r0, r3
 8001278:	f7ff f96e 	bl	8000558 <__aeabi_f2d>
 800127c:	4602      	mov	r2, r0
 800127e:	460b      	mov	r3, r1
 8001280:	e9cd 2304 	strd	r2, r3, [sp, #16]
 8001284:	e9cd 8902 	strd	r8, r9, [sp, #8]
 8001288:	e9cd 4500 	strd	r4, r5, [sp]
 800128c:	4652      	mov	r2, sl
 800128e:	465b      	mov	r3, fp
 8001290:	4818      	ldr	r0, [pc, #96]	@ (80012f4 <main+0x2c4>)
 8001292:	f005 ff19 	bl	80070c8 <iprintf>

			start_time = HAL_GetTick();
 8001296:	f001 facf 	bl	8002838 <HAL_GetTick>
 800129a:	6378      	str	r0, [r7, #52]	@ 0x34
		HAL_GPIO_TogglePin(GPIOC, GPIO_PIN_13);
 800129c:	e70f      	b.n	80010be <main+0x8e>
 800129e:	bf00      	nop
 80012a0:	66666666 	.word	0x66666666
 80012a4:	40306666 	.word	0x40306666
 80012a8:	a1fae712 	.word	0xa1fae712
 80012ac:	3f91df46 	.word	0x3f91df46
 80012b0:	080099e0 	.word	0x080099e0
 80012b4:	08009a10 	.word	0x08009a10
 80012b8:	08009a1c 	.word	0x08009a1c
 80012bc:	08009a2c 	.word	0x08009a2c
 80012c0:	08009a4c 	.word	0x08009a4c
 80012c4:	2000030e 	.word	0x2000030e
 80012c8:	20000248 	.word	0x20000248
 80012cc:	200002f8 	.word	0x200002f8
 80012d0:	20000290 	.word	0x20000290
 80012d4:	3dcccccd 	.word	0x3dcccccd
 80012d8:	42c80000 	.word	0x42c80000
 80012dc:	40020800 	.word	0x40020800
 80012e0:	20000391 	.word	0x20000391
 80012e4:	08009a74 	.word	0x08009a74
 80012e8:	20000310 	.word	0x20000310
 80012ec:	200002d8 	.word	0x200002d8
 80012f0:	45000000 	.word	0x45000000
 80012f4:	08009a78 	.word	0x08009a78

080012f8 <madgwickUpdate>:
}

//function definitions

void madgwickUpdate(quaternion *q, float ax, float ay, float az, float gx,
		float gy, float gz) {
 80012f8:	b580      	push	{r7, lr}
 80012fa:	b0a4      	sub	sp, #144	@ 0x90
 80012fc:	af00      	add	r7, sp, #0
 80012fe:	61f8      	str	r0, [r7, #28]
 8001300:	ed87 0a06 	vstr	s0, [r7, #24]
 8001304:	edc7 0a05 	vstr	s1, [r7, #20]
 8001308:	ed87 1a04 	vstr	s2, [r7, #16]
 800130c:	edc7 1a03 	vstr	s3, [r7, #12]
 8001310:	ed87 2a02 	vstr	s4, [r7, #8]
 8001314:	edc7 2a01 	vstr	s5, [r7, #4]
	float q0 = q->q0, q1 = q->q1, q2 = q->q2, q3 = q->q3;
 8001318:	69fb      	ldr	r3, [r7, #28]
 800131a:	681b      	ldr	r3, [r3, #0]
 800131c:	67fb      	str	r3, [r7, #124]	@ 0x7c
 800131e:	69fb      	ldr	r3, [r7, #28]
 8001320:	685b      	ldr	r3, [r3, #4]
 8001322:	67bb      	str	r3, [r7, #120]	@ 0x78
 8001324:	69fb      	ldr	r3, [r7, #28]
 8001326:	689b      	ldr	r3, [r3, #8]
 8001328:	677b      	str	r3, [r7, #116]	@ 0x74
 800132a:	69fb      	ldr	r3, [r7, #28]
 800132c:	68db      	ldr	r3, [r3, #12]
 800132e:	673b      	str	r3, [r7, #112]	@ 0x70
	float norm;
	float s0, s1, s2, s3;
	float qDot1, qDot2, qDot3, qDot4;

	qDot1 = 0.5f * (-q1 * gx - q2 * gy - q3 * gz);
 8001330:	edd7 7a1e 	vldr	s15, [r7, #120]	@ 0x78
 8001334:	eeb1 7a67 	vneg.f32	s14, s15
 8001338:	edd7 7a03 	vldr	s15, [r7, #12]
 800133c:	ee27 7a27 	vmul.f32	s14, s14, s15
 8001340:	edd7 6a1d 	vldr	s13, [r7, #116]	@ 0x74
 8001344:	edd7 7a02 	vldr	s15, [r7, #8]
 8001348:	ee66 7aa7 	vmul.f32	s15, s13, s15
 800134c:	ee37 7a67 	vsub.f32	s14, s14, s15
 8001350:	edd7 6a1c 	vldr	s13, [r7, #112]	@ 0x70
 8001354:	edd7 7a01 	vldr	s15, [r7, #4]
 8001358:	ee66 7aa7 	vmul.f32	s15, s13, s15
 800135c:	ee77 7a67 	vsub.f32	s15, s14, s15
 8001360:	eeb6 7a00 	vmov.f32	s14, #96	@ 0x3f000000  0.5
 8001364:	ee67 7a87 	vmul.f32	s15, s15, s14
 8001368:	edc7 7a23 	vstr	s15, [r7, #140]	@ 0x8c
	qDot2 = 0.5f * (q0 * gx + q2 * gz - q3 * gy);
 800136c:	ed97 7a1f 	vldr	s14, [r7, #124]	@ 0x7c
 8001370:	edd7 7a03 	vldr	s15, [r7, #12]
 8001374:	ee27 7a27 	vmul.f32	s14, s14, s15
 8001378:	edd7 6a1d 	vldr	s13, [r7, #116]	@ 0x74
 800137c:	edd7 7a01 	vldr	s15, [r7, #4]
 8001380:	ee66 7aa7 	vmul.f32	s15, s13, s15
 8001384:	ee37 7a27 	vadd.f32	s14, s14, s15
 8001388:	edd7 6a1c 	vldr	s13, [r7, #112]	@ 0x70
 800138c:	edd7 7a02 	vldr	s15, [r7, #8]
 8001390:	ee66 7aa7 	vmul.f32	s15, s13, s15
 8001394:	ee77 7a67 	vsub.f32	s15, s14, s15
 8001398:	eeb6 7a00 	vmov.f32	s14, #96	@ 0x3f000000  0.5
 800139c:	ee67 7a87 	vmul.f32	s15, s15, s14
 80013a0:	edc7 7a22 	vstr	s15, [r7, #136]	@ 0x88
	qDot3 = 0.5f * (q0 * gy - q1 * gz + q3 * gx);
 80013a4:	ed97 7a1f 	vldr	s14, [r7, #124]	@ 0x7c
 80013a8:	edd7 7a02 	vldr	s15, [r7, #8]
 80013ac:	ee27 7a27 	vmul.f32	s14, s14, s15
 80013b0:	edd7 6a1e 	vldr	s13, [r7, #120]	@ 0x78
 80013b4:	edd7 7a01 	vldr	s15, [r7, #4]
 80013b8:	ee66 7aa7 	vmul.f32	s15, s13, s15
 80013bc:	ee37 7a67 	vsub.f32	s14, s14, s15
 80013c0:	edd7 6a1c 	vldr	s13, [r7, #112]	@ 0x70
 80013c4:	edd7 7a03 	vldr	s15, [r7, #12]
 80013c8:	ee66 7aa7 	vmul.f32	s15, s13, s15
 80013cc:	ee77 7a27 	vadd.f32	s15, s14, s15
 80013d0:	eeb6 7a00 	vmov.f32	s14, #96	@ 0x3f000000  0.5
 80013d4:	ee67 7a87 	vmul.f32	s15, s15, s14
 80013d8:	edc7 7a21 	vstr	s15, [r7, #132]	@ 0x84
	qDot4 = 0.5f * (q0 * gz + q1 * gy - q2 * gx);
 80013dc:	ed97 7a1f 	vldr	s14, [r7, #124]	@ 0x7c
 80013e0:	edd7 7a01 	vldr	s15, [r7, #4]
 80013e4:	ee27 7a27 	vmul.f32	s14, s14, s15
 80013e8:	edd7 6a1e 	vldr	s13, [r7, #120]	@ 0x78
 80013ec:	edd7 7a02 	vldr	s15, [r7, #8]
 80013f0:	ee66 7aa7 	vmul.f32	s15, s13, s15
 80013f4:	ee37 7a27 	vadd.f32	s14, s14, s15
 80013f8:	edd7 6a1d 	vldr	s13, [r7, #116]	@ 0x74
 80013fc:	edd7 7a03 	vldr	s15, [r7, #12]
 8001400:	ee66 7aa7 	vmul.f32	s15, s13, s15
 8001404:	ee77 7a67 	vsub.f32	s15, s14, s15
 8001408:	eeb6 7a00 	vmov.f32	s14, #96	@ 0x3f000000  0.5
 800140c:	ee67 7a87 	vmul.f32	s15, s15, s14
 8001410:	edc7 7a20 	vstr	s15, [r7, #128]	@ 0x80

	if (!((ax == 0.0f) && (ay == 0.0f) && (az == 0.0f))) {
 8001414:	edd7 7a06 	vldr	s15, [r7, #24]
 8001418:	eef5 7a40 	vcmp.f32	s15, #0.0
 800141c:	eef1 fa10 	vmrs	APSR_nzcv, fpscr
 8001420:	d10e      	bne.n	8001440 <madgwickUpdate+0x148>
 8001422:	edd7 7a05 	vldr	s15, [r7, #20]
 8001426:	eef5 7a40 	vcmp.f32	s15, #0.0
 800142a:	eef1 fa10 	vmrs	APSR_nzcv, fpscr
 800142e:	d107      	bne.n	8001440 <madgwickUpdate+0x148>
 8001430:	edd7 7a04 	vldr	s15, [r7, #16]
 8001434:	eef5 7a40 	vcmp.f32	s15, #0.0
 8001438:	eef1 fa10 	vmrs	APSR_nzcv, fpscr
 800143c:	f000 81cd 	beq.w	80017da <madgwickUpdate+0x4e2>

		norm = sqrtf(ax * ax + ay * ay + az * az);
 8001440:	edd7 7a06 	vldr	s15, [r7, #24]
 8001444:	ee27 7aa7 	vmul.f32	s14, s15, s15
 8001448:	edd7 7a05 	vldr	s15, [r7, #20]
 800144c:	ee67 7aa7 	vmul.f32	s15, s15, s15
 8001450:	ee37 7a27 	vadd.f32	s14, s14, s15
 8001454:	edd7 7a04 	vldr	s15, [r7, #16]
 8001458:	ee67 7aa7 	vmul.f32	s15, s15, s15
 800145c:	ee77 7a27 	vadd.f32	s15, s14, s15
 8001460:	eeb0 0a67 	vmov.f32	s0, s15
 8001464:	f004 fa5e 	bl	8005924 <sqrtf>
 8001468:	ed87 0a1b 	vstr	s0, [r7, #108]	@ 0x6c
		if (norm == 0.0)
 800146c:	edd7 7a1b 	vldr	s15, [r7, #108]	@ 0x6c
 8001470:	eef5 7a40 	vcmp.f32	s15, #0.0
 8001474:	eef1 fa10 	vmrs	APSR_nzcv, fpscr
 8001478:	f000 8230 	beq.w	80018dc <madgwickUpdate+0x5e4>
			return;
		ax /= norm;
 800147c:	edd7 6a06 	vldr	s13, [r7, #24]
 8001480:	ed97 7a1b 	vldr	s14, [r7, #108]	@ 0x6c
 8001484:	eec6 7a87 	vdiv.f32	s15, s13, s14
 8001488:	edc7 7a06 	vstr	s15, [r7, #24]
		ay /= norm;
 800148c:	edd7 6a05 	vldr	s13, [r7, #20]
 8001490:	ed97 7a1b 	vldr	s14, [r7, #108]	@ 0x6c
 8001494:	eec6 7a87 	vdiv.f32	s15, s13, s14
 8001498:	edc7 7a05 	vstr	s15, [r7, #20]
		az /= norm;
 800149c:	edd7 6a04 	vldr	s13, [r7, #16]
 80014a0:	ed97 7a1b 	vldr	s14, [r7, #108]	@ 0x6c
 80014a4:	eec6 7a87 	vdiv.f32	s15, s13, s14
 80014a8:	edc7 7a04 	vstr	s15, [r7, #16]

		float _2q0 = 2.0f * q0;
 80014ac:	edd7 7a1f 	vldr	s15, [r7, #124]	@ 0x7c
 80014b0:	ee77 7aa7 	vadd.f32	s15, s15, s15
 80014b4:	edc7 7a1a 	vstr	s15, [r7, #104]	@ 0x68
		float _2q1 = 2.0f * q1;
 80014b8:	edd7 7a1e 	vldr	s15, [r7, #120]	@ 0x78
 80014bc:	ee77 7aa7 	vadd.f32	s15, s15, s15
 80014c0:	edc7 7a19 	vstr	s15, [r7, #100]	@ 0x64
		float _2q2 = 2.0f * q2;
 80014c4:	edd7 7a1d 	vldr	s15, [r7, #116]	@ 0x74
 80014c8:	ee77 7aa7 	vadd.f32	s15, s15, s15
 80014cc:	edc7 7a18 	vstr	s15, [r7, #96]	@ 0x60
		float _2q3 = 2.0f * q3;
 80014d0:	edd7 7a1c 	vldr	s15, [r7, #112]	@ 0x70
 80014d4:	ee77 7aa7 	vadd.f32	s15, s15, s15
 80014d8:	edc7 7a17 	vstr	s15, [r7, #92]	@ 0x5c
		float _4q0 = 4.0f * q0;
 80014dc:	edd7 7a1f 	vldr	s15, [r7, #124]	@ 0x7c
 80014e0:	eeb1 7a00 	vmov.f32	s14, #16	@ 0x40800000  4.0
 80014e4:	ee67 7a87 	vmul.f32	s15, s15, s14
 80014e8:	edc7 7a16 	vstr	s15, [r7, #88]	@ 0x58
		float _4q1 = 4.0f * q1;
 80014ec:	edd7 7a1e 	vldr	s15, [r7, #120]	@ 0x78
 80014f0:	eeb1 7a00 	vmov.f32	s14, #16	@ 0x40800000  4.0
 80014f4:	ee67 7a87 	vmul.f32	s15, s15, s14
 80014f8:	edc7 7a15 	vstr	s15, [r7, #84]	@ 0x54
		float _4q2 = 4.0f * q2;
 80014fc:	edd7 7a1d 	vldr	s15, [r7, #116]	@ 0x74
 8001500:	eeb1 7a00 	vmov.f32	s14, #16	@ 0x40800000  4.0
 8001504:	ee67 7a87 	vmul.f32	s15, s15, s14
 8001508:	edc7 7a14 	vstr	s15, [r7, #80]	@ 0x50
		float _8q1 = 8.0f * q1;
 800150c:	edd7 7a1e 	vldr	s15, [r7, #120]	@ 0x78
 8001510:	eeb2 7a00 	vmov.f32	s14, #32	@ 0x41000000  8.0
 8001514:	ee67 7a87 	vmul.f32	s15, s15, s14
 8001518:	edc7 7a13 	vstr	s15, [r7, #76]	@ 0x4c
		float _8q2 = 8.0f * q2;
 800151c:	edd7 7a1d 	vldr	s15, [r7, #116]	@ 0x74
 8001520:	eeb2 7a00 	vmov.f32	s14, #32	@ 0x41000000  8.0
 8001524:	ee67 7a87 	vmul.f32	s15, s15, s14
 8001528:	edc7 7a12 	vstr	s15, [r7, #72]	@ 0x48
		float q0q0 = q0 * q0;
 800152c:	edd7 7a1f 	vldr	s15, [r7, #124]	@ 0x7c
 8001530:	ee67 7aa7 	vmul.f32	s15, s15, s15
 8001534:	edc7 7a11 	vstr	s15, [r7, #68]	@ 0x44
		float q1q1 = q1 * q1;
 8001538:	edd7 7a1e 	vldr	s15, [r7, #120]	@ 0x78
 800153c:	ee67 7aa7 	vmul.f32	s15, s15, s15
 8001540:	edc7 7a10 	vstr	s15, [r7, #64]	@ 0x40
		float q2q2 = q2 * q2;
 8001544:	edd7 7a1d 	vldr	s15, [r7, #116]	@ 0x74
 8001548:	ee67 7aa7 	vmul.f32	s15, s15, s15
 800154c:	edc7 7a0f 	vstr	s15, [r7, #60]	@ 0x3c
		float q3q3 = q3 * q3;
 8001550:	edd7 7a1c 	vldr	s15, [r7, #112]	@ 0x70
 8001554:	ee67 7aa7 	vmul.f32	s15, s15, s15
 8001558:	edc7 7a0e 	vstr	s15, [r7, #56]	@ 0x38

		//gradient descent

		s0 = _4q0 * q2q2 + _2q2 * ax + _4q0 * q1q1 - _2q1 * ay;
 800155c:	ed97 7a16 	vldr	s14, [r7, #88]	@ 0x58
 8001560:	edd7 7a0f 	vldr	s15, [r7, #60]	@ 0x3c
 8001564:	ee27 7a27 	vmul.f32	s14, s14, s15
 8001568:	edd7 6a18 	vldr	s13, [r7, #96]	@ 0x60
 800156c:	edd7 7a06 	vldr	s15, [r7, #24]
 8001570:	ee66 7aa7 	vmul.f32	s15, s13, s15
 8001574:	ee37 7a27 	vadd.f32	s14, s14, s15
 8001578:	edd7 6a16 	vldr	s13, [r7, #88]	@ 0x58
 800157c:	edd7 7a10 	vldr	s15, [r7, #64]	@ 0x40
 8001580:	ee66 7aa7 	vmul.f32	s15, s13, s15
 8001584:	ee37 7a27 	vadd.f32	s14, s14, s15
 8001588:	edd7 6a19 	vldr	s13, [r7, #100]	@ 0x64
 800158c:	edd7 7a05 	vldr	s15, [r7, #20]
 8001590:	ee66 7aa7 	vmul.f32	s15, s13, s15
 8001594:	ee77 7a67 	vsub.f32	s15, s14, s15
 8001598:	edc7 7a0d 	vstr	s15, [r7, #52]	@ 0x34
		s1 = _4q1 * q3q3 - _2q3 * ax + 4.0f * q0q0 * q1 - _2q0 * ay - _4q1
 800159c:	ed97 7a15 	vldr	s14, [r7, #84]	@ 0x54
 80015a0:	edd7 7a0e 	vldr	s15, [r7, #56]	@ 0x38
 80015a4:	ee27 7a27 	vmul.f32	s14, s14, s15
 80015a8:	edd7 6a17 	vldr	s13, [r7, #92]	@ 0x5c
 80015ac:	edd7 7a06 	vldr	s15, [r7, #24]
 80015b0:	ee66 7aa7 	vmul.f32	s15, s13, s15
 80015b4:	ee37 7a67 	vsub.f32	s14, s14, s15
 80015b8:	edd7 7a11 	vldr	s15, [r7, #68]	@ 0x44
 80015bc:	eef1 6a00 	vmov.f32	s13, #16	@ 0x40800000  4.0
 80015c0:	ee67 6aa6 	vmul.f32	s13, s15, s13
 80015c4:	edd7 7a1e 	vldr	s15, [r7, #120]	@ 0x78
 80015c8:	ee66 7aa7 	vmul.f32	s15, s13, s15
 80015cc:	ee37 7a27 	vadd.f32	s14, s14, s15
 80015d0:	edd7 6a1a 	vldr	s13, [r7, #104]	@ 0x68
 80015d4:	edd7 7a05 	vldr	s15, [r7, #20]
 80015d8:	ee66 7aa7 	vmul.f32	s15, s13, s15
 80015dc:	ee37 7a67 	vsub.f32	s14, s14, s15
 80015e0:	edd7 7a15 	vldr	s15, [r7, #84]	@ 0x54
 80015e4:	ee37 7a67 	vsub.f32	s14, s14, s15
				+ _8q1 * q1q1 + _8q1 * q2q2 + _4q1 * az;
 80015e8:	edd7 6a13 	vldr	s13, [r7, #76]	@ 0x4c
 80015ec:	edd7 7a10 	vldr	s15, [r7, #64]	@ 0x40
 80015f0:	ee66 7aa7 	vmul.f32	s15, s13, s15
 80015f4:	ee37 7a27 	vadd.f32	s14, s14, s15
 80015f8:	edd7 6a13 	vldr	s13, [r7, #76]	@ 0x4c
 80015fc:	edd7 7a0f 	vldr	s15, [r7, #60]	@ 0x3c
 8001600:	ee66 7aa7 	vmul.f32	s15, s13, s15
 8001604:	ee37 7a27 	vadd.f32	s14, s14, s15
 8001608:	edd7 6a15 	vldr	s13, [r7, #84]	@ 0x54
 800160c:	edd7 7a04 	vldr	s15, [r7, #16]
 8001610:	ee66 7aa7 	vmul.f32	s15, s13, s15
		s1 = _4q1 * q3q3 - _2q3 * ax + 4.0f * q0q0 * q1 - _2q0 * ay - _4q1
 8001614:	ee77 7a27 	vadd.f32	s15, s14, s15
 8001618:	edc7 7a0c 	vstr	s15, [r7, #48]	@ 0x30
		s2 = 4.0f * q0q0 * q2 + _2q0 * ax + _4q2 * q3q3 - _2q3 * ay - _4q2
 800161c:	edd7 7a11 	vldr	s15, [r7, #68]	@ 0x44
 8001620:	eeb1 7a00 	vmov.f32	s14, #16	@ 0x40800000  4.0
 8001624:	ee27 7a87 	vmul.f32	s14, s15, s14
 8001628:	edd7 7a1d 	vldr	s15, [r7, #116]	@ 0x74
 800162c:	ee27 7a27 	vmul.f32	s14, s14, s15
 8001630:	edd7 6a1a 	vldr	s13, [r7, #104]	@ 0x68
 8001634:	edd7 7a06 	vldr	s15, [r7, #24]
 8001638:	ee66 7aa7 	vmul.f32	s15, s13, s15
 800163c:	ee37 7a27 	vadd.f32	s14, s14, s15
 8001640:	edd7 6a14 	vldr	s13, [r7, #80]	@ 0x50
 8001644:	edd7 7a0e 	vldr	s15, [r7, #56]	@ 0x38
 8001648:	ee66 7aa7 	vmul.f32	s15, s13, s15
 800164c:	ee37 7a27 	vadd.f32	s14, s14, s15
 8001650:	edd7 6a17 	vldr	s13, [r7, #92]	@ 0x5c
 8001654:	edd7 7a05 	vldr	s15, [r7, #20]
 8001658:	ee66 7aa7 	vmul.f32	s15, s13, s15
 800165c:	ee37 7a67 	vsub.f32	s14, s14, s15
 8001660:	edd7 7a14 	vldr	s15, [r7, #80]	@ 0x50
 8001664:	ee37 7a67 	vsub.f32	s14, s14, s15
				+ _8q2 * q1q1 + _8q2 * q2q2 + _4q2 * az;
 8001668:	edd7 6a12 	vldr	s13, [r7, #72]	@ 0x48
 800166c:	edd7 7a10 	vldr	s15, [r7, #64]	@ 0x40
 8001670:	ee66 7aa7 	vmul.f32	s15, s13, s15
 8001674:	ee37 7a27 	vadd.f32	s14, s14, s15
 8001678:	edd7 6a12 	vldr	s13, [r7, #72]	@ 0x48
 800167c:	edd7 7a0f 	vldr	s15, [r7, #60]	@ 0x3c
 8001680:	ee66 7aa7 	vmul.f32	s15, s13, s15
 8001684:	ee37 7a27 	vadd.f32	s14, s14, s15
 8001688:	edd7 6a14 	vldr	s13, [r7, #80]	@ 0x50
 800168c:	edd7 7a04 	vldr	s15, [r7, #16]
 8001690:	ee66 7aa7 	vmul.f32	s15, s13, s15
		s2 = 4.0f * q0q0 * q2 + _2q0 * ax + _4q2 * q3q3 - _2q3 * ay - _4q2
 8001694:	ee77 7a27 	vadd.f32	s15, s14, s15
 8001698:	edc7 7a0b 	vstr	s15, [r7, #44]	@ 0x2c
		s3 = 4.0f * q1q1 * q3 - _2q1 * ax + 4.0f * q2q2 * q3 - _2q2 * ay;
 800169c:	edd7 7a10 	vldr	s15, [r7, #64]	@ 0x40
 80016a0:	eeb1 7a00 	vmov.f32	s14, #16	@ 0x40800000  4.0
 80016a4:	ee27 7a87 	vmul.f32	s14, s15, s14
 80016a8:	edd7 7a1c 	vldr	s15, [r7, #112]	@ 0x70
 80016ac:	ee27 7a27 	vmul.f32	s14, s14, s15
 80016b0:	edd7 6a19 	vldr	s13, [r7, #100]	@ 0x64
 80016b4:	edd7 7a06 	vldr	s15, [r7, #24]
 80016b8:	ee66 7aa7 	vmul.f32	s15, s13, s15
 80016bc:	ee37 7a67 	vsub.f32	s14, s14, s15
 80016c0:	edd7 7a0f 	vldr	s15, [r7, #60]	@ 0x3c
 80016c4:	eef1 6a00 	vmov.f32	s13, #16	@ 0x40800000  4.0
 80016c8:	ee67 6aa6 	vmul.f32	s13, s15, s13
 80016cc:	edd7 7a1c 	vldr	s15, [r7, #112]	@ 0x70
 80016d0:	ee66 7aa7 	vmul.f32	s15, s13, s15
 80016d4:	ee37 7a27 	vadd.f32	s14, s14, s15
 80016d8:	edd7 6a18 	vldr	s13, [r7, #96]	@ 0x60
 80016dc:	edd7 7a05 	vldr	s15, [r7, #20]
 80016e0:	ee66 7aa7 	vmul.f32	s15, s13, s15
 80016e4:	ee77 7a67 	vsub.f32	s15, s14, s15
 80016e8:	edc7 7a0a 	vstr	s15, [r7, #40]	@ 0x28

		norm = sqrtf(s0 * s0 + s1 * s1 + s2 * s2 + s3 * s3);
 80016ec:	edd7 7a0d 	vldr	s15, [r7, #52]	@ 0x34
 80016f0:	ee27 7aa7 	vmul.f32	s14, s15, s15
 80016f4:	edd7 7a0c 	vldr	s15, [r7, #48]	@ 0x30
 80016f8:	ee67 7aa7 	vmul.f32	s15, s15, s15
 80016fc:	ee37 7a27 	vadd.f32	s14, s14, s15
 8001700:	edd7 7a0b 	vldr	s15, [r7, #44]	@ 0x2c
 8001704:	ee67 7aa7 	vmul.f32	s15, s15, s15
 8001708:	ee37 7a27 	vadd.f32	s14, s14, s15
 800170c:	edd7 7a0a 	vldr	s15, [r7, #40]	@ 0x28
 8001710:	ee67 7aa7 	vmul.f32	s15, s15, s15
 8001714:	ee77 7a27 	vadd.f32	s15, s14, s15
 8001718:	eeb0 0a67 	vmov.f32	s0, s15
 800171c:	f004 f902 	bl	8005924 <sqrtf>
 8001720:	ed87 0a1b 	vstr	s0, [r7, #108]	@ 0x6c
		if (norm > 0.0) {
 8001724:	edd7 7a1b 	vldr	s15, [r7, #108]	@ 0x6c
 8001728:	eef5 7ac0 	vcmpe.f32	s15, #0.0
 800172c:	eef1 fa10 	vmrs	APSR_nzcv, fpscr
 8001730:	dd53      	ble.n	80017da <madgwickUpdate+0x4e2>
			s0 /= norm;
 8001732:	edd7 6a0d 	vldr	s13, [r7, #52]	@ 0x34
 8001736:	ed97 7a1b 	vldr	s14, [r7, #108]	@ 0x6c
 800173a:	eec6 7a87 	vdiv.f32	s15, s13, s14
 800173e:	edc7 7a0d 	vstr	s15, [r7, #52]	@ 0x34
			s1 /= norm;
 8001742:	edd7 6a0c 	vldr	s13, [r7, #48]	@ 0x30
 8001746:	ed97 7a1b 	vldr	s14, [r7, #108]	@ 0x6c
 800174a:	eec6 7a87 	vdiv.f32	s15, s13, s14
 800174e:	edc7 7a0c 	vstr	s15, [r7, #48]	@ 0x30
			s2 /= norm;
 8001752:	edd7 6a0b 	vldr	s13, [r7, #44]	@ 0x2c
 8001756:	ed97 7a1b 	vldr	s14, [r7, #108]	@ 0x6c
 800175a:	eec6 7a87 	vdiv.f32	s15, s13, s14
 800175e:	edc7 7a0b 	vstr	s15, [r7, #44]	@ 0x2c
			s3 /= norm;
 8001762:	edd7 6a0a 	vldr	s13, [r7, #40]	@ 0x28
 8001766:	ed97 7a1b 	vldr	s14, [r7, #108]	@ 0x6c
 800176a:	eec6 7a87 	vdiv.f32	s15, s13, s14
 800176e:	edc7 7a0a 	vstr	s15, [r7, #40]	@ 0x28

			qDot1 -= q->beta * s0;
 8001772:	69fb      	ldr	r3, [r7, #28]
 8001774:	ed93 7a04 	vldr	s14, [r3, #16]
 8001778:	edd7 7a0d 	vldr	s15, [r7, #52]	@ 0x34
 800177c:	ee67 7a27 	vmul.f32	s15, s14, s15
 8001780:	ed97 7a23 	vldr	s14, [r7, #140]	@ 0x8c
 8001784:	ee77 7a67 	vsub.f32	s15, s14, s15
 8001788:	edc7 7a23 	vstr	s15, [r7, #140]	@ 0x8c
			qDot2 -= q->beta * s1;
 800178c:	69fb      	ldr	r3, [r7, #28]
 800178e:	ed93 7a04 	vldr	s14, [r3, #16]
 8001792:	edd7 7a0c 	vldr	s15, [r7, #48]	@ 0x30
 8001796:	ee67 7a27 	vmul.f32	s15, s14, s15
 800179a:	ed97 7a22 	vldr	s14, [r7, #136]	@ 0x88
 800179e:	ee77 7a67 	vsub.f32	s15, s14, s15
 80017a2:	edc7 7a22 	vstr	s15, [r7, #136]	@ 0x88
			qDot3 -= q->beta * s2;
 80017a6:	69fb      	ldr	r3, [r7, #28]
 80017a8:	ed93 7a04 	vldr	s14, [r3, #16]
 80017ac:	edd7 7a0b 	vldr	s15, [r7, #44]	@ 0x2c
 80017b0:	ee67 7a27 	vmul.f32	s15, s14, s15
 80017b4:	ed97 7a21 	vldr	s14, [r7, #132]	@ 0x84
 80017b8:	ee77 7a67 	vsub.f32	s15, s14, s15
 80017bc:	edc7 7a21 	vstr	s15, [r7, #132]	@ 0x84
			qDot4 -= q->beta * s3;
 80017c0:	69fb      	ldr	r3, [r7, #28]
 80017c2:	ed93 7a04 	vldr	s14, [r3, #16]
 80017c6:	edd7 7a0a 	vldr	s15, [r7, #40]	@ 0x28
 80017ca:	ee67 7a27 	vmul.f32	s15, s14, s15
 80017ce:	ed97 7a20 	vldr	s14, [r7, #128]	@ 0x80
 80017d2:	ee77 7a67 	vsub.f32	s15, s14, s15
 80017d6:	edc7 7a20 	vstr	s15, [r7, #128]	@ 0x80
		}
	}

	// new pos = pos + (Rate * dt)
	float dt = 1.0f / q->sampleFreq;
 80017da:	69fb      	ldr	r3, [r7, #28]
 80017dc:	ed93 7a05 	vldr	s14, [r3, #20]
 80017e0:	eef7 6a00 	vmov.f32	s13, #112	@ 0x3f800000  1.0
 80017e4:	eec6 7a87 	vdiv.f32	s15, s13, s14
 80017e8:	edc7 7a09 	vstr	s15, [r7, #36]	@ 0x24
	q0 += qDot1 * dt;
 80017ec:	ed97 7a23 	vldr	s14, [r7, #140]	@ 0x8c
 80017f0:	edd7 7a09 	vldr	s15, [r7, #36]	@ 0x24
 80017f4:	ee67 7a27 	vmul.f32	s15, s14, s15
 80017f8:	ed97 7a1f 	vldr	s14, [r7, #124]	@ 0x7c
 80017fc:	ee77 7a27 	vadd.f32	s15, s14, s15
 8001800:	edc7 7a1f 	vstr	s15, [r7, #124]	@ 0x7c
	q1 += qDot2 * dt;
 8001804:	ed97 7a22 	vldr	s14, [r7, #136]	@ 0x88
 8001808:	edd7 7a09 	vldr	s15, [r7, #36]	@ 0x24
 800180c:	ee67 7a27 	vmul.f32	s15, s14, s15
 8001810:	ed97 7a1e 	vldr	s14, [r7, #120]	@ 0x78
 8001814:	ee77 7a27 	vadd.f32	s15, s14, s15
 8001818:	edc7 7a1e 	vstr	s15, [r7, #120]	@ 0x78
	q2 += qDot3 * dt;
 800181c:	ed97 7a21 	vldr	s14, [r7, #132]	@ 0x84
 8001820:	edd7 7a09 	vldr	s15, [r7, #36]	@ 0x24
 8001824:	ee67 7a27 	vmul.f32	s15, s14, s15
 8001828:	ed97 7a1d 	vldr	s14, [r7, #116]	@ 0x74
 800182c:	ee77 7a27 	vadd.f32	s15, s14, s15
 8001830:	edc7 7a1d 	vstr	s15, [r7, #116]	@ 0x74
	q3 += qDot4 * dt;
 8001834:	ed97 7a20 	vldr	s14, [r7, #128]	@ 0x80
 8001838:	edd7 7a09 	vldr	s15, [r7, #36]	@ 0x24
 800183c:	ee67 7a27 	vmul.f32	s15, s14, s15
 8001840:	ed97 7a1c 	vldr	s14, [r7, #112]	@ 0x70
 8001844:	ee77 7a27 	vadd.f32	s15, s14, s15
 8001848:	edc7 7a1c 	vstr	s15, [r7, #112]	@ 0x70

	// 5. Normalise final quaternion
	// (Output must always be a unit vector)
	norm = sqrtf(q0 * q0 + q1 * q1 + q2 * q2 + q3 * q3);
 800184c:	edd7 7a1f 	vldr	s15, [r7, #124]	@ 0x7c
 8001850:	ee27 7aa7 	vmul.f32	s14, s15, s15
 8001854:	edd7 7a1e 	vldr	s15, [r7, #120]	@ 0x78
 8001858:	ee67 7aa7 	vmul.f32	s15, s15, s15
 800185c:	ee37 7a27 	vadd.f32	s14, s14, s15
 8001860:	edd7 7a1d 	vldr	s15, [r7, #116]	@ 0x74
 8001864:	ee67 7aa7 	vmul.f32	s15, s15, s15
 8001868:	ee37 7a27 	vadd.f32	s14, s14, s15
 800186c:	edd7 7a1c 	vldr	s15, [r7, #112]	@ 0x70
 8001870:	ee67 7aa7 	vmul.f32	s15, s15, s15
 8001874:	ee77 7a27 	vadd.f32	s15, s14, s15
 8001878:	eeb0 0a67 	vmov.f32	s0, s15
 800187c:	f004 f852 	bl	8005924 <sqrtf>
 8001880:	ed87 0a1b 	vstr	s0, [r7, #108]	@ 0x6c
	if (norm > 0.0) {
 8001884:	edd7 7a1b 	vldr	s15, [r7, #108]	@ 0x6c
 8001888:	eef5 7ac0 	vcmpe.f32	s15, #0.0
 800188c:	eef1 fa10 	vmrs	APSR_nzcv, fpscr
 8001890:	dd25      	ble.n	80018de <madgwickUpdate+0x5e6>
		q->q0 = q0 / norm;
 8001892:	edd7 6a1f 	vldr	s13, [r7, #124]	@ 0x7c
 8001896:	ed97 7a1b 	vldr	s14, [r7, #108]	@ 0x6c
 800189a:	eec6 7a87 	vdiv.f32	s15, s13, s14
 800189e:	69fb      	ldr	r3, [r7, #28]
 80018a0:	edc3 7a00 	vstr	s15, [r3]
		q->q1 = q1 / norm;
 80018a4:	edd7 6a1e 	vldr	s13, [r7, #120]	@ 0x78
 80018a8:	ed97 7a1b 	vldr	s14, [r7, #108]	@ 0x6c
 80018ac:	eec6 7a87 	vdiv.f32	s15, s13, s14
 80018b0:	69fb      	ldr	r3, [r7, #28]
 80018b2:	edc3 7a01 	vstr	s15, [r3, #4]
		q->q2 = q2 / norm;
 80018b6:	edd7 6a1d 	vldr	s13, [r7, #116]	@ 0x74
 80018ba:	ed97 7a1b 	vldr	s14, [r7, #108]	@ 0x6c
 80018be:	eec6 7a87 	vdiv.f32	s15, s13, s14
 80018c2:	69fb      	ldr	r3, [r7, #28]
 80018c4:	edc3 7a02 	vstr	s15, [r3, #8]
		q->q3 = q3 / norm;
 80018c8:	edd7 6a1c 	vldr	s13, [r7, #112]	@ 0x70
 80018cc:	ed97 7a1b 	vldr	s14, [r7, #108]	@ 0x6c
 80018d0:	eec6 7a87 	vdiv.f32	s15, s13, s14
 80018d4:	69fb      	ldr	r3, [r7, #28]
 80018d6:	edc3 7a03 	vstr	s15, [r3, #12]
 80018da:	e000      	b.n	80018de <madgwickUpdate+0x5e6>
			return;
 80018dc:	bf00      	nop

	}
}
 80018de:	3790      	adds	r7, #144	@ 0x90
 80018e0:	46bd      	mov	sp, r7
 80018e2:	bd80      	pop	{r7, pc}

080018e4 <USART2_IRQHandler>:
// -------------------------------------------------------------------------
//  INTERRUPT HANDLERS (CRITICAL)
// -------------------------------------------------------------------------

// 1. The Hardware Hook
void USART2_IRQHandler(void) {
 80018e4:	b580      	push	{r7, lr}
 80018e6:	af00      	add	r7, sp, #0
	HAL_UART_IRQHandler(&huart2);
 80018e8:	4802      	ldr	r0, [pc, #8]	@ (80018f4 <USART2_IRQHandler+0x10>)
 80018ea:	f003 f8ad 	bl	8004a48 <HAL_UART_IRQHandler>
}
 80018ee:	bf00      	nop
 80018f0:	bd80      	pop	{r7, pc}
 80018f2:	bf00      	nop
 80018f4:	20000290 	.word	0x20000290

080018f8 <HAL_UART_RxCpltCallback>:

// 2. The Logic Callback
void HAL_UART_RxCpltCallback(UART_HandleTypeDef *huart) {
 80018f8:	b580      	push	{r7, lr}
 80018fa:	b082      	sub	sp, #8
 80018fc:	af00      	add	r7, sp, #0
 80018fe:	6078      	str	r0, [r7, #4]

	// GPS (UART 1)
	if (huart->Instance == USART1) {
 8001900:	687b      	ldr	r3, [r7, #4]
 8001902:	681b      	ldr	r3, [r3, #0]
 8001904:	4a39      	ldr	r2, [pc, #228]	@ (80019ec <HAL_UART_RxCpltCallback+0xf4>)
 8001906:	4293      	cmp	r3, r2
 8001908:	d129      	bne.n	800195e <HAL_UART_RxCpltCallback+0x66>
		if (gps_rx_char == '\n' || nmea_idx >= NMEA_BUFFER_SIZE - 1) {
 800190a:	4b39      	ldr	r3, [pc, #228]	@ (80019f0 <HAL_UART_RxCpltCallback+0xf8>)
 800190c:	781b      	ldrb	r3, [r3, #0]
 800190e:	2b0a      	cmp	r3, #10
 8001910:	d003      	beq.n	800191a <HAL_UART_RxCpltCallback+0x22>
 8001912:	4b38      	ldr	r3, [pc, #224]	@ (80019f4 <HAL_UART_RxCpltCallback+0xfc>)
 8001914:	781b      	ldrb	r3, [r3, #0]
 8001916:	2b7e      	cmp	r3, #126	@ 0x7e
 8001918:	d90c      	bls.n	8001934 <HAL_UART_RxCpltCallback+0x3c>
			nmea_buffer[nmea_idx] = '\0';
 800191a:	4b36      	ldr	r3, [pc, #216]	@ (80019f4 <HAL_UART_RxCpltCallback+0xfc>)
 800191c:	781b      	ldrb	r3, [r3, #0]
 800191e:	461a      	mov	r2, r3
 8001920:	4b35      	ldr	r3, [pc, #212]	@ (80019f8 <HAL_UART_RxCpltCallback+0x100>)
 8001922:	2100      	movs	r1, #0
 8001924:	5499      	strb	r1, [r3, r2]
			gps_data_ready = 1;
 8001926:	4b35      	ldr	r3, [pc, #212]	@ (80019fc <HAL_UART_RxCpltCallback+0x104>)
 8001928:	2201      	movs	r2, #1
 800192a:	701a      	strb	r2, [r3, #0]
			nmea_idx = 0;
 800192c:	4b31      	ldr	r3, [pc, #196]	@ (80019f4 <HAL_UART_RxCpltCallback+0xfc>)
 800192e:	2200      	movs	r2, #0
 8001930:	701a      	strb	r2, [r3, #0]
 8001932:	e00e      	b.n	8001952 <HAL_UART_RxCpltCallback+0x5a>
		} else if (gps_rx_char != '\r') {
 8001934:	4b2e      	ldr	r3, [pc, #184]	@ (80019f0 <HAL_UART_RxCpltCallback+0xf8>)
 8001936:	781b      	ldrb	r3, [r3, #0]
 8001938:	2b0d      	cmp	r3, #13
 800193a:	d00a      	beq.n	8001952 <HAL_UART_RxCpltCallback+0x5a>
			nmea_buffer[nmea_idx++] = gps_rx_char;
 800193c:	4b2d      	ldr	r3, [pc, #180]	@ (80019f4 <HAL_UART_RxCpltCallback+0xfc>)
 800193e:	781b      	ldrb	r3, [r3, #0]
 8001940:	1c5a      	adds	r2, r3, #1
 8001942:	b2d1      	uxtb	r1, r2
 8001944:	4a2b      	ldr	r2, [pc, #172]	@ (80019f4 <HAL_UART_RxCpltCallback+0xfc>)
 8001946:	7011      	strb	r1, [r2, #0]
 8001948:	461a      	mov	r2, r3
 800194a:	4b29      	ldr	r3, [pc, #164]	@ (80019f0 <HAL_UART_RxCpltCallback+0xf8>)
 800194c:	7819      	ldrb	r1, [r3, #0]
 800194e:	4b2a      	ldr	r3, [pc, #168]	@ (80019f8 <HAL_UART_RxCpltCallback+0x100>)
 8001950:	5499      	strb	r1, [r3, r2]
		}
		HAL_UART_Receive_IT(&huart1, &gps_rx_char, 1);
 8001952:	2201      	movs	r2, #1
 8001954:	4926      	ldr	r1, [pc, #152]	@ (80019f0 <HAL_UART_RxCpltCallback+0xf8>)
 8001956:	482a      	ldr	r0, [pc, #168]	@ (8001a00 <HAL_UART_RxCpltCallback+0x108>)
 8001958:	f003 f851 	bl	80049fe <HAL_UART_Receive_IT>
			baro_state = 0;
			break;
		}
		HAL_UART_Receive_IT(&huart2, &baro_rx_byte, 1);
	}
}
 800195c:	e041      	b.n	80019e2 <HAL_UART_RxCpltCallback+0xea>
	else if (huart->Instance == USART2) {
 800195e:	687b      	ldr	r3, [r7, #4]
 8001960:	681b      	ldr	r3, [r3, #0]
 8001962:	4a28      	ldr	r2, [pc, #160]	@ (8001a04 <HAL_UART_RxCpltCallback+0x10c>)
 8001964:	4293      	cmp	r3, r2
 8001966:	d13c      	bne.n	80019e2 <HAL_UART_RxCpltCallback+0xea>
		switch (baro_state) {
 8001968:	4b27      	ldr	r3, [pc, #156]	@ (8001a08 <HAL_UART_RxCpltCallback+0x110>)
 800196a:	781b      	ldrb	r3, [r3, #0]
 800196c:	2b02      	cmp	r3, #2
 800196e:	d024      	beq.n	80019ba <HAL_UART_RxCpltCallback+0xc2>
 8001970:	2b02      	cmp	r3, #2
 8001972:	dc31      	bgt.n	80019d8 <HAL_UART_RxCpltCallback+0xe0>
 8001974:	2b00      	cmp	r3, #0
 8001976:	d002      	beq.n	800197e <HAL_UART_RxCpltCallback+0x86>
 8001978:	2b01      	cmp	r3, #1
 800197a:	d00b      	beq.n	8001994 <HAL_UART_RxCpltCallback+0x9c>
 800197c:	e02c      	b.n	80019d8 <HAL_UART_RxCpltCallback+0xe0>
			if (baro_rx_byte == 0xBB) {
 800197e:	4b23      	ldr	r3, [pc, #140]	@ (8001a0c <HAL_UART_RxCpltCallback+0x114>)
 8001980:	781b      	ldrb	r3, [r3, #0]
 8001982:	2bbb      	cmp	r3, #187	@ 0xbb
 8001984:	d125      	bne.n	80019d2 <HAL_UART_RxCpltCallback+0xda>
				baro_idx = 0;
 8001986:	4b22      	ldr	r3, [pc, #136]	@ (8001a10 <HAL_UART_RxCpltCallback+0x118>)
 8001988:	2200      	movs	r2, #0
 800198a:	701a      	strb	r2, [r3, #0]
				baro_state = 1;
 800198c:	4b1e      	ldr	r3, [pc, #120]	@ (8001a08 <HAL_UART_RxCpltCallback+0x110>)
 800198e:	2201      	movs	r2, #1
 8001990:	701a      	strb	r2, [r3, #0]
			break;
 8001992:	e01e      	b.n	80019d2 <HAL_UART_RxCpltCallback+0xda>
			baro_buffer[baro_idx++] = baro_rx_byte;
 8001994:	4b1e      	ldr	r3, [pc, #120]	@ (8001a10 <HAL_UART_RxCpltCallback+0x118>)
 8001996:	781b      	ldrb	r3, [r3, #0]
 8001998:	1c5a      	adds	r2, r3, #1
 800199a:	b2d1      	uxtb	r1, r2
 800199c:	4a1c      	ldr	r2, [pc, #112]	@ (8001a10 <HAL_UART_RxCpltCallback+0x118>)
 800199e:	7011      	strb	r1, [r2, #0]
 80019a0:	461a      	mov	r2, r3
 80019a2:	4b1a      	ldr	r3, [pc, #104]	@ (8001a0c <HAL_UART_RxCpltCallback+0x114>)
 80019a4:	7819      	ldrb	r1, [r3, #0]
 80019a6:	4b1b      	ldr	r3, [pc, #108]	@ (8001a14 <HAL_UART_RxCpltCallback+0x11c>)
 80019a8:	5499      	strb	r1, [r3, r2]
			if (baro_idx >= 4)
 80019aa:	4b19      	ldr	r3, [pc, #100]	@ (8001a10 <HAL_UART_RxCpltCallback+0x118>)
 80019ac:	781b      	ldrb	r3, [r3, #0]
 80019ae:	2b03      	cmp	r3, #3
 80019b0:	d911      	bls.n	80019d6 <HAL_UART_RxCpltCallback+0xde>
				baro_state = 2;
 80019b2:	4b15      	ldr	r3, [pc, #84]	@ (8001a08 <HAL_UART_RxCpltCallback+0x110>)
 80019b4:	2202      	movs	r2, #2
 80019b6:	701a      	strb	r2, [r3, #0]
			break;
 80019b8:	e00d      	b.n	80019d6 <HAL_UART_RxCpltCallback+0xde>
			if (baro_rx_byte == 0x55) {
 80019ba:	4b14      	ldr	r3, [pc, #80]	@ (8001a0c <HAL_UART_RxCpltCallback+0x114>)
 80019bc:	781b      	ldrb	r3, [r3, #0]
 80019be:	2b55      	cmp	r3, #85	@ 0x55
 80019c0:	d103      	bne.n	80019ca <HAL_UART_RxCpltCallback+0xd2>
				memcpy(&vehicleState.BaroAlt, baro_buffer, 4);
 80019c2:	4b14      	ldr	r3, [pc, #80]	@ (8001a14 <HAL_UART_RxCpltCallback+0x11c>)
 80019c4:	681b      	ldr	r3, [r3, #0]
 80019c6:	4a14      	ldr	r2, [pc, #80]	@ (8001a18 <HAL_UART_RxCpltCallback+0x120>)
 80019c8:	61d3      	str	r3, [r2, #28]
			baro_state = 0;
 80019ca:	4b0f      	ldr	r3, [pc, #60]	@ (8001a08 <HAL_UART_RxCpltCallback+0x110>)
 80019cc:	2200      	movs	r2, #0
 80019ce:	701a      	strb	r2, [r3, #0]
			break;
 80019d0:	e002      	b.n	80019d8 <HAL_UART_RxCpltCallback+0xe0>
			break;
 80019d2:	bf00      	nop
 80019d4:	e000      	b.n	80019d8 <HAL_UART_RxCpltCallback+0xe0>
			break;
 80019d6:	bf00      	nop
		HAL_UART_Receive_IT(&huart2, &baro_rx_byte, 1);
 80019d8:	2201      	movs	r2, #1
 80019da:	490c      	ldr	r1, [pc, #48]	@ (8001a0c <HAL_UART_RxCpltCallback+0x114>)
 80019dc:	480f      	ldr	r0, [pc, #60]	@ (8001a1c <HAL_UART_RxCpltCallback+0x124>)
 80019de:	f003 f80e 	bl	80049fe <HAL_UART_Receive_IT>
}
 80019e2:	bf00      	nop
 80019e4:	3708      	adds	r7, #8
 80019e6:	46bd      	mov	sp, r7
 80019e8:	bd80      	pop	{r7, pc}
 80019ea:	bf00      	nop
 80019ec:	40011000 	.word	0x40011000
 80019f0:	2000030e 	.word	0x2000030e
 80019f4:	20000390 	.word	0x20000390
 80019f8:	20000310 	.word	0x20000310
 80019fc:	20000391 	.word	0x20000391
 8001a00:	20000248 	.word	0x20000248
 8001a04:	40004400 	.word	0x40004400
 8001a08:	20000301 	.word	0x20000301
 8001a0c:	200002f8 	.word	0x200002f8
 8001a10:	20000300 	.word	0x20000300
 8001a14:	200002fc 	.word	0x200002fc
 8001a18:	200002d8 	.word	0x200002d8
 8001a1c:	20000290 	.word	0x20000290

08001a20 <HAL_UART_ErrorCallback>:

// 3. Error Callback (Auto-restart on noise)
void HAL_UART_ErrorCallback(UART_HandleTypeDef *huart) {
 8001a20:	b580      	push	{r7, lr}
 8001a22:	b084      	sub	sp, #16
 8001a24:	af00      	add	r7, sp, #0
 8001a26:	6078      	str	r0, [r7, #4]
	if (huart->Instance == USART2) {
 8001a28:	687b      	ldr	r3, [r7, #4]
 8001a2a:	681b      	ldr	r3, [r3, #0]
 8001a2c:	4a10      	ldr	r2, [pc, #64]	@ (8001a70 <HAL_UART_ErrorCallback+0x50>)
 8001a2e:	4293      	cmp	r3, r2
 8001a30:	d10a      	bne.n	8001a48 <HAL_UART_ErrorCallback+0x28>
		volatile uint32_t er = HAL_UART_GetError(huart); // Clear flag
 8001a32:	6878      	ldr	r0, [r7, #4]
 8001a34:	f003 fac8 	bl	8004fc8 <HAL_UART_GetError>
 8001a38:	4603      	mov	r3, r0
 8001a3a:	60fb      	str	r3, [r7, #12]
		HAL_UART_Receive_IT(&huart2, &baro_rx_byte, 1);  // Restart
 8001a3c:	2201      	movs	r2, #1
 8001a3e:	490d      	ldr	r1, [pc, #52]	@ (8001a74 <HAL_UART_ErrorCallback+0x54>)
 8001a40:	480d      	ldr	r0, [pc, #52]	@ (8001a78 <HAL_UART_ErrorCallback+0x58>)
 8001a42:	f002 ffdc 	bl	80049fe <HAL_UART_Receive_IT>
	} else if (huart->Instance == USART1) {
		volatile uint32_t er = HAL_UART_GetError(huart);
		HAL_UART_Receive_IT(&huart1, &gps_rx_char, 1);
	}
}
 8001a46:	e00e      	b.n	8001a66 <HAL_UART_ErrorCallback+0x46>
	} else if (huart->Instance == USART1) {
 8001a48:	687b      	ldr	r3, [r7, #4]
 8001a4a:	681b      	ldr	r3, [r3, #0]
 8001a4c:	4a0b      	ldr	r2, [pc, #44]	@ (8001a7c <HAL_UART_ErrorCallback+0x5c>)
 8001a4e:	4293      	cmp	r3, r2
 8001a50:	d109      	bne.n	8001a66 <HAL_UART_ErrorCallback+0x46>
		volatile uint32_t er = HAL_UART_GetError(huart);
 8001a52:	6878      	ldr	r0, [r7, #4]
 8001a54:	f003 fab8 	bl	8004fc8 <HAL_UART_GetError>
 8001a58:	4603      	mov	r3, r0
 8001a5a:	60bb      	str	r3, [r7, #8]
		HAL_UART_Receive_IT(&huart1, &gps_rx_char, 1);
 8001a5c:	2201      	movs	r2, #1
 8001a5e:	4908      	ldr	r1, [pc, #32]	@ (8001a80 <HAL_UART_ErrorCallback+0x60>)
 8001a60:	4808      	ldr	r0, [pc, #32]	@ (8001a84 <HAL_UART_ErrorCallback+0x64>)
 8001a62:	f002 ffcc 	bl	80049fe <HAL_UART_Receive_IT>
}
 8001a66:	bf00      	nop
 8001a68:	3710      	adds	r7, #16
 8001a6a:	46bd      	mov	sp, r7
 8001a6c:	bd80      	pop	{r7, pc}
 8001a6e:	bf00      	nop
 8001a70:	40004400 	.word	0x40004400
 8001a74:	200002f8 	.word	0x200002f8
 8001a78:	20000290 	.word	0x20000290
 8001a7c:	40011000 	.word	0x40011000
 8001a80:	2000030e 	.word	0x2000030e
 8001a84:	20000248 	.word	0x20000248

08001a88 <_write>:

// -------------------------------------------------------------------------
//  Standard Helper Functions (Init, Read, Parse)
// -------------------------------------------------------------------------
int _write(int file, char *ptr, int len) {
 8001a88:	b580      	push	{r7, lr}
 8001a8a:	b084      	sub	sp, #16
 8001a8c:	af00      	add	r7, sp, #0
 8001a8e:	60f8      	str	r0, [r7, #12]
 8001a90:	60b9      	str	r1, [r7, #8]
 8001a92:	607a      	str	r2, [r7, #4]
	HAL_UART_Transmit(&huart2, (uint8_t*) ptr, len, HAL_MAX_DELAY);
 8001a94:	687b      	ldr	r3, [r7, #4]
 8001a96:	b29a      	uxth	r2, r3
 8001a98:	f04f 33ff 	mov.w	r3, #4294967295
 8001a9c:	68b9      	ldr	r1, [r7, #8]
 8001a9e:	4804      	ldr	r0, [pc, #16]	@ (8001ab0 <_write+0x28>)
 8001aa0:	f002 ff22 	bl	80048e8 <HAL_UART_Transmit>
	return len;
 8001aa4:	687b      	ldr	r3, [r7, #4]
}
 8001aa6:	4618      	mov	r0, r3
 8001aa8:	3710      	adds	r7, #16
 8001aaa:	46bd      	mov	sp, r7
 8001aac:	bd80      	pop	{r7, pc}
 8001aae:	bf00      	nop
 8001ab0:	20000290 	.word	0x20000290

08001ab4 <MX_USART2_UART_Init>:

// --- Initialization Functions (With fixes) ---
static void MX_USART2_UART_Init(void) {
 8001ab4:	b580      	push	{r7, lr}
 8001ab6:	af00      	add	r7, sp, #0
	huart2.Instance = USART2;
 8001ab8:	4b15      	ldr	r3, [pc, #84]	@ (8001b10 <MX_USART2_UART_Init+0x5c>)
 8001aba:	4a16      	ldr	r2, [pc, #88]	@ (8001b14 <MX_USART2_UART_Init+0x60>)
 8001abc:	601a      	str	r2, [r3, #0]
	huart2.Init.BaudRate = 115200;
 8001abe:	4b14      	ldr	r3, [pc, #80]	@ (8001b10 <MX_USART2_UART_Init+0x5c>)
 8001ac0:	f44f 32e1 	mov.w	r2, #115200	@ 0x1c200
 8001ac4:	605a      	str	r2, [r3, #4]
	huart2.Init.WordLength = UART_WORDLENGTH_8B;
 8001ac6:	4b12      	ldr	r3, [pc, #72]	@ (8001b10 <MX_USART2_UART_Init+0x5c>)
 8001ac8:	2200      	movs	r2, #0
 8001aca:	609a      	str	r2, [r3, #8]
	huart2.Init.StopBits = UART_STOPBITS_1;
 8001acc:	4b10      	ldr	r3, [pc, #64]	@ (8001b10 <MX_USART2_UART_Init+0x5c>)
 8001ace:	2200      	movs	r2, #0
 8001ad0:	60da      	str	r2, [r3, #12]
	huart2.Init.Parity = UART_PARITY_NONE;
 8001ad2:	4b0f      	ldr	r3, [pc, #60]	@ (8001b10 <MX_USART2_UART_Init+0x5c>)
 8001ad4:	2200      	movs	r2, #0
 8001ad6:	611a      	str	r2, [r3, #16]
	huart2.Init.Mode = UART_MODE_TX_RX;
 8001ad8:	4b0d      	ldr	r3, [pc, #52]	@ (8001b10 <MX_USART2_UART_Init+0x5c>)
 8001ada:	220c      	movs	r2, #12
 8001adc:	615a      	str	r2, [r3, #20]
	huart2.Init.HwFlowCtl = UART_HWCONTROL_NONE;
 8001ade:	4b0c      	ldr	r3, [pc, #48]	@ (8001b10 <MX_USART2_UART_Init+0x5c>)
 8001ae0:	2200      	movs	r2, #0
 8001ae2:	619a      	str	r2, [r3, #24]
	huart2.Init.OverSampling = UART_OVERSAMPLING_16;
 8001ae4:	4b0a      	ldr	r3, [pc, #40]	@ (8001b10 <MX_USART2_UART_Init+0x5c>)
 8001ae6:	2200      	movs	r2, #0
 8001ae8:	61da      	str	r2, [r3, #28]

	// Init and Error Check
	if (HAL_UART_Init(&huart2) != HAL_OK) {
 8001aea:	4809      	ldr	r0, [pc, #36]	@ (8001b10 <MX_USART2_UART_Init+0x5c>)
 8001aec:	f002 feac 	bl	8004848 <HAL_UART_Init>
 8001af0:	4603      	mov	r3, r0
 8001af2:	2b00      	cmp	r3, #0
 8001af4:	d001      	beq.n	8001afa <MX_USART2_UART_Init+0x46>
		Error_Handler();
 8001af6:	f000 fc1f 	bl	8002338 <Error_Handler>
	}

	// Manually Enable Interrupts
	HAL_NVIC_SetPriority(USART2_IRQn, 0, 0);
 8001afa:	2200      	movs	r2, #0
 8001afc:	2100      	movs	r1, #0
 8001afe:	2026      	movs	r0, #38	@ 0x26
 8001b00:	f000 ffa5 	bl	8002a4e <HAL_NVIC_SetPriority>
	HAL_NVIC_EnableIRQ(USART2_IRQn);
 8001b04:	2026      	movs	r0, #38	@ 0x26
 8001b06:	f000 ffbe 	bl	8002a86 <HAL_NVIC_EnableIRQ>
}
 8001b0a:	bf00      	nop
 8001b0c:	bd80      	pop	{r7, pc}
 8001b0e:	bf00      	nop
 8001b10:	20000290 	.word	0x20000290
 8001b14:	40004400 	.word	0x40004400

08001b18 <Parse_GGA_Generic>:

// --- Standard Functions (MPU, GPS, System) ---
void Parse_GGA_Generic(char *nmea) {
 8001b18:	b580      	push	{r7, lr}
 8001b1a:	b08a      	sub	sp, #40	@ 0x28
 8001b1c:	af00      	add	r7, sp, #0
 8001b1e:	6078      	str	r0, [r7, #4]
	char *current_pos = nmea;
 8001b20:	687b      	ldr	r3, [r7, #4]
 8001b22:	627b      	str	r3, [r7, #36]	@ 0x24
	int field_index = 0;
 8001b24:	2300      	movs	r3, #0
 8001b26:	623b      	str	r3, [r7, #32]
	float t_lat = 0.0, t_lon = 0.0;
 8001b28:	f04f 0300 	mov.w	r3, #0
 8001b2c:	61fb      	str	r3, [r7, #28]
 8001b2e:	f04f 0300 	mov.w	r3, #0
 8001b32:	61bb      	str	r3, [r7, #24]
	int t_sats = 0, t_fix = 0;
 8001b34:	2300      	movs	r3, #0
 8001b36:	617b      	str	r3, [r7, #20]
 8001b38:	2300      	movs	r3, #0
 8001b3a:	613b      	str	r3, [r7, #16]
	while (*current_pos != '\0') {
 8001b3c:	e04d      	b.n	8001bda <Parse_GGA_Generic+0xc2>
		char *next_comma = strchr(current_pos, ',');
 8001b3e:	212c      	movs	r1, #44	@ 0x2c
 8001b40:	6a78      	ldr	r0, [r7, #36]	@ 0x24
 8001b42:	f005 fc11 	bl	8007368 <strchr>
 8001b46:	60f8      	str	r0, [r7, #12]
		if (next_comma != NULL)
 8001b48:	68fb      	ldr	r3, [r7, #12]
 8001b4a:	2b00      	cmp	r3, #0
 8001b4c:	d002      	beq.n	8001b54 <Parse_GGA_Generic+0x3c>
			*next_comma = '\0';
 8001b4e:	68fb      	ldr	r3, [r7, #12]
 8001b50:	2200      	movs	r2, #0
 8001b52:	701a      	strb	r2, [r3, #0]
		if (*current_pos != '\0') {
 8001b54:	6a7b      	ldr	r3, [r7, #36]	@ 0x24
 8001b56:	781b      	ldrb	r3, [r3, #0]
 8001b58:	2b00      	cmp	r3, #0
 8001b5a:	d035      	beq.n	8001bc8 <Parse_GGA_Generic+0xb0>
			switch (field_index) {
 8001b5c:	6a3b      	ldr	r3, [r7, #32]
 8001b5e:	3b02      	subs	r3, #2
 8001b60:	2b05      	cmp	r3, #5
 8001b62:	d831      	bhi.n	8001bc8 <Parse_GGA_Generic+0xb0>
 8001b64:	a201      	add	r2, pc, #4	@ (adr r2, 8001b6c <Parse_GGA_Generic+0x54>)
 8001b66:	f852 f023 	ldr.w	pc, [r2, r3, lsl #2]
 8001b6a:	bf00      	nop
 8001b6c:	08001b85 	.word	0x08001b85
 8001b70:	08001bc9 	.word	0x08001bc9
 8001b74:	08001b9d 	.word	0x08001b9d
 8001b78:	08001bc9 	.word	0x08001bc9
 8001b7c:	08001bb5 	.word	0x08001bb5
 8001b80:	08001bbf 	.word	0x08001bbf
			case 2:
				t_lat = atof(current_pos);
 8001b84:	6a78      	ldr	r0, [r7, #36]	@ 0x24
 8001b86:	f003 feee 	bl	8005966 <atof>
 8001b8a:	ec53 2b10 	vmov	r2, r3, d0
 8001b8e:	4610      	mov	r0, r2
 8001b90:	4619      	mov	r1, r3
 8001b92:	f7ff f831 	bl	8000bf8 <__aeabi_d2f>
 8001b96:	4603      	mov	r3, r0
 8001b98:	61fb      	str	r3, [r7, #28]
				break;
 8001b9a:	e015      	b.n	8001bc8 <Parse_GGA_Generic+0xb0>
			case 4:
				t_lon = atof(current_pos);
 8001b9c:	6a78      	ldr	r0, [r7, #36]	@ 0x24
 8001b9e:	f003 fee2 	bl	8005966 <atof>
 8001ba2:	ec53 2b10 	vmov	r2, r3, d0
 8001ba6:	4610      	mov	r0, r2
 8001ba8:	4619      	mov	r1, r3
 8001baa:	f7ff f825 	bl	8000bf8 <__aeabi_d2f>
 8001bae:	4603      	mov	r3, r0
 8001bb0:	61bb      	str	r3, [r7, #24]
				break;
 8001bb2:	e009      	b.n	8001bc8 <Parse_GGA_Generic+0xb0>
			case 6:
				t_fix = atoi(current_pos);
 8001bb4:	6a78      	ldr	r0, [r7, #36]	@ 0x24
 8001bb6:	f003 fed9 	bl	800596c <atoi>
 8001bba:	6138      	str	r0, [r7, #16]
				break;
 8001bbc:	e004      	b.n	8001bc8 <Parse_GGA_Generic+0xb0>
			case 7:
				t_sats = atoi(current_pos);
 8001bbe:	6a78      	ldr	r0, [r7, #36]	@ 0x24
 8001bc0:	f003 fed4 	bl	800596c <atoi>
 8001bc4:	6178      	str	r0, [r7, #20]
				break;
 8001bc6:	bf00      	nop
			}
		}
		if (next_comma == NULL)
 8001bc8:	68fb      	ldr	r3, [r7, #12]
 8001bca:	2b00      	cmp	r3, #0
 8001bcc:	d00a      	beq.n	8001be4 <Parse_GGA_Generic+0xcc>
			break;
		current_pos = next_comma + 1;
 8001bce:	68fb      	ldr	r3, [r7, #12]
 8001bd0:	3301      	adds	r3, #1
 8001bd2:	627b      	str	r3, [r7, #36]	@ 0x24
		field_index++;
 8001bd4:	6a3b      	ldr	r3, [r7, #32]
 8001bd6:	3301      	adds	r3, #1
 8001bd8:	623b      	str	r3, [r7, #32]
	while (*current_pos != '\0') {
 8001bda:	6a7b      	ldr	r3, [r7, #36]	@ 0x24
 8001bdc:	781b      	ldrb	r3, [r3, #0]
 8001bde:	2b00      	cmp	r3, #0
 8001be0:	d1ad      	bne.n	8001b3e <Parse_GGA_Generic+0x26>
 8001be2:	e000      	b.n	8001be6 <Parse_GGA_Generic+0xce>
			break;
 8001be4:	bf00      	nop
	}
	vehicleState.Latitude = t_lat;
 8001be6:	4a08      	ldr	r2, [pc, #32]	@ (8001c08 <Parse_GGA_Generic+0xf0>)
 8001be8:	69fb      	ldr	r3, [r7, #28]
 8001bea:	60d3      	str	r3, [r2, #12]
	vehicleState.Longitude = t_lon;
 8001bec:	4a06      	ldr	r2, [pc, #24]	@ (8001c08 <Parse_GGA_Generic+0xf0>)
 8001bee:	69bb      	ldr	r3, [r7, #24]
 8001bf0:	6113      	str	r3, [r2, #16]
	vehicleState.FixStatus = t_fix;
 8001bf2:	693b      	ldr	r3, [r7, #16]
 8001bf4:	b2da      	uxtb	r2, r3
 8001bf6:	4b04      	ldr	r3, [pc, #16]	@ (8001c08 <Parse_GGA_Generic+0xf0>)
 8001bf8:	761a      	strb	r2, [r3, #24]
	vehicleState.Satellites = t_sats;
 8001bfa:	4a03      	ldr	r2, [pc, #12]	@ (8001c08 <Parse_GGA_Generic+0xf0>)
 8001bfc:	697b      	ldr	r3, [r7, #20]
 8001bfe:	6153      	str	r3, [r2, #20]
}
 8001c00:	bf00      	nop
 8001c02:	3728      	adds	r7, #40	@ 0x28
 8001c04:	46bd      	mov	sp, r7
 8001c06:	bd80      	pop	{r7, pc}
 8001c08:	200002d8 	.word	0x200002d8

08001c0c <MPU6050_Init>:

uint8_t MPU6050_Init(void) {
 8001c0c:	b580      	push	{r7, lr}
 8001c0e:	b086      	sub	sp, #24
 8001c10:	af04      	add	r7, sp, #16
	uint8_t check, data;
	HAL_I2C_Mem_Read(&hi2c1, MPU6050_ADDR, MPU_REG_WHO_AM_I, 1, &check, 1,
 8001c12:	f44f 737a 	mov.w	r3, #1000	@ 0x3e8
 8001c16:	9302      	str	r3, [sp, #8]
 8001c18:	2301      	movs	r3, #1
 8001c1a:	9301      	str	r3, [sp, #4]
 8001c1c:	1dfb      	adds	r3, r7, #7
 8001c1e:	9300      	str	r3, [sp, #0]
 8001c20:	2301      	movs	r3, #1
 8001c22:	2275      	movs	r2, #117	@ 0x75
 8001c24:	21d0      	movs	r1, #208	@ 0xd0
 8001c26:	481d      	ldr	r0, [pc, #116]	@ (8001c9c <MPU6050_Init+0x90>)
 8001c28:	f001 fbd0 	bl	80033cc <HAL_I2C_Mem_Read>
			1000);
	if (check == 0x68) {
 8001c2c:	79fb      	ldrb	r3, [r7, #7]
 8001c2e:	2b68      	cmp	r3, #104	@ 0x68
 8001c30:	d12e      	bne.n	8001c90 <MPU6050_Init+0x84>
		data = 0x00;
 8001c32:	2300      	movs	r3, #0
 8001c34:	71bb      	strb	r3, [r7, #6]
		HAL_I2C_Mem_Write(&hi2c1, MPU6050_ADDR, MPU_REG_PWR_MGMT_1, 1, &data, 1,
 8001c36:	f44f 737a 	mov.w	r3, #1000	@ 0x3e8
 8001c3a:	9302      	str	r3, [sp, #8]
 8001c3c:	2301      	movs	r3, #1
 8001c3e:	9301      	str	r3, [sp, #4]
 8001c40:	1dbb      	adds	r3, r7, #6
 8001c42:	9300      	str	r3, [sp, #0]
 8001c44:	2301      	movs	r3, #1
 8001c46:	226b      	movs	r2, #107	@ 0x6b
 8001c48:	21d0      	movs	r1, #208	@ 0xd0
 8001c4a:	4814      	ldr	r0, [pc, #80]	@ (8001c9c <MPU6050_Init+0x90>)
 8001c4c:	f001 fac4 	bl	80031d8 <HAL_I2C_Mem_Write>
				1000);
		data = 0x18;
 8001c50:	2318      	movs	r3, #24
 8001c52:	71bb      	strb	r3, [r7, #6]
		HAL_I2C_Mem_Write(&hi2c1, MPU6050_ADDR, MPU_REG_GYRO_CONFIG, 1, &data,
 8001c54:	f44f 737a 	mov.w	r3, #1000	@ 0x3e8
 8001c58:	9302      	str	r3, [sp, #8]
 8001c5a:	2301      	movs	r3, #1
 8001c5c:	9301      	str	r3, [sp, #4]
 8001c5e:	1dbb      	adds	r3, r7, #6
 8001c60:	9300      	str	r3, [sp, #0]
 8001c62:	2301      	movs	r3, #1
 8001c64:	221b      	movs	r2, #27
 8001c66:	21d0      	movs	r1, #208	@ 0xd0
 8001c68:	480c      	ldr	r0, [pc, #48]	@ (8001c9c <MPU6050_Init+0x90>)
 8001c6a:	f001 fab5 	bl	80031d8 <HAL_I2C_Mem_Write>
				1, 1000);
		data = 0x18;
 8001c6e:	2318      	movs	r3, #24
 8001c70:	71bb      	strb	r3, [r7, #6]
		HAL_I2C_Mem_Write(&hi2c1, MPU6050_ADDR, MPU_REG_ACCEL_CONFIG, 1, &data,
 8001c72:	f44f 737a 	mov.w	r3, #1000	@ 0x3e8
 8001c76:	9302      	str	r3, [sp, #8]
 8001c78:	2301      	movs	r3, #1
 8001c7a:	9301      	str	r3, [sp, #4]
 8001c7c:	1dbb      	adds	r3, r7, #6
 8001c7e:	9300      	str	r3, [sp, #0]
 8001c80:	2301      	movs	r3, #1
 8001c82:	221c      	movs	r2, #28
 8001c84:	21d0      	movs	r1, #208	@ 0xd0
 8001c86:	4805      	ldr	r0, [pc, #20]	@ (8001c9c <MPU6050_Init+0x90>)
 8001c88:	f001 faa6 	bl	80031d8 <HAL_I2C_Mem_Write>
				1, 1000);
		return 0;
 8001c8c:	2300      	movs	r3, #0
 8001c8e:	e000      	b.n	8001c92 <MPU6050_Init+0x86>
	}
	return 1;
 8001c90:	2301      	movs	r3, #1
}
 8001c92:	4618      	mov	r0, r3
 8001c94:	3708      	adds	r7, #8
 8001c96:	46bd      	mov	sp, r7
 8001c98:	bd80      	pop	{r7, pc}
 8001c9a:	bf00      	nop
 8001c9c:	200001f4 	.word	0x200001f4

08001ca0 <MPU6050_Calibrate>:

void MPU6050_Calibrate(void) {
 8001ca0:	b580      	push	{r7, lr}
 8001ca2:	b092      	sub	sp, #72	@ 0x48
 8001ca4:	af04      	add	r7, sp, #16
	int32_t Aa[3] = { 0 }, Ag[3] = { 0 };
 8001ca6:	f107 0320 	add.w	r3, r7, #32
 8001caa:	2200      	movs	r2, #0
 8001cac:	601a      	str	r2, [r3, #0]
 8001cae:	605a      	str	r2, [r3, #4]
 8001cb0:	609a      	str	r2, [r3, #8]
 8001cb2:	f107 0314 	add.w	r3, r7, #20
 8001cb6:	2200      	movs	r2, #0
 8001cb8:	601a      	str	r2, [r3, #0]
 8001cba:	605a      	str	r2, [r3, #4]
 8001cbc:	609a      	str	r2, [r3, #8]
	uint8_t Rec[14];
	for (int i = 0; i < 1000; i++) {
 8001cbe:	2300      	movs	r3, #0
 8001cc0:	637b      	str	r3, [r7, #52]	@ 0x34
 8001cc2:	e054      	b.n	8001d6e <MPU6050_Calibrate+0xce>
		HAL_I2C_Mem_Read(&hi2c1, MPU6050_ADDR, MPU_REG_ACCEL_XOUT_H, 1, Rec, 14,
 8001cc4:	f44f 737a 	mov.w	r3, #1000	@ 0x3e8
 8001cc8:	9302      	str	r3, [sp, #8]
 8001cca:	230e      	movs	r3, #14
 8001ccc:	9301      	str	r3, [sp, #4]
 8001cce:	1d3b      	adds	r3, r7, #4
 8001cd0:	9300      	str	r3, [sp, #0]
 8001cd2:	2301      	movs	r3, #1
 8001cd4:	223b      	movs	r2, #59	@ 0x3b
 8001cd6:	21d0      	movs	r1, #208	@ 0xd0
 8001cd8:	4891      	ldr	r0, [pc, #580]	@ (8001f20 <MPU6050_Calibrate+0x280>)
 8001cda:	f001 fb77 	bl	80033cc <HAL_I2C_Mem_Read>
				1000);
		Aa[0] += (int16_t) (Rec[0] << 8 | Rec[1]);
 8001cde:	6a3b      	ldr	r3, [r7, #32]
 8001ce0:	793a      	ldrb	r2, [r7, #4]
 8001ce2:	b212      	sxth	r2, r2
 8001ce4:	0212      	lsls	r2, r2, #8
 8001ce6:	b211      	sxth	r1, r2
 8001ce8:	797a      	ldrb	r2, [r7, #5]
 8001cea:	b212      	sxth	r2, r2
 8001cec:	430a      	orrs	r2, r1
 8001cee:	b212      	sxth	r2, r2
 8001cf0:	4413      	add	r3, r2
 8001cf2:	623b      	str	r3, [r7, #32]
		Aa[1] += (int16_t) (Rec[2] << 8 | Rec[3]);
 8001cf4:	6a7b      	ldr	r3, [r7, #36]	@ 0x24
 8001cf6:	79ba      	ldrb	r2, [r7, #6]
 8001cf8:	b212      	sxth	r2, r2
 8001cfa:	0212      	lsls	r2, r2, #8
 8001cfc:	b211      	sxth	r1, r2
 8001cfe:	79fa      	ldrb	r2, [r7, #7]
 8001d00:	b212      	sxth	r2, r2
 8001d02:	430a      	orrs	r2, r1
 8001d04:	b212      	sxth	r2, r2
 8001d06:	4413      	add	r3, r2
 8001d08:	627b      	str	r3, [r7, #36]	@ 0x24
		Aa[2] += (int16_t) (Rec[4] << 8 | Rec[5]);
 8001d0a:	6abb      	ldr	r3, [r7, #40]	@ 0x28
 8001d0c:	7a3a      	ldrb	r2, [r7, #8]
 8001d0e:	b212      	sxth	r2, r2
 8001d10:	0212      	lsls	r2, r2, #8
 8001d12:	b211      	sxth	r1, r2
 8001d14:	7a7a      	ldrb	r2, [r7, #9]
 8001d16:	b212      	sxth	r2, r2
 8001d18:	430a      	orrs	r2, r1
 8001d1a:	b212      	sxth	r2, r2
 8001d1c:	4413      	add	r3, r2
 8001d1e:	62bb      	str	r3, [r7, #40]	@ 0x28
		Ag[0] += (int16_t) (Rec[8] << 8 | Rec[9]);
 8001d20:	697b      	ldr	r3, [r7, #20]
 8001d22:	7b3a      	ldrb	r2, [r7, #12]
 8001d24:	b212      	sxth	r2, r2
 8001d26:	0212      	lsls	r2, r2, #8
 8001d28:	b211      	sxth	r1, r2
 8001d2a:	7b7a      	ldrb	r2, [r7, #13]
 8001d2c:	b212      	sxth	r2, r2
 8001d2e:	430a      	orrs	r2, r1
 8001d30:	b212      	sxth	r2, r2
 8001d32:	4413      	add	r3, r2
 8001d34:	617b      	str	r3, [r7, #20]
		Ag[1] += (int16_t) (Rec[10] << 8 | Rec[11]);
 8001d36:	69bb      	ldr	r3, [r7, #24]
 8001d38:	7bba      	ldrb	r2, [r7, #14]
 8001d3a:	b212      	sxth	r2, r2
 8001d3c:	0212      	lsls	r2, r2, #8
 8001d3e:	b211      	sxth	r1, r2
 8001d40:	7bfa      	ldrb	r2, [r7, #15]
 8001d42:	b212      	sxth	r2, r2
 8001d44:	430a      	orrs	r2, r1
 8001d46:	b212      	sxth	r2, r2
 8001d48:	4413      	add	r3, r2
 8001d4a:	61bb      	str	r3, [r7, #24]
		Ag[2] += (int16_t) (Rec[12] << 8 | Rec[13]);
 8001d4c:	69fb      	ldr	r3, [r7, #28]
 8001d4e:	7c3a      	ldrb	r2, [r7, #16]
 8001d50:	b212      	sxth	r2, r2
 8001d52:	0212      	lsls	r2, r2, #8
 8001d54:	b211      	sxth	r1, r2
 8001d56:	7c7a      	ldrb	r2, [r7, #17]
 8001d58:	b212      	sxth	r2, r2
 8001d5a:	430a      	orrs	r2, r1
 8001d5c:	b212      	sxth	r2, r2
 8001d5e:	4413      	add	r3, r2
 8001d60:	61fb      	str	r3, [r7, #28]
		HAL_Delay(1);
 8001d62:	2001      	movs	r0, #1
 8001d64:	f000 fd74 	bl	8002850 <HAL_Delay>
	for (int i = 0; i < 1000; i++) {
 8001d68:	6b7b      	ldr	r3, [r7, #52]	@ 0x34
 8001d6a:	3301      	adds	r3, #1
 8001d6c:	637b      	str	r3, [r7, #52]	@ 0x34
 8001d6e:	6b7b      	ldr	r3, [r7, #52]	@ 0x34
 8001d70:	f5b3 7f7a 	cmp.w	r3, #1000	@ 0x3e8
 8001d74:	dba6      	blt.n	8001cc4 <MPU6050_Calibrate+0x24>
	}
	int16_t AvgX = Aa[0] / 1000, AvgY = Aa[1] / 1000, AvgZ = Aa[2] / 1000;
 8001d76:	6a3b      	ldr	r3, [r7, #32]
 8001d78:	4a6a      	ldr	r2, [pc, #424]	@ (8001f24 <MPU6050_Calibrate+0x284>)
 8001d7a:	fb82 1203 	smull	r1, r2, r2, r3
 8001d7e:	1192      	asrs	r2, r2, #6
 8001d80:	17db      	asrs	r3, r3, #31
 8001d82:	1ad3      	subs	r3, r2, r3
 8001d84:	867b      	strh	r3, [r7, #50]	@ 0x32
 8001d86:	6a7b      	ldr	r3, [r7, #36]	@ 0x24
 8001d88:	4a66      	ldr	r2, [pc, #408]	@ (8001f24 <MPU6050_Calibrate+0x284>)
 8001d8a:	fb82 1203 	smull	r1, r2, r2, r3
 8001d8e:	1192      	asrs	r2, r2, #6
 8001d90:	17db      	asrs	r3, r3, #31
 8001d92:	1ad3      	subs	r3, r2, r3
 8001d94:	863b      	strh	r3, [r7, #48]	@ 0x30
 8001d96:	6abb      	ldr	r3, [r7, #40]	@ 0x28
 8001d98:	4a62      	ldr	r2, [pc, #392]	@ (8001f24 <MPU6050_Calibrate+0x284>)
 8001d9a:	fb82 1203 	smull	r1, r2, r2, r3
 8001d9e:	1192      	asrs	r2, r2, #6
 8001da0:	17db      	asrs	r3, r3, #31
 8001da2:	1ad3      	subs	r3, r2, r3
 8001da4:	85fb      	strh	r3, [r7, #46]	@ 0x2e
	if (abs(AvgX) > abs(AvgY) && abs(AvgX) > abs(AvgZ)) {
 8001da6:	f9b7 3032 	ldrsh.w	r3, [r7, #50]	@ 0x32
 8001daa:	2b00      	cmp	r3, #0
 8001dac:	bfb8      	it	lt
 8001dae:	425b      	neglt	r3, r3
 8001db0:	b29a      	uxth	r2, r3
 8001db2:	f9b7 3030 	ldrsh.w	r3, [r7, #48]	@ 0x30
 8001db6:	2b00      	cmp	r3, #0
 8001db8:	bfb8      	it	lt
 8001dba:	425b      	neglt	r3, r3
 8001dbc:	b29b      	uxth	r3, r3
 8001dbe:	429a      	cmp	r2, r3
 8001dc0:	d91b      	bls.n	8001dfa <MPU6050_Calibrate+0x15a>
 8001dc2:	f9b7 3032 	ldrsh.w	r3, [r7, #50]	@ 0x32
 8001dc6:	2b00      	cmp	r3, #0
 8001dc8:	bfb8      	it	lt
 8001dca:	425b      	neglt	r3, r3
 8001dcc:	b29a      	uxth	r2, r3
 8001dce:	f9b7 302e 	ldrsh.w	r3, [r7, #46]	@ 0x2e
 8001dd2:	2b00      	cmp	r3, #0
 8001dd4:	bfb8      	it	lt
 8001dd6:	425b      	neglt	r3, r3
 8001dd8:	b29b      	uxth	r3, r3
 8001dda:	429a      	cmp	r2, r3
 8001ddc:	d90d      	bls.n	8001dfa <MPU6050_Calibrate+0x15a>
		Vertical_Axis = 0;
 8001dde:	4b52      	ldr	r3, [pc, #328]	@ (8001f28 <MPU6050_Calibrate+0x288>)
 8001de0:	2200      	movs	r2, #0
 8001de2:	701a      	strb	r2, [r3, #0]
		Vertical_Sign = (AvgX > 0) ? 1 : -1;
 8001de4:	f9b7 3032 	ldrsh.w	r3, [r7, #50]	@ 0x32
 8001de8:	2b00      	cmp	r3, #0
 8001dea:	dd01      	ble.n	8001df0 <MPU6050_Calibrate+0x150>
 8001dec:	2201      	movs	r2, #1
 8001dee:	e001      	b.n	8001df4 <MPU6050_Calibrate+0x154>
 8001df0:	f04f 32ff 	mov.w	r2, #4294967295
 8001df4:	4b4d      	ldr	r3, [pc, #308]	@ (8001f2c <MPU6050_Calibrate+0x28c>)
 8001df6:	701a      	strb	r2, [r3, #0]
 8001df8:	e036      	b.n	8001e68 <MPU6050_Calibrate+0x1c8>
	} else if (abs(AvgY) > abs(AvgX) && abs(AvgY) > abs(AvgZ)) {
 8001dfa:	f9b7 3030 	ldrsh.w	r3, [r7, #48]	@ 0x30
 8001dfe:	2b00      	cmp	r3, #0
 8001e00:	bfb8      	it	lt
 8001e02:	425b      	neglt	r3, r3
 8001e04:	b29a      	uxth	r2, r3
 8001e06:	f9b7 3032 	ldrsh.w	r3, [r7, #50]	@ 0x32
 8001e0a:	2b00      	cmp	r3, #0
 8001e0c:	bfb8      	it	lt
 8001e0e:	425b      	neglt	r3, r3
 8001e10:	b29b      	uxth	r3, r3
 8001e12:	429a      	cmp	r2, r3
 8001e14:	d91b      	bls.n	8001e4e <MPU6050_Calibrate+0x1ae>
 8001e16:	f9b7 3030 	ldrsh.w	r3, [r7, #48]	@ 0x30
 8001e1a:	2b00      	cmp	r3, #0
 8001e1c:	bfb8      	it	lt
 8001e1e:	425b      	neglt	r3, r3
 8001e20:	b29a      	uxth	r2, r3
 8001e22:	f9b7 302e 	ldrsh.w	r3, [r7, #46]	@ 0x2e
 8001e26:	2b00      	cmp	r3, #0
 8001e28:	bfb8      	it	lt
 8001e2a:	425b      	neglt	r3, r3
 8001e2c:	b29b      	uxth	r3, r3
 8001e2e:	429a      	cmp	r2, r3
 8001e30:	d90d      	bls.n	8001e4e <MPU6050_Calibrate+0x1ae>
		Vertical_Axis = 1;
 8001e32:	4b3d      	ldr	r3, [pc, #244]	@ (8001f28 <MPU6050_Calibrate+0x288>)
 8001e34:	2201      	movs	r2, #1
 8001e36:	701a      	strb	r2, [r3, #0]
		Vertical_Sign = (AvgY > 0) ? 1 : -1;
 8001e38:	f9b7 3030 	ldrsh.w	r3, [r7, #48]	@ 0x30
 8001e3c:	2b00      	cmp	r3, #0
 8001e3e:	dd01      	ble.n	8001e44 <MPU6050_Calibrate+0x1a4>
 8001e40:	2201      	movs	r2, #1
 8001e42:	e001      	b.n	8001e48 <MPU6050_Calibrate+0x1a8>
 8001e44:	f04f 32ff 	mov.w	r2, #4294967295
 8001e48:	4b38      	ldr	r3, [pc, #224]	@ (8001f2c <MPU6050_Calibrate+0x28c>)
 8001e4a:	701a      	strb	r2, [r3, #0]
 8001e4c:	e00c      	b.n	8001e68 <MPU6050_Calibrate+0x1c8>
	} else {
		Vertical_Axis = 2;
 8001e4e:	4b36      	ldr	r3, [pc, #216]	@ (8001f28 <MPU6050_Calibrate+0x288>)
 8001e50:	2202      	movs	r2, #2
 8001e52:	701a      	strb	r2, [r3, #0]
		Vertical_Sign = (AvgZ > 0) ? 1 : -1;
 8001e54:	f9b7 302e 	ldrsh.w	r3, [r7, #46]	@ 0x2e
 8001e58:	2b00      	cmp	r3, #0
 8001e5a:	dd01      	ble.n	8001e60 <MPU6050_Calibrate+0x1c0>
 8001e5c:	2201      	movs	r2, #1
 8001e5e:	e001      	b.n	8001e64 <MPU6050_Calibrate+0x1c4>
 8001e60:	f04f 32ff 	mov.w	r2, #4294967295
 8001e64:	4b31      	ldr	r3, [pc, #196]	@ (8001f2c <MPU6050_Calibrate+0x28c>)
 8001e66:	701a      	strb	r2, [r3, #0]
	}
	GyroX_Offset = Ag[0] / 1000;
 8001e68:	697b      	ldr	r3, [r7, #20]
 8001e6a:	4a2e      	ldr	r2, [pc, #184]	@ (8001f24 <MPU6050_Calibrate+0x284>)
 8001e6c:	fb82 1203 	smull	r1, r2, r2, r3
 8001e70:	1192      	asrs	r2, r2, #6
 8001e72:	17db      	asrs	r3, r3, #31
 8001e74:	1ad3      	subs	r3, r2, r3
 8001e76:	b21a      	sxth	r2, r3
 8001e78:	4b2d      	ldr	r3, [pc, #180]	@ (8001f30 <MPU6050_Calibrate+0x290>)
 8001e7a:	801a      	strh	r2, [r3, #0]
	GyroY_Offset = Ag[1] / 1000;
 8001e7c:	69bb      	ldr	r3, [r7, #24]
 8001e7e:	4a29      	ldr	r2, [pc, #164]	@ (8001f24 <MPU6050_Calibrate+0x284>)
 8001e80:	fb82 1203 	smull	r1, r2, r2, r3
 8001e84:	1192      	asrs	r2, r2, #6
 8001e86:	17db      	asrs	r3, r3, #31
 8001e88:	1ad3      	subs	r3, r2, r3
 8001e8a:	b21a      	sxth	r2, r3
 8001e8c:	4b29      	ldr	r3, [pc, #164]	@ (8001f34 <MPU6050_Calibrate+0x294>)
 8001e8e:	801a      	strh	r2, [r3, #0]
	GyroZ_Offset = Ag[2] / 1000;
 8001e90:	69fb      	ldr	r3, [r7, #28]
 8001e92:	4a24      	ldr	r2, [pc, #144]	@ (8001f24 <MPU6050_Calibrate+0x284>)
 8001e94:	fb82 1203 	smull	r1, r2, r2, r3
 8001e98:	1192      	asrs	r2, r2, #6
 8001e9a:	17db      	asrs	r3, r3, #31
 8001e9c:	1ad3      	subs	r3, r2, r3
 8001e9e:	b21a      	sxth	r2, r3
 8001ea0:	4b25      	ldr	r3, [pc, #148]	@ (8001f38 <MPU6050_Calibrate+0x298>)
 8001ea2:	801a      	strh	r2, [r3, #0]
	int16_t gRaw = MPU_1G_RAW * Vertical_Sign;
 8001ea4:	4b21      	ldr	r3, [pc, #132]	@ (8001f2c <MPU6050_Calibrate+0x28c>)
 8001ea6:	f993 3000 	ldrsb.w	r3, [r3]
 8001eaa:	b29b      	uxth	r3, r3
 8001eac:	02db      	lsls	r3, r3, #11
 8001eae:	b29b      	uxth	r3, r3
 8001eb0:	85bb      	strh	r3, [r7, #44]	@ 0x2c
	AccX_Offset = AvgX;
 8001eb2:	4a22      	ldr	r2, [pc, #136]	@ (8001f3c <MPU6050_Calibrate+0x29c>)
 8001eb4:	8e7b      	ldrh	r3, [r7, #50]	@ 0x32
 8001eb6:	8013      	strh	r3, [r2, #0]
	AccY_Offset = AvgY;
 8001eb8:	4a21      	ldr	r2, [pc, #132]	@ (8001f40 <MPU6050_Calibrate+0x2a0>)
 8001eba:	8e3b      	ldrh	r3, [r7, #48]	@ 0x30
 8001ebc:	8013      	strh	r3, [r2, #0]
	AccZ_Offset = AvgZ;
 8001ebe:	4a21      	ldr	r2, [pc, #132]	@ (8001f44 <MPU6050_Calibrate+0x2a4>)
 8001ec0:	8dfb      	ldrh	r3, [r7, #46]	@ 0x2e
 8001ec2:	8013      	strh	r3, [r2, #0]
	if (Vertical_Axis == 0)
 8001ec4:	4b18      	ldr	r3, [pc, #96]	@ (8001f28 <MPU6050_Calibrate+0x288>)
 8001ec6:	781b      	ldrb	r3, [r3, #0]
 8001ec8:	2b00      	cmp	r3, #0
 8001eca:	d109      	bne.n	8001ee0 <MPU6050_Calibrate+0x240>
		AccX_Offset -= gRaw;
 8001ecc:	4b1b      	ldr	r3, [pc, #108]	@ (8001f3c <MPU6050_Calibrate+0x29c>)
 8001ece:	f9b3 3000 	ldrsh.w	r3, [r3]
 8001ed2:	b29a      	uxth	r2, r3
 8001ed4:	8dbb      	ldrh	r3, [r7, #44]	@ 0x2c
 8001ed6:	1ad3      	subs	r3, r2, r3
 8001ed8:	b29b      	uxth	r3, r3
 8001eda:	b21a      	sxth	r2, r3
 8001edc:	4b17      	ldr	r3, [pc, #92]	@ (8001f3c <MPU6050_Calibrate+0x29c>)
 8001ede:	801a      	strh	r2, [r3, #0]
	if (Vertical_Axis == 1)
 8001ee0:	4b11      	ldr	r3, [pc, #68]	@ (8001f28 <MPU6050_Calibrate+0x288>)
 8001ee2:	781b      	ldrb	r3, [r3, #0]
 8001ee4:	2b01      	cmp	r3, #1
 8001ee6:	d109      	bne.n	8001efc <MPU6050_Calibrate+0x25c>
		AccY_Offset -= gRaw;
 8001ee8:	4b15      	ldr	r3, [pc, #84]	@ (8001f40 <MPU6050_Calibrate+0x2a0>)
 8001eea:	f9b3 3000 	ldrsh.w	r3, [r3]
 8001eee:	b29a      	uxth	r2, r3
 8001ef0:	8dbb      	ldrh	r3, [r7, #44]	@ 0x2c
 8001ef2:	1ad3      	subs	r3, r2, r3
 8001ef4:	b29b      	uxth	r3, r3
 8001ef6:	b21a      	sxth	r2, r3
 8001ef8:	4b11      	ldr	r3, [pc, #68]	@ (8001f40 <MPU6050_Calibrate+0x2a0>)
 8001efa:	801a      	strh	r2, [r3, #0]
	if (Vertical_Axis == 2)
 8001efc:	4b0a      	ldr	r3, [pc, #40]	@ (8001f28 <MPU6050_Calibrate+0x288>)
 8001efe:	781b      	ldrb	r3, [r3, #0]
 8001f00:	2b02      	cmp	r3, #2
 8001f02:	d109      	bne.n	8001f18 <MPU6050_Calibrate+0x278>
		AccZ_Offset -= gRaw;
 8001f04:	4b0f      	ldr	r3, [pc, #60]	@ (8001f44 <MPU6050_Calibrate+0x2a4>)
 8001f06:	f9b3 3000 	ldrsh.w	r3, [r3]
 8001f0a:	b29a      	uxth	r2, r3
 8001f0c:	8dbb      	ldrh	r3, [r7, #44]	@ 0x2c
 8001f0e:	1ad3      	subs	r3, r2, r3
 8001f10:	b29b      	uxth	r3, r3
 8001f12:	b21a      	sxth	r2, r3
 8001f14:	4b0b      	ldr	r3, [pc, #44]	@ (8001f44 <MPU6050_Calibrate+0x2a4>)
 8001f16:	801a      	strh	r2, [r3, #0]
}
 8001f18:	bf00      	nop
 8001f1a:	3738      	adds	r7, #56	@ 0x38
 8001f1c:	46bd      	mov	sp, r7
 8001f1e:	bd80      	pop	{r7, pc}
 8001f20:	200001f4 	.word	0x200001f4
 8001f24:	10624dd3 	.word	0x10624dd3
 8001f28:	20000000 	.word	0x20000000
 8001f2c:	20000001 	.word	0x20000001
 8001f30:	20000308 	.word	0x20000308
 8001f34:	2000030a 	.word	0x2000030a
 8001f38:	2000030c 	.word	0x2000030c
 8001f3c:	20000302 	.word	0x20000302
 8001f40:	20000304 	.word	0x20000304
 8001f44:	20000306 	.word	0x20000306

08001f48 <MPU6050_Read_AccelGyro>:

void MPU6050_Read_AccelGyro(void) {
 8001f48:	b580      	push	{r7, lr}
 8001f4a:	b08c      	sub	sp, #48	@ 0x30
 8001f4c:	af04      	add	r7, sp, #16
	uint8_t Rec[14];
	HAL_I2C_Mem_Read(&hi2c1, MPU6050_ADDR, MPU_REG_ACCEL_XOUT_H, 1, Rec, 14,
 8001f4e:	f44f 737a 	mov.w	r3, #1000	@ 0x3e8
 8001f52:	9302      	str	r3, [sp, #8]
 8001f54:	230e      	movs	r3, #14
 8001f56:	9301      	str	r3, [sp, #4]
 8001f58:	1d3b      	adds	r3, r7, #4
 8001f5a:	9300      	str	r3, [sp, #0]
 8001f5c:	2301      	movs	r3, #1
 8001f5e:	223b      	movs	r2, #59	@ 0x3b
 8001f60:	21d0      	movs	r1, #208	@ 0xd0
 8001f62:	486b      	ldr	r0, [pc, #428]	@ (8002110 <MPU6050_Read_AccelGyro+0x1c8>)
 8001f64:	f001 fa32 	bl	80033cc <HAL_I2C_Mem_Read>
			1000);
	int16_t rX = (int16_t) (Rec[0] << 8 | Rec[1]), rY = (int16_t) (Rec[2] << 8
 8001f68:	793b      	ldrb	r3, [r7, #4]
 8001f6a:	b21b      	sxth	r3, r3
 8001f6c:	021b      	lsls	r3, r3, #8
 8001f6e:	b21a      	sxth	r2, r3
 8001f70:	797b      	ldrb	r3, [r7, #5]
 8001f72:	b21b      	sxth	r3, r3
 8001f74:	4313      	orrs	r3, r2
 8001f76:	83fb      	strh	r3, [r7, #30]
 8001f78:	79bb      	ldrb	r3, [r7, #6]
 8001f7a:	b21b      	sxth	r3, r3
 8001f7c:	021b      	lsls	r3, r3, #8
 8001f7e:	b21a      	sxth	r2, r3
			| Rec[3]), rZ = (int16_t) (Rec[4] << 8 | Rec[5]);
 8001f80:	79fb      	ldrb	r3, [r7, #7]
 8001f82:	b21b      	sxth	r3, r3
	int16_t rX = (int16_t) (Rec[0] << 8 | Rec[1]), rY = (int16_t) (Rec[2] << 8
 8001f84:	4313      	orrs	r3, r2
 8001f86:	83bb      	strh	r3, [r7, #28]
			| Rec[3]), rZ = (int16_t) (Rec[4] << 8 | Rec[5]);
 8001f88:	7a3b      	ldrb	r3, [r7, #8]
 8001f8a:	b21b      	sxth	r3, r3
 8001f8c:	021b      	lsls	r3, r3, #8
 8001f8e:	b21a      	sxth	r2, r3
 8001f90:	7a7b      	ldrb	r3, [r7, #9]
 8001f92:	b21b      	sxth	r3, r3
 8001f94:	4313      	orrs	r3, r2
 8001f96:	837b      	strh	r3, [r7, #26]
	int16_t rGx = (int16_t) (Rec[8] << 8 | Rec[9]), rGy = (int16_t) (Rec[10]
 8001f98:	7b3b      	ldrb	r3, [r7, #12]
 8001f9a:	b21b      	sxth	r3, r3
 8001f9c:	021b      	lsls	r3, r3, #8
 8001f9e:	b21a      	sxth	r2, r3
 8001fa0:	7b7b      	ldrb	r3, [r7, #13]
 8001fa2:	b21b      	sxth	r3, r3
 8001fa4:	4313      	orrs	r3, r2
 8001fa6:	833b      	strh	r3, [r7, #24]
 8001fa8:	7bbb      	ldrb	r3, [r7, #14]
 8001faa:	b21b      	sxth	r3, r3
 8001fac:	021b      	lsls	r3, r3, #8
 8001fae:	b21a      	sxth	r2, r3
			<< 8 | Rec[11]), rGz = (int16_t) (Rec[12] << 8 | Rec[13]);
 8001fb0:	7bfb      	ldrb	r3, [r7, #15]
 8001fb2:	b21b      	sxth	r3, r3
	int16_t rGx = (int16_t) (Rec[8] << 8 | Rec[9]), rGy = (int16_t) (Rec[10]
 8001fb4:	4313      	orrs	r3, r2
 8001fb6:	82fb      	strh	r3, [r7, #22]
			<< 8 | Rec[11]), rGz = (int16_t) (Rec[12] << 8 | Rec[13]);
 8001fb8:	7c3b      	ldrb	r3, [r7, #16]
 8001fba:	b21b      	sxth	r3, r3
 8001fbc:	021b      	lsls	r3, r3, #8
 8001fbe:	b21a      	sxth	r2, r3
 8001fc0:	7c7b      	ldrb	r3, [r7, #17]
 8001fc2:	b21b      	sxth	r3, r3
 8001fc4:	4313      	orrs	r3, r2
 8001fc6:	82bb      	strh	r3, [r7, #20]
	rX -= AccX_Offset;
 8001fc8:	8bfa      	ldrh	r2, [r7, #30]
 8001fca:	4b52      	ldr	r3, [pc, #328]	@ (8002114 <MPU6050_Read_AccelGyro+0x1cc>)
 8001fcc:	f9b3 3000 	ldrsh.w	r3, [r3]
 8001fd0:	b29b      	uxth	r3, r3
 8001fd2:	1ad3      	subs	r3, r2, r3
 8001fd4:	b29b      	uxth	r3, r3
 8001fd6:	83fb      	strh	r3, [r7, #30]
	rY -= AccY_Offset;
 8001fd8:	8bba      	ldrh	r2, [r7, #28]
 8001fda:	4b4f      	ldr	r3, [pc, #316]	@ (8002118 <MPU6050_Read_AccelGyro+0x1d0>)
 8001fdc:	f9b3 3000 	ldrsh.w	r3, [r3]
 8001fe0:	b29b      	uxth	r3, r3
 8001fe2:	1ad3      	subs	r3, r2, r3
 8001fe4:	b29b      	uxth	r3, r3
 8001fe6:	83bb      	strh	r3, [r7, #28]
	rZ -= AccZ_Offset;
 8001fe8:	8b7a      	ldrh	r2, [r7, #26]
 8001fea:	4b4c      	ldr	r3, [pc, #304]	@ (800211c <MPU6050_Read_AccelGyro+0x1d4>)
 8001fec:	f9b3 3000 	ldrsh.w	r3, [r3]
 8001ff0:	b29b      	uxth	r3, r3
 8001ff2:	1ad3      	subs	r3, r2, r3
 8001ff4:	b29b      	uxth	r3, r3
 8001ff6:	837b      	strh	r3, [r7, #26]
	rGx -= GyroX_Offset;
 8001ff8:	8b3a      	ldrh	r2, [r7, #24]
 8001ffa:	4b49      	ldr	r3, [pc, #292]	@ (8002120 <MPU6050_Read_AccelGyro+0x1d8>)
 8001ffc:	f9b3 3000 	ldrsh.w	r3, [r3]
 8002000:	b29b      	uxth	r3, r3
 8002002:	1ad3      	subs	r3, r2, r3
 8002004:	b29b      	uxth	r3, r3
 8002006:	833b      	strh	r3, [r7, #24]
	rGy -= GyroY_Offset;
 8002008:	8afa      	ldrh	r2, [r7, #22]
 800200a:	4b46      	ldr	r3, [pc, #280]	@ (8002124 <MPU6050_Read_AccelGyro+0x1dc>)
 800200c:	f9b3 3000 	ldrsh.w	r3, [r3]
 8002010:	b29b      	uxth	r3, r3
 8002012:	1ad3      	subs	r3, r2, r3
 8002014:	b29b      	uxth	r3, r3
 8002016:	82fb      	strh	r3, [r7, #22]
	rGz -= GyroZ_Offset;
 8002018:	8aba      	ldrh	r2, [r7, #20]
 800201a:	4b43      	ldr	r3, [pc, #268]	@ (8002128 <MPU6050_Read_AccelGyro+0x1e0>)
 800201c:	f9b3 3000 	ldrsh.w	r3, [r3]
 8002020:	b29b      	uxth	r3, r3
 8002022:	1ad3      	subs	r3, r2, r3
 8002024:	b29b      	uxth	r3, r3
 8002026:	82bb      	strh	r3, [r7, #20]
	if (Vertical_Axis == 0) {
 8002028:	4b40      	ldr	r3, [pc, #256]	@ (800212c <MPU6050_Read_AccelGyro+0x1e4>)
 800202a:	781b      	ldrb	r3, [r3, #0]
 800202c:	2b00      	cmp	r3, #0
 800202e:	d122      	bne.n	8002076 <MPU6050_Read_AccelGyro+0x12e>
		vehicleState.AccZ = rX * Vertical_Sign;
 8002030:	4b3f      	ldr	r3, [pc, #252]	@ (8002130 <MPU6050_Read_AccelGyro+0x1e8>)
 8002032:	f993 3000 	ldrsb.w	r3, [r3]
 8002036:	b29a      	uxth	r2, r3
 8002038:	8bfb      	ldrh	r3, [r7, #30]
 800203a:	fb12 f303 	smulbb	r3, r2, r3
 800203e:	b29b      	uxth	r3, r3
 8002040:	b21a      	sxth	r2, r3
 8002042:	4b3c      	ldr	r3, [pc, #240]	@ (8002134 <MPU6050_Read_AccelGyro+0x1ec>)
 8002044:	809a      	strh	r2, [r3, #4]
		vehicleState.AccY = rY;
 8002046:	4a3b      	ldr	r2, [pc, #236]	@ (8002134 <MPU6050_Read_AccelGyro+0x1ec>)
 8002048:	8bbb      	ldrh	r3, [r7, #28]
 800204a:	8053      	strh	r3, [r2, #2]
		vehicleState.AccX = rZ;
 800204c:	4a39      	ldr	r2, [pc, #228]	@ (8002134 <MPU6050_Read_AccelGyro+0x1ec>)
 800204e:	8b7b      	ldrh	r3, [r7, #26]
 8002050:	8013      	strh	r3, [r2, #0]
		vehicleState.GyroZ = rGx * Vertical_Sign;
 8002052:	4b37      	ldr	r3, [pc, #220]	@ (8002130 <MPU6050_Read_AccelGyro+0x1e8>)
 8002054:	f993 3000 	ldrsb.w	r3, [r3]
 8002058:	b29a      	uxth	r2, r3
 800205a:	8b3b      	ldrh	r3, [r7, #24]
 800205c:	fb12 f303 	smulbb	r3, r2, r3
 8002060:	b29b      	uxth	r3, r3
 8002062:	b21a      	sxth	r2, r3
 8002064:	4b33      	ldr	r3, [pc, #204]	@ (8002134 <MPU6050_Read_AccelGyro+0x1ec>)
 8002066:	815a      	strh	r2, [r3, #10]
		vehicleState.GyroY = rGy;
 8002068:	4a32      	ldr	r2, [pc, #200]	@ (8002134 <MPU6050_Read_AccelGyro+0x1ec>)
 800206a:	8afb      	ldrh	r3, [r7, #22]
 800206c:	8113      	strh	r3, [r2, #8]
		vehicleState.GyroX = rGz;
 800206e:	4a31      	ldr	r2, [pc, #196]	@ (8002134 <MPU6050_Read_AccelGyro+0x1ec>)
 8002070:	8abb      	ldrh	r3, [r7, #20]
 8002072:	80d3      	strh	r3, [r2, #6]
		vehicleState.AccY = rY;
		vehicleState.GyroZ = rGz * Vertical_Sign;
		vehicleState.GyroX = rGx;
		vehicleState.GyroY = rGy;
	}
}
 8002074:	e048      	b.n	8002108 <MPU6050_Read_AccelGyro+0x1c0>
	} else if (Vertical_Axis == 1) {
 8002076:	4b2d      	ldr	r3, [pc, #180]	@ (800212c <MPU6050_Read_AccelGyro+0x1e4>)
 8002078:	781b      	ldrb	r3, [r3, #0]
 800207a:	2b01      	cmp	r3, #1
 800207c:	d122      	bne.n	80020c4 <MPU6050_Read_AccelGyro+0x17c>
		vehicleState.AccZ = rY * Vertical_Sign;
 800207e:	4b2c      	ldr	r3, [pc, #176]	@ (8002130 <MPU6050_Read_AccelGyro+0x1e8>)
 8002080:	f993 3000 	ldrsb.w	r3, [r3]
 8002084:	b29a      	uxth	r2, r3
 8002086:	8bbb      	ldrh	r3, [r7, #28]
 8002088:	fb12 f303 	smulbb	r3, r2, r3
 800208c:	b29b      	uxth	r3, r3
 800208e:	b21a      	sxth	r2, r3
 8002090:	4b28      	ldr	r3, [pc, #160]	@ (8002134 <MPU6050_Read_AccelGyro+0x1ec>)
 8002092:	809a      	strh	r2, [r3, #4]
		vehicleState.AccX = rX;
 8002094:	4a27      	ldr	r2, [pc, #156]	@ (8002134 <MPU6050_Read_AccelGyro+0x1ec>)
 8002096:	8bfb      	ldrh	r3, [r7, #30]
 8002098:	8013      	strh	r3, [r2, #0]
		vehicleState.AccY = rZ;
 800209a:	4a26      	ldr	r2, [pc, #152]	@ (8002134 <MPU6050_Read_AccelGyro+0x1ec>)
 800209c:	8b7b      	ldrh	r3, [r7, #26]
 800209e:	8053      	strh	r3, [r2, #2]
		vehicleState.GyroZ = rGy * Vertical_Sign;
 80020a0:	4b23      	ldr	r3, [pc, #140]	@ (8002130 <MPU6050_Read_AccelGyro+0x1e8>)
 80020a2:	f993 3000 	ldrsb.w	r3, [r3]
 80020a6:	b29a      	uxth	r2, r3
 80020a8:	8afb      	ldrh	r3, [r7, #22]
 80020aa:	fb12 f303 	smulbb	r3, r2, r3
 80020ae:	b29b      	uxth	r3, r3
 80020b0:	b21a      	sxth	r2, r3
 80020b2:	4b20      	ldr	r3, [pc, #128]	@ (8002134 <MPU6050_Read_AccelGyro+0x1ec>)
 80020b4:	815a      	strh	r2, [r3, #10]
		vehicleState.GyroX = rGx;
 80020b6:	4a1f      	ldr	r2, [pc, #124]	@ (8002134 <MPU6050_Read_AccelGyro+0x1ec>)
 80020b8:	8b3b      	ldrh	r3, [r7, #24]
 80020ba:	80d3      	strh	r3, [r2, #6]
		vehicleState.GyroY = rGz;
 80020bc:	4a1d      	ldr	r2, [pc, #116]	@ (8002134 <MPU6050_Read_AccelGyro+0x1ec>)
 80020be:	8abb      	ldrh	r3, [r7, #20]
 80020c0:	8113      	strh	r3, [r2, #8]
}
 80020c2:	e021      	b.n	8002108 <MPU6050_Read_AccelGyro+0x1c0>
		vehicleState.AccZ = rZ * Vertical_Sign;
 80020c4:	4b1a      	ldr	r3, [pc, #104]	@ (8002130 <MPU6050_Read_AccelGyro+0x1e8>)
 80020c6:	f993 3000 	ldrsb.w	r3, [r3]
 80020ca:	b29a      	uxth	r2, r3
 80020cc:	8b7b      	ldrh	r3, [r7, #26]
 80020ce:	fb12 f303 	smulbb	r3, r2, r3
 80020d2:	b29b      	uxth	r3, r3
 80020d4:	b21a      	sxth	r2, r3
 80020d6:	4b17      	ldr	r3, [pc, #92]	@ (8002134 <MPU6050_Read_AccelGyro+0x1ec>)
 80020d8:	809a      	strh	r2, [r3, #4]
		vehicleState.AccX = rX;
 80020da:	4a16      	ldr	r2, [pc, #88]	@ (8002134 <MPU6050_Read_AccelGyro+0x1ec>)
 80020dc:	8bfb      	ldrh	r3, [r7, #30]
 80020de:	8013      	strh	r3, [r2, #0]
		vehicleState.AccY = rY;
 80020e0:	4a14      	ldr	r2, [pc, #80]	@ (8002134 <MPU6050_Read_AccelGyro+0x1ec>)
 80020e2:	8bbb      	ldrh	r3, [r7, #28]
 80020e4:	8053      	strh	r3, [r2, #2]
		vehicleState.GyroZ = rGz * Vertical_Sign;
 80020e6:	4b12      	ldr	r3, [pc, #72]	@ (8002130 <MPU6050_Read_AccelGyro+0x1e8>)
 80020e8:	f993 3000 	ldrsb.w	r3, [r3]
 80020ec:	b29a      	uxth	r2, r3
 80020ee:	8abb      	ldrh	r3, [r7, #20]
 80020f0:	fb12 f303 	smulbb	r3, r2, r3
 80020f4:	b29b      	uxth	r3, r3
 80020f6:	b21a      	sxth	r2, r3
 80020f8:	4b0e      	ldr	r3, [pc, #56]	@ (8002134 <MPU6050_Read_AccelGyro+0x1ec>)
 80020fa:	815a      	strh	r2, [r3, #10]
		vehicleState.GyroX = rGx;
 80020fc:	4a0d      	ldr	r2, [pc, #52]	@ (8002134 <MPU6050_Read_AccelGyro+0x1ec>)
 80020fe:	8b3b      	ldrh	r3, [r7, #24]
 8002100:	80d3      	strh	r3, [r2, #6]
		vehicleState.GyroY = rGy;
 8002102:	4a0c      	ldr	r2, [pc, #48]	@ (8002134 <MPU6050_Read_AccelGyro+0x1ec>)
 8002104:	8afb      	ldrh	r3, [r7, #22]
 8002106:	8113      	strh	r3, [r2, #8]
}
 8002108:	bf00      	nop
 800210a:	3720      	adds	r7, #32
 800210c:	46bd      	mov	sp, r7
 800210e:	bd80      	pop	{r7, pc}
 8002110:	200001f4 	.word	0x200001f4
 8002114:	20000302 	.word	0x20000302
 8002118:	20000304 	.word	0x20000304
 800211c:	20000306 	.word	0x20000306
 8002120:	20000308 	.word	0x20000308
 8002124:	2000030a 	.word	0x2000030a
 8002128:	2000030c 	.word	0x2000030c
 800212c:	20000000 	.word	0x20000000
 8002130:	20000001 	.word	0x20000001
 8002134:	200002d8 	.word	0x200002d8

08002138 <SystemClock_Config>:

void SystemClock_Config(void) {
 8002138:	b580      	push	{r7, lr}
 800213a:	b094      	sub	sp, #80	@ 0x50
 800213c:	af00      	add	r7, sp, #0
	RCC_OscInitTypeDef RCC_OscInitStruct = { 0 };
 800213e:	f107 0320 	add.w	r3, r7, #32
 8002142:	2230      	movs	r2, #48	@ 0x30
 8002144:	2100      	movs	r1, #0
 8002146:	4618      	mov	r0, r3
 8002148:	f005 f906 	bl	8007358 <memset>
	RCC_ClkInitTypeDef RCC_ClkInitStruct = { 0 };
 800214c:	f107 030c 	add.w	r3, r7, #12
 8002150:	2200      	movs	r2, #0
 8002152:	601a      	str	r2, [r3, #0]
 8002154:	605a      	str	r2, [r3, #4]
 8002156:	609a      	str	r2, [r3, #8]
 8002158:	60da      	str	r2, [r3, #12]
 800215a:	611a      	str	r2, [r3, #16]
	__HAL_RCC_PWR_CLK_ENABLE();
 800215c:	2300      	movs	r3, #0
 800215e:	60bb      	str	r3, [r7, #8]
 8002160:	4b23      	ldr	r3, [pc, #140]	@ (80021f0 <SystemClock_Config+0xb8>)
 8002162:	6c1b      	ldr	r3, [r3, #64]	@ 0x40
 8002164:	4a22      	ldr	r2, [pc, #136]	@ (80021f0 <SystemClock_Config+0xb8>)
 8002166:	f043 5380 	orr.w	r3, r3, #268435456	@ 0x10000000
 800216a:	6413      	str	r3, [r2, #64]	@ 0x40
 800216c:	4b20      	ldr	r3, [pc, #128]	@ (80021f0 <SystemClock_Config+0xb8>)
 800216e:	6c1b      	ldr	r3, [r3, #64]	@ 0x40
 8002170:	f003 5380 	and.w	r3, r3, #268435456	@ 0x10000000
 8002174:	60bb      	str	r3, [r7, #8]
 8002176:	68bb      	ldr	r3, [r7, #8]
	__HAL_PWR_VOLTAGESCALING_CONFIG(PWR_REGULATOR_VOLTAGE_SCALE2);
 8002178:	2300      	movs	r3, #0
 800217a:	607b      	str	r3, [r7, #4]
 800217c:	4b1d      	ldr	r3, [pc, #116]	@ (80021f4 <SystemClock_Config+0xbc>)
 800217e:	681b      	ldr	r3, [r3, #0]
 8002180:	f423 4340 	bic.w	r3, r3, #49152	@ 0xc000
 8002184:	4a1b      	ldr	r2, [pc, #108]	@ (80021f4 <SystemClock_Config+0xbc>)
 8002186:	f443 4300 	orr.w	r3, r3, #32768	@ 0x8000
 800218a:	6013      	str	r3, [r2, #0]
 800218c:	4b19      	ldr	r3, [pc, #100]	@ (80021f4 <SystemClock_Config+0xbc>)
 800218e:	681b      	ldr	r3, [r3, #0]
 8002190:	f403 4340 	and.w	r3, r3, #49152	@ 0xc000
 8002194:	607b      	str	r3, [r7, #4]
 8002196:	687b      	ldr	r3, [r7, #4]
	RCC_OscInitStruct.OscillatorType = RCC_OSCILLATORTYPE_HSI;
 8002198:	2302      	movs	r3, #2
 800219a:	623b      	str	r3, [r7, #32]
	RCC_OscInitStruct.HSIState = RCC_HSI_ON;
 800219c:	2301      	movs	r3, #1
 800219e:	62fb      	str	r3, [r7, #44]	@ 0x2c
	RCC_OscInitStruct.HSICalibrationValue = RCC_HSICALIBRATION_DEFAULT;
 80021a0:	2310      	movs	r3, #16
 80021a2:	633b      	str	r3, [r7, #48]	@ 0x30
	RCC_OscInitStruct.PLL.PLLState = RCC_PLL_ON;
 80021a4:	2302      	movs	r3, #2
 80021a6:	63bb      	str	r3, [r7, #56]	@ 0x38
	RCC_OscInitStruct.PLL.PLLSource = RCC_PLLSOURCE_HSI;
 80021a8:	2300      	movs	r3, #0
 80021aa:	63fb      	str	r3, [r7, #60]	@ 0x3c
	RCC_OscInitStruct.PLL.PLLM = 8;
 80021ac:	2308      	movs	r3, #8
 80021ae:	643b      	str	r3, [r7, #64]	@ 0x40
	RCC_OscInitStruct.PLL.PLLN = 84;
 80021b0:	2354      	movs	r3, #84	@ 0x54
 80021b2:	647b      	str	r3, [r7, #68]	@ 0x44
	RCC_OscInitStruct.PLL.PLLP = RCC_PLLP_DIV2;
 80021b4:	2302      	movs	r3, #2
 80021b6:	64bb      	str	r3, [r7, #72]	@ 0x48
	RCC_OscInitStruct.PLL.PLLQ = 4;
 80021b8:	2304      	movs	r3, #4
 80021ba:	64fb      	str	r3, [r7, #76]	@ 0x4c
	HAL_RCC_OscConfig(&RCC_OscInitStruct);
 80021bc:	f107 0320 	add.w	r3, r7, #32
 80021c0:	4618      	mov	r0, r3
 80021c2:	f001 fee9 	bl	8003f98 <HAL_RCC_OscConfig>
	RCC_ClkInitStruct.ClockType = RCC_CLOCKTYPE_HCLK | RCC_CLOCKTYPE_SYSCLK
 80021c6:	230f      	movs	r3, #15
 80021c8:	60fb      	str	r3, [r7, #12]
			| RCC_CLOCKTYPE_PCLK1 | RCC_CLOCKTYPE_PCLK2;
	RCC_ClkInitStruct.SYSCLKSource = RCC_SYSCLKSOURCE_PLLCLK;
 80021ca:	2302      	movs	r3, #2
 80021cc:	613b      	str	r3, [r7, #16]
	RCC_ClkInitStruct.AHBCLKDivider = RCC_SYSCLK_DIV1;
 80021ce:	2300      	movs	r3, #0
 80021d0:	617b      	str	r3, [r7, #20]
	RCC_ClkInitStruct.APB1CLKDivider = RCC_HCLK_DIV2;
 80021d2:	f44f 5380 	mov.w	r3, #4096	@ 0x1000
 80021d6:	61bb      	str	r3, [r7, #24]
	RCC_ClkInitStruct.APB2CLKDivider = RCC_HCLK_DIV1;
 80021d8:	2300      	movs	r3, #0
 80021da:	61fb      	str	r3, [r7, #28]
	HAL_RCC_ClockConfig(&RCC_ClkInitStruct, FLASH_LATENCY_2);
 80021dc:	f107 030c 	add.w	r3, r7, #12
 80021e0:	2102      	movs	r1, #2
 80021e2:	4618      	mov	r0, r3
 80021e4:	f002 f950 	bl	8004488 <HAL_RCC_ClockConfig>
}
 80021e8:	bf00      	nop
 80021ea:	3750      	adds	r7, #80	@ 0x50
 80021ec:	46bd      	mov	sp, r7
 80021ee:	bd80      	pop	{r7, pc}
 80021f0:	40023800 	.word	0x40023800
 80021f4:	40007000 	.word	0x40007000

080021f8 <MX_I2C1_Init>:
static void MX_I2C1_Init(void) {
 80021f8:	b580      	push	{r7, lr}
 80021fa:	af00      	add	r7, sp, #0
	hi2c1.Instance = I2C1;
 80021fc:	4b10      	ldr	r3, [pc, #64]	@ (8002240 <MX_I2C1_Init+0x48>)
 80021fe:	4a11      	ldr	r2, [pc, #68]	@ (8002244 <MX_I2C1_Init+0x4c>)
 8002200:	601a      	str	r2, [r3, #0]
	hi2c1.Init.ClockSpeed = 100000;
 8002202:	4b0f      	ldr	r3, [pc, #60]	@ (8002240 <MX_I2C1_Init+0x48>)
 8002204:	4a10      	ldr	r2, [pc, #64]	@ (8002248 <MX_I2C1_Init+0x50>)
 8002206:	605a      	str	r2, [r3, #4]
	hi2c1.Init.DutyCycle = I2C_DUTYCYCLE_2;
 8002208:	4b0d      	ldr	r3, [pc, #52]	@ (8002240 <MX_I2C1_Init+0x48>)
 800220a:	2200      	movs	r2, #0
 800220c:	609a      	str	r2, [r3, #8]
	hi2c1.Init.OwnAddress1 = 0;
 800220e:	4b0c      	ldr	r3, [pc, #48]	@ (8002240 <MX_I2C1_Init+0x48>)
 8002210:	2200      	movs	r2, #0
 8002212:	60da      	str	r2, [r3, #12]
	hi2c1.Init.AddressingMode = I2C_ADDRESSINGMODE_7BIT;
 8002214:	4b0a      	ldr	r3, [pc, #40]	@ (8002240 <MX_I2C1_Init+0x48>)
 8002216:	f44f 4280 	mov.w	r2, #16384	@ 0x4000
 800221a:	611a      	str	r2, [r3, #16]
	hi2c1.Init.DualAddressMode = I2C_DUALADDRESS_DISABLE;
 800221c:	4b08      	ldr	r3, [pc, #32]	@ (8002240 <MX_I2C1_Init+0x48>)
 800221e:	2200      	movs	r2, #0
 8002220:	615a      	str	r2, [r3, #20]
	hi2c1.Init.OwnAddress2 = 0;
 8002222:	4b07      	ldr	r3, [pc, #28]	@ (8002240 <MX_I2C1_Init+0x48>)
 8002224:	2200      	movs	r2, #0
 8002226:	619a      	str	r2, [r3, #24]
	hi2c1.Init.GeneralCallMode = I2C_GENERALCALL_DISABLE;
 8002228:	4b05      	ldr	r3, [pc, #20]	@ (8002240 <MX_I2C1_Init+0x48>)
 800222a:	2200      	movs	r2, #0
 800222c:	61da      	str	r2, [r3, #28]
	hi2c1.Init.NoStretchMode = I2C_NOSTRETCH_DISABLE;
 800222e:	4b04      	ldr	r3, [pc, #16]	@ (8002240 <MX_I2C1_Init+0x48>)
 8002230:	2200      	movs	r2, #0
 8002232:	621a      	str	r2, [r3, #32]
	HAL_I2C_Init(&hi2c1);
 8002234:	4802      	ldr	r0, [pc, #8]	@ (8002240 <MX_I2C1_Init+0x48>)
 8002236:	f000 fe8b 	bl	8002f50 <HAL_I2C_Init>
}
 800223a:	bf00      	nop
 800223c:	bd80      	pop	{r7, pc}
 800223e:	bf00      	nop
 8002240:	200001f4 	.word	0x200001f4
 8002244:	40005400 	.word	0x40005400
 8002248:	000186a0 	.word	0x000186a0

0800224c <MX_USART1_UART_Init>:
static void MX_USART1_UART_Init(void) {
 800224c:	b580      	push	{r7, lr}
 800224e:	af00      	add	r7, sp, #0
	huart1.Instance = USART1;
 8002250:	4b0e      	ldr	r3, [pc, #56]	@ (800228c <MX_USART1_UART_Init+0x40>)
 8002252:	4a0f      	ldr	r2, [pc, #60]	@ (8002290 <MX_USART1_UART_Init+0x44>)
 8002254:	601a      	str	r2, [r3, #0]
	huart1.Init.BaudRate = 9600;
 8002256:	4b0d      	ldr	r3, [pc, #52]	@ (800228c <MX_USART1_UART_Init+0x40>)
 8002258:	f44f 5216 	mov.w	r2, #9600	@ 0x2580
 800225c:	605a      	str	r2, [r3, #4]
	huart1.Init.WordLength = UART_WORDLENGTH_8B;
 800225e:	4b0b      	ldr	r3, [pc, #44]	@ (800228c <MX_USART1_UART_Init+0x40>)
 8002260:	2200      	movs	r2, #0
 8002262:	609a      	str	r2, [r3, #8]
	huart1.Init.StopBits = UART_STOPBITS_1;
 8002264:	4b09      	ldr	r3, [pc, #36]	@ (800228c <MX_USART1_UART_Init+0x40>)
 8002266:	2200      	movs	r2, #0
 8002268:	60da      	str	r2, [r3, #12]
	huart1.Init.Parity = UART_PARITY_NONE;
 800226a:	4b08      	ldr	r3, [pc, #32]	@ (800228c <MX_USART1_UART_Init+0x40>)
 800226c:	2200      	movs	r2, #0
 800226e:	611a      	str	r2, [r3, #16]
	huart1.Init.Mode = UART_MODE_TX_RX;
 8002270:	4b06      	ldr	r3, [pc, #24]	@ (800228c <MX_USART1_UART_Init+0x40>)
 8002272:	220c      	movs	r2, #12
 8002274:	615a      	str	r2, [r3, #20]
	huart1.Init.HwFlowCtl = UART_HWCONTROL_NONE;
 8002276:	4b05      	ldr	r3, [pc, #20]	@ (800228c <MX_USART1_UART_Init+0x40>)
 8002278:	2200      	movs	r2, #0
 800227a:	619a      	str	r2, [r3, #24]
	huart1.Init.OverSampling = UART_OVERSAMPLING_16;
 800227c:	4b03      	ldr	r3, [pc, #12]	@ (800228c <MX_USART1_UART_Init+0x40>)
 800227e:	2200      	movs	r2, #0
 8002280:	61da      	str	r2, [r3, #28]
	HAL_UART_Init(&huart1);
 8002282:	4802      	ldr	r0, [pc, #8]	@ (800228c <MX_USART1_UART_Init+0x40>)
 8002284:	f002 fae0 	bl	8004848 <HAL_UART_Init>
}
 8002288:	bf00      	nop
 800228a:	bd80      	pop	{r7, pc}
 800228c:	20000248 	.word	0x20000248
 8002290:	40011000 	.word	0x40011000

08002294 <MX_GPIO_Init>:
static void MX_GPIO_Init(void) {
 8002294:	b580      	push	{r7, lr}
 8002296:	b088      	sub	sp, #32
 8002298:	af00      	add	r7, sp, #0
	GPIO_InitTypeDef GPIO_InitStruct = { 0 };
 800229a:	f107 030c 	add.w	r3, r7, #12
 800229e:	2200      	movs	r2, #0
 80022a0:	601a      	str	r2, [r3, #0]
 80022a2:	605a      	str	r2, [r3, #4]
 80022a4:	609a      	str	r2, [r3, #8]
 80022a6:	60da      	str	r2, [r3, #12]
 80022a8:	611a      	str	r2, [r3, #16]
	__HAL_RCC_GPIOC_CLK_ENABLE();
 80022aa:	2300      	movs	r3, #0
 80022ac:	60bb      	str	r3, [r7, #8]
 80022ae:	4b20      	ldr	r3, [pc, #128]	@ (8002330 <MX_GPIO_Init+0x9c>)
 80022b0:	6b1b      	ldr	r3, [r3, #48]	@ 0x30
 80022b2:	4a1f      	ldr	r2, [pc, #124]	@ (8002330 <MX_GPIO_Init+0x9c>)
 80022b4:	f043 0304 	orr.w	r3, r3, #4
 80022b8:	6313      	str	r3, [r2, #48]	@ 0x30
 80022ba:	4b1d      	ldr	r3, [pc, #116]	@ (8002330 <MX_GPIO_Init+0x9c>)
 80022bc:	6b1b      	ldr	r3, [r3, #48]	@ 0x30
 80022be:	f003 0304 	and.w	r3, r3, #4
 80022c2:	60bb      	str	r3, [r7, #8]
 80022c4:	68bb      	ldr	r3, [r7, #8]
	__HAL_RCC_GPIOA_CLK_ENABLE();
 80022c6:	2300      	movs	r3, #0
 80022c8:	607b      	str	r3, [r7, #4]
 80022ca:	4b19      	ldr	r3, [pc, #100]	@ (8002330 <MX_GPIO_Init+0x9c>)
 80022cc:	6b1b      	ldr	r3, [r3, #48]	@ 0x30
 80022ce:	4a18      	ldr	r2, [pc, #96]	@ (8002330 <MX_GPIO_Init+0x9c>)
 80022d0:	f043 0301 	orr.w	r3, r3, #1
 80022d4:	6313      	str	r3, [r2, #48]	@ 0x30
 80022d6:	4b16      	ldr	r3, [pc, #88]	@ (8002330 <MX_GPIO_Init+0x9c>)
 80022d8:	6b1b      	ldr	r3, [r3, #48]	@ 0x30
 80022da:	f003 0301 	and.w	r3, r3, #1
 80022de:	607b      	str	r3, [r7, #4]
 80022e0:	687b      	ldr	r3, [r7, #4]
	__HAL_RCC_GPIOB_CLK_ENABLE();
 80022e2:	2300      	movs	r3, #0
 80022e4:	603b      	str	r3, [r7, #0]
 80022e6:	4b12      	ldr	r3, [pc, #72]	@ (8002330 <MX_GPIO_Init+0x9c>)
 80022e8:	6b1b      	ldr	r3, [r3, #48]	@ 0x30
 80022ea:	4a11      	ldr	r2, [pc, #68]	@ (8002330 <MX_GPIO_Init+0x9c>)
 80022ec:	f043 0302 	orr.w	r3, r3, #2
 80022f0:	6313      	str	r3, [r2, #48]	@ 0x30
 80022f2:	4b0f      	ldr	r3, [pc, #60]	@ (8002330 <MX_GPIO_Init+0x9c>)
 80022f4:	6b1b      	ldr	r3, [r3, #48]	@ 0x30
 80022f6:	f003 0302 	and.w	r3, r3, #2
 80022fa:	603b      	str	r3, [r7, #0]
 80022fc:	683b      	ldr	r3, [r7, #0]
	HAL_GPIO_WritePin(GPIOC, GPIO_PIN_13, GPIO_PIN_RESET);
 80022fe:	2200      	movs	r2, #0
 8002300:	f44f 5100 	mov.w	r1, #8192	@ 0x2000
 8002304:	480b      	ldr	r0, [pc, #44]	@ (8002334 <MX_GPIO_Init+0xa0>)
 8002306:	f000 fdef 	bl	8002ee8 <HAL_GPIO_WritePin>
	GPIO_InitStruct.Pin = GPIO_PIN_13;
 800230a:	f44f 5300 	mov.w	r3, #8192	@ 0x2000
 800230e:	60fb      	str	r3, [r7, #12]
	GPIO_InitStruct.Mode = GPIO_MODE_OUTPUT_PP;
 8002310:	2301      	movs	r3, #1
 8002312:	613b      	str	r3, [r7, #16]
	GPIO_InitStruct.Pull = GPIO_NOPULL;
 8002314:	2300      	movs	r3, #0
 8002316:	617b      	str	r3, [r7, #20]
	GPIO_InitStruct.Speed = GPIO_SPEED_FREQ_LOW;
 8002318:	2300      	movs	r3, #0
 800231a:	61bb      	str	r3, [r7, #24]
	HAL_GPIO_Init(GPIOC, &GPIO_InitStruct);
 800231c:	f107 030c 	add.w	r3, r7, #12
 8002320:	4619      	mov	r1, r3
 8002322:	4804      	ldr	r0, [pc, #16]	@ (8002334 <MX_GPIO_Init+0xa0>)
 8002324:	f000 fc5c 	bl	8002be0 <HAL_GPIO_Init>
}
 8002328:	bf00      	nop
 800232a:	3720      	adds	r7, #32
 800232c:	46bd      	mov	sp, r7
 800232e:	bd80      	pop	{r7, pc}
 8002330:	40023800 	.word	0x40023800
 8002334:	40020800 	.word	0x40020800

08002338 <Error_Handler>:
void Error_Handler(void) {
 8002338:	b480      	push	{r7}
 800233a:	af00      	add	r7, sp, #0
  \details Disables IRQ interrupts by setting special-purpose register PRIMASK.
           Can only be executed in Privileged modes.
 */
__STATIC_FORCEINLINE void __disable_irq(void)
{
  __ASM volatile ("cpsid i" : : : "memory");
 800233c:	b672      	cpsid	i
}
 800233e:	bf00      	nop
	__disable_irq();
	while (1) {
 8002340:	bf00      	nop
 8002342:	e7fd      	b.n	8002340 <Error_Handler+0x8>

08002344 <HAL_MspInit>:
/* USER CODE END 0 */
/**
  * Initializes the Global MSP.
  */
void HAL_MspInit(void)
{
 8002344:	b480      	push	{r7}
 8002346:	b083      	sub	sp, #12
 8002348:	af00      	add	r7, sp, #0

  /* USER CODE BEGIN MspInit 0 */

  /* USER CODE END MspInit 0 */

  __HAL_RCC_SYSCFG_CLK_ENABLE();
 800234a:	2300      	movs	r3, #0
 800234c:	607b      	str	r3, [r7, #4]
 800234e:	4b10      	ldr	r3, [pc, #64]	@ (8002390 <HAL_MspInit+0x4c>)
 8002350:	6c5b      	ldr	r3, [r3, #68]	@ 0x44
 8002352:	4a0f      	ldr	r2, [pc, #60]	@ (8002390 <HAL_MspInit+0x4c>)
 8002354:	f443 4380 	orr.w	r3, r3, #16384	@ 0x4000
 8002358:	6453      	str	r3, [r2, #68]	@ 0x44
 800235a:	4b0d      	ldr	r3, [pc, #52]	@ (8002390 <HAL_MspInit+0x4c>)
 800235c:	6c5b      	ldr	r3, [r3, #68]	@ 0x44
 800235e:	f403 4380 	and.w	r3, r3, #16384	@ 0x4000
 8002362:	607b      	str	r3, [r7, #4]
 8002364:	687b      	ldr	r3, [r7, #4]
  __HAL_RCC_PWR_CLK_ENABLE();
 8002366:	2300      	movs	r3, #0
 8002368:	603b      	str	r3, [r7, #0]
 800236a:	4b09      	ldr	r3, [pc, #36]	@ (8002390 <HAL_MspInit+0x4c>)
 800236c:	6c1b      	ldr	r3, [r3, #64]	@ 0x40
 800236e:	4a08      	ldr	r2, [pc, #32]	@ (8002390 <HAL_MspInit+0x4c>)
 8002370:	f043 5380 	orr.w	r3, r3, #268435456	@ 0x10000000
 8002374:	6413      	str	r3, [r2, #64]	@ 0x40
 8002376:	4b06      	ldr	r3, [pc, #24]	@ (8002390 <HAL_MspInit+0x4c>)
 8002378:	6c1b      	ldr	r3, [r3, #64]	@ 0x40
 800237a:	f003 5380 	and.w	r3, r3, #268435456	@ 0x10000000
 800237e:	603b      	str	r3, [r7, #0]
 8002380:	683b      	ldr	r3, [r7, #0]
  /* System interrupt init*/

  /* USER CODE BEGIN MspInit 1 */

  /* USER CODE END MspInit 1 */
}
 8002382:	bf00      	nop
 8002384:	370c      	adds	r7, #12
 8002386:	46bd      	mov	sp, r7
 8002388:	f85d 7b04 	ldr.w	r7, [sp], #4
 800238c:	4770      	bx	lr
 800238e:	bf00      	nop
 8002390:	40023800 	.word	0x40023800

08002394 <HAL_I2C_MspInit>:
  * This function configures the hardware resources used in this example
  * @param hi2c: I2C handle pointer
  * @retval None
  */
void HAL_I2C_MspInit(I2C_HandleTypeDef* hi2c)
{
 8002394:	b580      	push	{r7, lr}
 8002396:	b08a      	sub	sp, #40	@ 0x28
 8002398:	af00      	add	r7, sp, #0
 800239a:	6078      	str	r0, [r7, #4]
  GPIO_InitTypeDef GPIO_InitStruct = {0};
 800239c:	f107 0314 	add.w	r3, r7, #20
 80023a0:	2200      	movs	r2, #0
 80023a2:	601a      	str	r2, [r3, #0]
 80023a4:	605a      	str	r2, [r3, #4]
 80023a6:	609a      	str	r2, [r3, #8]
 80023a8:	60da      	str	r2, [r3, #12]
 80023aa:	611a      	str	r2, [r3, #16]
  if(hi2c->Instance==I2C1)
 80023ac:	687b      	ldr	r3, [r7, #4]
 80023ae:	681b      	ldr	r3, [r3, #0]
 80023b0:	4a19      	ldr	r2, [pc, #100]	@ (8002418 <HAL_I2C_MspInit+0x84>)
 80023b2:	4293      	cmp	r3, r2
 80023b4:	d12b      	bne.n	800240e <HAL_I2C_MspInit+0x7a>
  {
    /* USER CODE BEGIN I2C1_MspInit 0 */

    /* USER CODE END I2C1_MspInit 0 */

    __HAL_RCC_GPIOB_CLK_ENABLE();
 80023b6:	2300      	movs	r3, #0
 80023b8:	613b      	str	r3, [r7, #16]
 80023ba:	4b18      	ldr	r3, [pc, #96]	@ (800241c <HAL_I2C_MspInit+0x88>)
 80023bc:	6b1b      	ldr	r3, [r3, #48]	@ 0x30
 80023be:	4a17      	ldr	r2, [pc, #92]	@ (800241c <HAL_I2C_MspInit+0x88>)
 80023c0:	f043 0302 	orr.w	r3, r3, #2
 80023c4:	6313      	str	r3, [r2, #48]	@ 0x30
 80023c6:	4b15      	ldr	r3, [pc, #84]	@ (800241c <HAL_I2C_MspInit+0x88>)
 80023c8:	6b1b      	ldr	r3, [r3, #48]	@ 0x30
 80023ca:	f003 0302 	and.w	r3, r3, #2
 80023ce:	613b      	str	r3, [r7, #16]
 80023d0:	693b      	ldr	r3, [r7, #16]
    /**I2C1 GPIO Configuration
    PB6     ------> I2C1_SCL
    PB7     ------> I2C1_SDA
    */
    GPIO_InitStruct.Pin = GPIO_PIN_6|GPIO_PIN_7;
 80023d2:	23c0      	movs	r3, #192	@ 0xc0
 80023d4:	617b      	str	r3, [r7, #20]
    GPIO_InitStruct.Mode = GPIO_MODE_AF_OD;
 80023d6:	2312      	movs	r3, #18
 80023d8:	61bb      	str	r3, [r7, #24]
    GPIO_InitStruct.Pull = GPIO_NOPULL;
 80023da:	2300      	movs	r3, #0
 80023dc:	61fb      	str	r3, [r7, #28]
    GPIO_InitStruct.Speed = GPIO_SPEED_FREQ_VERY_HIGH;
 80023de:	2303      	movs	r3, #3
 80023e0:	623b      	str	r3, [r7, #32]
    GPIO_InitStruct.Alternate = GPIO_AF4_I2C1;
 80023e2:	2304      	movs	r3, #4
 80023e4:	627b      	str	r3, [r7, #36]	@ 0x24
    HAL_GPIO_Init(GPIOB, &GPIO_InitStruct);
 80023e6:	f107 0314 	add.w	r3, r7, #20
 80023ea:	4619      	mov	r1, r3
 80023ec:	480c      	ldr	r0, [pc, #48]	@ (8002420 <HAL_I2C_MspInit+0x8c>)
 80023ee:	f000 fbf7 	bl	8002be0 <HAL_GPIO_Init>

    /* Peripheral clock enable */
    __HAL_RCC_I2C1_CLK_ENABLE();
 80023f2:	2300      	movs	r3, #0
 80023f4:	60fb      	str	r3, [r7, #12]
 80023f6:	4b09      	ldr	r3, [pc, #36]	@ (800241c <HAL_I2C_MspInit+0x88>)
 80023f8:	6c1b      	ldr	r3, [r3, #64]	@ 0x40
 80023fa:	4a08      	ldr	r2, [pc, #32]	@ (800241c <HAL_I2C_MspInit+0x88>)
 80023fc:	f443 1300 	orr.w	r3, r3, #2097152	@ 0x200000
 8002400:	6413      	str	r3, [r2, #64]	@ 0x40
 8002402:	4b06      	ldr	r3, [pc, #24]	@ (800241c <HAL_I2C_MspInit+0x88>)
 8002404:	6c1b      	ldr	r3, [r3, #64]	@ 0x40
 8002406:	f403 1300 	and.w	r3, r3, #2097152	@ 0x200000
 800240a:	60fb      	str	r3, [r7, #12]
 800240c:	68fb      	ldr	r3, [r7, #12]

    /* USER CODE END I2C1_MspInit 1 */

  }

}
 800240e:	bf00      	nop
 8002410:	3728      	adds	r7, #40	@ 0x28
 8002412:	46bd      	mov	sp, r7
 8002414:	bd80      	pop	{r7, pc}
 8002416:	bf00      	nop
 8002418:	40005400 	.word	0x40005400
 800241c:	40023800 	.word	0x40023800
 8002420:	40020400 	.word	0x40020400

08002424 <HAL_UART_MspInit>:
  * This function configures the hardware resources used in this example
  * @param huart: UART handle pointer
  * @retval None
  */
void HAL_UART_MspInit(UART_HandleTypeDef* huart)
{
 8002424:	b580      	push	{r7, lr}
 8002426:	b08c      	sub	sp, #48	@ 0x30
 8002428:	af00      	add	r7, sp, #0
 800242a:	6078      	str	r0, [r7, #4]
  GPIO_InitTypeDef GPIO_InitStruct = {0};
 800242c:	f107 031c 	add.w	r3, r7, #28
 8002430:	2200      	movs	r2, #0
 8002432:	601a      	str	r2, [r3, #0]
 8002434:	605a      	str	r2, [r3, #4]
 8002436:	609a      	str	r2, [r3, #8]
 8002438:	60da      	str	r2, [r3, #12]
 800243a:	611a      	str	r2, [r3, #16]
  if(huart->Instance==USART1)
 800243c:	687b      	ldr	r3, [r7, #4]
 800243e:	681b      	ldr	r3, [r3, #0]
 8002440:	4a36      	ldr	r2, [pc, #216]	@ (800251c <HAL_UART_MspInit+0xf8>)
 8002442:	4293      	cmp	r3, r2
 8002444:	d135      	bne.n	80024b2 <HAL_UART_MspInit+0x8e>
  {
    /* USER CODE BEGIN USART1_MspInit 0 */

    /* USER CODE END USART1_MspInit 0 */
    /* Peripheral clock enable */
    __HAL_RCC_USART1_CLK_ENABLE();
 8002446:	2300      	movs	r3, #0
 8002448:	61bb      	str	r3, [r7, #24]
 800244a:	4b35      	ldr	r3, [pc, #212]	@ (8002520 <HAL_UART_MspInit+0xfc>)
 800244c:	6c5b      	ldr	r3, [r3, #68]	@ 0x44
 800244e:	4a34      	ldr	r2, [pc, #208]	@ (8002520 <HAL_UART_MspInit+0xfc>)
 8002450:	f043 0310 	orr.w	r3, r3, #16
 8002454:	6453      	str	r3, [r2, #68]	@ 0x44
 8002456:	4b32      	ldr	r3, [pc, #200]	@ (8002520 <HAL_UART_MspInit+0xfc>)
 8002458:	6c5b      	ldr	r3, [r3, #68]	@ 0x44
 800245a:	f003 0310 	and.w	r3, r3, #16
 800245e:	61bb      	str	r3, [r7, #24]
 8002460:	69bb      	ldr	r3, [r7, #24]

    __HAL_RCC_GPIOA_CLK_ENABLE();
 8002462:	2300      	movs	r3, #0
 8002464:	617b      	str	r3, [r7, #20]
 8002466:	4b2e      	ldr	r3, [pc, #184]	@ (8002520 <HAL_UART_MspInit+0xfc>)
 8002468:	6b1b      	ldr	r3, [r3, #48]	@ 0x30
 800246a:	4a2d      	ldr	r2, [pc, #180]	@ (8002520 <HAL_UART_MspInit+0xfc>)
 800246c:	f043 0301 	orr.w	r3, r3, #1
 8002470:	6313      	str	r3, [r2, #48]	@ 0x30
 8002472:	4b2b      	ldr	r3, [pc, #172]	@ (8002520 <HAL_UART_MspInit+0xfc>)
 8002474:	6b1b      	ldr	r3, [r3, #48]	@ 0x30
 8002476:	f003 0301 	and.w	r3, r3, #1
 800247a:	617b      	str	r3, [r7, #20]
 800247c:	697b      	ldr	r3, [r7, #20]
    /**USART1 GPIO Configuration
    PA9     ------> USART1_TX
    PA10     ------> USART1_RX
    */
    GPIO_InitStruct.Pin = GPIO_PIN_9|GPIO_PIN_10;
 800247e:	f44f 63c0 	mov.w	r3, #1536	@ 0x600
 8002482:	61fb      	str	r3, [r7, #28]
    GPIO_InitStruct.Mode = GPIO_MODE_AF_PP;
 8002484:	2302      	movs	r3, #2
 8002486:	623b      	str	r3, [r7, #32]
    GPIO_InitStruct.Pull = GPIO_NOPULL;
 8002488:	2300      	movs	r3, #0
 800248a:	627b      	str	r3, [r7, #36]	@ 0x24
    GPIO_InitStruct.Speed = GPIO_SPEED_FREQ_VERY_HIGH;
 800248c:	2303      	movs	r3, #3
 800248e:	62bb      	str	r3, [r7, #40]	@ 0x28
    GPIO_InitStruct.Alternate = GPIO_AF7_USART1;
 8002490:	2307      	movs	r3, #7
 8002492:	62fb      	str	r3, [r7, #44]	@ 0x2c
    HAL_GPIO_Init(GPIOA, &GPIO_InitStruct);
 8002494:	f107 031c 	add.w	r3, r7, #28
 8002498:	4619      	mov	r1, r3
 800249a:	4822      	ldr	r0, [pc, #136]	@ (8002524 <HAL_UART_MspInit+0x100>)
 800249c:	f000 fba0 	bl	8002be0 <HAL_GPIO_Init>

    /* USART1 interrupt Init */
    HAL_NVIC_SetPriority(USART1_IRQn, 0, 0);
 80024a0:	2200      	movs	r2, #0
 80024a2:	2100      	movs	r1, #0
 80024a4:	2025      	movs	r0, #37	@ 0x25
 80024a6:	f000 fad2 	bl	8002a4e <HAL_NVIC_SetPriority>
    HAL_NVIC_EnableIRQ(USART1_IRQn);
 80024aa:	2025      	movs	r0, #37	@ 0x25
 80024ac:	f000 faeb 	bl	8002a86 <HAL_NVIC_EnableIRQ>
    /* USER CODE BEGIN USART2_MspInit 1 */

    /* USER CODE END USART2_MspInit 1 */
  }

}
 80024b0:	e030      	b.n	8002514 <HAL_UART_MspInit+0xf0>
  else if(huart->Instance==USART2)
 80024b2:	687b      	ldr	r3, [r7, #4]
 80024b4:	681b      	ldr	r3, [r3, #0]
 80024b6:	4a1c      	ldr	r2, [pc, #112]	@ (8002528 <HAL_UART_MspInit+0x104>)
 80024b8:	4293      	cmp	r3, r2
 80024ba:	d12b      	bne.n	8002514 <HAL_UART_MspInit+0xf0>
    __HAL_RCC_USART2_CLK_ENABLE();
 80024bc:	2300      	movs	r3, #0
 80024be:	613b      	str	r3, [r7, #16]
 80024c0:	4b17      	ldr	r3, [pc, #92]	@ (8002520 <HAL_UART_MspInit+0xfc>)
 80024c2:	6c1b      	ldr	r3, [r3, #64]	@ 0x40
 80024c4:	4a16      	ldr	r2, [pc, #88]	@ (8002520 <HAL_UART_MspInit+0xfc>)
 80024c6:	f443 3300 	orr.w	r3, r3, #131072	@ 0x20000
 80024ca:	6413      	str	r3, [r2, #64]	@ 0x40
 80024cc:	4b14      	ldr	r3, [pc, #80]	@ (8002520 <HAL_UART_MspInit+0xfc>)
 80024ce:	6c1b      	ldr	r3, [r3, #64]	@ 0x40
 80024d0:	f403 3300 	and.w	r3, r3, #131072	@ 0x20000
 80024d4:	613b      	str	r3, [r7, #16]
 80024d6:	693b      	ldr	r3, [r7, #16]
    __HAL_RCC_GPIOA_CLK_ENABLE();
 80024d8:	2300      	movs	r3, #0
 80024da:	60fb      	str	r3, [r7, #12]
 80024dc:	4b10      	ldr	r3, [pc, #64]	@ (8002520 <HAL_UART_MspInit+0xfc>)
 80024de:	6b1b      	ldr	r3, [r3, #48]	@ 0x30
 80024e0:	4a0f      	ldr	r2, [pc, #60]	@ (8002520 <HAL_UART_MspInit+0xfc>)
 80024e2:	f043 0301 	orr.w	r3, r3, #1
 80024e6:	6313      	str	r3, [r2, #48]	@ 0x30
 80024e8:	4b0d      	ldr	r3, [pc, #52]	@ (8002520 <HAL_UART_MspInit+0xfc>)
 80024ea:	6b1b      	ldr	r3, [r3, #48]	@ 0x30
 80024ec:	f003 0301 	and.w	r3, r3, #1
 80024f0:	60fb      	str	r3, [r7, #12]
 80024f2:	68fb      	ldr	r3, [r7, #12]
    GPIO_InitStruct.Pin = GPIO_PIN_2|GPIO_PIN_3;
 80024f4:	230c      	movs	r3, #12
 80024f6:	61fb      	str	r3, [r7, #28]
    GPIO_InitStruct.Mode = GPIO_MODE_AF_PP;
 80024f8:	2302      	movs	r3, #2
 80024fa:	623b      	str	r3, [r7, #32]
    GPIO_InitStruct.Pull = GPIO_NOPULL;
 80024fc:	2300      	movs	r3, #0
 80024fe:	627b      	str	r3, [r7, #36]	@ 0x24
    GPIO_InitStruct.Speed = GPIO_SPEED_FREQ_VERY_HIGH;
 8002500:	2303      	movs	r3, #3
 8002502:	62bb      	str	r3, [r7, #40]	@ 0x28
    GPIO_InitStruct.Alternate = GPIO_AF7_USART2;
 8002504:	2307      	movs	r3, #7
 8002506:	62fb      	str	r3, [r7, #44]	@ 0x2c
    HAL_GPIO_Init(GPIOA, &GPIO_InitStruct);
 8002508:	f107 031c 	add.w	r3, r7, #28
 800250c:	4619      	mov	r1, r3
 800250e:	4805      	ldr	r0, [pc, #20]	@ (8002524 <HAL_UART_MspInit+0x100>)
 8002510:	f000 fb66 	bl	8002be0 <HAL_GPIO_Init>
}
 8002514:	bf00      	nop
 8002516:	3730      	adds	r7, #48	@ 0x30
 8002518:	46bd      	mov	sp, r7
 800251a:	bd80      	pop	{r7, pc}
 800251c:	40011000 	.word	0x40011000
 8002520:	40023800 	.word	0x40023800
 8002524:	40020000 	.word	0x40020000
 8002528:	40004400 	.word	0x40004400

0800252c <NMI_Handler>:
/******************************************************************************/
/**
  * @brief This function handles Non maskable interrupt.
  */
void NMI_Handler(void)
{
 800252c:	b480      	push	{r7}
 800252e:	af00      	add	r7, sp, #0
  /* USER CODE BEGIN NonMaskableInt_IRQn 0 */

  /* USER CODE END NonMaskableInt_IRQn 0 */
  /* USER CODE BEGIN NonMaskableInt_IRQn 1 */
   while (1)
 8002530:	bf00      	nop
 8002532:	e7fd      	b.n	8002530 <NMI_Handler+0x4>

08002534 <HardFault_Handler>:

/**
  * @brief This function handles Hard fault interrupt.
  */
void HardFault_Handler(void)
{
 8002534:	b480      	push	{r7}
 8002536:	af00      	add	r7, sp, #0
  /* USER CODE BEGIN HardFault_IRQn 0 */

  /* USER CODE END HardFault_IRQn 0 */
  while (1)
 8002538:	bf00      	nop
 800253a:	e7fd      	b.n	8002538 <HardFault_Handler+0x4>

0800253c <MemManage_Handler>:

/**
  * @brief This function handles Memory management fault.
  */
void MemManage_Handler(void)
{
 800253c:	b480      	push	{r7}
 800253e:	af00      	add	r7, sp, #0
  /* USER CODE BEGIN MemoryManagement_IRQn 0 */

  /* USER CODE END MemoryManagement_IRQn 0 */
  while (1)
 8002540:	bf00      	nop
 8002542:	e7fd      	b.n	8002540 <MemManage_Handler+0x4>

08002544 <BusFault_Handler>:

/**
  * @brief This function handles Pre-fetch fault, memory access fault.
  */
void BusFault_Handler(void)
{
 8002544:	b480      	push	{r7}
 8002546:	af00      	add	r7, sp, #0
  /* USER CODE BEGIN BusFault_IRQn 0 */

  /* USER CODE END BusFault_IRQn 0 */
  while (1)
 8002548:	bf00      	nop
 800254a:	e7fd      	b.n	8002548 <BusFault_Handler+0x4>

0800254c <UsageFault_Handler>:

/**
  * @brief This function handles Undefined instruction or illegal state.
  */
void UsageFault_Handler(void)
{
 800254c:	b480      	push	{r7}
 800254e:	af00      	add	r7, sp, #0
  /* USER CODE BEGIN UsageFault_IRQn 0 */

  /* USER CODE END UsageFault_IRQn 0 */
  while (1)
 8002550:	bf00      	nop
 8002552:	e7fd      	b.n	8002550 <UsageFault_Handler+0x4>

08002554 <SVC_Handler>:

/**
  * @brief This function handles System service call via SWI instruction.
  */
void SVC_Handler(void)
{
 8002554:	b480      	push	{r7}
 8002556:	af00      	add	r7, sp, #0

  /* USER CODE END SVCall_IRQn 0 */
  /* USER CODE BEGIN SVCall_IRQn 1 */

  /* USER CODE END SVCall_IRQn 1 */
}
 8002558:	bf00      	nop
 800255a:	46bd      	mov	sp, r7
 800255c:	f85d 7b04 	ldr.w	r7, [sp], #4
 8002560:	4770      	bx	lr

08002562 <DebugMon_Handler>:

/**
  * @brief This function handles Debug monitor.
  */
void DebugMon_Handler(void)
{
 8002562:	b480      	push	{r7}
 8002564:	af00      	add	r7, sp, #0

  /* USER CODE END DebugMonitor_IRQn 0 */
  /* USER CODE BEGIN DebugMonitor_IRQn 1 */

  /* USER CODE END DebugMonitor_IRQn 1 */
}
 8002566:	bf00      	nop
 8002568:	46bd      	mov	sp, r7
 800256a:	f85d 7b04 	ldr.w	r7, [sp], #4
 800256e:	4770      	bx	lr

08002570 <PendSV_Handler>:

/**
  * @brief This function handles Pendable request for system service.
  */
void PendSV_Handler(void)
{
 8002570:	b480      	push	{r7}
 8002572:	af00      	add	r7, sp, #0

  /* USER CODE END PendSV_IRQn 0 */
  /* USER CODE BEGIN PendSV_IRQn 1 */

  /* USER CODE END PendSV_IRQn 1 */
}
 8002574:	bf00      	nop
 8002576:	46bd      	mov	sp, r7
 8002578:	f85d 7b04 	ldr.w	r7, [sp], #4
 800257c:	4770      	bx	lr

0800257e <SysTick_Handler>:

/**
  * @brief This function handles System tick timer.
  */
void SysTick_Handler(void)
{
 800257e:	b580      	push	{r7, lr}
 8002580:	af00      	add	r7, sp, #0
  /* USER CODE BEGIN SysTick_IRQn 0 */

  /* USER CODE END SysTick_IRQn 0 */
  HAL_IncTick();
 8002582:	f000 f945 	bl	8002810 <HAL_IncTick>
  /* USER CODE BEGIN SysTick_IRQn 1 */

  /* USER CODE END SysTick_IRQn 1 */
}
 8002586:	bf00      	nop
 8002588:	bd80      	pop	{r7, pc}
	...

0800258c <USART1_IRQHandler>:

/**
  * @brief This function handles USART1 global interrupt.
  */
void USART1_IRQHandler(void)
{
 800258c:	b580      	push	{r7, lr}
 800258e:	af00      	add	r7, sp, #0
  /* USER CODE BEGIN USART1_IRQn 0 */

  /* USER CODE END USART1_IRQn 0 */
  HAL_UART_IRQHandler(&huart1);
 8002590:	4802      	ldr	r0, [pc, #8]	@ (800259c <USART1_IRQHandler+0x10>)
 8002592:	f002 fa59 	bl	8004a48 <HAL_UART_IRQHandler>
  /* USER CODE BEGIN USART1_IRQn 1 */

  /* USER CODE END USART1_IRQn 1 */
}
 8002596:	bf00      	nop
 8002598:	bd80      	pop	{r7, pc}
 800259a:	bf00      	nop
 800259c:	20000248 	.word	0x20000248

080025a0 <_getpid>:
void initialise_monitor_handles()
{
}

int _getpid(void)
{
 80025a0:	b480      	push	{r7}
 80025a2:	af00      	add	r7, sp, #0
  return 1;
 80025a4:	2301      	movs	r3, #1
}
 80025a6:	4618      	mov	r0, r3
 80025a8:	46bd      	mov	sp, r7
 80025aa:	f85d 7b04 	ldr.w	r7, [sp], #4
 80025ae:	4770      	bx	lr

080025b0 <_kill>:

int _kill(int pid, int sig)
{
 80025b0:	b580      	push	{r7, lr}
 80025b2:	b082      	sub	sp, #8
 80025b4:	af00      	add	r7, sp, #0
 80025b6:	6078      	str	r0, [r7, #4]
 80025b8:	6039      	str	r1, [r7, #0]
  (void)pid;
  (void)sig;
  errno = EINVAL;
 80025ba:	f004 ff55 	bl	8007468 <__errno>
 80025be:	4603      	mov	r3, r0
 80025c0:	2216      	movs	r2, #22
 80025c2:	601a      	str	r2, [r3, #0]
  return -1;
 80025c4:	f04f 33ff 	mov.w	r3, #4294967295
}
 80025c8:	4618      	mov	r0, r3
 80025ca:	3708      	adds	r7, #8
 80025cc:	46bd      	mov	sp, r7
 80025ce:	bd80      	pop	{r7, pc}

080025d0 <_exit>:

void _exit (int status)
{
 80025d0:	b580      	push	{r7, lr}
 80025d2:	b082      	sub	sp, #8
 80025d4:	af00      	add	r7, sp, #0
 80025d6:	6078      	str	r0, [r7, #4]
  _kill(status, -1);
 80025d8:	f04f 31ff 	mov.w	r1, #4294967295
 80025dc:	6878      	ldr	r0, [r7, #4]
 80025de:	f7ff ffe7 	bl	80025b0 <_kill>
  while (1) {}    /* Make sure we hang here */
 80025e2:	bf00      	nop
 80025e4:	e7fd      	b.n	80025e2 <_exit+0x12>

080025e6 <_read>:
}

__attribute__((weak)) int _read(int file, char *ptr, int len)
{
 80025e6:	b580      	push	{r7, lr}
 80025e8:	b086      	sub	sp, #24
 80025ea:	af00      	add	r7, sp, #0
 80025ec:	60f8      	str	r0, [r7, #12]
 80025ee:	60b9      	str	r1, [r7, #8]
 80025f0:	607a      	str	r2, [r7, #4]
  (void)file;
  int DataIdx;

  for (DataIdx = 0; DataIdx < len; DataIdx++)
 80025f2:	2300      	movs	r3, #0
 80025f4:	617b      	str	r3, [r7, #20]
 80025f6:	e00a      	b.n	800260e <_read+0x28>
  {
    *ptr++ = __io_getchar();
 80025f8:	f3af 8000 	nop.w
 80025fc:	4601      	mov	r1, r0
 80025fe:	68bb      	ldr	r3, [r7, #8]
 8002600:	1c5a      	adds	r2, r3, #1
 8002602:	60ba      	str	r2, [r7, #8]
 8002604:	b2ca      	uxtb	r2, r1
 8002606:	701a      	strb	r2, [r3, #0]
  for (DataIdx = 0; DataIdx < len; DataIdx++)
 8002608:	697b      	ldr	r3, [r7, #20]
 800260a:	3301      	adds	r3, #1
 800260c:	617b      	str	r3, [r7, #20]
 800260e:	697a      	ldr	r2, [r7, #20]
 8002610:	687b      	ldr	r3, [r7, #4]
 8002612:	429a      	cmp	r2, r3
 8002614:	dbf0      	blt.n	80025f8 <_read+0x12>
  }

  return len;
 8002616:	687b      	ldr	r3, [r7, #4]
}
 8002618:	4618      	mov	r0, r3
 800261a:	3718      	adds	r7, #24
 800261c:	46bd      	mov	sp, r7
 800261e:	bd80      	pop	{r7, pc}

08002620 <_close>:
  }
  return len;
}

int _close(int file)
{
 8002620:	b480      	push	{r7}
 8002622:	b083      	sub	sp, #12
 8002624:	af00      	add	r7, sp, #0
 8002626:	6078      	str	r0, [r7, #4]
  (void)file;
  return -1;
 8002628:	f04f 33ff 	mov.w	r3, #4294967295
}
 800262c:	4618      	mov	r0, r3
 800262e:	370c      	adds	r7, #12
 8002630:	46bd      	mov	sp, r7
 8002632:	f85d 7b04 	ldr.w	r7, [sp], #4
 8002636:	4770      	bx	lr

08002638 <_fstat>:


int _fstat(int file, struct stat *st)
{
 8002638:	b480      	push	{r7}
 800263a:	b083      	sub	sp, #12
 800263c:	af00      	add	r7, sp, #0
 800263e:	6078      	str	r0, [r7, #4]
 8002640:	6039      	str	r1, [r7, #0]
  (void)file;
  st->st_mode = S_IFCHR;
 8002642:	683b      	ldr	r3, [r7, #0]
 8002644:	f44f 5200 	mov.w	r2, #8192	@ 0x2000
 8002648:	605a      	str	r2, [r3, #4]
  return 0;
 800264a:	2300      	movs	r3, #0
}
 800264c:	4618      	mov	r0, r3
 800264e:	370c      	adds	r7, #12
 8002650:	46bd      	mov	sp, r7
 8002652:	f85d 7b04 	ldr.w	r7, [sp], #4
 8002656:	4770      	bx	lr

08002658 <_isatty>:

int _isatty(int file)
{
 8002658:	b480      	push	{r7}
 800265a:	b083      	sub	sp, #12
 800265c:	af00      	add	r7, sp, #0
 800265e:	6078      	str	r0, [r7, #4]
  (void)file;
  return 1;
 8002660:	2301      	movs	r3, #1
}
 8002662:	4618      	mov	r0, r3
 8002664:	370c      	adds	r7, #12
 8002666:	46bd      	mov	sp, r7
 8002668:	f85d 7b04 	ldr.w	r7, [sp], #4
 800266c:	4770      	bx	lr

0800266e <_lseek>:

int _lseek(int file, int ptr, int dir)
{
 800266e:	b480      	push	{r7}
 8002670:	b085      	sub	sp, #20
 8002672:	af00      	add	r7, sp, #0
 8002674:	60f8      	str	r0, [r7, #12]
 8002676:	60b9      	str	r1, [r7, #8]
 8002678:	607a      	str	r2, [r7, #4]
  (void)file;
  (void)ptr;
  (void)dir;
  return 0;
 800267a:	2300      	movs	r3, #0
}
 800267c:	4618      	mov	r0, r3
 800267e:	3714      	adds	r7, #20
 8002680:	46bd      	mov	sp, r7
 8002682:	f85d 7b04 	ldr.w	r7, [sp], #4
 8002686:	4770      	bx	lr

08002688 <_sbrk>:
 *
 * @param incr Memory size
 * @return Pointer to allocated memory
 */
void *_sbrk(ptrdiff_t incr)
{
 8002688:	b580      	push	{r7, lr}
 800268a:	b086      	sub	sp, #24
 800268c:	af00      	add	r7, sp, #0
 800268e:	6078      	str	r0, [r7, #4]
  extern uint8_t _end; /* Symbol defined in the linker script */
  extern uint8_t _estack; /* Symbol defined in the linker script */
  extern uint32_t _Min_Stack_Size; /* Symbol defined in the linker script */
  const uint32_t stack_limit = (uint32_t)&_estack - (uint32_t)&_Min_Stack_Size;
 8002690:	4a14      	ldr	r2, [pc, #80]	@ (80026e4 <_sbrk+0x5c>)
 8002692:	4b15      	ldr	r3, [pc, #84]	@ (80026e8 <_sbrk+0x60>)
 8002694:	1ad3      	subs	r3, r2, r3
 8002696:	617b      	str	r3, [r7, #20]
  const uint8_t *max_heap = (uint8_t *)stack_limit;
 8002698:	697b      	ldr	r3, [r7, #20]
 800269a:	613b      	str	r3, [r7, #16]
  uint8_t *prev_heap_end;

  /* Initialize heap end at first call */
  if (NULL == __sbrk_heap_end)
 800269c:	4b13      	ldr	r3, [pc, #76]	@ (80026ec <_sbrk+0x64>)
 800269e:	681b      	ldr	r3, [r3, #0]
 80026a0:	2b00      	cmp	r3, #0
 80026a2:	d102      	bne.n	80026aa <_sbrk+0x22>
  {
    __sbrk_heap_end = &_end;
 80026a4:	4b11      	ldr	r3, [pc, #68]	@ (80026ec <_sbrk+0x64>)
 80026a6:	4a12      	ldr	r2, [pc, #72]	@ (80026f0 <_sbrk+0x68>)
 80026a8:	601a      	str	r2, [r3, #0]
  }

  /* Protect heap from growing into the reserved MSP stack */
  if (__sbrk_heap_end + incr > max_heap)
 80026aa:	4b10      	ldr	r3, [pc, #64]	@ (80026ec <_sbrk+0x64>)
 80026ac:	681a      	ldr	r2, [r3, #0]
 80026ae:	687b      	ldr	r3, [r7, #4]
 80026b0:	4413      	add	r3, r2
 80026b2:	693a      	ldr	r2, [r7, #16]
 80026b4:	429a      	cmp	r2, r3
 80026b6:	d207      	bcs.n	80026c8 <_sbrk+0x40>
  {
    errno = ENOMEM;
 80026b8:	f004 fed6 	bl	8007468 <__errno>
 80026bc:	4603      	mov	r3, r0
 80026be:	220c      	movs	r2, #12
 80026c0:	601a      	str	r2, [r3, #0]
    return (void *)-1;
 80026c2:	f04f 33ff 	mov.w	r3, #4294967295
 80026c6:	e009      	b.n	80026dc <_sbrk+0x54>
  }

  prev_heap_end = __sbrk_heap_end;
 80026c8:	4b08      	ldr	r3, [pc, #32]	@ (80026ec <_sbrk+0x64>)
 80026ca:	681b      	ldr	r3, [r3, #0]
 80026cc:	60fb      	str	r3, [r7, #12]
  __sbrk_heap_end += incr;
 80026ce:	4b07      	ldr	r3, [pc, #28]	@ (80026ec <_sbrk+0x64>)
 80026d0:	681a      	ldr	r2, [r3, #0]
 80026d2:	687b      	ldr	r3, [r7, #4]
 80026d4:	4413      	add	r3, r2
 80026d6:	4a05      	ldr	r2, [pc, #20]	@ (80026ec <_sbrk+0x64>)
 80026d8:	6013      	str	r3, [r2, #0]

  return (void *)prev_heap_end;
 80026da:	68fb      	ldr	r3, [r7, #12]
}
 80026dc:	4618      	mov	r0, r3
 80026de:	3718      	adds	r7, #24
 80026e0:	46bd      	mov	sp, r7
 80026e2:	bd80      	pop	{r7, pc}
 80026e4:	20010000 	.word	0x20010000
 80026e8:	00000400 	.word	0x00000400
 80026ec:	20000394 	.word	0x20000394
 80026f0:	200004e8 	.word	0x200004e8

080026f4 <SystemInit>:
  *         configuration.
  * @param  None
  * @retval None
  */
void SystemInit(void)
{
 80026f4:	b480      	push	{r7}
 80026f6:	af00      	add	r7, sp, #0
  /* FPU settings ------------------------------------------------------------*/
  #if (__FPU_PRESENT == 1) && (__FPU_USED == 1)
    SCB->CPACR |= ((3UL << 10*2)|(3UL << 11*2));  /* set CP10 and CP11 Full Access */
 80026f8:	4b06      	ldr	r3, [pc, #24]	@ (8002714 <SystemInit+0x20>)
 80026fa:	f8d3 3088 	ldr.w	r3, [r3, #136]	@ 0x88
 80026fe:	4a05      	ldr	r2, [pc, #20]	@ (8002714 <SystemInit+0x20>)
 8002700:	f443 0370 	orr.w	r3, r3, #15728640	@ 0xf00000
 8002704:	f8c2 3088 	str.w	r3, [r2, #136]	@ 0x88

  /* Configure the Vector Table location -------------------------------------*/
#if defined(USER_VECT_TAB_ADDRESS)
  SCB->VTOR = VECT_TAB_BASE_ADDRESS | VECT_TAB_OFFSET; /* Vector Table Relocation in Internal SRAM */
#endif /* USER_VECT_TAB_ADDRESS */
}
 8002708:	bf00      	nop
 800270a:	46bd      	mov	sp, r7
 800270c:	f85d 7b04 	ldr.w	r7, [sp], #4
 8002710:	4770      	bx	lr
 8002712:	bf00      	nop
 8002714:	e000ed00 	.word	0xe000ed00

08002718 <Reset_Handler>:

    .section  .text.Reset_Handler
  .weak  Reset_Handler
  .type  Reset_Handler, %function
Reset_Handler:  
  ldr   sp, =_estack      /* set stack pointer */
 8002718:	f8df d034 	ldr.w	sp, [pc, #52]	@ 8002750 <LoopFillZerobss+0xe>
  
/* Call the clock system initialization function.*/
  bl  SystemInit  
 800271c:	f7ff ffea 	bl	80026f4 <SystemInit>

/* Copy the data segment initializers from flash to SRAM */  
  ldr r0, =_sdata
 8002720:	480c      	ldr	r0, [pc, #48]	@ (8002754 <LoopFillZerobss+0x12>)
  ldr r1, =_edata
 8002722:	490d      	ldr	r1, [pc, #52]	@ (8002758 <LoopFillZerobss+0x16>)
  ldr r2, =_sidata
 8002724:	4a0d      	ldr	r2, [pc, #52]	@ (800275c <LoopFillZerobss+0x1a>)
  movs r3, #0
 8002726:	2300      	movs	r3, #0
  b LoopCopyDataInit
 8002728:	e002      	b.n	8002730 <LoopCopyDataInit>

0800272a <CopyDataInit>:

CopyDataInit:
  ldr r4, [r2, r3]
 800272a:	58d4      	ldr	r4, [r2, r3]
  str r4, [r0, r3]
 800272c:	50c4      	str	r4, [r0, r3]
  adds r3, r3, #4
 800272e:	3304      	adds	r3, #4

08002730 <LoopCopyDataInit>:

LoopCopyDataInit:
  adds r4, r0, r3
 8002730:	18c4      	adds	r4, r0, r3
  cmp r4, r1
 8002732:	428c      	cmp	r4, r1
  bcc CopyDataInit
 8002734:	d3f9      	bcc.n	800272a <CopyDataInit>
  
/* Zero fill the bss segment. */
  ldr r2, =_sbss
 8002736:	4a0a      	ldr	r2, [pc, #40]	@ (8002760 <LoopFillZerobss+0x1e>)
  ldr r4, =_ebss
 8002738:	4c0a      	ldr	r4, [pc, #40]	@ (8002764 <LoopFillZerobss+0x22>)
  movs r3, #0
 800273a:	2300      	movs	r3, #0
  b LoopFillZerobss
 800273c:	e001      	b.n	8002742 <LoopFillZerobss>

0800273e <FillZerobss>:

FillZerobss:
  str  r3, [r2]
 800273e:	6013      	str	r3, [r2, #0]
  adds r2, r2, #4
 8002740:	3204      	adds	r2, #4

08002742 <LoopFillZerobss>:

LoopFillZerobss:
  cmp r2, r4
 8002742:	42a2      	cmp	r2, r4
  bcc FillZerobss
 8002744:	d3fb      	bcc.n	800273e <FillZerobss>

/* Call static constructors */
    bl __libc_init_array
 8002746:	f004 fe95 	bl	8007474 <__libc_init_array>
/* Call the application's entry point.*/
  bl  main
 800274a:	f7fe fc71 	bl	8001030 <main>
  bx  lr    
 800274e:	4770      	bx	lr
  ldr   sp, =_estack      /* set stack pointer */
 8002750:	20010000 	.word	0x20010000
  ldr r0, =_sdata
 8002754:	20000000 	.word	0x20000000
  ldr r1, =_edata
 8002758:	200001d8 	.word	0x200001d8
  ldr r2, =_sidata
 800275c:	08009ee0 	.word	0x08009ee0
  ldr r2, =_sbss
 8002760:	200001d8 	.word	0x200001d8
  ldr r4, =_ebss
 8002764:	200004e8 	.word	0x200004e8

08002768 <ADC_IRQHandler>:
 * @retval None       
*/
    .section  .text.Default_Handler,"ax",%progbits
Default_Handler:
Infinite_Loop:
  b  Infinite_Loop
 8002768:	e7fe      	b.n	8002768 <ADC_IRQHandler>
	...

0800276c <HAL_Init>:
  *         need to ensure that the SysTick time base is always set to 1 millisecond
  *         to have correct HAL operation.
  * @retval HAL status
  */
HAL_StatusTypeDef HAL_Init(void)
{
 800276c:	b580      	push	{r7, lr}
 800276e:	af00      	add	r7, sp, #0
  /* Configure Flash prefetch, Instruction cache, Data cache */ 
#if (INSTRUCTION_CACHE_ENABLE != 0U)
  __HAL_FLASH_INSTRUCTION_CACHE_ENABLE();
 8002770:	4b0e      	ldr	r3, [pc, #56]	@ (80027ac <HAL_Init+0x40>)
 8002772:	681b      	ldr	r3, [r3, #0]
 8002774:	4a0d      	ldr	r2, [pc, #52]	@ (80027ac <HAL_Init+0x40>)
 8002776:	f443 7300 	orr.w	r3, r3, #512	@ 0x200
 800277a:	6013      	str	r3, [r2, #0]
#endif /* INSTRUCTION_CACHE_ENABLE */

#if (DATA_CACHE_ENABLE != 0U)
  __HAL_FLASH_DATA_CACHE_ENABLE();
 800277c:	4b0b      	ldr	r3, [pc, #44]	@ (80027ac <HAL_Init+0x40>)
 800277e:	681b      	ldr	r3, [r3, #0]
 8002780:	4a0a      	ldr	r2, [pc, #40]	@ (80027ac <HAL_Init+0x40>)
 8002782:	f443 6380 	orr.w	r3, r3, #1024	@ 0x400
 8002786:	6013      	str	r3, [r2, #0]
#endif /* DATA_CACHE_ENABLE */

#if (PREFETCH_ENABLE != 0U)
  __HAL_FLASH_PREFETCH_BUFFER_ENABLE();
 8002788:	4b08      	ldr	r3, [pc, #32]	@ (80027ac <HAL_Init+0x40>)
 800278a:	681b      	ldr	r3, [r3, #0]
 800278c:	4a07      	ldr	r2, [pc, #28]	@ (80027ac <HAL_Init+0x40>)
 800278e:	f443 7380 	orr.w	r3, r3, #256	@ 0x100
 8002792:	6013      	str	r3, [r2, #0]
#endif /* PREFETCH_ENABLE */

  /* Set Interrupt Group Priority */
  HAL_NVIC_SetPriorityGrouping(NVIC_PRIORITYGROUP_4);
 8002794:	2003      	movs	r0, #3
 8002796:	f000 f94f 	bl	8002a38 <HAL_NVIC_SetPriorityGrouping>

  /* Use systick as time base source and configure 1ms tick (default clock after Reset is HSI) */
  HAL_InitTick(TICK_INT_PRIORITY);
 800279a:	200f      	movs	r0, #15
 800279c:	f000 f808 	bl	80027b0 <HAL_InitTick>

  /* Init the low level hardware */
  HAL_MspInit();
 80027a0:	f7ff fdd0 	bl	8002344 <HAL_MspInit>

  /* Return function status */
  return HAL_OK;
 80027a4:	2300      	movs	r3, #0
}
 80027a6:	4618      	mov	r0, r3
 80027a8:	bd80      	pop	{r7, pc}
 80027aa:	bf00      	nop
 80027ac:	40023c00 	.word	0x40023c00

080027b0 <HAL_InitTick>:
  *       implementation  in user file.
  * @param TickPriority Tick interrupt priority.
  * @retval HAL status
  */
__weak HAL_StatusTypeDef HAL_InitTick(uint32_t TickPriority)
{
 80027b0:	b580      	push	{r7, lr}
 80027b2:	b082      	sub	sp, #8
 80027b4:	af00      	add	r7, sp, #0
 80027b6:	6078      	str	r0, [r7, #4]
  /* Configure the SysTick to have interrupt in 1ms time basis*/
  if (HAL_SYSTICK_Config(SystemCoreClock / (1000U / uwTickFreq)) > 0U)
 80027b8:	4b12      	ldr	r3, [pc, #72]	@ (8002804 <HAL_InitTick+0x54>)
 80027ba:	681a      	ldr	r2, [r3, #0]
 80027bc:	4b12      	ldr	r3, [pc, #72]	@ (8002808 <HAL_InitTick+0x58>)
 80027be:	781b      	ldrb	r3, [r3, #0]
 80027c0:	4619      	mov	r1, r3
 80027c2:	f44f 737a 	mov.w	r3, #1000	@ 0x3e8
 80027c6:	fbb3 f3f1 	udiv	r3, r3, r1
 80027ca:	fbb2 f3f3 	udiv	r3, r2, r3
 80027ce:	4618      	mov	r0, r3
 80027d0:	f000 f967 	bl	8002aa2 <HAL_SYSTICK_Config>
 80027d4:	4603      	mov	r3, r0
 80027d6:	2b00      	cmp	r3, #0
 80027d8:	d001      	beq.n	80027de <HAL_InitTick+0x2e>
  {
    return HAL_ERROR;
 80027da:	2301      	movs	r3, #1
 80027dc:	e00e      	b.n	80027fc <HAL_InitTick+0x4c>
  }

  /* Configure the SysTick IRQ priority */
  if (TickPriority < (1UL << __NVIC_PRIO_BITS))
 80027de:	687b      	ldr	r3, [r7, #4]
 80027e0:	2b0f      	cmp	r3, #15
 80027e2:	d80a      	bhi.n	80027fa <HAL_InitTick+0x4a>
  {
    HAL_NVIC_SetPriority(SysTick_IRQn, TickPriority, 0U);
 80027e4:	2200      	movs	r2, #0
 80027e6:	6879      	ldr	r1, [r7, #4]
 80027e8:	f04f 30ff 	mov.w	r0, #4294967295
 80027ec:	f000 f92f 	bl	8002a4e <HAL_NVIC_SetPriority>
    uwTickPrio = TickPriority;
 80027f0:	4a06      	ldr	r2, [pc, #24]	@ (800280c <HAL_InitTick+0x5c>)
 80027f2:	687b      	ldr	r3, [r7, #4]
 80027f4:	6013      	str	r3, [r2, #0]
  {
    return HAL_ERROR;
  }

  /* Return function status */
  return HAL_OK;
 80027f6:	2300      	movs	r3, #0
 80027f8:	e000      	b.n	80027fc <HAL_InitTick+0x4c>
    return HAL_ERROR;
 80027fa:	2301      	movs	r3, #1
}
 80027fc:	4618      	mov	r0, r3
 80027fe:	3708      	adds	r7, #8
 8002800:	46bd      	mov	sp, r7
 8002802:	bd80      	pop	{r7, pc}
 8002804:	20000004 	.word	0x20000004
 8002808:	2000000c 	.word	0x2000000c
 800280c:	20000008 	.word	0x20000008

08002810 <HAL_IncTick>:
 * @note This function is declared as __weak to be overwritten in case of other 
  *      implementations in user file.
  * @retval None
  */
__weak void HAL_IncTick(void)
{
 8002810:	b480      	push	{r7}
 8002812:	af00      	add	r7, sp, #0
  uwTick += uwTickFreq;
 8002814:	4b06      	ldr	r3, [pc, #24]	@ (8002830 <HAL_IncTick+0x20>)
 8002816:	781b      	ldrb	r3, [r3, #0]
 8002818:	461a      	mov	r2, r3
 800281a:	4b06      	ldr	r3, [pc, #24]	@ (8002834 <HAL_IncTick+0x24>)
 800281c:	681b      	ldr	r3, [r3, #0]
 800281e:	4413      	add	r3, r2
 8002820:	4a04      	ldr	r2, [pc, #16]	@ (8002834 <HAL_IncTick+0x24>)
 8002822:	6013      	str	r3, [r2, #0]
}
 8002824:	bf00      	nop
 8002826:	46bd      	mov	sp, r7
 8002828:	f85d 7b04 	ldr.w	r7, [sp], #4
 800282c:	4770      	bx	lr
 800282e:	bf00      	nop
 8002830:	2000000c 	.word	0x2000000c
 8002834:	20000398 	.word	0x20000398

08002838 <HAL_GetTick>:
  * @note This function is declared as __weak to be overwritten in case of other 
  *       implementations in user file.
  * @retval tick value
  */
__weak uint32_t HAL_GetTick(void)
{
 8002838:	b480      	push	{r7}
 800283a:	af00      	add	r7, sp, #0
  return uwTick;
 800283c:	4b03      	ldr	r3, [pc, #12]	@ (800284c <HAL_GetTick+0x14>)
 800283e:	681b      	ldr	r3, [r3, #0]
}
 8002840:	4618      	mov	r0, r3
 8002842:	46bd      	mov	sp, r7
 8002844:	f85d 7b04 	ldr.w	r7, [sp], #4
 8002848:	4770      	bx	lr
 800284a:	bf00      	nop
 800284c:	20000398 	.word	0x20000398

08002850 <HAL_Delay>:
  *       implementations in user file.
  * @param Delay specifies the delay time length, in milliseconds.
  * @retval None
  */
__weak void HAL_Delay(uint32_t Delay)
{
 8002850:	b580      	push	{r7, lr}
 8002852:	b084      	sub	sp, #16
 8002854:	af00      	add	r7, sp, #0
 8002856:	6078      	str	r0, [r7, #4]
  uint32_t tickstart = HAL_GetTick();
 8002858:	f7ff ffee 	bl	8002838 <HAL_GetTick>
 800285c:	60b8      	str	r0, [r7, #8]
  uint32_t wait = Delay;
 800285e:	687b      	ldr	r3, [r7, #4]
 8002860:	60fb      	str	r3, [r7, #12]

  /* Add a freq to guarantee minimum wait */
  if (wait < HAL_MAX_DELAY)
 8002862:	68fb      	ldr	r3, [r7, #12]
 8002864:	f1b3 3fff 	cmp.w	r3, #4294967295
 8002868:	d005      	beq.n	8002876 <HAL_Delay+0x26>
  {
    wait += (uint32_t)(uwTickFreq);
 800286a:	4b0a      	ldr	r3, [pc, #40]	@ (8002894 <HAL_Delay+0x44>)
 800286c:	781b      	ldrb	r3, [r3, #0]
 800286e:	461a      	mov	r2, r3
 8002870:	68fb      	ldr	r3, [r7, #12]
 8002872:	4413      	add	r3, r2
 8002874:	60fb      	str	r3, [r7, #12]
  }

  while((HAL_GetTick() - tickstart) < wait)
 8002876:	bf00      	nop
 8002878:	f7ff ffde 	bl	8002838 <HAL_GetTick>
 800287c:	4602      	mov	r2, r0
 800287e:	68bb      	ldr	r3, [r7, #8]
 8002880:	1ad3      	subs	r3, r2, r3
 8002882:	68fa      	ldr	r2, [r7, #12]
 8002884:	429a      	cmp	r2, r3
 8002886:	d8f7      	bhi.n	8002878 <HAL_Delay+0x28>
  {
  }
}
 8002888:	bf00      	nop
 800288a:	bf00      	nop
 800288c:	3710      	adds	r7, #16
 800288e:	46bd      	mov	sp, r7
 8002890:	bd80      	pop	{r7, pc}
 8002892:	bf00      	nop
 8002894:	2000000c 	.word	0x2000000c

08002898 <__NVIC_SetPriorityGrouping>:
           In case of a conflict between priority grouping and available
           priority bits (__NVIC_PRIO_BITS), the smallest possible priority group is set.
  \param [in]      PriorityGroup  Priority grouping field.
 */
__STATIC_INLINE void __NVIC_SetPriorityGrouping(uint32_t PriorityGroup)
{
 8002898:	b480      	push	{r7}
 800289a:	b085      	sub	sp, #20
 800289c:	af00      	add	r7, sp, #0
 800289e:	6078      	str	r0, [r7, #4]
  uint32_t reg_value;
  uint32_t PriorityGroupTmp = (PriorityGroup & (uint32_t)0x07UL);             /* only values 0..7 are used          */
 80028a0:	687b      	ldr	r3, [r7, #4]
 80028a2:	f003 0307 	and.w	r3, r3, #7
 80028a6:	60fb      	str	r3, [r7, #12]

  reg_value  =  SCB->AIRCR;                                                   /* read old register configuration    */
 80028a8:	4b0c      	ldr	r3, [pc, #48]	@ (80028dc <__NVIC_SetPriorityGrouping+0x44>)
 80028aa:	68db      	ldr	r3, [r3, #12]
 80028ac:	60bb      	str	r3, [r7, #8]
  reg_value &= ~((uint32_t)(SCB_AIRCR_VECTKEY_Msk | SCB_AIRCR_PRIGROUP_Msk)); /* clear bits to change               */
 80028ae:	68ba      	ldr	r2, [r7, #8]
 80028b0:	f64f 03ff 	movw	r3, #63743	@ 0xf8ff
 80028b4:	4013      	ands	r3, r2
 80028b6:	60bb      	str	r3, [r7, #8]
  reg_value  =  (reg_value                                   |
                ((uint32_t)0x5FAUL << SCB_AIRCR_VECTKEY_Pos) |
                (PriorityGroupTmp << SCB_AIRCR_PRIGROUP_Pos)  );              /* Insert write key and priority group */
 80028b8:	68fb      	ldr	r3, [r7, #12]
 80028ba:	021a      	lsls	r2, r3, #8
                ((uint32_t)0x5FAUL << SCB_AIRCR_VECTKEY_Pos) |
 80028bc:	68bb      	ldr	r3, [r7, #8]
 80028be:	4313      	orrs	r3, r2
  reg_value  =  (reg_value                                   |
 80028c0:	f043 63bf 	orr.w	r3, r3, #100139008	@ 0x5f80000
 80028c4:	f443 3300 	orr.w	r3, r3, #131072	@ 0x20000
 80028c8:	60bb      	str	r3, [r7, #8]
  SCB->AIRCR =  reg_value;
 80028ca:	4a04      	ldr	r2, [pc, #16]	@ (80028dc <__NVIC_SetPriorityGrouping+0x44>)
 80028cc:	68bb      	ldr	r3, [r7, #8]
 80028ce:	60d3      	str	r3, [r2, #12]
}
 80028d0:	bf00      	nop
 80028d2:	3714      	adds	r7, #20
 80028d4:	46bd      	mov	sp, r7
 80028d6:	f85d 7b04 	ldr.w	r7, [sp], #4
 80028da:	4770      	bx	lr
 80028dc:	e000ed00 	.word	0xe000ed00

080028e0 <__NVIC_GetPriorityGrouping>:
  \brief   Get Priority Grouping
  \details Reads the priority grouping field from the NVIC Interrupt Controller.
  \return                Priority grouping field (SCB->AIRCR [10:8] PRIGROUP field).
 */
__STATIC_INLINE uint32_t __NVIC_GetPriorityGrouping(void)
{
 80028e0:	b480      	push	{r7}
 80028e2:	af00      	add	r7, sp, #0
  return ((uint32_t)((SCB->AIRCR & SCB_AIRCR_PRIGROUP_Msk) >> SCB_AIRCR_PRIGROUP_Pos));
 80028e4:	4b04      	ldr	r3, [pc, #16]	@ (80028f8 <__NVIC_GetPriorityGrouping+0x18>)
 80028e6:	68db      	ldr	r3, [r3, #12]
 80028e8:	0a1b      	lsrs	r3, r3, #8
 80028ea:	f003 0307 	and.w	r3, r3, #7
}
 80028ee:	4618      	mov	r0, r3
 80028f0:	46bd      	mov	sp, r7
 80028f2:	f85d 7b04 	ldr.w	r7, [sp], #4
 80028f6:	4770      	bx	lr
 80028f8:	e000ed00 	.word	0xe000ed00

080028fc <__NVIC_EnableIRQ>:
  \details Enables a device specific interrupt in the NVIC interrupt controller.
  \param [in]      IRQn  Device specific interrupt number.
  \note    IRQn must not be negative.
 */
__STATIC_INLINE void __NVIC_EnableIRQ(IRQn_Type IRQn)
{
 80028fc:	b480      	push	{r7}
 80028fe:	b083      	sub	sp, #12
 8002900:	af00      	add	r7, sp, #0
 8002902:	4603      	mov	r3, r0
 8002904:	71fb      	strb	r3, [r7, #7]
  if ((int32_t)(IRQn) >= 0)
 8002906:	f997 3007 	ldrsb.w	r3, [r7, #7]
 800290a:	2b00      	cmp	r3, #0
 800290c:	db0b      	blt.n	8002926 <__NVIC_EnableIRQ+0x2a>
  {
    __COMPILER_BARRIER();
    NVIC->ISER[(((uint32_t)IRQn) >> 5UL)] = (uint32_t)(1UL << (((uint32_t)IRQn) & 0x1FUL));
 800290e:	79fb      	ldrb	r3, [r7, #7]
 8002910:	f003 021f 	and.w	r2, r3, #31
 8002914:	4907      	ldr	r1, [pc, #28]	@ (8002934 <__NVIC_EnableIRQ+0x38>)
 8002916:	f997 3007 	ldrsb.w	r3, [r7, #7]
 800291a:	095b      	lsrs	r3, r3, #5
 800291c:	2001      	movs	r0, #1
 800291e:	fa00 f202 	lsl.w	r2, r0, r2
 8002922:	f841 2023 	str.w	r2, [r1, r3, lsl #2]
    __COMPILER_BARRIER();
  }
}
 8002926:	bf00      	nop
 8002928:	370c      	adds	r7, #12
 800292a:	46bd      	mov	sp, r7
 800292c:	f85d 7b04 	ldr.w	r7, [sp], #4
 8002930:	4770      	bx	lr
 8002932:	bf00      	nop
 8002934:	e000e100 	.word	0xe000e100

08002938 <__NVIC_SetPriority>:
  \param [in]      IRQn  Interrupt number.
  \param [in]  priority  Priority to set.
  \note    The priority cannot be set for every processor exception.
 */
__STATIC_INLINE void __NVIC_SetPriority(IRQn_Type IRQn, uint32_t priority)
{
 8002938:	b480      	push	{r7}
 800293a:	b083      	sub	sp, #12
 800293c:	af00      	add	r7, sp, #0
 800293e:	4603      	mov	r3, r0
 8002940:	6039      	str	r1, [r7, #0]
 8002942:	71fb      	strb	r3, [r7, #7]
  if ((int32_t)(IRQn) >= 0)
 8002944:	f997 3007 	ldrsb.w	r3, [r7, #7]
 8002948:	2b00      	cmp	r3, #0
 800294a:	db0a      	blt.n	8002962 <__NVIC_SetPriority+0x2a>
  {
    NVIC->IP[((uint32_t)IRQn)]               = (uint8_t)((priority << (8U - __NVIC_PRIO_BITS)) & (uint32_t)0xFFUL);
 800294c:	683b      	ldr	r3, [r7, #0]
 800294e:	b2da      	uxtb	r2, r3
 8002950:	490c      	ldr	r1, [pc, #48]	@ (8002984 <__NVIC_SetPriority+0x4c>)
 8002952:	f997 3007 	ldrsb.w	r3, [r7, #7]
 8002956:	0112      	lsls	r2, r2, #4
 8002958:	b2d2      	uxtb	r2, r2
 800295a:	440b      	add	r3, r1
 800295c:	f883 2300 	strb.w	r2, [r3, #768]	@ 0x300
  }
  else
  {
    SCB->SHP[(((uint32_t)IRQn) & 0xFUL)-4UL] = (uint8_t)((priority << (8U - __NVIC_PRIO_BITS)) & (uint32_t)0xFFUL);
  }
}
 8002960:	e00a      	b.n	8002978 <__NVIC_SetPriority+0x40>
    SCB->SHP[(((uint32_t)IRQn) & 0xFUL)-4UL] = (uint8_t)((priority << (8U - __NVIC_PRIO_BITS)) & (uint32_t)0xFFUL);
 8002962:	683b      	ldr	r3, [r7, #0]
 8002964:	b2da      	uxtb	r2, r3
 8002966:	4908      	ldr	r1, [pc, #32]	@ (8002988 <__NVIC_SetPriority+0x50>)
 8002968:	79fb      	ldrb	r3, [r7, #7]
 800296a:	f003 030f 	and.w	r3, r3, #15
 800296e:	3b04      	subs	r3, #4
 8002970:	0112      	lsls	r2, r2, #4
 8002972:	b2d2      	uxtb	r2, r2
 8002974:	440b      	add	r3, r1
 8002976:	761a      	strb	r2, [r3, #24]
}
 8002978:	bf00      	nop
 800297a:	370c      	adds	r7, #12
 800297c:	46bd      	mov	sp, r7
 800297e:	f85d 7b04 	ldr.w	r7, [sp], #4
 8002982:	4770      	bx	lr
 8002984:	e000e100 	.word	0xe000e100
 8002988:	e000ed00 	.word	0xe000ed00

0800298c <NVIC_EncodePriority>:
  \param [in]   PreemptPriority  Preemptive priority value (starting from 0).
  \param [in]       SubPriority  Subpriority value (starting from 0).
  \return                        Encoded priority. Value can be used in the function \ref NVIC_SetPriority().
 */
__STATIC_INLINE uint32_t NVIC_EncodePriority (uint32_t PriorityGroup, uint32_t PreemptPriority, uint32_t SubPriority)
{
 800298c:	b480      	push	{r7}
 800298e:	b089      	sub	sp, #36	@ 0x24
 8002990:	af00      	add	r7, sp, #0
 8002992:	60f8      	str	r0, [r7, #12]
 8002994:	60b9      	str	r1, [r7, #8]
 8002996:	607a      	str	r2, [r7, #4]
  uint32_t PriorityGroupTmp = (PriorityGroup & (uint32_t)0x07UL);   /* only values 0..7 are used          */
 8002998:	68fb      	ldr	r3, [r7, #12]
 800299a:	f003 0307 	and.w	r3, r3, #7
 800299e:	61fb      	str	r3, [r7, #28]
  uint32_t PreemptPriorityBits;
  uint32_t SubPriorityBits;

  PreemptPriorityBits = ((7UL - PriorityGroupTmp) > (uint32_t)(__NVIC_PRIO_BITS)) ? (uint32_t)(__NVIC_PRIO_BITS) : (uint32_t)(7UL - PriorityGroupTmp);
 80029a0:	69fb      	ldr	r3, [r7, #28]
 80029a2:	f1c3 0307 	rsb	r3, r3, #7
 80029a6:	2b04      	cmp	r3, #4
 80029a8:	bf28      	it	cs
 80029aa:	2304      	movcs	r3, #4
 80029ac:	61bb      	str	r3, [r7, #24]
  SubPriorityBits     = ((PriorityGroupTmp + (uint32_t)(__NVIC_PRIO_BITS)) < (uint32_t)7UL) ? (uint32_t)0UL : (uint32_t)((PriorityGroupTmp - 7UL) + (uint32_t)(__NVIC_PRIO_BITS));
 80029ae:	69fb      	ldr	r3, [r7, #28]
 80029b0:	3304      	adds	r3, #4
 80029b2:	2b06      	cmp	r3, #6
 80029b4:	d902      	bls.n	80029bc <NVIC_EncodePriority+0x30>
 80029b6:	69fb      	ldr	r3, [r7, #28]
 80029b8:	3b03      	subs	r3, #3
 80029ba:	e000      	b.n	80029be <NVIC_EncodePriority+0x32>
 80029bc:	2300      	movs	r3, #0
 80029be:	617b      	str	r3, [r7, #20]

  return (
           ((PreemptPriority & (uint32_t)((1UL << (PreemptPriorityBits)) - 1UL)) << SubPriorityBits) |
 80029c0:	f04f 32ff 	mov.w	r2, #4294967295
 80029c4:	69bb      	ldr	r3, [r7, #24]
 80029c6:	fa02 f303 	lsl.w	r3, r2, r3
 80029ca:	43da      	mvns	r2, r3
 80029cc:	68bb      	ldr	r3, [r7, #8]
 80029ce:	401a      	ands	r2, r3
 80029d0:	697b      	ldr	r3, [r7, #20]
 80029d2:	409a      	lsls	r2, r3
           ((SubPriority     & (uint32_t)((1UL << (SubPriorityBits    )) - 1UL)))
 80029d4:	f04f 31ff 	mov.w	r1, #4294967295
 80029d8:	697b      	ldr	r3, [r7, #20]
 80029da:	fa01 f303 	lsl.w	r3, r1, r3
 80029de:	43d9      	mvns	r1, r3
 80029e0:	687b      	ldr	r3, [r7, #4]
 80029e2:	400b      	ands	r3, r1
           ((PreemptPriority & (uint32_t)((1UL << (PreemptPriorityBits)) - 1UL)) << SubPriorityBits) |
 80029e4:	4313      	orrs	r3, r2
         );
}
 80029e6:	4618      	mov	r0, r3
 80029e8:	3724      	adds	r7, #36	@ 0x24
 80029ea:	46bd      	mov	sp, r7
 80029ec:	f85d 7b04 	ldr.w	r7, [sp], #4
 80029f0:	4770      	bx	lr
	...

080029f4 <SysTick_Config>:
  \note    When the variable <b>__Vendor_SysTickConfig</b> is set to 1, then the
           function <b>SysTick_Config</b> is not included. In this case, the file <b><i>device</i>.h</b>
           must contain a vendor-specific implementation of this function.
 */
__STATIC_INLINE uint32_t SysTick_Config(uint32_t ticks)
{
 80029f4:	b580      	push	{r7, lr}
 80029f6:	b082      	sub	sp, #8
 80029f8:	af00      	add	r7, sp, #0
 80029fa:	6078      	str	r0, [r7, #4]
  if ((ticks - 1UL) > SysTick_LOAD_RELOAD_Msk)
 80029fc:	687b      	ldr	r3, [r7, #4]
 80029fe:	3b01      	subs	r3, #1
 8002a00:	f1b3 7f80 	cmp.w	r3, #16777216	@ 0x1000000
 8002a04:	d301      	bcc.n	8002a0a <SysTick_Config+0x16>
  {
    return (1UL);                                                   /* Reload value impossible */
 8002a06:	2301      	movs	r3, #1
 8002a08:	e00f      	b.n	8002a2a <SysTick_Config+0x36>
  }

  SysTick->LOAD  = (uint32_t)(ticks - 1UL);                         /* set reload register */
 8002a0a:	4a0a      	ldr	r2, [pc, #40]	@ (8002a34 <SysTick_Config+0x40>)
 8002a0c:	687b      	ldr	r3, [r7, #4]
 8002a0e:	3b01      	subs	r3, #1
 8002a10:	6053      	str	r3, [r2, #4]
  NVIC_SetPriority (SysTick_IRQn, (1UL << __NVIC_PRIO_BITS) - 1UL); /* set Priority for Systick Interrupt */
 8002a12:	210f      	movs	r1, #15
 8002a14:	f04f 30ff 	mov.w	r0, #4294967295
 8002a18:	f7ff ff8e 	bl	8002938 <__NVIC_SetPriority>
  SysTick->VAL   = 0UL;                                             /* Load the SysTick Counter Value */
 8002a1c:	4b05      	ldr	r3, [pc, #20]	@ (8002a34 <SysTick_Config+0x40>)
 8002a1e:	2200      	movs	r2, #0
 8002a20:	609a      	str	r2, [r3, #8]
  SysTick->CTRL  = SysTick_CTRL_CLKSOURCE_Msk |
 8002a22:	4b04      	ldr	r3, [pc, #16]	@ (8002a34 <SysTick_Config+0x40>)
 8002a24:	2207      	movs	r2, #7
 8002a26:	601a      	str	r2, [r3, #0]
                   SysTick_CTRL_TICKINT_Msk   |
                   SysTick_CTRL_ENABLE_Msk;                         /* Enable SysTick IRQ and SysTick Timer */
  return (0UL);                                                     /* Function successful */
 8002a28:	2300      	movs	r3, #0
}
 8002a2a:	4618      	mov	r0, r3
 8002a2c:	3708      	adds	r7, #8
 8002a2e:	46bd      	mov	sp, r7
 8002a30:	bd80      	pop	{r7, pc}
 8002a32:	bf00      	nop
 8002a34:	e000e010 	.word	0xe000e010

08002a38 <HAL_NVIC_SetPriorityGrouping>:
  * @note   When the NVIC_PriorityGroup_0 is selected, IRQ preemption is no more possible. 
  *         The pending IRQ priority will be managed only by the subpriority. 
  * @retval None
  */
void HAL_NVIC_SetPriorityGrouping(uint32_t PriorityGroup)
{
 8002a38:	b580      	push	{r7, lr}
 8002a3a:	b082      	sub	sp, #8
 8002a3c:	af00      	add	r7, sp, #0
 8002a3e:	6078      	str	r0, [r7, #4]
  /* Check the parameters */
  assert_param(IS_NVIC_PRIORITY_GROUP(PriorityGroup));
  
  /* Set the PRIGROUP[10:8] bits according to the PriorityGroup parameter value */
  NVIC_SetPriorityGrouping(PriorityGroup);
 8002a40:	6878      	ldr	r0, [r7, #4]
 8002a42:	f7ff ff29 	bl	8002898 <__NVIC_SetPriorityGrouping>
}
 8002a46:	bf00      	nop
 8002a48:	3708      	adds	r7, #8
 8002a4a:	46bd      	mov	sp, r7
 8002a4c:	bd80      	pop	{r7, pc}

08002a4e <HAL_NVIC_SetPriority>:
  *         This parameter can be a value between 0 and 15
  *         A lower priority value indicates a higher priority.          
  * @retval None
  */
void HAL_NVIC_SetPriority(IRQn_Type IRQn, uint32_t PreemptPriority, uint32_t SubPriority)
{ 
 8002a4e:	b580      	push	{r7, lr}
 8002a50:	b086      	sub	sp, #24
 8002a52:	af00      	add	r7, sp, #0
 8002a54:	4603      	mov	r3, r0
 8002a56:	60b9      	str	r1, [r7, #8]
 8002a58:	607a      	str	r2, [r7, #4]
 8002a5a:	73fb      	strb	r3, [r7, #15]
  uint32_t prioritygroup = 0x00U;
 8002a5c:	2300      	movs	r3, #0
 8002a5e:	617b      	str	r3, [r7, #20]
  
  /* Check the parameters */
  assert_param(IS_NVIC_SUB_PRIORITY(SubPriority));
  assert_param(IS_NVIC_PREEMPTION_PRIORITY(PreemptPriority));
  
  prioritygroup = NVIC_GetPriorityGrouping();
 8002a60:	f7ff ff3e 	bl	80028e0 <__NVIC_GetPriorityGrouping>
 8002a64:	6178      	str	r0, [r7, #20]
  
  NVIC_SetPriority(IRQn, NVIC_EncodePriority(prioritygroup, PreemptPriority, SubPriority));
 8002a66:	687a      	ldr	r2, [r7, #4]
 8002a68:	68b9      	ldr	r1, [r7, #8]
 8002a6a:	6978      	ldr	r0, [r7, #20]
 8002a6c:	f7ff ff8e 	bl	800298c <NVIC_EncodePriority>
 8002a70:	4602      	mov	r2, r0
 8002a72:	f997 300f 	ldrsb.w	r3, [r7, #15]
 8002a76:	4611      	mov	r1, r2
 8002a78:	4618      	mov	r0, r3
 8002a7a:	f7ff ff5d 	bl	8002938 <__NVIC_SetPriority>
}
 8002a7e:	bf00      	nop
 8002a80:	3718      	adds	r7, #24
 8002a82:	46bd      	mov	sp, r7
 8002a84:	bd80      	pop	{r7, pc}

08002a86 <HAL_NVIC_EnableIRQ>:
  *         This parameter can be an enumerator of IRQn_Type enumeration
  *         (For the complete STM32 Devices IRQ Channels list, please refer to the appropriate CMSIS device file (stm32f4xxxx.h))
  * @retval None
  */
void HAL_NVIC_EnableIRQ(IRQn_Type IRQn)
{
 8002a86:	b580      	push	{r7, lr}
 8002a88:	b082      	sub	sp, #8
 8002a8a:	af00      	add	r7, sp, #0
 8002a8c:	4603      	mov	r3, r0
 8002a8e:	71fb      	strb	r3, [r7, #7]
  /* Check the parameters */
  assert_param(IS_NVIC_DEVICE_IRQ(IRQn));
  
  /* Enable interrupt */
  NVIC_EnableIRQ(IRQn);
 8002a90:	f997 3007 	ldrsb.w	r3, [r7, #7]
 8002a94:	4618      	mov	r0, r3
 8002a96:	f7ff ff31 	bl	80028fc <__NVIC_EnableIRQ>
}
 8002a9a:	bf00      	nop
 8002a9c:	3708      	adds	r7, #8
 8002a9e:	46bd      	mov	sp, r7
 8002aa0:	bd80      	pop	{r7, pc}

08002aa2 <HAL_SYSTICK_Config>:
  * @param  TicksNumb Specifies the ticks Number of ticks between two interrupts.
  * @retval status:  - 0  Function succeeded.
  *                  - 1  Function failed.
  */
uint32_t HAL_SYSTICK_Config(uint32_t TicksNumb)
{
 8002aa2:	b580      	push	{r7, lr}
 8002aa4:	b082      	sub	sp, #8
 8002aa6:	af00      	add	r7, sp, #0
 8002aa8:	6078      	str	r0, [r7, #4]
   return SysTick_Config(TicksNumb);
 8002aaa:	6878      	ldr	r0, [r7, #4]
 8002aac:	f7ff ffa2 	bl	80029f4 <SysTick_Config>
 8002ab0:	4603      	mov	r3, r0
}
 8002ab2:	4618      	mov	r0, r3
 8002ab4:	3708      	adds	r7, #8
 8002ab6:	46bd      	mov	sp, r7
 8002ab8:	bd80      	pop	{r7, pc}

08002aba <HAL_DMA_Abort>:
  *        and the Stream will be effectively disabled only after the transfer of
  *        this single data is finished.  
  * @retval HAL status
  */
HAL_StatusTypeDef HAL_DMA_Abort(DMA_HandleTypeDef *hdma)
{
 8002aba:	b580      	push	{r7, lr}
 8002abc:	b084      	sub	sp, #16
 8002abe:	af00      	add	r7, sp, #0
 8002ac0:	6078      	str	r0, [r7, #4]
  /* calculate DMA base and stream number */
  DMA_Base_Registers *regs = (DMA_Base_Registers *)hdma->StreamBaseAddress;
 8002ac2:	687b      	ldr	r3, [r7, #4]
 8002ac4:	6d9b      	ldr	r3, [r3, #88]	@ 0x58
 8002ac6:	60fb      	str	r3, [r7, #12]
  
  uint32_t tickstart = HAL_GetTick();
 8002ac8:	f7ff feb6 	bl	8002838 <HAL_GetTick>
 8002acc:	60b8      	str	r0, [r7, #8]
  
  if(hdma->State != HAL_DMA_STATE_BUSY)
 8002ace:	687b      	ldr	r3, [r7, #4]
 8002ad0:	f893 3035 	ldrb.w	r3, [r3, #53]	@ 0x35
 8002ad4:	b2db      	uxtb	r3, r3
 8002ad6:	2b02      	cmp	r3, #2
 8002ad8:	d008      	beq.n	8002aec <HAL_DMA_Abort+0x32>
  {
    hdma->ErrorCode = HAL_DMA_ERROR_NO_XFER;
 8002ada:	687b      	ldr	r3, [r7, #4]
 8002adc:	2280      	movs	r2, #128	@ 0x80
 8002ade:	655a      	str	r2, [r3, #84]	@ 0x54
    
    /* Process Unlocked */
    __HAL_UNLOCK(hdma);
 8002ae0:	687b      	ldr	r3, [r7, #4]
 8002ae2:	2200      	movs	r2, #0
 8002ae4:	f883 2034 	strb.w	r2, [r3, #52]	@ 0x34
    
    return HAL_ERROR;
 8002ae8:	2301      	movs	r3, #1
 8002aea:	e052      	b.n	8002b92 <HAL_DMA_Abort+0xd8>
  }
  else
  {
    /* Disable all the transfer interrupts */
    hdma->Instance->CR  &= ~(DMA_IT_TC | DMA_IT_TE | DMA_IT_DME);
 8002aec:	687b      	ldr	r3, [r7, #4]
 8002aee:	681b      	ldr	r3, [r3, #0]
 8002af0:	681a      	ldr	r2, [r3, #0]
 8002af2:	687b      	ldr	r3, [r7, #4]
 8002af4:	681b      	ldr	r3, [r3, #0]
 8002af6:	f022 0216 	bic.w	r2, r2, #22
 8002afa:	601a      	str	r2, [r3, #0]
    hdma->Instance->FCR &= ~(DMA_IT_FE);
 8002afc:	687b      	ldr	r3, [r7, #4]
 8002afe:	681b      	ldr	r3, [r3, #0]
 8002b00:	695a      	ldr	r2, [r3, #20]
 8002b02:	687b      	ldr	r3, [r7, #4]
 8002b04:	681b      	ldr	r3, [r3, #0]
 8002b06:	f022 0280 	bic.w	r2, r2, #128	@ 0x80
 8002b0a:	615a      	str	r2, [r3, #20]
    
    if((hdma->XferHalfCpltCallback != NULL) || (hdma->XferM1HalfCpltCallback != NULL))
 8002b0c:	687b      	ldr	r3, [r7, #4]
 8002b0e:	6c1b      	ldr	r3, [r3, #64]	@ 0x40
 8002b10:	2b00      	cmp	r3, #0
 8002b12:	d103      	bne.n	8002b1c <HAL_DMA_Abort+0x62>
 8002b14:	687b      	ldr	r3, [r7, #4]
 8002b16:	6c9b      	ldr	r3, [r3, #72]	@ 0x48
 8002b18:	2b00      	cmp	r3, #0
 8002b1a:	d007      	beq.n	8002b2c <HAL_DMA_Abort+0x72>
    {
      hdma->Instance->CR  &= ~(DMA_IT_HT);
 8002b1c:	687b      	ldr	r3, [r7, #4]
 8002b1e:	681b      	ldr	r3, [r3, #0]
 8002b20:	681a      	ldr	r2, [r3, #0]
 8002b22:	687b      	ldr	r3, [r7, #4]
 8002b24:	681b      	ldr	r3, [r3, #0]
 8002b26:	f022 0208 	bic.w	r2, r2, #8
 8002b2a:	601a      	str	r2, [r3, #0]
    }
    
    /* Disable the stream */
    __HAL_DMA_DISABLE(hdma);
 8002b2c:	687b      	ldr	r3, [r7, #4]
 8002b2e:	681b      	ldr	r3, [r3, #0]
 8002b30:	681a      	ldr	r2, [r3, #0]
 8002b32:	687b      	ldr	r3, [r7, #4]
 8002b34:	681b      	ldr	r3, [r3, #0]
 8002b36:	f022 0201 	bic.w	r2, r2, #1
 8002b3a:	601a      	str	r2, [r3, #0]
    
    /* Check if the DMA Stream is effectively disabled */
    while((hdma->Instance->CR & DMA_SxCR_EN) != RESET)
 8002b3c:	e013      	b.n	8002b66 <HAL_DMA_Abort+0xac>
    {
      /* Check for the Timeout */
      if((HAL_GetTick() - tickstart ) > HAL_TIMEOUT_DMA_ABORT)
 8002b3e:	f7ff fe7b 	bl	8002838 <HAL_GetTick>
 8002b42:	4602      	mov	r2, r0
 8002b44:	68bb      	ldr	r3, [r7, #8]
 8002b46:	1ad3      	subs	r3, r2, r3
 8002b48:	2b05      	cmp	r3, #5
 8002b4a:	d90c      	bls.n	8002b66 <HAL_DMA_Abort+0xac>
      {
        /* Update error code */
        hdma->ErrorCode = HAL_DMA_ERROR_TIMEOUT;
 8002b4c:	687b      	ldr	r3, [r7, #4]
 8002b4e:	2220      	movs	r2, #32
 8002b50:	655a      	str	r2, [r3, #84]	@ 0x54
        
        /* Change the DMA state */
        hdma->State = HAL_DMA_STATE_TIMEOUT;
 8002b52:	687b      	ldr	r3, [r7, #4]
 8002b54:	2203      	movs	r2, #3
 8002b56:	f883 2035 	strb.w	r2, [r3, #53]	@ 0x35
        
        /* Process Unlocked */
        __HAL_UNLOCK(hdma);
 8002b5a:	687b      	ldr	r3, [r7, #4]
 8002b5c:	2200      	movs	r2, #0
 8002b5e:	f883 2034 	strb.w	r2, [r3, #52]	@ 0x34
        
        return HAL_TIMEOUT;
 8002b62:	2303      	movs	r3, #3
 8002b64:	e015      	b.n	8002b92 <HAL_DMA_Abort+0xd8>
    while((hdma->Instance->CR & DMA_SxCR_EN) != RESET)
 8002b66:	687b      	ldr	r3, [r7, #4]
 8002b68:	681b      	ldr	r3, [r3, #0]
 8002b6a:	681b      	ldr	r3, [r3, #0]
 8002b6c:	f003 0301 	and.w	r3, r3, #1
 8002b70:	2b00      	cmp	r3, #0
 8002b72:	d1e4      	bne.n	8002b3e <HAL_DMA_Abort+0x84>
      }
    }
    
    /* Clear all interrupt flags at correct offset within the register */
    regs->IFCR = 0x3FU << hdma->StreamIndex;
 8002b74:	687b      	ldr	r3, [r7, #4]
 8002b76:	6ddb      	ldr	r3, [r3, #92]	@ 0x5c
 8002b78:	223f      	movs	r2, #63	@ 0x3f
 8002b7a:	409a      	lsls	r2, r3
 8002b7c:	68fb      	ldr	r3, [r7, #12]
 8002b7e:	609a      	str	r2, [r3, #8]
    
    /* Change the DMA state*/
    hdma->State = HAL_DMA_STATE_READY;
 8002b80:	687b      	ldr	r3, [r7, #4]
 8002b82:	2201      	movs	r2, #1
 8002b84:	f883 2035 	strb.w	r2, [r3, #53]	@ 0x35
    
    /* Process Unlocked */
    __HAL_UNLOCK(hdma);
 8002b88:	687b      	ldr	r3, [r7, #4]
 8002b8a:	2200      	movs	r2, #0
 8002b8c:	f883 2034 	strb.w	r2, [r3, #52]	@ 0x34
  }
  return HAL_OK;
 8002b90:	2300      	movs	r3, #0
}
 8002b92:	4618      	mov	r0, r3
 8002b94:	3710      	adds	r7, #16
 8002b96:	46bd      	mov	sp, r7
 8002b98:	bd80      	pop	{r7, pc}

08002b9a <HAL_DMA_Abort_IT>:
  * @param  hdma   pointer to a DMA_HandleTypeDef structure that contains
  *                 the configuration information for the specified DMA Stream.
  * @retval HAL status
  */
HAL_StatusTypeDef HAL_DMA_Abort_IT(DMA_HandleTypeDef *hdma)
{
 8002b9a:	b480      	push	{r7}
 8002b9c:	b083      	sub	sp, #12
 8002b9e:	af00      	add	r7, sp, #0
 8002ba0:	6078      	str	r0, [r7, #4]
  if(hdma->State != HAL_DMA_STATE_BUSY)
 8002ba2:	687b      	ldr	r3, [r7, #4]
 8002ba4:	f893 3035 	ldrb.w	r3, [r3, #53]	@ 0x35
 8002ba8:	b2db      	uxtb	r3, r3
 8002baa:	2b02      	cmp	r3, #2
 8002bac:	d004      	beq.n	8002bb8 <HAL_DMA_Abort_IT+0x1e>
  {
    hdma->ErrorCode = HAL_DMA_ERROR_NO_XFER;
 8002bae:	687b      	ldr	r3, [r7, #4]
 8002bb0:	2280      	movs	r2, #128	@ 0x80
 8002bb2:	655a      	str	r2, [r3, #84]	@ 0x54
    return HAL_ERROR;
 8002bb4:	2301      	movs	r3, #1
 8002bb6:	e00c      	b.n	8002bd2 <HAL_DMA_Abort_IT+0x38>
  }
  else
  {
    /* Set Abort State  */
    hdma->State = HAL_DMA_STATE_ABORT;
 8002bb8:	687b      	ldr	r3, [r7, #4]
 8002bba:	2205      	movs	r2, #5
 8002bbc:	f883 2035 	strb.w	r2, [r3, #53]	@ 0x35
    
    /* Disable the stream */
    __HAL_DMA_DISABLE(hdma);
 8002bc0:	687b      	ldr	r3, [r7, #4]
 8002bc2:	681b      	ldr	r3, [r3, #0]
 8002bc4:	681a      	ldr	r2, [r3, #0]
 8002bc6:	687b      	ldr	r3, [r7, #4]
 8002bc8:	681b      	ldr	r3, [r3, #0]
 8002bca:	f022 0201 	bic.w	r2, r2, #1
 8002bce:	601a      	str	r2, [r3, #0]
  }

  return HAL_OK;
 8002bd0:	2300      	movs	r3, #0
}
 8002bd2:	4618      	mov	r0, r3
 8002bd4:	370c      	adds	r7, #12
 8002bd6:	46bd      	mov	sp, r7
 8002bd8:	f85d 7b04 	ldr.w	r7, [sp], #4
 8002bdc:	4770      	bx	lr
	...

08002be0 <HAL_GPIO_Init>:
  * @param  GPIO_Init pointer to a GPIO_InitTypeDef structure that contains
  *         the configuration information for the specified GPIO peripheral.
  * @retval None
  */
void HAL_GPIO_Init(GPIO_TypeDef  *GPIOx, GPIO_InitTypeDef *GPIO_Init)
{
 8002be0:	b480      	push	{r7}
 8002be2:	b089      	sub	sp, #36	@ 0x24
 8002be4:	af00      	add	r7, sp, #0
 8002be6:	6078      	str	r0, [r7, #4]
 8002be8:	6039      	str	r1, [r7, #0]
  uint32_t position;
  uint32_t ioposition = 0x00U;
 8002bea:	2300      	movs	r3, #0
 8002bec:	617b      	str	r3, [r7, #20]
  uint32_t iocurrent = 0x00U;
 8002bee:	2300      	movs	r3, #0
 8002bf0:	613b      	str	r3, [r7, #16]
  uint32_t temp = 0x00U;
 8002bf2:	2300      	movs	r3, #0
 8002bf4:	61bb      	str	r3, [r7, #24]
  assert_param(IS_GPIO_ALL_INSTANCE(GPIOx));
  assert_param(IS_GPIO_PIN(GPIO_Init->Pin));
  assert_param(IS_GPIO_MODE(GPIO_Init->Mode));

  /* Configure the port pins */
  for(position = 0U; position < GPIO_NUMBER; position++)
 8002bf6:	2300      	movs	r3, #0
 8002bf8:	61fb      	str	r3, [r7, #28]
 8002bfa:	e159      	b.n	8002eb0 <HAL_GPIO_Init+0x2d0>
  {
    /* Get the IO position */
    ioposition = 0x01U << position;
 8002bfc:	2201      	movs	r2, #1
 8002bfe:	69fb      	ldr	r3, [r7, #28]
 8002c00:	fa02 f303 	lsl.w	r3, r2, r3
 8002c04:	617b      	str	r3, [r7, #20]
    /* Get the current IO position */
    iocurrent = (uint32_t)(GPIO_Init->Pin) & ioposition;
 8002c06:	683b      	ldr	r3, [r7, #0]
 8002c08:	681b      	ldr	r3, [r3, #0]
 8002c0a:	697a      	ldr	r2, [r7, #20]
 8002c0c:	4013      	ands	r3, r2
 8002c0e:	613b      	str	r3, [r7, #16]

    if(iocurrent == ioposition)
 8002c10:	693a      	ldr	r2, [r7, #16]
 8002c12:	697b      	ldr	r3, [r7, #20]
 8002c14:	429a      	cmp	r2, r3
 8002c16:	f040 8148 	bne.w	8002eaa <HAL_GPIO_Init+0x2ca>
    {
      /*--------------------- GPIO Mode Configuration ------------------------*/
      /* In case of Output or Alternate function mode selection */
      if(((GPIO_Init->Mode & GPIO_MODE) == MODE_OUTPUT) || \
 8002c1a:	683b      	ldr	r3, [r7, #0]
 8002c1c:	685b      	ldr	r3, [r3, #4]
 8002c1e:	f003 0303 	and.w	r3, r3, #3
 8002c22:	2b01      	cmp	r3, #1
 8002c24:	d005      	beq.n	8002c32 <HAL_GPIO_Init+0x52>
          (GPIO_Init->Mode & GPIO_MODE) == MODE_AF)
 8002c26:	683b      	ldr	r3, [r7, #0]
 8002c28:	685b      	ldr	r3, [r3, #4]
 8002c2a:	f003 0303 	and.w	r3, r3, #3
      if(((GPIO_Init->Mode & GPIO_MODE) == MODE_OUTPUT) || \
 8002c2e:	2b02      	cmp	r3, #2
 8002c30:	d130      	bne.n	8002c94 <HAL_GPIO_Init+0xb4>
      {
        /* Check the Speed parameter */
        assert_param(IS_GPIO_SPEED(GPIO_Init->Speed));
        /* Configure the IO Speed */
        temp = GPIOx->OSPEEDR; 
 8002c32:	687b      	ldr	r3, [r7, #4]
 8002c34:	689b      	ldr	r3, [r3, #8]
 8002c36:	61bb      	str	r3, [r7, #24]
        temp &= ~(GPIO_OSPEEDER_OSPEEDR0 << (position * 2U));
 8002c38:	69fb      	ldr	r3, [r7, #28]
 8002c3a:	005b      	lsls	r3, r3, #1
 8002c3c:	2203      	movs	r2, #3
 8002c3e:	fa02 f303 	lsl.w	r3, r2, r3
 8002c42:	43db      	mvns	r3, r3
 8002c44:	69ba      	ldr	r2, [r7, #24]
 8002c46:	4013      	ands	r3, r2
 8002c48:	61bb      	str	r3, [r7, #24]
        temp |= (GPIO_Init->Speed << (position * 2U));
 8002c4a:	683b      	ldr	r3, [r7, #0]
 8002c4c:	68da      	ldr	r2, [r3, #12]
 8002c4e:	69fb      	ldr	r3, [r7, #28]
 8002c50:	005b      	lsls	r3, r3, #1
 8002c52:	fa02 f303 	lsl.w	r3, r2, r3
 8002c56:	69ba      	ldr	r2, [r7, #24]
 8002c58:	4313      	orrs	r3, r2
 8002c5a:	61bb      	str	r3, [r7, #24]
        GPIOx->OSPEEDR = temp;
 8002c5c:	687b      	ldr	r3, [r7, #4]
 8002c5e:	69ba      	ldr	r2, [r7, #24]
 8002c60:	609a      	str	r2, [r3, #8]

        /* Configure the IO Output Type */
        temp = GPIOx->OTYPER;
 8002c62:	687b      	ldr	r3, [r7, #4]
 8002c64:	685b      	ldr	r3, [r3, #4]
 8002c66:	61bb      	str	r3, [r7, #24]
        temp &= ~(GPIO_OTYPER_OT_0 << position) ;
 8002c68:	2201      	movs	r2, #1
 8002c6a:	69fb      	ldr	r3, [r7, #28]
 8002c6c:	fa02 f303 	lsl.w	r3, r2, r3
 8002c70:	43db      	mvns	r3, r3
 8002c72:	69ba      	ldr	r2, [r7, #24]
 8002c74:	4013      	ands	r3, r2
 8002c76:	61bb      	str	r3, [r7, #24]
        temp |= (((GPIO_Init->Mode & OUTPUT_TYPE) >> OUTPUT_TYPE_Pos) << position);
 8002c78:	683b      	ldr	r3, [r7, #0]
 8002c7a:	685b      	ldr	r3, [r3, #4]
 8002c7c:	091b      	lsrs	r3, r3, #4
 8002c7e:	f003 0201 	and.w	r2, r3, #1
 8002c82:	69fb      	ldr	r3, [r7, #28]
 8002c84:	fa02 f303 	lsl.w	r3, r2, r3
 8002c88:	69ba      	ldr	r2, [r7, #24]
 8002c8a:	4313      	orrs	r3, r2
 8002c8c:	61bb      	str	r3, [r7, #24]
        GPIOx->OTYPER = temp;
 8002c8e:	687b      	ldr	r3, [r7, #4]
 8002c90:	69ba      	ldr	r2, [r7, #24]
 8002c92:	605a      	str	r2, [r3, #4]
       }

      if((GPIO_Init->Mode & GPIO_MODE) != MODE_ANALOG)
 8002c94:	683b      	ldr	r3, [r7, #0]
 8002c96:	685b      	ldr	r3, [r3, #4]
 8002c98:	f003 0303 	and.w	r3, r3, #3
 8002c9c:	2b03      	cmp	r3, #3
 8002c9e:	d017      	beq.n	8002cd0 <HAL_GPIO_Init+0xf0>
      {
        /* Check the parameters */
        assert_param(IS_GPIO_PULL(GPIO_Init->Pull));
        
        /* Activate the Pull-up or Pull down resistor for the current IO */
        temp = GPIOx->PUPDR;
 8002ca0:	687b      	ldr	r3, [r7, #4]
 8002ca2:	68db      	ldr	r3, [r3, #12]
 8002ca4:	61bb      	str	r3, [r7, #24]
        temp &= ~(GPIO_PUPDR_PUPDR0 << (position * 2U));
 8002ca6:	69fb      	ldr	r3, [r7, #28]
 8002ca8:	005b      	lsls	r3, r3, #1
 8002caa:	2203      	movs	r2, #3
 8002cac:	fa02 f303 	lsl.w	r3, r2, r3
 8002cb0:	43db      	mvns	r3, r3
 8002cb2:	69ba      	ldr	r2, [r7, #24]
 8002cb4:	4013      	ands	r3, r2
 8002cb6:	61bb      	str	r3, [r7, #24]
        temp |= ((GPIO_Init->Pull) << (position * 2U));
 8002cb8:	683b      	ldr	r3, [r7, #0]
 8002cba:	689a      	ldr	r2, [r3, #8]
 8002cbc:	69fb      	ldr	r3, [r7, #28]
 8002cbe:	005b      	lsls	r3, r3, #1
 8002cc0:	fa02 f303 	lsl.w	r3, r2, r3
 8002cc4:	69ba      	ldr	r2, [r7, #24]
 8002cc6:	4313      	orrs	r3, r2
 8002cc8:	61bb      	str	r3, [r7, #24]
        GPIOx->PUPDR = temp;
 8002cca:	687b      	ldr	r3, [r7, #4]
 8002ccc:	69ba      	ldr	r2, [r7, #24]
 8002cce:	60da      	str	r2, [r3, #12]
      }

      /* In case of Alternate function mode selection */
      if((GPIO_Init->Mode & GPIO_MODE) == MODE_AF)
 8002cd0:	683b      	ldr	r3, [r7, #0]
 8002cd2:	685b      	ldr	r3, [r3, #4]
 8002cd4:	f003 0303 	and.w	r3, r3, #3
 8002cd8:	2b02      	cmp	r3, #2
 8002cda:	d123      	bne.n	8002d24 <HAL_GPIO_Init+0x144>
      {
        /* Check the Alternate function parameter */
        assert_param(IS_GPIO_AF(GPIO_Init->Alternate));
        /* Configure Alternate function mapped with the current IO */
        temp = GPIOx->AFR[position >> 3U];
 8002cdc:	69fb      	ldr	r3, [r7, #28]
 8002cde:	08da      	lsrs	r2, r3, #3
 8002ce0:	687b      	ldr	r3, [r7, #4]
 8002ce2:	3208      	adds	r2, #8
 8002ce4:	f853 3022 	ldr.w	r3, [r3, r2, lsl #2]
 8002ce8:	61bb      	str	r3, [r7, #24]
        temp &= ~(0xFU << ((uint32_t)(position & 0x07U) * 4U)) ;
 8002cea:	69fb      	ldr	r3, [r7, #28]
 8002cec:	f003 0307 	and.w	r3, r3, #7
 8002cf0:	009b      	lsls	r3, r3, #2
 8002cf2:	220f      	movs	r2, #15
 8002cf4:	fa02 f303 	lsl.w	r3, r2, r3
 8002cf8:	43db      	mvns	r3, r3
 8002cfa:	69ba      	ldr	r2, [r7, #24]
 8002cfc:	4013      	ands	r3, r2
 8002cfe:	61bb      	str	r3, [r7, #24]
        temp |= ((uint32_t)(GPIO_Init->Alternate) << (((uint32_t)position & 0x07U) * 4U));
 8002d00:	683b      	ldr	r3, [r7, #0]
 8002d02:	691a      	ldr	r2, [r3, #16]
 8002d04:	69fb      	ldr	r3, [r7, #28]
 8002d06:	f003 0307 	and.w	r3, r3, #7
 8002d0a:	009b      	lsls	r3, r3, #2
 8002d0c:	fa02 f303 	lsl.w	r3, r2, r3
 8002d10:	69ba      	ldr	r2, [r7, #24]
 8002d12:	4313      	orrs	r3, r2
 8002d14:	61bb      	str	r3, [r7, #24]
        GPIOx->AFR[position >> 3U] = temp;
 8002d16:	69fb      	ldr	r3, [r7, #28]
 8002d18:	08da      	lsrs	r2, r3, #3
 8002d1a:	687b      	ldr	r3, [r7, #4]
 8002d1c:	3208      	adds	r2, #8
 8002d1e:	69b9      	ldr	r1, [r7, #24]
 8002d20:	f843 1022 	str.w	r1, [r3, r2, lsl #2]
      }

      /* Configure IO Direction mode (Input, Output, Alternate or Analog) */
      temp = GPIOx->MODER;
 8002d24:	687b      	ldr	r3, [r7, #4]
 8002d26:	681b      	ldr	r3, [r3, #0]
 8002d28:	61bb      	str	r3, [r7, #24]
      temp &= ~(GPIO_MODER_MODER0 << (position * 2U));
 8002d2a:	69fb      	ldr	r3, [r7, #28]
 8002d2c:	005b      	lsls	r3, r3, #1
 8002d2e:	2203      	movs	r2, #3
 8002d30:	fa02 f303 	lsl.w	r3, r2, r3
 8002d34:	43db      	mvns	r3, r3
 8002d36:	69ba      	ldr	r2, [r7, #24]
 8002d38:	4013      	ands	r3, r2
 8002d3a:	61bb      	str	r3, [r7, #24]
      temp |= ((GPIO_Init->Mode & GPIO_MODE) << (position * 2U));
 8002d3c:	683b      	ldr	r3, [r7, #0]
 8002d3e:	685b      	ldr	r3, [r3, #4]
 8002d40:	f003 0203 	and.w	r2, r3, #3
 8002d44:	69fb      	ldr	r3, [r7, #28]
 8002d46:	005b      	lsls	r3, r3, #1
 8002d48:	fa02 f303 	lsl.w	r3, r2, r3
 8002d4c:	69ba      	ldr	r2, [r7, #24]
 8002d4e:	4313      	orrs	r3, r2
 8002d50:	61bb      	str	r3, [r7, #24]
      GPIOx->MODER = temp;
 8002d52:	687b      	ldr	r3, [r7, #4]
 8002d54:	69ba      	ldr	r2, [r7, #24]
 8002d56:	601a      	str	r2, [r3, #0]

      /*--------------------- EXTI Mode Configuration ------------------------*/
      /* Configure the External Interrupt or event for the current IO */
      if((GPIO_Init->Mode & EXTI_MODE) != 0x00U)
 8002d58:	683b      	ldr	r3, [r7, #0]
 8002d5a:	685b      	ldr	r3, [r3, #4]
 8002d5c:	f403 3340 	and.w	r3, r3, #196608	@ 0x30000
 8002d60:	2b00      	cmp	r3, #0
 8002d62:	f000 80a2 	beq.w	8002eaa <HAL_GPIO_Init+0x2ca>
      {
        /* Enable SYSCFG Clock */
        __HAL_RCC_SYSCFG_CLK_ENABLE();
 8002d66:	2300      	movs	r3, #0
 8002d68:	60fb      	str	r3, [r7, #12]
 8002d6a:	4b57      	ldr	r3, [pc, #348]	@ (8002ec8 <HAL_GPIO_Init+0x2e8>)
 8002d6c:	6c5b      	ldr	r3, [r3, #68]	@ 0x44
 8002d6e:	4a56      	ldr	r2, [pc, #344]	@ (8002ec8 <HAL_GPIO_Init+0x2e8>)
 8002d70:	f443 4380 	orr.w	r3, r3, #16384	@ 0x4000
 8002d74:	6453      	str	r3, [r2, #68]	@ 0x44
 8002d76:	4b54      	ldr	r3, [pc, #336]	@ (8002ec8 <HAL_GPIO_Init+0x2e8>)
 8002d78:	6c5b      	ldr	r3, [r3, #68]	@ 0x44
 8002d7a:	f403 4380 	and.w	r3, r3, #16384	@ 0x4000
 8002d7e:	60fb      	str	r3, [r7, #12]
 8002d80:	68fb      	ldr	r3, [r7, #12]

        temp = SYSCFG->EXTICR[position >> 2U];
 8002d82:	4a52      	ldr	r2, [pc, #328]	@ (8002ecc <HAL_GPIO_Init+0x2ec>)
 8002d84:	69fb      	ldr	r3, [r7, #28]
 8002d86:	089b      	lsrs	r3, r3, #2
 8002d88:	3302      	adds	r3, #2
 8002d8a:	f852 3023 	ldr.w	r3, [r2, r3, lsl #2]
 8002d8e:	61bb      	str	r3, [r7, #24]
        temp &= ~(0x0FU << (4U * (position & 0x03U)));
 8002d90:	69fb      	ldr	r3, [r7, #28]
 8002d92:	f003 0303 	and.w	r3, r3, #3
 8002d96:	009b      	lsls	r3, r3, #2
 8002d98:	220f      	movs	r2, #15
 8002d9a:	fa02 f303 	lsl.w	r3, r2, r3
 8002d9e:	43db      	mvns	r3, r3
 8002da0:	69ba      	ldr	r2, [r7, #24]
 8002da2:	4013      	ands	r3, r2
 8002da4:	61bb      	str	r3, [r7, #24]
        temp |= ((uint32_t)(GPIO_GET_INDEX(GPIOx)) << (4U * (position & 0x03U)));
 8002da6:	687b      	ldr	r3, [r7, #4]
 8002da8:	4a49      	ldr	r2, [pc, #292]	@ (8002ed0 <HAL_GPIO_Init+0x2f0>)
 8002daa:	4293      	cmp	r3, r2
 8002dac:	d019      	beq.n	8002de2 <HAL_GPIO_Init+0x202>
 8002dae:	687b      	ldr	r3, [r7, #4]
 8002db0:	4a48      	ldr	r2, [pc, #288]	@ (8002ed4 <HAL_GPIO_Init+0x2f4>)
 8002db2:	4293      	cmp	r3, r2
 8002db4:	d013      	beq.n	8002dde <HAL_GPIO_Init+0x1fe>
 8002db6:	687b      	ldr	r3, [r7, #4]
 8002db8:	4a47      	ldr	r2, [pc, #284]	@ (8002ed8 <HAL_GPIO_Init+0x2f8>)
 8002dba:	4293      	cmp	r3, r2
 8002dbc:	d00d      	beq.n	8002dda <HAL_GPIO_Init+0x1fa>
 8002dbe:	687b      	ldr	r3, [r7, #4]
 8002dc0:	4a46      	ldr	r2, [pc, #280]	@ (8002edc <HAL_GPIO_Init+0x2fc>)
 8002dc2:	4293      	cmp	r3, r2
 8002dc4:	d007      	beq.n	8002dd6 <HAL_GPIO_Init+0x1f6>
 8002dc6:	687b      	ldr	r3, [r7, #4]
 8002dc8:	4a45      	ldr	r2, [pc, #276]	@ (8002ee0 <HAL_GPIO_Init+0x300>)
 8002dca:	4293      	cmp	r3, r2
 8002dcc:	d101      	bne.n	8002dd2 <HAL_GPIO_Init+0x1f2>
 8002dce:	2304      	movs	r3, #4
 8002dd0:	e008      	b.n	8002de4 <HAL_GPIO_Init+0x204>
 8002dd2:	2307      	movs	r3, #7
 8002dd4:	e006      	b.n	8002de4 <HAL_GPIO_Init+0x204>
 8002dd6:	2303      	movs	r3, #3
 8002dd8:	e004      	b.n	8002de4 <HAL_GPIO_Init+0x204>
 8002dda:	2302      	movs	r3, #2
 8002ddc:	e002      	b.n	8002de4 <HAL_GPIO_Init+0x204>
 8002dde:	2301      	movs	r3, #1
 8002de0:	e000      	b.n	8002de4 <HAL_GPIO_Init+0x204>
 8002de2:	2300      	movs	r3, #0
 8002de4:	69fa      	ldr	r2, [r7, #28]
 8002de6:	f002 0203 	and.w	r2, r2, #3
 8002dea:	0092      	lsls	r2, r2, #2
 8002dec:	4093      	lsls	r3, r2
 8002dee:	69ba      	ldr	r2, [r7, #24]
 8002df0:	4313      	orrs	r3, r2
 8002df2:	61bb      	str	r3, [r7, #24]
        SYSCFG->EXTICR[position >> 2U] = temp;
 8002df4:	4935      	ldr	r1, [pc, #212]	@ (8002ecc <HAL_GPIO_Init+0x2ec>)
 8002df6:	69fb      	ldr	r3, [r7, #28]
 8002df8:	089b      	lsrs	r3, r3, #2
 8002dfa:	3302      	adds	r3, #2
 8002dfc:	69ba      	ldr	r2, [r7, #24]
 8002dfe:	f841 2023 	str.w	r2, [r1, r3, lsl #2]

        /* Clear Rising Falling edge configuration */
        temp = EXTI->RTSR;
 8002e02:	4b38      	ldr	r3, [pc, #224]	@ (8002ee4 <HAL_GPIO_Init+0x304>)
 8002e04:	689b      	ldr	r3, [r3, #8]
 8002e06:	61bb      	str	r3, [r7, #24]
        temp &= ~((uint32_t)iocurrent);
 8002e08:	693b      	ldr	r3, [r7, #16]
 8002e0a:	43db      	mvns	r3, r3
 8002e0c:	69ba      	ldr	r2, [r7, #24]
 8002e0e:	4013      	ands	r3, r2
 8002e10:	61bb      	str	r3, [r7, #24]
        if((GPIO_Init->Mode & TRIGGER_RISING) != 0x00U)
 8002e12:	683b      	ldr	r3, [r7, #0]
 8002e14:	685b      	ldr	r3, [r3, #4]
 8002e16:	f403 1380 	and.w	r3, r3, #1048576	@ 0x100000
 8002e1a:	2b00      	cmp	r3, #0
 8002e1c:	d003      	beq.n	8002e26 <HAL_GPIO_Init+0x246>
        {
          temp |= iocurrent;
 8002e1e:	69ba      	ldr	r2, [r7, #24]
 8002e20:	693b      	ldr	r3, [r7, #16]
 8002e22:	4313      	orrs	r3, r2
 8002e24:	61bb      	str	r3, [r7, #24]
        }
        EXTI->RTSR = temp;
 8002e26:	4a2f      	ldr	r2, [pc, #188]	@ (8002ee4 <HAL_GPIO_Init+0x304>)
 8002e28:	69bb      	ldr	r3, [r7, #24]
 8002e2a:	6093      	str	r3, [r2, #8]

        temp = EXTI->FTSR;
 8002e2c:	4b2d      	ldr	r3, [pc, #180]	@ (8002ee4 <HAL_GPIO_Init+0x304>)
 8002e2e:	68db      	ldr	r3, [r3, #12]
 8002e30:	61bb      	str	r3, [r7, #24]
        temp &= ~((uint32_t)iocurrent);
 8002e32:	693b      	ldr	r3, [r7, #16]
 8002e34:	43db      	mvns	r3, r3
 8002e36:	69ba      	ldr	r2, [r7, #24]
 8002e38:	4013      	ands	r3, r2
 8002e3a:	61bb      	str	r3, [r7, #24]
        if((GPIO_Init->Mode & TRIGGER_FALLING) != 0x00U)
 8002e3c:	683b      	ldr	r3, [r7, #0]
 8002e3e:	685b      	ldr	r3, [r3, #4]
 8002e40:	f403 1300 	and.w	r3, r3, #2097152	@ 0x200000
 8002e44:	2b00      	cmp	r3, #0
 8002e46:	d003      	beq.n	8002e50 <HAL_GPIO_Init+0x270>
        {
          temp |= iocurrent;
 8002e48:	69ba      	ldr	r2, [r7, #24]
 8002e4a:	693b      	ldr	r3, [r7, #16]
 8002e4c:	4313      	orrs	r3, r2
 8002e4e:	61bb      	str	r3, [r7, #24]
        }
        EXTI->FTSR = temp;
 8002e50:	4a24      	ldr	r2, [pc, #144]	@ (8002ee4 <HAL_GPIO_Init+0x304>)
 8002e52:	69bb      	ldr	r3, [r7, #24]
 8002e54:	60d3      	str	r3, [r2, #12]

        temp = EXTI->EMR;
 8002e56:	4b23      	ldr	r3, [pc, #140]	@ (8002ee4 <HAL_GPIO_Init+0x304>)
 8002e58:	685b      	ldr	r3, [r3, #4]
 8002e5a:	61bb      	str	r3, [r7, #24]
        temp &= ~((uint32_t)iocurrent);
 8002e5c:	693b      	ldr	r3, [r7, #16]
 8002e5e:	43db      	mvns	r3, r3
 8002e60:	69ba      	ldr	r2, [r7, #24]
 8002e62:	4013      	ands	r3, r2
 8002e64:	61bb      	str	r3, [r7, #24]
        if((GPIO_Init->Mode & EXTI_EVT) != 0x00U)
 8002e66:	683b      	ldr	r3, [r7, #0]
 8002e68:	685b      	ldr	r3, [r3, #4]
 8002e6a:	f403 3300 	and.w	r3, r3, #131072	@ 0x20000
 8002e6e:	2b00      	cmp	r3, #0
 8002e70:	d003      	beq.n	8002e7a <HAL_GPIO_Init+0x29a>
        {
          temp |= iocurrent;
 8002e72:	69ba      	ldr	r2, [r7, #24]
 8002e74:	693b      	ldr	r3, [r7, #16]
 8002e76:	4313      	orrs	r3, r2
 8002e78:	61bb      	str	r3, [r7, #24]
        }
        EXTI->EMR = temp;
 8002e7a:	4a1a      	ldr	r2, [pc, #104]	@ (8002ee4 <HAL_GPIO_Init+0x304>)
 8002e7c:	69bb      	ldr	r3, [r7, #24]
 8002e7e:	6053      	str	r3, [r2, #4]

        /* Clear EXTI line configuration */
        temp = EXTI->IMR;
 8002e80:	4b18      	ldr	r3, [pc, #96]	@ (8002ee4 <HAL_GPIO_Init+0x304>)
 8002e82:	681b      	ldr	r3, [r3, #0]
 8002e84:	61bb      	str	r3, [r7, #24]
        temp &= ~((uint32_t)iocurrent);
 8002e86:	693b      	ldr	r3, [r7, #16]
 8002e88:	43db      	mvns	r3, r3
 8002e8a:	69ba      	ldr	r2, [r7, #24]
 8002e8c:	4013      	ands	r3, r2
 8002e8e:	61bb      	str	r3, [r7, #24]
        if((GPIO_Init->Mode & EXTI_IT) != 0x00U)
 8002e90:	683b      	ldr	r3, [r7, #0]
 8002e92:	685b      	ldr	r3, [r3, #4]
 8002e94:	f403 3380 	and.w	r3, r3, #65536	@ 0x10000
 8002e98:	2b00      	cmp	r3, #0
 8002e9a:	d003      	beq.n	8002ea4 <HAL_GPIO_Init+0x2c4>
        {
          temp |= iocurrent;
 8002e9c:	69ba      	ldr	r2, [r7, #24]
 8002e9e:	693b      	ldr	r3, [r7, #16]
 8002ea0:	4313      	orrs	r3, r2
 8002ea2:	61bb      	str	r3, [r7, #24]
        }
        EXTI->IMR = temp;
 8002ea4:	4a0f      	ldr	r2, [pc, #60]	@ (8002ee4 <HAL_GPIO_Init+0x304>)
 8002ea6:	69bb      	ldr	r3, [r7, #24]
 8002ea8:	6013      	str	r3, [r2, #0]
  for(position = 0U; position < GPIO_NUMBER; position++)
 8002eaa:	69fb      	ldr	r3, [r7, #28]
 8002eac:	3301      	adds	r3, #1
 8002eae:	61fb      	str	r3, [r7, #28]
 8002eb0:	69fb      	ldr	r3, [r7, #28]
 8002eb2:	2b0f      	cmp	r3, #15
 8002eb4:	f67f aea2 	bls.w	8002bfc <HAL_GPIO_Init+0x1c>
      }
    }
  }
}
 8002eb8:	bf00      	nop
 8002eba:	bf00      	nop
 8002ebc:	3724      	adds	r7, #36	@ 0x24
 8002ebe:	46bd      	mov	sp, r7
 8002ec0:	f85d 7b04 	ldr.w	r7, [sp], #4
 8002ec4:	4770      	bx	lr
 8002ec6:	bf00      	nop
 8002ec8:	40023800 	.word	0x40023800
 8002ecc:	40013800 	.word	0x40013800
 8002ed0:	40020000 	.word	0x40020000
 8002ed4:	40020400 	.word	0x40020400
 8002ed8:	40020800 	.word	0x40020800
 8002edc:	40020c00 	.word	0x40020c00
 8002ee0:	40021000 	.word	0x40021000
 8002ee4:	40013c00 	.word	0x40013c00

08002ee8 <HAL_GPIO_WritePin>:
  *            @arg GPIO_PIN_RESET: to clear the port pin
  *            @arg GPIO_PIN_SET: to set the port pin
  * @retval None
  */
void HAL_GPIO_WritePin(GPIO_TypeDef* GPIOx, uint16_t GPIO_Pin, GPIO_PinState PinState)
{
 8002ee8:	b480      	push	{r7}
 8002eea:	b083      	sub	sp, #12
 8002eec:	af00      	add	r7, sp, #0
 8002eee:	6078      	str	r0, [r7, #4]
 8002ef0:	460b      	mov	r3, r1
 8002ef2:	807b      	strh	r3, [r7, #2]
 8002ef4:	4613      	mov	r3, r2
 8002ef6:	707b      	strb	r3, [r7, #1]
  /* Check the parameters */
  assert_param(IS_GPIO_PIN(GPIO_Pin));
  assert_param(IS_GPIO_PIN_ACTION(PinState));

  if(PinState != GPIO_PIN_RESET)
 8002ef8:	787b      	ldrb	r3, [r7, #1]
 8002efa:	2b00      	cmp	r3, #0
 8002efc:	d003      	beq.n	8002f06 <HAL_GPIO_WritePin+0x1e>
  {
    GPIOx->BSRR = GPIO_Pin;
 8002efe:	887a      	ldrh	r2, [r7, #2]
 8002f00:	687b      	ldr	r3, [r7, #4]
 8002f02:	619a      	str	r2, [r3, #24]
  }
  else
  {
    GPIOx->BSRR = (uint32_t)GPIO_Pin << 16U;
  }
}
 8002f04:	e003      	b.n	8002f0e <HAL_GPIO_WritePin+0x26>
    GPIOx->BSRR = (uint32_t)GPIO_Pin << 16U;
 8002f06:	887b      	ldrh	r3, [r7, #2]
 8002f08:	041a      	lsls	r2, r3, #16
 8002f0a:	687b      	ldr	r3, [r7, #4]
 8002f0c:	619a      	str	r2, [r3, #24]
}
 8002f0e:	bf00      	nop
 8002f10:	370c      	adds	r7, #12
 8002f12:	46bd      	mov	sp, r7
 8002f14:	f85d 7b04 	ldr.w	r7, [sp], #4
 8002f18:	4770      	bx	lr

08002f1a <HAL_GPIO_TogglePin>:
  *                      x can be (A..I) to select the GPIO peripheral for STM32F40XX and STM32F427X devices.
  * @param  GPIO_Pin Specifies the pins to be toggled.
  * @retval None
  */
void HAL_GPIO_TogglePin(GPIO_TypeDef* GPIOx, uint16_t GPIO_Pin)
{
 8002f1a:	b480      	push	{r7}
 8002f1c:	b085      	sub	sp, #20
 8002f1e:	af00      	add	r7, sp, #0
 8002f20:	6078      	str	r0, [r7, #4]
 8002f22:	460b      	mov	r3, r1
 8002f24:	807b      	strh	r3, [r7, #2]

  /* Check the parameters */
  assert_param(IS_GPIO_PIN(GPIO_Pin));

  /* get current Output Data Register value */
  odr = GPIOx->ODR;
 8002f26:	687b      	ldr	r3, [r7, #4]
 8002f28:	695b      	ldr	r3, [r3, #20]
 8002f2a:	60fb      	str	r3, [r7, #12]

  /* Set selected pins that were at low level, and reset ones that were high */
  GPIOx->BSRR = ((odr & GPIO_Pin) << GPIO_NUMBER) | (~odr & GPIO_Pin);
 8002f2c:	887a      	ldrh	r2, [r7, #2]
 8002f2e:	68fb      	ldr	r3, [r7, #12]
 8002f30:	4013      	ands	r3, r2
 8002f32:	041a      	lsls	r2, r3, #16
 8002f34:	68fb      	ldr	r3, [r7, #12]
 8002f36:	43d9      	mvns	r1, r3
 8002f38:	887b      	ldrh	r3, [r7, #2]
 8002f3a:	400b      	ands	r3, r1
 8002f3c:	431a      	orrs	r2, r3
 8002f3e:	687b      	ldr	r3, [r7, #4]
 8002f40:	619a      	str	r2, [r3, #24]
}
 8002f42:	bf00      	nop
 8002f44:	3714      	adds	r7, #20
 8002f46:	46bd      	mov	sp, r7
 8002f48:	f85d 7b04 	ldr.w	r7, [sp], #4
 8002f4c:	4770      	bx	lr
	...

08002f50 <HAL_I2C_Init>:
  * @param  hi2c Pointer to a I2C_HandleTypeDef structure that contains
  *                the configuration information for the specified I2C.
  * @retval HAL status
  */
HAL_StatusTypeDef HAL_I2C_Init(I2C_HandleTypeDef *hi2c)
{
 8002f50:	b580      	push	{r7, lr}
 8002f52:	b084      	sub	sp, #16
 8002f54:	af00      	add	r7, sp, #0
 8002f56:	6078      	str	r0, [r7, #4]
  uint32_t freqrange;
  uint32_t pclk1;

  /* Check the I2C handle allocation */
  if (hi2c == NULL)
 8002f58:	687b      	ldr	r3, [r7, #4]
 8002f5a:	2b00      	cmp	r3, #0
 8002f5c:	d101      	bne.n	8002f62 <HAL_I2C_Init+0x12>
  {
    return HAL_ERROR;
 8002f5e:	2301      	movs	r3, #1
 8002f60:	e12b      	b.n	80031ba <HAL_I2C_Init+0x26a>
  assert_param(IS_I2C_DUAL_ADDRESS(hi2c->Init.DualAddressMode));
  assert_param(IS_I2C_OWN_ADDRESS2(hi2c->Init.OwnAddress2));
  assert_param(IS_I2C_GENERAL_CALL(hi2c->Init.GeneralCallMode));
  assert_param(IS_I2C_NO_STRETCH(hi2c->Init.NoStretchMode));

  if (hi2c->State == HAL_I2C_STATE_RESET)
 8002f62:	687b      	ldr	r3, [r7, #4]
 8002f64:	f893 303d 	ldrb.w	r3, [r3, #61]	@ 0x3d
 8002f68:	b2db      	uxtb	r3, r3
 8002f6a:	2b00      	cmp	r3, #0
 8002f6c:	d106      	bne.n	8002f7c <HAL_I2C_Init+0x2c>
  {
    /* Allocate lock resource and initialize it */
    hi2c->Lock = HAL_UNLOCKED;
 8002f6e:	687b      	ldr	r3, [r7, #4]
 8002f70:	2200      	movs	r2, #0
 8002f72:	f883 203c 	strb.w	r2, [r3, #60]	@ 0x3c

    /* Init the low level hardware : GPIO, CLOCK, NVIC */
    hi2c->MspInitCallback(hi2c);
#else
    /* Init the low level hardware : GPIO, CLOCK, NVIC */
    HAL_I2C_MspInit(hi2c);
 8002f76:	6878      	ldr	r0, [r7, #4]
 8002f78:	f7ff fa0c 	bl	8002394 <HAL_I2C_MspInit>
#endif /* USE_HAL_I2C_REGISTER_CALLBACKS */
  }

  hi2c->State = HAL_I2C_STATE_BUSY;
 8002f7c:	687b      	ldr	r3, [r7, #4]
 8002f7e:	2224      	movs	r2, #36	@ 0x24
 8002f80:	f883 203d 	strb.w	r2, [r3, #61]	@ 0x3d

  /* Disable the selected I2C peripheral */
  __HAL_I2C_DISABLE(hi2c);
 8002f84:	687b      	ldr	r3, [r7, #4]
 8002f86:	681b      	ldr	r3, [r3, #0]
 8002f88:	681a      	ldr	r2, [r3, #0]
 8002f8a:	687b      	ldr	r3, [r7, #4]
 8002f8c:	681b      	ldr	r3, [r3, #0]
 8002f8e:	f022 0201 	bic.w	r2, r2, #1
 8002f92:	601a      	str	r2, [r3, #0]

  /*Reset I2C*/
  hi2c->Instance->CR1 |= I2C_CR1_SWRST;
 8002f94:	687b      	ldr	r3, [r7, #4]
 8002f96:	681b      	ldr	r3, [r3, #0]
 8002f98:	681a      	ldr	r2, [r3, #0]
 8002f9a:	687b      	ldr	r3, [r7, #4]
 8002f9c:	681b      	ldr	r3, [r3, #0]
 8002f9e:	f442 4200 	orr.w	r2, r2, #32768	@ 0x8000
 8002fa2:	601a      	str	r2, [r3, #0]
  hi2c->Instance->CR1 &= ~I2C_CR1_SWRST;
 8002fa4:	687b      	ldr	r3, [r7, #4]
 8002fa6:	681b      	ldr	r3, [r3, #0]
 8002fa8:	681a      	ldr	r2, [r3, #0]
 8002faa:	687b      	ldr	r3, [r7, #4]
 8002fac:	681b      	ldr	r3, [r3, #0]
 8002fae:	f422 4200 	bic.w	r2, r2, #32768	@ 0x8000
 8002fb2:	601a      	str	r2, [r3, #0]

  /* Get PCLK1 frequency */
  pclk1 = HAL_RCC_GetPCLK1Freq();
 8002fb4:	f001 fc20 	bl	80047f8 <HAL_RCC_GetPCLK1Freq>
 8002fb8:	60f8      	str	r0, [r7, #12]

  /* Check the minimum allowed PCLK1 frequency */
  if (I2C_MIN_PCLK_FREQ(pclk1, hi2c->Init.ClockSpeed) == 1U)
 8002fba:	687b      	ldr	r3, [r7, #4]
 8002fbc:	685b      	ldr	r3, [r3, #4]
 8002fbe:	4a81      	ldr	r2, [pc, #516]	@ (80031c4 <HAL_I2C_Init+0x274>)
 8002fc0:	4293      	cmp	r3, r2
 8002fc2:	d807      	bhi.n	8002fd4 <HAL_I2C_Init+0x84>
 8002fc4:	68fb      	ldr	r3, [r7, #12]
 8002fc6:	4a80      	ldr	r2, [pc, #512]	@ (80031c8 <HAL_I2C_Init+0x278>)
 8002fc8:	4293      	cmp	r3, r2
 8002fca:	bf94      	ite	ls
 8002fcc:	2301      	movls	r3, #1
 8002fce:	2300      	movhi	r3, #0
 8002fd0:	b2db      	uxtb	r3, r3
 8002fd2:	e006      	b.n	8002fe2 <HAL_I2C_Init+0x92>
 8002fd4:	68fb      	ldr	r3, [r7, #12]
 8002fd6:	4a7d      	ldr	r2, [pc, #500]	@ (80031cc <HAL_I2C_Init+0x27c>)
 8002fd8:	4293      	cmp	r3, r2
 8002fda:	bf94      	ite	ls
 8002fdc:	2301      	movls	r3, #1
 8002fde:	2300      	movhi	r3, #0
 8002fe0:	b2db      	uxtb	r3, r3
 8002fe2:	2b00      	cmp	r3, #0
 8002fe4:	d001      	beq.n	8002fea <HAL_I2C_Init+0x9a>
  {
    return HAL_ERROR;
 8002fe6:	2301      	movs	r3, #1
 8002fe8:	e0e7      	b.n	80031ba <HAL_I2C_Init+0x26a>
  }

  /* Calculate frequency range */
  freqrange = I2C_FREQRANGE(pclk1);
 8002fea:	68fb      	ldr	r3, [r7, #12]
 8002fec:	4a78      	ldr	r2, [pc, #480]	@ (80031d0 <HAL_I2C_Init+0x280>)
 8002fee:	fba2 2303 	umull	r2, r3, r2, r3
 8002ff2:	0c9b      	lsrs	r3, r3, #18
 8002ff4:	60bb      	str	r3, [r7, #8]

  /*---------------------------- I2Cx CR2 Configuration ----------------------*/
  /* Configure I2Cx: Frequency range */
  MODIFY_REG(hi2c->Instance->CR2, I2C_CR2_FREQ, freqrange);
 8002ff6:	687b      	ldr	r3, [r7, #4]
 8002ff8:	681b      	ldr	r3, [r3, #0]
 8002ffa:	685b      	ldr	r3, [r3, #4]
 8002ffc:	f023 013f 	bic.w	r1, r3, #63	@ 0x3f
 8003000:	687b      	ldr	r3, [r7, #4]
 8003002:	681b      	ldr	r3, [r3, #0]
 8003004:	68ba      	ldr	r2, [r7, #8]
 8003006:	430a      	orrs	r2, r1
 8003008:	605a      	str	r2, [r3, #4]

  /*---------------------------- I2Cx TRISE Configuration --------------------*/
  /* Configure I2Cx: Rise Time */
  MODIFY_REG(hi2c->Instance->TRISE, I2C_TRISE_TRISE, I2C_RISE_TIME(freqrange, hi2c->Init.ClockSpeed));
 800300a:	687b      	ldr	r3, [r7, #4]
 800300c:	681b      	ldr	r3, [r3, #0]
 800300e:	6a1b      	ldr	r3, [r3, #32]
 8003010:	f023 013f 	bic.w	r1, r3, #63	@ 0x3f
 8003014:	687b      	ldr	r3, [r7, #4]
 8003016:	685b      	ldr	r3, [r3, #4]
 8003018:	4a6a      	ldr	r2, [pc, #424]	@ (80031c4 <HAL_I2C_Init+0x274>)
 800301a:	4293      	cmp	r3, r2
 800301c:	d802      	bhi.n	8003024 <HAL_I2C_Init+0xd4>
 800301e:	68bb      	ldr	r3, [r7, #8]
 8003020:	3301      	adds	r3, #1
 8003022:	e009      	b.n	8003038 <HAL_I2C_Init+0xe8>
 8003024:	68bb      	ldr	r3, [r7, #8]
 8003026:	f44f 7296 	mov.w	r2, #300	@ 0x12c
 800302a:	fb02 f303 	mul.w	r3, r2, r3
 800302e:	4a69      	ldr	r2, [pc, #420]	@ (80031d4 <HAL_I2C_Init+0x284>)
 8003030:	fba2 2303 	umull	r2, r3, r2, r3
 8003034:	099b      	lsrs	r3, r3, #6
 8003036:	3301      	adds	r3, #1
 8003038:	687a      	ldr	r2, [r7, #4]
 800303a:	6812      	ldr	r2, [r2, #0]
 800303c:	430b      	orrs	r3, r1
 800303e:	6213      	str	r3, [r2, #32]

  /*---------------------------- I2Cx CCR Configuration ----------------------*/
  /* Configure I2Cx: Speed */
  MODIFY_REG(hi2c->Instance->CCR, (I2C_CCR_FS | I2C_CCR_DUTY | I2C_CCR_CCR), I2C_SPEED(pclk1, hi2c->Init.ClockSpeed, hi2c->Init.DutyCycle));
 8003040:	687b      	ldr	r3, [r7, #4]
 8003042:	681b      	ldr	r3, [r3, #0]
 8003044:	69db      	ldr	r3, [r3, #28]
 8003046:	f423 424f 	bic.w	r2, r3, #52992	@ 0xcf00
 800304a:	f022 02ff 	bic.w	r2, r2, #255	@ 0xff
 800304e:	687b      	ldr	r3, [r7, #4]
 8003050:	685b      	ldr	r3, [r3, #4]
 8003052:	495c      	ldr	r1, [pc, #368]	@ (80031c4 <HAL_I2C_Init+0x274>)
 8003054:	428b      	cmp	r3, r1
 8003056:	d819      	bhi.n	800308c <HAL_I2C_Init+0x13c>
 8003058:	68fb      	ldr	r3, [r7, #12]
 800305a:	1e59      	subs	r1, r3, #1
 800305c:	687b      	ldr	r3, [r7, #4]
 800305e:	685b      	ldr	r3, [r3, #4]
 8003060:	005b      	lsls	r3, r3, #1
 8003062:	fbb1 f3f3 	udiv	r3, r1, r3
 8003066:	1c59      	adds	r1, r3, #1
 8003068:	f640 73fc 	movw	r3, #4092	@ 0xffc
 800306c:	400b      	ands	r3, r1
 800306e:	2b00      	cmp	r3, #0
 8003070:	d00a      	beq.n	8003088 <HAL_I2C_Init+0x138>
 8003072:	68fb      	ldr	r3, [r7, #12]
 8003074:	1e59      	subs	r1, r3, #1
 8003076:	687b      	ldr	r3, [r7, #4]
 8003078:	685b      	ldr	r3, [r3, #4]
 800307a:	005b      	lsls	r3, r3, #1
 800307c:	fbb1 f3f3 	udiv	r3, r1, r3
 8003080:	3301      	adds	r3, #1
 8003082:	f3c3 030b 	ubfx	r3, r3, #0, #12
 8003086:	e051      	b.n	800312c <HAL_I2C_Init+0x1dc>
 8003088:	2304      	movs	r3, #4
 800308a:	e04f      	b.n	800312c <HAL_I2C_Init+0x1dc>
 800308c:	687b      	ldr	r3, [r7, #4]
 800308e:	689b      	ldr	r3, [r3, #8]
 8003090:	2b00      	cmp	r3, #0
 8003092:	d111      	bne.n	80030b8 <HAL_I2C_Init+0x168>
 8003094:	68fb      	ldr	r3, [r7, #12]
 8003096:	1e58      	subs	r0, r3, #1
 8003098:	687b      	ldr	r3, [r7, #4]
 800309a:	6859      	ldr	r1, [r3, #4]
 800309c:	460b      	mov	r3, r1
 800309e:	005b      	lsls	r3, r3, #1
 80030a0:	440b      	add	r3, r1
 80030a2:	fbb0 f3f3 	udiv	r3, r0, r3
 80030a6:	3301      	adds	r3, #1
 80030a8:	f3c3 030b 	ubfx	r3, r3, #0, #12
 80030ac:	2b00      	cmp	r3, #0
 80030ae:	bf0c      	ite	eq
 80030b0:	2301      	moveq	r3, #1
 80030b2:	2300      	movne	r3, #0
 80030b4:	b2db      	uxtb	r3, r3
 80030b6:	e012      	b.n	80030de <HAL_I2C_Init+0x18e>
 80030b8:	68fb      	ldr	r3, [r7, #12]
 80030ba:	1e58      	subs	r0, r3, #1
 80030bc:	687b      	ldr	r3, [r7, #4]
 80030be:	6859      	ldr	r1, [r3, #4]
 80030c0:	460b      	mov	r3, r1
 80030c2:	009b      	lsls	r3, r3, #2
 80030c4:	440b      	add	r3, r1
 80030c6:	0099      	lsls	r1, r3, #2
 80030c8:	440b      	add	r3, r1
 80030ca:	fbb0 f3f3 	udiv	r3, r0, r3
 80030ce:	3301      	adds	r3, #1
 80030d0:	f3c3 030b 	ubfx	r3, r3, #0, #12
 80030d4:	2b00      	cmp	r3, #0
 80030d6:	bf0c      	ite	eq
 80030d8:	2301      	moveq	r3, #1
 80030da:	2300      	movne	r3, #0
 80030dc:	b2db      	uxtb	r3, r3
 80030de:	2b00      	cmp	r3, #0
 80030e0:	d001      	beq.n	80030e6 <HAL_I2C_Init+0x196>
 80030e2:	2301      	movs	r3, #1
 80030e4:	e022      	b.n	800312c <HAL_I2C_Init+0x1dc>
 80030e6:	687b      	ldr	r3, [r7, #4]
 80030e8:	689b      	ldr	r3, [r3, #8]
 80030ea:	2b00      	cmp	r3, #0
 80030ec:	d10e      	bne.n	800310c <HAL_I2C_Init+0x1bc>
 80030ee:	68fb      	ldr	r3, [r7, #12]
 80030f0:	1e58      	subs	r0, r3, #1
 80030f2:	687b      	ldr	r3, [r7, #4]
 80030f4:	6859      	ldr	r1, [r3, #4]
 80030f6:	460b      	mov	r3, r1
 80030f8:	005b      	lsls	r3, r3, #1
 80030fa:	440b      	add	r3, r1
 80030fc:	fbb0 f3f3 	udiv	r3, r0, r3
 8003100:	3301      	adds	r3, #1
 8003102:	f3c3 030b 	ubfx	r3, r3, #0, #12
 8003106:	f443 4300 	orr.w	r3, r3, #32768	@ 0x8000
 800310a:	e00f      	b.n	800312c <HAL_I2C_Init+0x1dc>
 800310c:	68fb      	ldr	r3, [r7, #12]
 800310e:	1e58      	subs	r0, r3, #1
 8003110:	687b      	ldr	r3, [r7, #4]
 8003112:	6859      	ldr	r1, [r3, #4]
 8003114:	460b      	mov	r3, r1
 8003116:	009b      	lsls	r3, r3, #2
 8003118:	440b      	add	r3, r1
 800311a:	0099      	lsls	r1, r3, #2
 800311c:	440b      	add	r3, r1
 800311e:	fbb0 f3f3 	udiv	r3, r0, r3
 8003122:	3301      	adds	r3, #1
 8003124:	f3c3 030b 	ubfx	r3, r3, #0, #12
 8003128:	f443 4340 	orr.w	r3, r3, #49152	@ 0xc000
 800312c:	6879      	ldr	r1, [r7, #4]
 800312e:	6809      	ldr	r1, [r1, #0]
 8003130:	4313      	orrs	r3, r2
 8003132:	61cb      	str	r3, [r1, #28]

  /*---------------------------- I2Cx CR1 Configuration ----------------------*/
  /* Configure I2Cx: Generalcall and NoStretch mode */
  MODIFY_REG(hi2c->Instance->CR1, (I2C_CR1_ENGC | I2C_CR1_NOSTRETCH), (hi2c->Init.GeneralCallMode | hi2c->Init.NoStretchMode));
 8003134:	687b      	ldr	r3, [r7, #4]
 8003136:	681b      	ldr	r3, [r3, #0]
 8003138:	681b      	ldr	r3, [r3, #0]
 800313a:	f023 01c0 	bic.w	r1, r3, #192	@ 0xc0
 800313e:	687b      	ldr	r3, [r7, #4]
 8003140:	69da      	ldr	r2, [r3, #28]
 8003142:	687b      	ldr	r3, [r7, #4]
 8003144:	6a1b      	ldr	r3, [r3, #32]
 8003146:	431a      	orrs	r2, r3
 8003148:	687b      	ldr	r3, [r7, #4]
 800314a:	681b      	ldr	r3, [r3, #0]
 800314c:	430a      	orrs	r2, r1
 800314e:	601a      	str	r2, [r3, #0]

  /*---------------------------- I2Cx OAR1 Configuration ---------------------*/
  /* Configure I2Cx: Own Address1 and addressing mode */
  MODIFY_REG(hi2c->Instance->OAR1, (I2C_OAR1_ADDMODE | I2C_OAR1_ADD8_9 | I2C_OAR1_ADD1_7 | I2C_OAR1_ADD0), (hi2c->Init.AddressingMode | hi2c->Init.OwnAddress1));
 8003150:	687b      	ldr	r3, [r7, #4]
 8003152:	681b      	ldr	r3, [r3, #0]
 8003154:	689b      	ldr	r3, [r3, #8]
 8003156:	f423 4303 	bic.w	r3, r3, #33536	@ 0x8300
 800315a:	f023 03ff 	bic.w	r3, r3, #255	@ 0xff
 800315e:	687a      	ldr	r2, [r7, #4]
 8003160:	6911      	ldr	r1, [r2, #16]
 8003162:	687a      	ldr	r2, [r7, #4]
 8003164:	68d2      	ldr	r2, [r2, #12]
 8003166:	4311      	orrs	r1, r2
 8003168:	687a      	ldr	r2, [r7, #4]
 800316a:	6812      	ldr	r2, [r2, #0]
 800316c:	430b      	orrs	r3, r1
 800316e:	6093      	str	r3, [r2, #8]

  /*---------------------------- I2Cx OAR2 Configuration ---------------------*/
  /* Configure I2Cx: Dual mode and Own Address2 */
  MODIFY_REG(hi2c->Instance->OAR2, (I2C_OAR2_ENDUAL | I2C_OAR2_ADD2), (hi2c->Init.DualAddressMode | hi2c->Init.OwnAddress2));
 8003170:	687b      	ldr	r3, [r7, #4]
 8003172:	681b      	ldr	r3, [r3, #0]
 8003174:	68db      	ldr	r3, [r3, #12]
 8003176:	f023 01ff 	bic.w	r1, r3, #255	@ 0xff
 800317a:	687b      	ldr	r3, [r7, #4]
 800317c:	695a      	ldr	r2, [r3, #20]
 800317e:	687b      	ldr	r3, [r7, #4]
 8003180:	699b      	ldr	r3, [r3, #24]
 8003182:	431a      	orrs	r2, r3
 8003184:	687b      	ldr	r3, [r7, #4]
 8003186:	681b      	ldr	r3, [r3, #0]
 8003188:	430a      	orrs	r2, r1
 800318a:	60da      	str	r2, [r3, #12]

  /* Enable the selected I2C peripheral */
  __HAL_I2C_ENABLE(hi2c);
 800318c:	687b      	ldr	r3, [r7, #4]
 800318e:	681b      	ldr	r3, [r3, #0]
 8003190:	681a      	ldr	r2, [r3, #0]
 8003192:	687b      	ldr	r3, [r7, #4]
 8003194:	681b      	ldr	r3, [r3, #0]
 8003196:	f042 0201 	orr.w	r2, r2, #1
 800319a:	601a      	str	r2, [r3, #0]

  hi2c->ErrorCode = HAL_I2C_ERROR_NONE;
 800319c:	687b      	ldr	r3, [r7, #4]
 800319e:	2200      	movs	r2, #0
 80031a0:	641a      	str	r2, [r3, #64]	@ 0x40
  hi2c->State = HAL_I2C_STATE_READY;
 80031a2:	687b      	ldr	r3, [r7, #4]
 80031a4:	2220      	movs	r2, #32
 80031a6:	f883 203d 	strb.w	r2, [r3, #61]	@ 0x3d
  hi2c->PreviousState = I2C_STATE_NONE;
 80031aa:	687b      	ldr	r3, [r7, #4]
 80031ac:	2200      	movs	r2, #0
 80031ae:	631a      	str	r2, [r3, #48]	@ 0x30
  hi2c->Mode = HAL_I2C_MODE_NONE;
 80031b0:	687b      	ldr	r3, [r7, #4]
 80031b2:	2200      	movs	r2, #0
 80031b4:	f883 203e 	strb.w	r2, [r3, #62]	@ 0x3e

  return HAL_OK;
 80031b8:	2300      	movs	r3, #0
}
 80031ba:	4618      	mov	r0, r3
 80031bc:	3710      	adds	r7, #16
 80031be:	46bd      	mov	sp, r7
 80031c0:	bd80      	pop	{r7, pc}
 80031c2:	bf00      	nop
 80031c4:	000186a0 	.word	0x000186a0
 80031c8:	001e847f 	.word	0x001e847f
 80031cc:	003d08ff 	.word	0x003d08ff
 80031d0:	431bde83 	.word	0x431bde83
 80031d4:	10624dd3 	.word	0x10624dd3

080031d8 <HAL_I2C_Mem_Write>:
  * @param  Size Amount of data to be sent
  * @param  Timeout Timeout duration
  * @retval HAL status
  */
HAL_StatusTypeDef HAL_I2C_Mem_Write(I2C_HandleTypeDef *hi2c, uint16_t DevAddress, uint16_t MemAddress, uint16_t MemAddSize, uint8_t *pData, uint16_t Size, uint32_t Timeout)
{
 80031d8:	b580      	push	{r7, lr}
 80031da:	b088      	sub	sp, #32
 80031dc:	af02      	add	r7, sp, #8
 80031de:	60f8      	str	r0, [r7, #12]
 80031e0:	4608      	mov	r0, r1
 80031e2:	4611      	mov	r1, r2
 80031e4:	461a      	mov	r2, r3
 80031e6:	4603      	mov	r3, r0
 80031e8:	817b      	strh	r3, [r7, #10]
 80031ea:	460b      	mov	r3, r1
 80031ec:	813b      	strh	r3, [r7, #8]
 80031ee:	4613      	mov	r3, r2
 80031f0:	80fb      	strh	r3, [r7, #6]
  /* Init tickstart for timeout management*/
  uint32_t tickstart = HAL_GetTick();
 80031f2:	f7ff fb21 	bl	8002838 <HAL_GetTick>
 80031f6:	6178      	str	r0, [r7, #20]

  /* Check the parameters */
  assert_param(IS_I2C_MEMADD_SIZE(MemAddSize));

  if (hi2c->State == HAL_I2C_STATE_READY)
 80031f8:	68fb      	ldr	r3, [r7, #12]
 80031fa:	f893 303d 	ldrb.w	r3, [r3, #61]	@ 0x3d
 80031fe:	b2db      	uxtb	r3, r3
 8003200:	2b20      	cmp	r3, #32
 8003202:	f040 80d9 	bne.w	80033b8 <HAL_I2C_Mem_Write+0x1e0>
  {
    /* Wait until BUSY flag is reset */
    if (I2C_WaitOnFlagUntilTimeout(hi2c, I2C_FLAG_BUSY, SET, I2C_TIMEOUT_BUSY_FLAG, tickstart) != HAL_OK)
 8003206:	697b      	ldr	r3, [r7, #20]
 8003208:	9300      	str	r3, [sp, #0]
 800320a:	2319      	movs	r3, #25
 800320c:	2201      	movs	r2, #1
 800320e:	496d      	ldr	r1, [pc, #436]	@ (80033c4 <HAL_I2C_Mem_Write+0x1ec>)
 8003210:	68f8      	ldr	r0, [r7, #12]
 8003212:	f000 fc8b 	bl	8003b2c <I2C_WaitOnFlagUntilTimeout>
 8003216:	4603      	mov	r3, r0
 8003218:	2b00      	cmp	r3, #0
 800321a:	d001      	beq.n	8003220 <HAL_I2C_Mem_Write+0x48>
    {
      return HAL_BUSY;
 800321c:	2302      	movs	r3, #2
 800321e:	e0cc      	b.n	80033ba <HAL_I2C_Mem_Write+0x1e2>
    }

    /* Process Locked */
    __HAL_LOCK(hi2c);
 8003220:	68fb      	ldr	r3, [r7, #12]
 8003222:	f893 303c 	ldrb.w	r3, [r3, #60]	@ 0x3c
 8003226:	2b01      	cmp	r3, #1
 8003228:	d101      	bne.n	800322e <HAL_I2C_Mem_Write+0x56>
 800322a:	2302      	movs	r3, #2
 800322c:	e0c5      	b.n	80033ba <HAL_I2C_Mem_Write+0x1e2>
 800322e:	68fb      	ldr	r3, [r7, #12]
 8003230:	2201      	movs	r2, #1
 8003232:	f883 203c 	strb.w	r2, [r3, #60]	@ 0x3c

    /* Check if the I2C is already enabled */
    if ((hi2c->Instance->CR1 & I2C_CR1_PE) != I2C_CR1_PE)
 8003236:	68fb      	ldr	r3, [r7, #12]
 8003238:	681b      	ldr	r3, [r3, #0]
 800323a:	681b      	ldr	r3, [r3, #0]
 800323c:	f003 0301 	and.w	r3, r3, #1
 8003240:	2b01      	cmp	r3, #1
 8003242:	d007      	beq.n	8003254 <HAL_I2C_Mem_Write+0x7c>
    {
      /* Enable I2C peripheral */
      __HAL_I2C_ENABLE(hi2c);
 8003244:	68fb      	ldr	r3, [r7, #12]
 8003246:	681b      	ldr	r3, [r3, #0]
 8003248:	681a      	ldr	r2, [r3, #0]
 800324a:	68fb      	ldr	r3, [r7, #12]
 800324c:	681b      	ldr	r3, [r3, #0]
 800324e:	f042 0201 	orr.w	r2, r2, #1
 8003252:	601a      	str	r2, [r3, #0]
    }

    /* Disable Pos */
    CLEAR_BIT(hi2c->Instance->CR1, I2C_CR1_POS);
 8003254:	68fb      	ldr	r3, [r7, #12]
 8003256:	681b      	ldr	r3, [r3, #0]
 8003258:	681a      	ldr	r2, [r3, #0]
 800325a:	68fb      	ldr	r3, [r7, #12]
 800325c:	681b      	ldr	r3, [r3, #0]
 800325e:	f422 6200 	bic.w	r2, r2, #2048	@ 0x800
 8003262:	601a      	str	r2, [r3, #0]

    hi2c->State     = HAL_I2C_STATE_BUSY_TX;
 8003264:	68fb      	ldr	r3, [r7, #12]
 8003266:	2221      	movs	r2, #33	@ 0x21
 8003268:	f883 203d 	strb.w	r2, [r3, #61]	@ 0x3d
    hi2c->Mode      = HAL_I2C_MODE_MEM;
 800326c:	68fb      	ldr	r3, [r7, #12]
 800326e:	2240      	movs	r2, #64	@ 0x40
 8003270:	f883 203e 	strb.w	r2, [r3, #62]	@ 0x3e
    hi2c->ErrorCode = HAL_I2C_ERROR_NONE;
 8003274:	68fb      	ldr	r3, [r7, #12]
 8003276:	2200      	movs	r2, #0
 8003278:	641a      	str	r2, [r3, #64]	@ 0x40

    /* Prepare transfer parameters */
    hi2c->pBuffPtr    = pData;
 800327a:	68fb      	ldr	r3, [r7, #12]
 800327c:	6a3a      	ldr	r2, [r7, #32]
 800327e:	625a      	str	r2, [r3, #36]	@ 0x24
    hi2c->XferCount   = Size;
 8003280:	68fb      	ldr	r3, [r7, #12]
 8003282:	8cba      	ldrh	r2, [r7, #36]	@ 0x24
 8003284:	855a      	strh	r2, [r3, #42]	@ 0x2a
    hi2c->XferSize    = hi2c->XferCount;
 8003286:	68fb      	ldr	r3, [r7, #12]
 8003288:	8d5b      	ldrh	r3, [r3, #42]	@ 0x2a
 800328a:	b29a      	uxth	r2, r3
 800328c:	68fb      	ldr	r3, [r7, #12]
 800328e:	851a      	strh	r2, [r3, #40]	@ 0x28
    hi2c->XferOptions = I2C_NO_OPTION_FRAME;
 8003290:	68fb      	ldr	r3, [r7, #12]
 8003292:	4a4d      	ldr	r2, [pc, #308]	@ (80033c8 <HAL_I2C_Mem_Write+0x1f0>)
 8003294:	62da      	str	r2, [r3, #44]	@ 0x2c

    /* Send Slave Address and Memory Address */
    if (I2C_RequestMemoryWrite(hi2c, DevAddress, MemAddress, MemAddSize, Timeout, tickstart) != HAL_OK)
 8003296:	88f8      	ldrh	r0, [r7, #6]
 8003298:	893a      	ldrh	r2, [r7, #8]
 800329a:	8979      	ldrh	r1, [r7, #10]
 800329c:	697b      	ldr	r3, [r7, #20]
 800329e:	9301      	str	r3, [sp, #4]
 80032a0:	6abb      	ldr	r3, [r7, #40]	@ 0x28
 80032a2:	9300      	str	r3, [sp, #0]
 80032a4:	4603      	mov	r3, r0
 80032a6:	68f8      	ldr	r0, [r7, #12]
 80032a8:	f000 fac2 	bl	8003830 <I2C_RequestMemoryWrite>
 80032ac:	4603      	mov	r3, r0
 80032ae:	2b00      	cmp	r3, #0
 80032b0:	d052      	beq.n	8003358 <HAL_I2C_Mem_Write+0x180>
    {
      return HAL_ERROR;
 80032b2:	2301      	movs	r3, #1
 80032b4:	e081      	b.n	80033ba <HAL_I2C_Mem_Write+0x1e2>
    }

    while (hi2c->XferSize > 0U)
    {
      /* Wait until TXE flag is set */
      if (I2C_WaitOnTXEFlagUntilTimeout(hi2c, Timeout, tickstart) != HAL_OK)
 80032b6:	697a      	ldr	r2, [r7, #20]
 80032b8:	6ab9      	ldr	r1, [r7, #40]	@ 0x28
 80032ba:	68f8      	ldr	r0, [r7, #12]
 80032bc:	f000 fd50 	bl	8003d60 <I2C_WaitOnTXEFlagUntilTimeout>
 80032c0:	4603      	mov	r3, r0
 80032c2:	2b00      	cmp	r3, #0
 80032c4:	d00d      	beq.n	80032e2 <HAL_I2C_Mem_Write+0x10a>
      {
        if (hi2c->ErrorCode == HAL_I2C_ERROR_AF)
 80032c6:	68fb      	ldr	r3, [r7, #12]
 80032c8:	6c1b      	ldr	r3, [r3, #64]	@ 0x40
 80032ca:	2b04      	cmp	r3, #4
 80032cc:	d107      	bne.n	80032de <HAL_I2C_Mem_Write+0x106>
        {
          /* Generate Stop */
          SET_BIT(hi2c->Instance->CR1, I2C_CR1_STOP);
 80032ce:	68fb      	ldr	r3, [r7, #12]
 80032d0:	681b      	ldr	r3, [r3, #0]
 80032d2:	681a      	ldr	r2, [r3, #0]
 80032d4:	68fb      	ldr	r3, [r7, #12]
 80032d6:	681b      	ldr	r3, [r3, #0]
 80032d8:	f442 7200 	orr.w	r2, r2, #512	@ 0x200
 80032dc:	601a      	str	r2, [r3, #0]
        }
        return HAL_ERROR;
 80032de:	2301      	movs	r3, #1
 80032e0:	e06b      	b.n	80033ba <HAL_I2C_Mem_Write+0x1e2>
      }

      /* Write data to DR */
      hi2c->Instance->DR = *hi2c->pBuffPtr;
 80032e2:	68fb      	ldr	r3, [r7, #12]
 80032e4:	6a5b      	ldr	r3, [r3, #36]	@ 0x24
 80032e6:	781a      	ldrb	r2, [r3, #0]
 80032e8:	68fb      	ldr	r3, [r7, #12]
 80032ea:	681b      	ldr	r3, [r3, #0]
 80032ec:	611a      	str	r2, [r3, #16]

      /* Increment Buffer pointer */
      hi2c->pBuffPtr++;
 80032ee:	68fb      	ldr	r3, [r7, #12]
 80032f0:	6a5b      	ldr	r3, [r3, #36]	@ 0x24
 80032f2:	1c5a      	adds	r2, r3, #1
 80032f4:	68fb      	ldr	r3, [r7, #12]
 80032f6:	625a      	str	r2, [r3, #36]	@ 0x24

      /* Update counter */
      hi2c->XferSize--;
 80032f8:	68fb      	ldr	r3, [r7, #12]
 80032fa:	8d1b      	ldrh	r3, [r3, #40]	@ 0x28
 80032fc:	3b01      	subs	r3, #1
 80032fe:	b29a      	uxth	r2, r3
 8003300:	68fb      	ldr	r3, [r7, #12]
 8003302:	851a      	strh	r2, [r3, #40]	@ 0x28
      hi2c->XferCount--;
 8003304:	68fb      	ldr	r3, [r7, #12]
 8003306:	8d5b      	ldrh	r3, [r3, #42]	@ 0x2a
 8003308:	b29b      	uxth	r3, r3
 800330a:	3b01      	subs	r3, #1
 800330c:	b29a      	uxth	r2, r3
 800330e:	68fb      	ldr	r3, [r7, #12]
 8003310:	855a      	strh	r2, [r3, #42]	@ 0x2a

      if ((__HAL_I2C_GET_FLAG(hi2c, I2C_FLAG_BTF) == SET) && (hi2c->XferSize != 0U))
 8003312:	68fb      	ldr	r3, [r7, #12]
 8003314:	681b      	ldr	r3, [r3, #0]
 8003316:	695b      	ldr	r3, [r3, #20]
 8003318:	f003 0304 	and.w	r3, r3, #4
 800331c:	2b04      	cmp	r3, #4
 800331e:	d11b      	bne.n	8003358 <HAL_I2C_Mem_Write+0x180>
 8003320:	68fb      	ldr	r3, [r7, #12]
 8003322:	8d1b      	ldrh	r3, [r3, #40]	@ 0x28
 8003324:	2b00      	cmp	r3, #0
 8003326:	d017      	beq.n	8003358 <HAL_I2C_Mem_Write+0x180>
      {
        /* Write data to DR */
        hi2c->Instance->DR = *hi2c->pBuffPtr;
 8003328:	68fb      	ldr	r3, [r7, #12]
 800332a:	6a5b      	ldr	r3, [r3, #36]	@ 0x24
 800332c:	781a      	ldrb	r2, [r3, #0]
 800332e:	68fb      	ldr	r3, [r7, #12]
 8003330:	681b      	ldr	r3, [r3, #0]
 8003332:	611a      	str	r2, [r3, #16]

        /* Increment Buffer pointer */
        hi2c->pBuffPtr++;
 8003334:	68fb      	ldr	r3, [r7, #12]
 8003336:	6a5b      	ldr	r3, [r3, #36]	@ 0x24
 8003338:	1c5a      	adds	r2, r3, #1
 800333a:	68fb      	ldr	r3, [r7, #12]
 800333c:	625a      	str	r2, [r3, #36]	@ 0x24

        /* Update counter */
        hi2c->XferSize--;
 800333e:	68fb      	ldr	r3, [r7, #12]
 8003340:	8d1b      	ldrh	r3, [r3, #40]	@ 0x28
 8003342:	3b01      	subs	r3, #1
 8003344:	b29a      	uxth	r2, r3
 8003346:	68fb      	ldr	r3, [r7, #12]
 8003348:	851a      	strh	r2, [r3, #40]	@ 0x28
        hi2c->XferCount--;
 800334a:	68fb      	ldr	r3, [r7, #12]
 800334c:	8d5b      	ldrh	r3, [r3, #42]	@ 0x2a
 800334e:	b29b      	uxth	r3, r3
 8003350:	3b01      	subs	r3, #1
 8003352:	b29a      	uxth	r2, r3
 8003354:	68fb      	ldr	r3, [r7, #12]
 8003356:	855a      	strh	r2, [r3, #42]	@ 0x2a
    while (hi2c->XferSize > 0U)
 8003358:	68fb      	ldr	r3, [r7, #12]
 800335a:	8d1b      	ldrh	r3, [r3, #40]	@ 0x28
 800335c:	2b00      	cmp	r3, #0
 800335e:	d1aa      	bne.n	80032b6 <HAL_I2C_Mem_Write+0xde>
      }
    }

    /* Wait until BTF flag is set */
    if (I2C_WaitOnBTFFlagUntilTimeout(hi2c, Timeout, tickstart) != HAL_OK)
 8003360:	697a      	ldr	r2, [r7, #20]
 8003362:	6ab9      	ldr	r1, [r7, #40]	@ 0x28
 8003364:	68f8      	ldr	r0, [r7, #12]
 8003366:	f000 fd43 	bl	8003df0 <I2C_WaitOnBTFFlagUntilTimeout>
 800336a:	4603      	mov	r3, r0
 800336c:	2b00      	cmp	r3, #0
 800336e:	d00d      	beq.n	800338c <HAL_I2C_Mem_Write+0x1b4>
    {
      if (hi2c->ErrorCode == HAL_I2C_ERROR_AF)
 8003370:	68fb      	ldr	r3, [r7, #12]
 8003372:	6c1b      	ldr	r3, [r3, #64]	@ 0x40
 8003374:	2b04      	cmp	r3, #4
 8003376:	d107      	bne.n	8003388 <HAL_I2C_Mem_Write+0x1b0>
      {
        /* Generate Stop */
        SET_BIT(hi2c->Instance->CR1, I2C_CR1_STOP);
 8003378:	68fb      	ldr	r3, [r7, #12]
 800337a:	681b      	ldr	r3, [r3, #0]
 800337c:	681a      	ldr	r2, [r3, #0]
 800337e:	68fb      	ldr	r3, [r7, #12]
 8003380:	681b      	ldr	r3, [r3, #0]
 8003382:	f442 7200 	orr.w	r2, r2, #512	@ 0x200
 8003386:	601a      	str	r2, [r3, #0]
      }
      return HAL_ERROR;
 8003388:	2301      	movs	r3, #1
 800338a:	e016      	b.n	80033ba <HAL_I2C_Mem_Write+0x1e2>
    }

    /* Generate Stop */
    SET_BIT(hi2c->Instance->CR1, I2C_CR1_STOP);
 800338c:	68fb      	ldr	r3, [r7, #12]
 800338e:	681b      	ldr	r3, [r3, #0]
 8003390:	681a      	ldr	r2, [r3, #0]
 8003392:	68fb      	ldr	r3, [r7, #12]
 8003394:	681b      	ldr	r3, [r3, #0]
 8003396:	f442 7200 	orr.w	r2, r2, #512	@ 0x200
 800339a:	601a      	str	r2, [r3, #0]

    hi2c->State = HAL_I2C_STATE_READY;
 800339c:	68fb      	ldr	r3, [r7, #12]
 800339e:	2220      	movs	r2, #32
 80033a0:	f883 203d 	strb.w	r2, [r3, #61]	@ 0x3d
    hi2c->Mode = HAL_I2C_MODE_NONE;
 80033a4:	68fb      	ldr	r3, [r7, #12]
 80033a6:	2200      	movs	r2, #0
 80033a8:	f883 203e 	strb.w	r2, [r3, #62]	@ 0x3e

    /* Process Unlocked */
    __HAL_UNLOCK(hi2c);
 80033ac:	68fb      	ldr	r3, [r7, #12]
 80033ae:	2200      	movs	r2, #0
 80033b0:	f883 203c 	strb.w	r2, [r3, #60]	@ 0x3c

    return HAL_OK;
 80033b4:	2300      	movs	r3, #0
 80033b6:	e000      	b.n	80033ba <HAL_I2C_Mem_Write+0x1e2>
  }
  else
  {
    return HAL_BUSY;
 80033b8:	2302      	movs	r3, #2
  }
}
 80033ba:	4618      	mov	r0, r3
 80033bc:	3718      	adds	r7, #24
 80033be:	46bd      	mov	sp, r7
 80033c0:	bd80      	pop	{r7, pc}
 80033c2:	bf00      	nop
 80033c4:	00100002 	.word	0x00100002
 80033c8:	ffff0000 	.word	0xffff0000

080033cc <HAL_I2C_Mem_Read>:
  * @param  Size Amount of data to be sent
  * @param  Timeout Timeout duration
  * @retval HAL status
  */
HAL_StatusTypeDef HAL_I2C_Mem_Read(I2C_HandleTypeDef *hi2c, uint16_t DevAddress, uint16_t MemAddress, uint16_t MemAddSize, uint8_t *pData, uint16_t Size, uint32_t Timeout)
{
 80033cc:	b580      	push	{r7, lr}
 80033ce:	b08c      	sub	sp, #48	@ 0x30
 80033d0:	af02      	add	r7, sp, #8
 80033d2:	60f8      	str	r0, [r7, #12]
 80033d4:	4608      	mov	r0, r1
 80033d6:	4611      	mov	r1, r2
 80033d8:	461a      	mov	r2, r3
 80033da:	4603      	mov	r3, r0
 80033dc:	817b      	strh	r3, [r7, #10]
 80033de:	460b      	mov	r3, r1
 80033e0:	813b      	strh	r3, [r7, #8]
 80033e2:	4613      	mov	r3, r2
 80033e4:	80fb      	strh	r3, [r7, #6]
  /* Init tickstart for timeout management*/
  uint32_t tickstart = HAL_GetTick();
 80033e6:	f7ff fa27 	bl	8002838 <HAL_GetTick>
 80033ea:	6278      	str	r0, [r7, #36]	@ 0x24

  /* Check the parameters */
  assert_param(IS_I2C_MEMADD_SIZE(MemAddSize));

  if (hi2c->State == HAL_I2C_STATE_READY)
 80033ec:	68fb      	ldr	r3, [r7, #12]
 80033ee:	f893 303d 	ldrb.w	r3, [r3, #61]	@ 0x3d
 80033f2:	b2db      	uxtb	r3, r3
 80033f4:	2b20      	cmp	r3, #32
 80033f6:	f040 8214 	bne.w	8003822 <HAL_I2C_Mem_Read+0x456>
  {
    /* Wait until BUSY flag is reset */
    if (I2C_WaitOnFlagUntilTimeout(hi2c, I2C_FLAG_BUSY, SET, I2C_TIMEOUT_BUSY_FLAG, tickstart) != HAL_OK)
 80033fa:	6a7b      	ldr	r3, [r7, #36]	@ 0x24
 80033fc:	9300      	str	r3, [sp, #0]
 80033fe:	2319      	movs	r3, #25
 8003400:	2201      	movs	r2, #1
 8003402:	497b      	ldr	r1, [pc, #492]	@ (80035f0 <HAL_I2C_Mem_Read+0x224>)
 8003404:	68f8      	ldr	r0, [r7, #12]
 8003406:	f000 fb91 	bl	8003b2c <I2C_WaitOnFlagUntilTimeout>
 800340a:	4603      	mov	r3, r0
 800340c:	2b00      	cmp	r3, #0
 800340e:	d001      	beq.n	8003414 <HAL_I2C_Mem_Read+0x48>
    {
      return HAL_BUSY;
 8003410:	2302      	movs	r3, #2
 8003412:	e207      	b.n	8003824 <HAL_I2C_Mem_Read+0x458>
    }

    /* Process Locked */
    __HAL_LOCK(hi2c);
 8003414:	68fb      	ldr	r3, [r7, #12]
 8003416:	f893 303c 	ldrb.w	r3, [r3, #60]	@ 0x3c
 800341a:	2b01      	cmp	r3, #1
 800341c:	d101      	bne.n	8003422 <HAL_I2C_Mem_Read+0x56>
 800341e:	2302      	movs	r3, #2
 8003420:	e200      	b.n	8003824 <HAL_I2C_Mem_Read+0x458>
 8003422:	68fb      	ldr	r3, [r7, #12]
 8003424:	2201      	movs	r2, #1
 8003426:	f883 203c 	strb.w	r2, [r3, #60]	@ 0x3c

    /* Check if the I2C is already enabled */
    if ((hi2c->Instance->CR1 & I2C_CR1_PE) != I2C_CR1_PE)
 800342a:	68fb      	ldr	r3, [r7, #12]
 800342c:	681b      	ldr	r3, [r3, #0]
 800342e:	681b      	ldr	r3, [r3, #0]
 8003430:	f003 0301 	and.w	r3, r3, #1
 8003434:	2b01      	cmp	r3, #1
 8003436:	d007      	beq.n	8003448 <HAL_I2C_Mem_Read+0x7c>
    {
      /* Enable I2C peripheral */
      __HAL_I2C_ENABLE(hi2c);
 8003438:	68fb      	ldr	r3, [r7, #12]
 800343a:	681b      	ldr	r3, [r3, #0]
 800343c:	681a      	ldr	r2, [r3, #0]
 800343e:	68fb      	ldr	r3, [r7, #12]
 8003440:	681b      	ldr	r3, [r3, #0]
 8003442:	f042 0201 	orr.w	r2, r2, #1
 8003446:	601a      	str	r2, [r3, #0]
    }

    /* Disable Pos */
    CLEAR_BIT(hi2c->Instance->CR1, I2C_CR1_POS);
 8003448:	68fb      	ldr	r3, [r7, #12]
 800344a:	681b      	ldr	r3, [r3, #0]
 800344c:	681a      	ldr	r2, [r3, #0]
 800344e:	68fb      	ldr	r3, [r7, #12]
 8003450:	681b      	ldr	r3, [r3, #0]
 8003452:	f422 6200 	bic.w	r2, r2, #2048	@ 0x800
 8003456:	601a      	str	r2, [r3, #0]

    hi2c->State     = HAL_I2C_STATE_BUSY_RX;
 8003458:	68fb      	ldr	r3, [r7, #12]
 800345a:	2222      	movs	r2, #34	@ 0x22
 800345c:	f883 203d 	strb.w	r2, [r3, #61]	@ 0x3d
    hi2c->Mode      = HAL_I2C_MODE_MEM;
 8003460:	68fb      	ldr	r3, [r7, #12]
 8003462:	2240      	movs	r2, #64	@ 0x40
 8003464:	f883 203e 	strb.w	r2, [r3, #62]	@ 0x3e
    hi2c->ErrorCode = HAL_I2C_ERROR_NONE;
 8003468:	68fb      	ldr	r3, [r7, #12]
 800346a:	2200      	movs	r2, #0
 800346c:	641a      	str	r2, [r3, #64]	@ 0x40

    /* Prepare transfer parameters */
    hi2c->pBuffPtr    = pData;
 800346e:	68fb      	ldr	r3, [r7, #12]
 8003470:	6b3a      	ldr	r2, [r7, #48]	@ 0x30
 8003472:	625a      	str	r2, [r3, #36]	@ 0x24
    hi2c->XferCount   = Size;
 8003474:	68fb      	ldr	r3, [r7, #12]
 8003476:	8eba      	ldrh	r2, [r7, #52]	@ 0x34
 8003478:	855a      	strh	r2, [r3, #42]	@ 0x2a
    hi2c->XferSize    = hi2c->XferCount;
 800347a:	68fb      	ldr	r3, [r7, #12]
 800347c:	8d5b      	ldrh	r3, [r3, #42]	@ 0x2a
 800347e:	b29a      	uxth	r2, r3
 8003480:	68fb      	ldr	r3, [r7, #12]
 8003482:	851a      	strh	r2, [r3, #40]	@ 0x28
    hi2c->XferOptions = I2C_NO_OPTION_FRAME;
 8003484:	68fb      	ldr	r3, [r7, #12]
 8003486:	4a5b      	ldr	r2, [pc, #364]	@ (80035f4 <HAL_I2C_Mem_Read+0x228>)
 8003488:	62da      	str	r2, [r3, #44]	@ 0x2c

    /* Send Slave Address and Memory Address */
    if (I2C_RequestMemoryRead(hi2c, DevAddress, MemAddress, MemAddSize, Timeout, tickstart) != HAL_OK)
 800348a:	88f8      	ldrh	r0, [r7, #6]
 800348c:	893a      	ldrh	r2, [r7, #8]
 800348e:	8979      	ldrh	r1, [r7, #10]
 8003490:	6a7b      	ldr	r3, [r7, #36]	@ 0x24
 8003492:	9301      	str	r3, [sp, #4]
 8003494:	6bbb      	ldr	r3, [r7, #56]	@ 0x38
 8003496:	9300      	str	r3, [sp, #0]
 8003498:	4603      	mov	r3, r0
 800349a:	68f8      	ldr	r0, [r7, #12]
 800349c:	f000 fa5e 	bl	800395c <I2C_RequestMemoryRead>
 80034a0:	4603      	mov	r3, r0
 80034a2:	2b00      	cmp	r3, #0
 80034a4:	d001      	beq.n	80034aa <HAL_I2C_Mem_Read+0xde>
    {
      return HAL_ERROR;
 80034a6:	2301      	movs	r3, #1
 80034a8:	e1bc      	b.n	8003824 <HAL_I2C_Mem_Read+0x458>
    }

    if (hi2c->XferSize == 0U)
 80034aa:	68fb      	ldr	r3, [r7, #12]
 80034ac:	8d1b      	ldrh	r3, [r3, #40]	@ 0x28
 80034ae:	2b00      	cmp	r3, #0
 80034b0:	d113      	bne.n	80034da <HAL_I2C_Mem_Read+0x10e>
    {
      /* Clear ADDR flag */
      __HAL_I2C_CLEAR_ADDRFLAG(hi2c);
 80034b2:	2300      	movs	r3, #0
 80034b4:	623b      	str	r3, [r7, #32]
 80034b6:	68fb      	ldr	r3, [r7, #12]
 80034b8:	681b      	ldr	r3, [r3, #0]
 80034ba:	695b      	ldr	r3, [r3, #20]
 80034bc:	623b      	str	r3, [r7, #32]
 80034be:	68fb      	ldr	r3, [r7, #12]
 80034c0:	681b      	ldr	r3, [r3, #0]
 80034c2:	699b      	ldr	r3, [r3, #24]
 80034c4:	623b      	str	r3, [r7, #32]
 80034c6:	6a3b      	ldr	r3, [r7, #32]

      /* Generate Stop */
      SET_BIT(hi2c->Instance->CR1, I2C_CR1_STOP);
 80034c8:	68fb      	ldr	r3, [r7, #12]
 80034ca:	681b      	ldr	r3, [r3, #0]
 80034cc:	681a      	ldr	r2, [r3, #0]
 80034ce:	68fb      	ldr	r3, [r7, #12]
 80034d0:	681b      	ldr	r3, [r3, #0]
 80034d2:	f442 7200 	orr.w	r2, r2, #512	@ 0x200
 80034d6:	601a      	str	r2, [r3, #0]
 80034d8:	e190      	b.n	80037fc <HAL_I2C_Mem_Read+0x430>
    }
    else if (hi2c->XferSize == 1U)
 80034da:	68fb      	ldr	r3, [r7, #12]
 80034dc:	8d1b      	ldrh	r3, [r3, #40]	@ 0x28
 80034de:	2b01      	cmp	r3, #1
 80034e0:	d11b      	bne.n	800351a <HAL_I2C_Mem_Read+0x14e>
    {
      /* Disable Acknowledge */
      CLEAR_BIT(hi2c->Instance->CR1, I2C_CR1_ACK);
 80034e2:	68fb      	ldr	r3, [r7, #12]
 80034e4:	681b      	ldr	r3, [r3, #0]
 80034e6:	681a      	ldr	r2, [r3, #0]
 80034e8:	68fb      	ldr	r3, [r7, #12]
 80034ea:	681b      	ldr	r3, [r3, #0]
 80034ec:	f422 6280 	bic.w	r2, r2, #1024	@ 0x400
 80034f0:	601a      	str	r2, [r3, #0]

      /* Clear ADDR flag */
      __HAL_I2C_CLEAR_ADDRFLAG(hi2c);
 80034f2:	2300      	movs	r3, #0
 80034f4:	61fb      	str	r3, [r7, #28]
 80034f6:	68fb      	ldr	r3, [r7, #12]
 80034f8:	681b      	ldr	r3, [r3, #0]
 80034fa:	695b      	ldr	r3, [r3, #20]
 80034fc:	61fb      	str	r3, [r7, #28]
 80034fe:	68fb      	ldr	r3, [r7, #12]
 8003500:	681b      	ldr	r3, [r3, #0]
 8003502:	699b      	ldr	r3, [r3, #24]
 8003504:	61fb      	str	r3, [r7, #28]
 8003506:	69fb      	ldr	r3, [r7, #28]

      /* Generate Stop */
      SET_BIT(hi2c->Instance->CR1, I2C_CR1_STOP);
 8003508:	68fb      	ldr	r3, [r7, #12]
 800350a:	681b      	ldr	r3, [r3, #0]
 800350c:	681a      	ldr	r2, [r3, #0]
 800350e:	68fb      	ldr	r3, [r7, #12]
 8003510:	681b      	ldr	r3, [r3, #0]
 8003512:	f442 7200 	orr.w	r2, r2, #512	@ 0x200
 8003516:	601a      	str	r2, [r3, #0]
 8003518:	e170      	b.n	80037fc <HAL_I2C_Mem_Read+0x430>
    }
    else if (hi2c->XferSize == 2U)
 800351a:	68fb      	ldr	r3, [r7, #12]
 800351c:	8d1b      	ldrh	r3, [r3, #40]	@ 0x28
 800351e:	2b02      	cmp	r3, #2
 8003520:	d11b      	bne.n	800355a <HAL_I2C_Mem_Read+0x18e>
    {
      /* Disable Acknowledge */
      CLEAR_BIT(hi2c->Instance->CR1, I2C_CR1_ACK);
 8003522:	68fb      	ldr	r3, [r7, #12]
 8003524:	681b      	ldr	r3, [r3, #0]
 8003526:	681a      	ldr	r2, [r3, #0]
 8003528:	68fb      	ldr	r3, [r7, #12]
 800352a:	681b      	ldr	r3, [r3, #0]
 800352c:	f422 6280 	bic.w	r2, r2, #1024	@ 0x400
 8003530:	601a      	str	r2, [r3, #0]

      /* Enable Pos */
      SET_BIT(hi2c->Instance->CR1, I2C_CR1_POS);
 8003532:	68fb      	ldr	r3, [r7, #12]
 8003534:	681b      	ldr	r3, [r3, #0]
 8003536:	681a      	ldr	r2, [r3, #0]
 8003538:	68fb      	ldr	r3, [r7, #12]
 800353a:	681b      	ldr	r3, [r3, #0]
 800353c:	f442 6200 	orr.w	r2, r2, #2048	@ 0x800
 8003540:	601a      	str	r2, [r3, #0]

      /* Clear ADDR flag */
      __HAL_I2C_CLEAR_ADDRFLAG(hi2c);
 8003542:	2300      	movs	r3, #0
 8003544:	61bb      	str	r3, [r7, #24]
 8003546:	68fb      	ldr	r3, [r7, #12]
 8003548:	681b      	ldr	r3, [r3, #0]
 800354a:	695b      	ldr	r3, [r3, #20]
 800354c:	61bb      	str	r3, [r7, #24]
 800354e:	68fb      	ldr	r3, [r7, #12]
 8003550:	681b      	ldr	r3, [r3, #0]
 8003552:	699b      	ldr	r3, [r3, #24]
 8003554:	61bb      	str	r3, [r7, #24]
 8003556:	69bb      	ldr	r3, [r7, #24]
 8003558:	e150      	b.n	80037fc <HAL_I2C_Mem_Read+0x430>
    }
    else
    {
      /* Clear ADDR flag */
      __HAL_I2C_CLEAR_ADDRFLAG(hi2c);
 800355a:	2300      	movs	r3, #0
 800355c:	617b      	str	r3, [r7, #20]
 800355e:	68fb      	ldr	r3, [r7, #12]
 8003560:	681b      	ldr	r3, [r3, #0]
 8003562:	695b      	ldr	r3, [r3, #20]
 8003564:	617b      	str	r3, [r7, #20]
 8003566:	68fb      	ldr	r3, [r7, #12]
 8003568:	681b      	ldr	r3, [r3, #0]
 800356a:	699b      	ldr	r3, [r3, #24]
 800356c:	617b      	str	r3, [r7, #20]
 800356e:	697b      	ldr	r3, [r7, #20]
    }

    while (hi2c->XferSize > 0U)
 8003570:	e144      	b.n	80037fc <HAL_I2C_Mem_Read+0x430>
    {
      if (hi2c->XferSize <= 3U)
 8003572:	68fb      	ldr	r3, [r7, #12]
 8003574:	8d1b      	ldrh	r3, [r3, #40]	@ 0x28
 8003576:	2b03      	cmp	r3, #3
 8003578:	f200 80f1 	bhi.w	800375e <HAL_I2C_Mem_Read+0x392>
      {
        /* One byte */
        if (hi2c->XferSize == 1U)
 800357c:	68fb      	ldr	r3, [r7, #12]
 800357e:	8d1b      	ldrh	r3, [r3, #40]	@ 0x28
 8003580:	2b01      	cmp	r3, #1
 8003582:	d123      	bne.n	80035cc <HAL_I2C_Mem_Read+0x200>
        {
          /* Wait until RXNE flag is set */
          if (I2C_WaitOnRXNEFlagUntilTimeout(hi2c, Timeout, tickstart) != HAL_OK)
 8003584:	6a7a      	ldr	r2, [r7, #36]	@ 0x24
 8003586:	6bb9      	ldr	r1, [r7, #56]	@ 0x38
 8003588:	68f8      	ldr	r0, [r7, #12]
 800358a:	f000 fc79 	bl	8003e80 <I2C_WaitOnRXNEFlagUntilTimeout>
 800358e:	4603      	mov	r3, r0
 8003590:	2b00      	cmp	r3, #0
 8003592:	d001      	beq.n	8003598 <HAL_I2C_Mem_Read+0x1cc>
          {
            return HAL_ERROR;
 8003594:	2301      	movs	r3, #1
 8003596:	e145      	b.n	8003824 <HAL_I2C_Mem_Read+0x458>
          }

          /* Read data from DR */
          *hi2c->pBuffPtr = (uint8_t)hi2c->Instance->DR;
 8003598:	68fb      	ldr	r3, [r7, #12]
 800359a:	681b      	ldr	r3, [r3, #0]
 800359c:	691a      	ldr	r2, [r3, #16]
 800359e:	68fb      	ldr	r3, [r7, #12]
 80035a0:	6a5b      	ldr	r3, [r3, #36]	@ 0x24
 80035a2:	b2d2      	uxtb	r2, r2
 80035a4:	701a      	strb	r2, [r3, #0]

          /* Increment Buffer pointer */
          hi2c->pBuffPtr++;
 80035a6:	68fb      	ldr	r3, [r7, #12]
 80035a8:	6a5b      	ldr	r3, [r3, #36]	@ 0x24
 80035aa:	1c5a      	adds	r2, r3, #1
 80035ac:	68fb      	ldr	r3, [r7, #12]
 80035ae:	625a      	str	r2, [r3, #36]	@ 0x24

          /* Update counter */
          hi2c->XferSize--;
 80035b0:	68fb      	ldr	r3, [r7, #12]
 80035b2:	8d1b      	ldrh	r3, [r3, #40]	@ 0x28
 80035b4:	3b01      	subs	r3, #1
 80035b6:	b29a      	uxth	r2, r3
 80035b8:	68fb      	ldr	r3, [r7, #12]
 80035ba:	851a      	strh	r2, [r3, #40]	@ 0x28
          hi2c->XferCount--;
 80035bc:	68fb      	ldr	r3, [r7, #12]
 80035be:	8d5b      	ldrh	r3, [r3, #42]	@ 0x2a
 80035c0:	b29b      	uxth	r3, r3
 80035c2:	3b01      	subs	r3, #1
 80035c4:	b29a      	uxth	r2, r3
 80035c6:	68fb      	ldr	r3, [r7, #12]
 80035c8:	855a      	strh	r2, [r3, #42]	@ 0x2a
 80035ca:	e117      	b.n	80037fc <HAL_I2C_Mem_Read+0x430>
        }
        /* Two bytes */
        else if (hi2c->XferSize == 2U)
 80035cc:	68fb      	ldr	r3, [r7, #12]
 80035ce:	8d1b      	ldrh	r3, [r3, #40]	@ 0x28
 80035d0:	2b02      	cmp	r3, #2
 80035d2:	d14e      	bne.n	8003672 <HAL_I2C_Mem_Read+0x2a6>
        {
          /* Wait until BTF flag is set */
          if (I2C_WaitOnFlagUntilTimeout(hi2c, I2C_FLAG_BTF, RESET, Timeout, tickstart) != HAL_OK)
 80035d4:	6a7b      	ldr	r3, [r7, #36]	@ 0x24
 80035d6:	9300      	str	r3, [sp, #0]
 80035d8:	6bbb      	ldr	r3, [r7, #56]	@ 0x38
 80035da:	2200      	movs	r2, #0
 80035dc:	4906      	ldr	r1, [pc, #24]	@ (80035f8 <HAL_I2C_Mem_Read+0x22c>)
 80035de:	68f8      	ldr	r0, [r7, #12]
 80035e0:	f000 faa4 	bl	8003b2c <I2C_WaitOnFlagUntilTimeout>
 80035e4:	4603      	mov	r3, r0
 80035e6:	2b00      	cmp	r3, #0
 80035e8:	d008      	beq.n	80035fc <HAL_I2C_Mem_Read+0x230>
          {
            return HAL_ERROR;
 80035ea:	2301      	movs	r3, #1
 80035ec:	e11a      	b.n	8003824 <HAL_I2C_Mem_Read+0x458>
 80035ee:	bf00      	nop
 80035f0:	00100002 	.word	0x00100002
 80035f4:	ffff0000 	.word	0xffff0000
 80035f8:	00010004 	.word	0x00010004
          }

          /* Generate Stop */
          SET_BIT(hi2c->Instance->CR1, I2C_CR1_STOP);
 80035fc:	68fb      	ldr	r3, [r7, #12]
 80035fe:	681b      	ldr	r3, [r3, #0]
 8003600:	681a      	ldr	r2, [r3, #0]
 8003602:	68fb      	ldr	r3, [r7, #12]
 8003604:	681b      	ldr	r3, [r3, #0]
 8003606:	f442 7200 	orr.w	r2, r2, #512	@ 0x200
 800360a:	601a      	str	r2, [r3, #0]

          /* Read data from DR */
          *hi2c->pBuffPtr = (uint8_t)hi2c->Instance->DR;
 800360c:	68fb      	ldr	r3, [r7, #12]
 800360e:	681b      	ldr	r3, [r3, #0]
 8003610:	691a      	ldr	r2, [r3, #16]
 8003612:	68fb      	ldr	r3, [r7, #12]
 8003614:	6a5b      	ldr	r3, [r3, #36]	@ 0x24
 8003616:	b2d2      	uxtb	r2, r2
 8003618:	701a      	strb	r2, [r3, #0]

          /* Increment Buffer pointer */
          hi2c->pBuffPtr++;
 800361a:	68fb      	ldr	r3, [r7, #12]
 800361c:	6a5b      	ldr	r3, [r3, #36]	@ 0x24
 800361e:	1c5a      	adds	r2, r3, #1
 8003620:	68fb      	ldr	r3, [r7, #12]
 8003622:	625a      	str	r2, [r3, #36]	@ 0x24

          /* Update counter */
          hi2c->XferSize--;
 8003624:	68fb      	ldr	r3, [r7, #12]
 8003626:	8d1b      	ldrh	r3, [r3, #40]	@ 0x28
 8003628:	3b01      	subs	r3, #1
 800362a:	b29a      	uxth	r2, r3
 800362c:	68fb      	ldr	r3, [r7, #12]
 800362e:	851a      	strh	r2, [r3, #40]	@ 0x28
          hi2c->XferCount--;
 8003630:	68fb      	ldr	r3, [r7, #12]
 8003632:	8d5b      	ldrh	r3, [r3, #42]	@ 0x2a
 8003634:	b29b      	uxth	r3, r3
 8003636:	3b01      	subs	r3, #1
 8003638:	b29a      	uxth	r2, r3
 800363a:	68fb      	ldr	r3, [r7, #12]
 800363c:	855a      	strh	r2, [r3, #42]	@ 0x2a

          /* Read data from DR */
          *hi2c->pBuffPtr = (uint8_t)hi2c->Instance->DR;
 800363e:	68fb      	ldr	r3, [r7, #12]
 8003640:	681b      	ldr	r3, [r3, #0]
 8003642:	691a      	ldr	r2, [r3, #16]
 8003644:	68fb      	ldr	r3, [r7, #12]
 8003646:	6a5b      	ldr	r3, [r3, #36]	@ 0x24
 8003648:	b2d2      	uxtb	r2, r2
 800364a:	701a      	strb	r2, [r3, #0]

          /* Increment Buffer pointer */
          hi2c->pBuffPtr++;
 800364c:	68fb      	ldr	r3, [r7, #12]
 800364e:	6a5b      	ldr	r3, [r3, #36]	@ 0x24
 8003650:	1c5a      	adds	r2, r3, #1
 8003652:	68fb      	ldr	r3, [r7, #12]
 8003654:	625a      	str	r2, [r3, #36]	@ 0x24

          /* Update counter */
          hi2c->XferSize--;
 8003656:	68fb      	ldr	r3, [r7, #12]
 8003658:	8d1b      	ldrh	r3, [r3, #40]	@ 0x28
 800365a:	3b01      	subs	r3, #1
 800365c:	b29a      	uxth	r2, r3
 800365e:	68fb      	ldr	r3, [r7, #12]
 8003660:	851a      	strh	r2, [r3, #40]	@ 0x28
          hi2c->XferCount--;
 8003662:	68fb      	ldr	r3, [r7, #12]
 8003664:	8d5b      	ldrh	r3, [r3, #42]	@ 0x2a
 8003666:	b29b      	uxth	r3, r3
 8003668:	3b01      	subs	r3, #1
 800366a:	b29a      	uxth	r2, r3
 800366c:	68fb      	ldr	r3, [r7, #12]
 800366e:	855a      	strh	r2, [r3, #42]	@ 0x2a
 8003670:	e0c4      	b.n	80037fc <HAL_I2C_Mem_Read+0x430>
        }
        /* 3 Last bytes */
        else
        {
          /* Wait until BTF flag is set */
          if (I2C_WaitOnFlagUntilTimeout(hi2c, I2C_FLAG_BTF, RESET, Timeout, tickstart) != HAL_OK)
 8003672:	6a7b      	ldr	r3, [r7, #36]	@ 0x24
 8003674:	9300      	str	r3, [sp, #0]
 8003676:	6bbb      	ldr	r3, [r7, #56]	@ 0x38
 8003678:	2200      	movs	r2, #0
 800367a:	496c      	ldr	r1, [pc, #432]	@ (800382c <HAL_I2C_Mem_Read+0x460>)
 800367c:	68f8      	ldr	r0, [r7, #12]
 800367e:	f000 fa55 	bl	8003b2c <I2C_WaitOnFlagUntilTimeout>
 8003682:	4603      	mov	r3, r0
 8003684:	2b00      	cmp	r3, #0
 8003686:	d001      	beq.n	800368c <HAL_I2C_Mem_Read+0x2c0>
          {
            return HAL_ERROR;
 8003688:	2301      	movs	r3, #1
 800368a:	e0cb      	b.n	8003824 <HAL_I2C_Mem_Read+0x458>
          }

          /* Disable Acknowledge */
          CLEAR_BIT(hi2c->Instance->CR1, I2C_CR1_ACK);
 800368c:	68fb      	ldr	r3, [r7, #12]
 800368e:	681b      	ldr	r3, [r3, #0]
 8003690:	681a      	ldr	r2, [r3, #0]
 8003692:	68fb      	ldr	r3, [r7, #12]
 8003694:	681b      	ldr	r3, [r3, #0]
 8003696:	f422 6280 	bic.w	r2, r2, #1024	@ 0x400
 800369a:	601a      	str	r2, [r3, #0]

          /* Read data from DR */
          *hi2c->pBuffPtr = (uint8_t)hi2c->Instance->DR;
 800369c:	68fb      	ldr	r3, [r7, #12]
 800369e:	681b      	ldr	r3, [r3, #0]
 80036a0:	691a      	ldr	r2, [r3, #16]
 80036a2:	68fb      	ldr	r3, [r7, #12]
 80036a4:	6a5b      	ldr	r3, [r3, #36]	@ 0x24
 80036a6:	b2d2      	uxtb	r2, r2
 80036a8:	701a      	strb	r2, [r3, #0]

          /* Increment Buffer pointer */
          hi2c->pBuffPtr++;
 80036aa:	68fb      	ldr	r3, [r7, #12]
 80036ac:	6a5b      	ldr	r3, [r3, #36]	@ 0x24
 80036ae:	1c5a      	adds	r2, r3, #1
 80036b0:	68fb      	ldr	r3, [r7, #12]
 80036b2:	625a      	str	r2, [r3, #36]	@ 0x24

          /* Update counter */
          hi2c->XferSize--;
 80036b4:	68fb      	ldr	r3, [r7, #12]
 80036b6:	8d1b      	ldrh	r3, [r3, #40]	@ 0x28
 80036b8:	3b01      	subs	r3, #1
 80036ba:	b29a      	uxth	r2, r3
 80036bc:	68fb      	ldr	r3, [r7, #12]
 80036be:	851a      	strh	r2, [r3, #40]	@ 0x28
          hi2c->XferCount--;
 80036c0:	68fb      	ldr	r3, [r7, #12]
 80036c2:	8d5b      	ldrh	r3, [r3, #42]	@ 0x2a
 80036c4:	b29b      	uxth	r3, r3
 80036c6:	3b01      	subs	r3, #1
 80036c8:	b29a      	uxth	r2, r3
 80036ca:	68fb      	ldr	r3, [r7, #12]
 80036cc:	855a      	strh	r2, [r3, #42]	@ 0x2a

          /* Wait until BTF flag is set */
          if (I2C_WaitOnFlagUntilTimeout(hi2c, I2C_FLAG_BTF, RESET, Timeout, tickstart) != HAL_OK)
 80036ce:	6a7b      	ldr	r3, [r7, #36]	@ 0x24
 80036d0:	9300      	str	r3, [sp, #0]
 80036d2:	6bbb      	ldr	r3, [r7, #56]	@ 0x38
 80036d4:	2200      	movs	r2, #0
 80036d6:	4955      	ldr	r1, [pc, #340]	@ (800382c <HAL_I2C_Mem_Read+0x460>)
 80036d8:	68f8      	ldr	r0, [r7, #12]
 80036da:	f000 fa27 	bl	8003b2c <I2C_WaitOnFlagUntilTimeout>
 80036de:	4603      	mov	r3, r0
 80036e0:	2b00      	cmp	r3, #0
 80036e2:	d001      	beq.n	80036e8 <HAL_I2C_Mem_Read+0x31c>
          {
            return HAL_ERROR;
 80036e4:	2301      	movs	r3, #1
 80036e6:	e09d      	b.n	8003824 <HAL_I2C_Mem_Read+0x458>
          }

          /* Generate Stop */
          SET_BIT(hi2c->Instance->CR1, I2C_CR1_STOP);
 80036e8:	68fb      	ldr	r3, [r7, #12]
 80036ea:	681b      	ldr	r3, [r3, #0]
 80036ec:	681a      	ldr	r2, [r3, #0]
 80036ee:	68fb      	ldr	r3, [r7, #12]
 80036f0:	681b      	ldr	r3, [r3, #0]
 80036f2:	f442 7200 	orr.w	r2, r2, #512	@ 0x200
 80036f6:	601a      	str	r2, [r3, #0]

          /* Read data from DR */
          *hi2c->pBuffPtr = (uint8_t)hi2c->Instance->DR;
 80036f8:	68fb      	ldr	r3, [r7, #12]
 80036fa:	681b      	ldr	r3, [r3, #0]
 80036fc:	691a      	ldr	r2, [r3, #16]
 80036fe:	68fb      	ldr	r3, [r7, #12]
 8003700:	6a5b      	ldr	r3, [r3, #36]	@ 0x24
 8003702:	b2d2      	uxtb	r2, r2
 8003704:	701a      	strb	r2, [r3, #0]

          /* Increment Buffer pointer */
          hi2c->pBuffPtr++;
 8003706:	68fb      	ldr	r3, [r7, #12]
 8003708:	6a5b      	ldr	r3, [r3, #36]	@ 0x24
 800370a:	1c5a      	adds	r2, r3, #1
 800370c:	68fb      	ldr	r3, [r7, #12]
 800370e:	625a      	str	r2, [r3, #36]	@ 0x24

          /* Update counter */
          hi2c->XferSize--;
 8003710:	68fb      	ldr	r3, [r7, #12]
 8003712:	8d1b      	ldrh	r3, [r3, #40]	@ 0x28
 8003714:	3b01      	subs	r3, #1
 8003716:	b29a      	uxth	r2, r3
 8003718:	68fb      	ldr	r3, [r7, #12]
 800371a:	851a      	strh	r2, [r3, #40]	@ 0x28
          hi2c->XferCount--;
 800371c:	68fb      	ldr	r3, [r7, #12]
 800371e:	8d5b      	ldrh	r3, [r3, #42]	@ 0x2a
 8003720:	b29b      	uxth	r3, r3
 8003722:	3b01      	subs	r3, #1
 8003724:	b29a      	uxth	r2, r3
 8003726:	68fb      	ldr	r3, [r7, #12]
 8003728:	855a      	strh	r2, [r3, #42]	@ 0x2a

          /* Read data from DR */
          *hi2c->pBuffPtr = (uint8_t)hi2c->Instance->DR;
 800372a:	68fb      	ldr	r3, [r7, #12]
 800372c:	681b      	ldr	r3, [r3, #0]
 800372e:	691a      	ldr	r2, [r3, #16]
 8003730:	68fb      	ldr	r3, [r7, #12]
 8003732:	6a5b      	ldr	r3, [r3, #36]	@ 0x24
 8003734:	b2d2      	uxtb	r2, r2
 8003736:	701a      	strb	r2, [r3, #0]

          /* Increment Buffer pointer */
          hi2c->pBuffPtr++;
 8003738:	68fb      	ldr	r3, [r7, #12]
 800373a:	6a5b      	ldr	r3, [r3, #36]	@ 0x24
 800373c:	1c5a      	adds	r2, r3, #1
 800373e:	68fb      	ldr	r3, [r7, #12]
 8003740:	625a      	str	r2, [r3, #36]	@ 0x24

          /* Update counter */
          hi2c->XferSize--;
 8003742:	68fb      	ldr	r3, [r7, #12]
 8003744:	8d1b      	ldrh	r3, [r3, #40]	@ 0x28
 8003746:	3b01      	subs	r3, #1
 8003748:	b29a      	uxth	r2, r3
 800374a:	68fb      	ldr	r3, [r7, #12]
 800374c:	851a      	strh	r2, [r3, #40]	@ 0x28
          hi2c->XferCount--;
 800374e:	68fb      	ldr	r3, [r7, #12]
 8003750:	8d5b      	ldrh	r3, [r3, #42]	@ 0x2a
 8003752:	b29b      	uxth	r3, r3
 8003754:	3b01      	subs	r3, #1
 8003756:	b29a      	uxth	r2, r3
 8003758:	68fb      	ldr	r3, [r7, #12]
 800375a:	855a      	strh	r2, [r3, #42]	@ 0x2a
 800375c:	e04e      	b.n	80037fc <HAL_I2C_Mem_Read+0x430>
        }
      }
      else
      {
        /* Wait until RXNE flag is set */
        if (I2C_WaitOnRXNEFlagUntilTimeout(hi2c, Timeout, tickstart) != HAL_OK)
 800375e:	6a7a      	ldr	r2, [r7, #36]	@ 0x24
 8003760:	6bb9      	ldr	r1, [r7, #56]	@ 0x38
 8003762:	68f8      	ldr	r0, [r7, #12]
 8003764:	f000 fb8c 	bl	8003e80 <I2C_WaitOnRXNEFlagUntilTimeout>
 8003768:	4603      	mov	r3, r0
 800376a:	2b00      	cmp	r3, #0
 800376c:	d001      	beq.n	8003772 <HAL_I2C_Mem_Read+0x3a6>
        {
          return HAL_ERROR;
 800376e:	2301      	movs	r3, #1
 8003770:	e058      	b.n	8003824 <HAL_I2C_Mem_Read+0x458>
        }

        /* Read data from DR */
        *hi2c->pBuffPtr = (uint8_t)hi2c->Instance->DR;
 8003772:	68fb      	ldr	r3, [r7, #12]
 8003774:	681b      	ldr	r3, [r3, #0]
 8003776:	691a      	ldr	r2, [r3, #16]
 8003778:	68fb      	ldr	r3, [r7, #12]
 800377a:	6a5b      	ldr	r3, [r3, #36]	@ 0x24
 800377c:	b2d2      	uxtb	r2, r2
 800377e:	701a      	strb	r2, [r3, #0]

        /* Increment Buffer pointer */
        hi2c->pBuffPtr++;
 8003780:	68fb      	ldr	r3, [r7, #12]
 8003782:	6a5b      	ldr	r3, [r3, #36]	@ 0x24
 8003784:	1c5a      	adds	r2, r3, #1
 8003786:	68fb      	ldr	r3, [r7, #12]
 8003788:	625a      	str	r2, [r3, #36]	@ 0x24

        /* Update counter */
        hi2c->XferSize--;
 800378a:	68fb      	ldr	r3, [r7, #12]
 800378c:	8d1b      	ldrh	r3, [r3, #40]	@ 0x28
 800378e:	3b01      	subs	r3, #1
 8003790:	b29a      	uxth	r2, r3
 8003792:	68fb      	ldr	r3, [r7, #12]
 8003794:	851a      	strh	r2, [r3, #40]	@ 0x28
        hi2c->XferCount--;
 8003796:	68fb      	ldr	r3, [r7, #12]
 8003798:	8d5b      	ldrh	r3, [r3, #42]	@ 0x2a
 800379a:	b29b      	uxth	r3, r3
 800379c:	3b01      	subs	r3, #1
 800379e:	b29a      	uxth	r2, r3
 80037a0:	68fb      	ldr	r3, [r7, #12]
 80037a2:	855a      	strh	r2, [r3, #42]	@ 0x2a

        if (__HAL_I2C_GET_FLAG(hi2c, I2C_FLAG_BTF) == SET)
 80037a4:	68fb      	ldr	r3, [r7, #12]
 80037a6:	681b      	ldr	r3, [r3, #0]
 80037a8:	695b      	ldr	r3, [r3, #20]
 80037aa:	f003 0304 	and.w	r3, r3, #4
 80037ae:	2b04      	cmp	r3, #4
 80037b0:	d124      	bne.n	80037fc <HAL_I2C_Mem_Read+0x430>
        {
          if (hi2c->XferSize == 3U)
 80037b2:	68fb      	ldr	r3, [r7, #12]
 80037b4:	8d1b      	ldrh	r3, [r3, #40]	@ 0x28
 80037b6:	2b03      	cmp	r3, #3
 80037b8:	d107      	bne.n	80037ca <HAL_I2C_Mem_Read+0x3fe>
          {
            /* Disable Acknowledge */
            CLEAR_BIT(hi2c->Instance->CR1, I2C_CR1_ACK);
 80037ba:	68fb      	ldr	r3, [r7, #12]
 80037bc:	681b      	ldr	r3, [r3, #0]
 80037be:	681a      	ldr	r2, [r3, #0]
 80037c0:	68fb      	ldr	r3, [r7, #12]
 80037c2:	681b      	ldr	r3, [r3, #0]
 80037c4:	f422 6280 	bic.w	r2, r2, #1024	@ 0x400
 80037c8:	601a      	str	r2, [r3, #0]
          }
          /* Read data from DR */
          *hi2c->pBuffPtr = (uint8_t)hi2c->Instance->DR;
 80037ca:	68fb      	ldr	r3, [r7, #12]
 80037cc:	681b      	ldr	r3, [r3, #0]
 80037ce:	691a      	ldr	r2, [r3, #16]
 80037d0:	68fb      	ldr	r3, [r7, #12]
 80037d2:	6a5b      	ldr	r3, [r3, #36]	@ 0x24
 80037d4:	b2d2      	uxtb	r2, r2
 80037d6:	701a      	strb	r2, [r3, #0]

          /* Increment Buffer pointer */
          hi2c->pBuffPtr++;
 80037d8:	68fb      	ldr	r3, [r7, #12]
 80037da:	6a5b      	ldr	r3, [r3, #36]	@ 0x24
 80037dc:	1c5a      	adds	r2, r3, #1
 80037de:	68fb      	ldr	r3, [r7, #12]
 80037e0:	625a      	str	r2, [r3, #36]	@ 0x24

          /* Update counter */
          hi2c->XferSize--;
 80037e2:	68fb      	ldr	r3, [r7, #12]
 80037e4:	8d1b      	ldrh	r3, [r3, #40]	@ 0x28
 80037e6:	3b01      	subs	r3, #1
 80037e8:	b29a      	uxth	r2, r3
 80037ea:	68fb      	ldr	r3, [r7, #12]
 80037ec:	851a      	strh	r2, [r3, #40]	@ 0x28
          hi2c->XferCount--;
 80037ee:	68fb      	ldr	r3, [r7, #12]
 80037f0:	8d5b      	ldrh	r3, [r3, #42]	@ 0x2a
 80037f2:	b29b      	uxth	r3, r3
 80037f4:	3b01      	subs	r3, #1
 80037f6:	b29a      	uxth	r2, r3
 80037f8:	68fb      	ldr	r3, [r7, #12]
 80037fa:	855a      	strh	r2, [r3, #42]	@ 0x2a
    while (hi2c->XferSize > 0U)
 80037fc:	68fb      	ldr	r3, [r7, #12]
 80037fe:	8d1b      	ldrh	r3, [r3, #40]	@ 0x28
 8003800:	2b00      	cmp	r3, #0
 8003802:	f47f aeb6 	bne.w	8003572 <HAL_I2C_Mem_Read+0x1a6>
        }
      }
    }

    hi2c->State = HAL_I2C_STATE_READY;
 8003806:	68fb      	ldr	r3, [r7, #12]
 8003808:	2220      	movs	r2, #32
 800380a:	f883 203d 	strb.w	r2, [r3, #61]	@ 0x3d
    hi2c->Mode = HAL_I2C_MODE_NONE;
 800380e:	68fb      	ldr	r3, [r7, #12]
 8003810:	2200      	movs	r2, #0
 8003812:	f883 203e 	strb.w	r2, [r3, #62]	@ 0x3e

    /* Process Unlocked */
    __HAL_UNLOCK(hi2c);
 8003816:	68fb      	ldr	r3, [r7, #12]
 8003818:	2200      	movs	r2, #0
 800381a:	f883 203c 	strb.w	r2, [r3, #60]	@ 0x3c

    return HAL_OK;
 800381e:	2300      	movs	r3, #0
 8003820:	e000      	b.n	8003824 <HAL_I2C_Mem_Read+0x458>
  }
  else
  {
    return HAL_BUSY;
 8003822:	2302      	movs	r3, #2
  }
}
 8003824:	4618      	mov	r0, r3
 8003826:	3728      	adds	r7, #40	@ 0x28
 8003828:	46bd      	mov	sp, r7
 800382a:	bd80      	pop	{r7, pc}
 800382c:	00010004 	.word	0x00010004

08003830 <I2C_RequestMemoryWrite>:
  * @param  Timeout Timeout duration
  * @param  Tickstart Tick start value
  * @retval HAL status
  */
static HAL_StatusTypeDef I2C_RequestMemoryWrite(I2C_HandleTypeDef *hi2c, uint16_t DevAddress, uint16_t MemAddress, uint16_t MemAddSize, uint32_t Timeout, uint32_t Tickstart)
{
 8003830:	b580      	push	{r7, lr}
 8003832:	b088      	sub	sp, #32
 8003834:	af02      	add	r7, sp, #8
 8003836:	60f8      	str	r0, [r7, #12]
 8003838:	4608      	mov	r0, r1
 800383a:	4611      	mov	r1, r2
 800383c:	461a      	mov	r2, r3
 800383e:	4603      	mov	r3, r0
 8003840:	817b      	strh	r3, [r7, #10]
 8003842:	460b      	mov	r3, r1
 8003844:	813b      	strh	r3, [r7, #8]
 8003846:	4613      	mov	r3, r2
 8003848:	80fb      	strh	r3, [r7, #6]
  /* Generate Start */
  SET_BIT(hi2c->Instance->CR1, I2C_CR1_START);
 800384a:	68fb      	ldr	r3, [r7, #12]
 800384c:	681b      	ldr	r3, [r3, #0]
 800384e:	681a      	ldr	r2, [r3, #0]
 8003850:	68fb      	ldr	r3, [r7, #12]
 8003852:	681b      	ldr	r3, [r3, #0]
 8003854:	f442 7280 	orr.w	r2, r2, #256	@ 0x100
 8003858:	601a      	str	r2, [r3, #0]

  /* Wait until SB flag is set */
  if (I2C_WaitOnFlagUntilTimeout(hi2c, I2C_FLAG_SB, RESET, Timeout, Tickstart) != HAL_OK)
 800385a:	6a7b      	ldr	r3, [r7, #36]	@ 0x24
 800385c:	9300      	str	r3, [sp, #0]
 800385e:	6a3b      	ldr	r3, [r7, #32]
 8003860:	2200      	movs	r2, #0
 8003862:	f04f 1101 	mov.w	r1, #65537	@ 0x10001
 8003866:	68f8      	ldr	r0, [r7, #12]
 8003868:	f000 f960 	bl	8003b2c <I2C_WaitOnFlagUntilTimeout>
 800386c:	4603      	mov	r3, r0
 800386e:	2b00      	cmp	r3, #0
 8003870:	d00d      	beq.n	800388e <I2C_RequestMemoryWrite+0x5e>
  {
    if (READ_BIT(hi2c->Instance->CR1, I2C_CR1_START) == I2C_CR1_START)
 8003872:	68fb      	ldr	r3, [r7, #12]
 8003874:	681b      	ldr	r3, [r3, #0]
 8003876:	681b      	ldr	r3, [r3, #0]
 8003878:	f403 7380 	and.w	r3, r3, #256	@ 0x100
 800387c:	f5b3 7f80 	cmp.w	r3, #256	@ 0x100
 8003880:	d103      	bne.n	800388a <I2C_RequestMemoryWrite+0x5a>
    {
      hi2c->ErrorCode = HAL_I2C_WRONG_START;
 8003882:	68fb      	ldr	r3, [r7, #12]
 8003884:	f44f 7200 	mov.w	r2, #512	@ 0x200
 8003888:	641a      	str	r2, [r3, #64]	@ 0x40
    }
    return HAL_TIMEOUT;
 800388a:	2303      	movs	r3, #3
 800388c:	e05f      	b.n	800394e <I2C_RequestMemoryWrite+0x11e>
  }

  /* Send slave address */
  hi2c->Instance->DR = I2C_7BIT_ADD_WRITE(DevAddress);
 800388e:	897b      	ldrh	r3, [r7, #10]
 8003890:	b2db      	uxtb	r3, r3
 8003892:	461a      	mov	r2, r3
 8003894:	68fb      	ldr	r3, [r7, #12]
 8003896:	681b      	ldr	r3, [r3, #0]
 8003898:	f002 02fe 	and.w	r2, r2, #254	@ 0xfe
 800389c:	611a      	str	r2, [r3, #16]

  /* Wait until ADDR flag is set */
  if (I2C_WaitOnMasterAddressFlagUntilTimeout(hi2c, I2C_FLAG_ADDR, Timeout, Tickstart) != HAL_OK)
 800389e:	6a7b      	ldr	r3, [r7, #36]	@ 0x24
 80038a0:	6a3a      	ldr	r2, [r7, #32]
 80038a2:	492d      	ldr	r1, [pc, #180]	@ (8003958 <I2C_RequestMemoryWrite+0x128>)
 80038a4:	68f8      	ldr	r0, [r7, #12]
 80038a6:	f000 f9bb 	bl	8003c20 <I2C_WaitOnMasterAddressFlagUntilTimeout>
 80038aa:	4603      	mov	r3, r0
 80038ac:	2b00      	cmp	r3, #0
 80038ae:	d001      	beq.n	80038b4 <I2C_RequestMemoryWrite+0x84>
  {
    return HAL_ERROR;
 80038b0:	2301      	movs	r3, #1
 80038b2:	e04c      	b.n	800394e <I2C_RequestMemoryWrite+0x11e>
  }

  /* Clear ADDR flag */
  __HAL_I2C_CLEAR_ADDRFLAG(hi2c);
 80038b4:	2300      	movs	r3, #0
 80038b6:	617b      	str	r3, [r7, #20]
 80038b8:	68fb      	ldr	r3, [r7, #12]
 80038ba:	681b      	ldr	r3, [r3, #0]
 80038bc:	695b      	ldr	r3, [r3, #20]
 80038be:	617b      	str	r3, [r7, #20]
 80038c0:	68fb      	ldr	r3, [r7, #12]
 80038c2:	681b      	ldr	r3, [r3, #0]
 80038c4:	699b      	ldr	r3, [r3, #24]
 80038c6:	617b      	str	r3, [r7, #20]
 80038c8:	697b      	ldr	r3, [r7, #20]

  /* Wait until TXE flag is set */
  if (I2C_WaitOnTXEFlagUntilTimeout(hi2c, Timeout, Tickstart) != HAL_OK)
 80038ca:	6a7a      	ldr	r2, [r7, #36]	@ 0x24
 80038cc:	6a39      	ldr	r1, [r7, #32]
 80038ce:	68f8      	ldr	r0, [r7, #12]
 80038d0:	f000 fa46 	bl	8003d60 <I2C_WaitOnTXEFlagUntilTimeout>
 80038d4:	4603      	mov	r3, r0
 80038d6:	2b00      	cmp	r3, #0
 80038d8:	d00d      	beq.n	80038f6 <I2C_RequestMemoryWrite+0xc6>
  {
    if (hi2c->ErrorCode == HAL_I2C_ERROR_AF)
 80038da:	68fb      	ldr	r3, [r7, #12]
 80038dc:	6c1b      	ldr	r3, [r3, #64]	@ 0x40
 80038de:	2b04      	cmp	r3, #4
 80038e0:	d107      	bne.n	80038f2 <I2C_RequestMemoryWrite+0xc2>
    {
      /* Generate Stop */
      SET_BIT(hi2c->Instance->CR1, I2C_CR1_STOP);
 80038e2:	68fb      	ldr	r3, [r7, #12]
 80038e4:	681b      	ldr	r3, [r3, #0]
 80038e6:	681a      	ldr	r2, [r3, #0]
 80038e8:	68fb      	ldr	r3, [r7, #12]
 80038ea:	681b      	ldr	r3, [r3, #0]
 80038ec:	f442 7200 	orr.w	r2, r2, #512	@ 0x200
 80038f0:	601a      	str	r2, [r3, #0]
    }
    return HAL_ERROR;
 80038f2:	2301      	movs	r3, #1
 80038f4:	e02b      	b.n	800394e <I2C_RequestMemoryWrite+0x11e>
  }

  /* If Memory address size is 8Bit */
  if (MemAddSize == I2C_MEMADD_SIZE_8BIT)
 80038f6:	88fb      	ldrh	r3, [r7, #6]
 80038f8:	2b01      	cmp	r3, #1
 80038fa:	d105      	bne.n	8003908 <I2C_RequestMemoryWrite+0xd8>
  {
    /* Send Memory Address */
    hi2c->Instance->DR = I2C_MEM_ADD_LSB(MemAddress);
 80038fc:	893b      	ldrh	r3, [r7, #8]
 80038fe:	b2da      	uxtb	r2, r3
 8003900:	68fb      	ldr	r3, [r7, #12]
 8003902:	681b      	ldr	r3, [r3, #0]
 8003904:	611a      	str	r2, [r3, #16]
 8003906:	e021      	b.n	800394c <I2C_RequestMemoryWrite+0x11c>
  }
  /* If Memory address size is 16Bit */
  else
  {
    /* Send MSB of Memory Address */
    hi2c->Instance->DR = I2C_MEM_ADD_MSB(MemAddress);
 8003908:	893b      	ldrh	r3, [r7, #8]
 800390a:	0a1b      	lsrs	r3, r3, #8
 800390c:	b29b      	uxth	r3, r3
 800390e:	b2da      	uxtb	r2, r3
 8003910:	68fb      	ldr	r3, [r7, #12]
 8003912:	681b      	ldr	r3, [r3, #0]
 8003914:	611a      	str	r2, [r3, #16]

    /* Wait until TXE flag is set */
    if (I2C_WaitOnTXEFlagUntilTimeout(hi2c, Timeout, Tickstart) != HAL_OK)
 8003916:	6a7a      	ldr	r2, [r7, #36]	@ 0x24
 8003918:	6a39      	ldr	r1, [r7, #32]
 800391a:	68f8      	ldr	r0, [r7, #12]
 800391c:	f000 fa20 	bl	8003d60 <I2C_WaitOnTXEFlagUntilTimeout>
 8003920:	4603      	mov	r3, r0
 8003922:	2b00      	cmp	r3, #0
 8003924:	d00d      	beq.n	8003942 <I2C_RequestMemoryWrite+0x112>
    {
      if (hi2c->ErrorCode == HAL_I2C_ERROR_AF)
 8003926:	68fb      	ldr	r3, [r7, #12]
 8003928:	6c1b      	ldr	r3, [r3, #64]	@ 0x40
 800392a:	2b04      	cmp	r3, #4
 800392c:	d107      	bne.n	800393e <I2C_RequestMemoryWrite+0x10e>
      {
        /* Generate Stop */
        SET_BIT(hi2c->Instance->CR1, I2C_CR1_STOP);
 800392e:	68fb      	ldr	r3, [r7, #12]
 8003930:	681b      	ldr	r3, [r3, #0]
 8003932:	681a      	ldr	r2, [r3, #0]
 8003934:	68fb      	ldr	r3, [r7, #12]
 8003936:	681b      	ldr	r3, [r3, #0]
 8003938:	f442 7200 	orr.w	r2, r2, #512	@ 0x200
 800393c:	601a      	str	r2, [r3, #0]
      }
      return HAL_ERROR;
 800393e:	2301      	movs	r3, #1
 8003940:	e005      	b.n	800394e <I2C_RequestMemoryWrite+0x11e>
    }

    /* Send LSB of Memory Address */
    hi2c->Instance->DR = I2C_MEM_ADD_LSB(MemAddress);
 8003942:	893b      	ldrh	r3, [r7, #8]
 8003944:	b2da      	uxtb	r2, r3
 8003946:	68fb      	ldr	r3, [r7, #12]
 8003948:	681b      	ldr	r3, [r3, #0]
 800394a:	611a      	str	r2, [r3, #16]
  }

  return HAL_OK;
 800394c:	2300      	movs	r3, #0
}
 800394e:	4618      	mov	r0, r3
 8003950:	3718      	adds	r7, #24
 8003952:	46bd      	mov	sp, r7
 8003954:	bd80      	pop	{r7, pc}
 8003956:	bf00      	nop
 8003958:	00010002 	.word	0x00010002

0800395c <I2C_RequestMemoryRead>:
  * @param  Timeout Timeout duration
  * @param  Tickstart Tick start value
  * @retval HAL status
  */
static HAL_StatusTypeDef I2C_RequestMemoryRead(I2C_HandleTypeDef *hi2c, uint16_t DevAddress, uint16_t MemAddress, uint16_t MemAddSize, uint32_t Timeout, uint32_t Tickstart)
{
 800395c:	b580      	push	{r7, lr}
 800395e:	b088      	sub	sp, #32
 8003960:	af02      	add	r7, sp, #8
 8003962:	60f8      	str	r0, [r7, #12]
 8003964:	4608      	mov	r0, r1
 8003966:	4611      	mov	r1, r2
 8003968:	461a      	mov	r2, r3
 800396a:	4603      	mov	r3, r0
 800396c:	817b      	strh	r3, [r7, #10]
 800396e:	460b      	mov	r3, r1
 8003970:	813b      	strh	r3, [r7, #8]
 8003972:	4613      	mov	r3, r2
 8003974:	80fb      	strh	r3, [r7, #6]
  /* Enable Acknowledge */
  SET_BIT(hi2c->Instance->CR1, I2C_CR1_ACK);
 8003976:	68fb      	ldr	r3, [r7, #12]
 8003978:	681b      	ldr	r3, [r3, #0]
 800397a:	681a      	ldr	r2, [r3, #0]
 800397c:	68fb      	ldr	r3, [r7, #12]
 800397e:	681b      	ldr	r3, [r3, #0]
 8003980:	f442 6280 	orr.w	r2, r2, #1024	@ 0x400
 8003984:	601a      	str	r2, [r3, #0]

  /* Generate Start */
  SET_BIT(hi2c->Instance->CR1, I2C_CR1_START);
 8003986:	68fb      	ldr	r3, [r7, #12]
 8003988:	681b      	ldr	r3, [r3, #0]
 800398a:	681a      	ldr	r2, [r3, #0]
 800398c:	68fb      	ldr	r3, [r7, #12]
 800398e:	681b      	ldr	r3, [r3, #0]
 8003990:	f442 7280 	orr.w	r2, r2, #256	@ 0x100
 8003994:	601a      	str	r2, [r3, #0]

  /* Wait until SB flag is set */
  if (I2C_WaitOnFlagUntilTimeout(hi2c, I2C_FLAG_SB, RESET, Timeout, Tickstart) != HAL_OK)
 8003996:	6a7b      	ldr	r3, [r7, #36]	@ 0x24
 8003998:	9300      	str	r3, [sp, #0]
 800399a:	6a3b      	ldr	r3, [r7, #32]
 800399c:	2200      	movs	r2, #0
 800399e:	f04f 1101 	mov.w	r1, #65537	@ 0x10001
 80039a2:	68f8      	ldr	r0, [r7, #12]
 80039a4:	f000 f8c2 	bl	8003b2c <I2C_WaitOnFlagUntilTimeout>
 80039a8:	4603      	mov	r3, r0
 80039aa:	2b00      	cmp	r3, #0
 80039ac:	d00d      	beq.n	80039ca <I2C_RequestMemoryRead+0x6e>
  {
    if (READ_BIT(hi2c->Instance->CR1, I2C_CR1_START) == I2C_CR1_START)
 80039ae:	68fb      	ldr	r3, [r7, #12]
 80039b0:	681b      	ldr	r3, [r3, #0]
 80039b2:	681b      	ldr	r3, [r3, #0]
 80039b4:	f403 7380 	and.w	r3, r3, #256	@ 0x100
 80039b8:	f5b3 7f80 	cmp.w	r3, #256	@ 0x100
 80039bc:	d103      	bne.n	80039c6 <I2C_RequestMemoryRead+0x6a>
    {
      hi2c->ErrorCode = HAL_I2C_WRONG_START;
 80039be:	68fb      	ldr	r3, [r7, #12]
 80039c0:	f44f 7200 	mov.w	r2, #512	@ 0x200
 80039c4:	641a      	str	r2, [r3, #64]	@ 0x40
    }
    return HAL_TIMEOUT;
 80039c6:	2303      	movs	r3, #3
 80039c8:	e0aa      	b.n	8003b20 <I2C_RequestMemoryRead+0x1c4>
  }

  /* Send slave address */
  hi2c->Instance->DR = I2C_7BIT_ADD_WRITE(DevAddress);
 80039ca:	897b      	ldrh	r3, [r7, #10]
 80039cc:	b2db      	uxtb	r3, r3
 80039ce:	461a      	mov	r2, r3
 80039d0:	68fb      	ldr	r3, [r7, #12]
 80039d2:	681b      	ldr	r3, [r3, #0]
 80039d4:	f002 02fe 	and.w	r2, r2, #254	@ 0xfe
 80039d8:	611a      	str	r2, [r3, #16]

  /* Wait until ADDR flag is set */
  if (I2C_WaitOnMasterAddressFlagUntilTimeout(hi2c, I2C_FLAG_ADDR, Timeout, Tickstart) != HAL_OK)
 80039da:	6a7b      	ldr	r3, [r7, #36]	@ 0x24
 80039dc:	6a3a      	ldr	r2, [r7, #32]
 80039de:	4952      	ldr	r1, [pc, #328]	@ (8003b28 <I2C_RequestMemoryRead+0x1cc>)
 80039e0:	68f8      	ldr	r0, [r7, #12]
 80039e2:	f000 f91d 	bl	8003c20 <I2C_WaitOnMasterAddressFlagUntilTimeout>
 80039e6:	4603      	mov	r3, r0
 80039e8:	2b00      	cmp	r3, #0
 80039ea:	d001      	beq.n	80039f0 <I2C_RequestMemoryRead+0x94>
  {
    return HAL_ERROR;
 80039ec:	2301      	movs	r3, #1
 80039ee:	e097      	b.n	8003b20 <I2C_RequestMemoryRead+0x1c4>
  }

  /* Clear ADDR flag */
  __HAL_I2C_CLEAR_ADDRFLAG(hi2c);
 80039f0:	2300      	movs	r3, #0
 80039f2:	617b      	str	r3, [r7, #20]
 80039f4:	68fb      	ldr	r3, [r7, #12]
 80039f6:	681b      	ldr	r3, [r3, #0]
 80039f8:	695b      	ldr	r3, [r3, #20]
 80039fa:	617b      	str	r3, [r7, #20]
 80039fc:	68fb      	ldr	r3, [r7, #12]
 80039fe:	681b      	ldr	r3, [r3, #0]
 8003a00:	699b      	ldr	r3, [r3, #24]
 8003a02:	617b      	str	r3, [r7, #20]
 8003a04:	697b      	ldr	r3, [r7, #20]

  /* Wait until TXE flag is set */
  if (I2C_WaitOnTXEFlagUntilTimeout(hi2c, Timeout, Tickstart) != HAL_OK)
 8003a06:	6a7a      	ldr	r2, [r7, #36]	@ 0x24
 8003a08:	6a39      	ldr	r1, [r7, #32]
 8003a0a:	68f8      	ldr	r0, [r7, #12]
 8003a0c:	f000 f9a8 	bl	8003d60 <I2C_WaitOnTXEFlagUntilTimeout>
 8003a10:	4603      	mov	r3, r0
 8003a12:	2b00      	cmp	r3, #0
 8003a14:	d00d      	beq.n	8003a32 <I2C_RequestMemoryRead+0xd6>
  {
    if (hi2c->ErrorCode == HAL_I2C_ERROR_AF)
 8003a16:	68fb      	ldr	r3, [r7, #12]
 8003a18:	6c1b      	ldr	r3, [r3, #64]	@ 0x40
 8003a1a:	2b04      	cmp	r3, #4
 8003a1c:	d107      	bne.n	8003a2e <I2C_RequestMemoryRead+0xd2>
    {
      /* Generate Stop */
      SET_BIT(hi2c->Instance->CR1, I2C_CR1_STOP);
 8003a1e:	68fb      	ldr	r3, [r7, #12]
 8003a20:	681b      	ldr	r3, [r3, #0]
 8003a22:	681a      	ldr	r2, [r3, #0]
 8003a24:	68fb      	ldr	r3, [r7, #12]
 8003a26:	681b      	ldr	r3, [r3, #0]
 8003a28:	f442 7200 	orr.w	r2, r2, #512	@ 0x200
 8003a2c:	601a      	str	r2, [r3, #0]
    }
    return HAL_ERROR;
 8003a2e:	2301      	movs	r3, #1
 8003a30:	e076      	b.n	8003b20 <I2C_RequestMemoryRead+0x1c4>
  }

  /* If Memory address size is 8Bit */
  if (MemAddSize == I2C_MEMADD_SIZE_8BIT)
 8003a32:	88fb      	ldrh	r3, [r7, #6]
 8003a34:	2b01      	cmp	r3, #1
 8003a36:	d105      	bne.n	8003a44 <I2C_RequestMemoryRead+0xe8>
  {
    /* Send Memory Address */
    hi2c->Instance->DR = I2C_MEM_ADD_LSB(MemAddress);
 8003a38:	893b      	ldrh	r3, [r7, #8]
 8003a3a:	b2da      	uxtb	r2, r3
 8003a3c:	68fb      	ldr	r3, [r7, #12]
 8003a3e:	681b      	ldr	r3, [r3, #0]
 8003a40:	611a      	str	r2, [r3, #16]
 8003a42:	e021      	b.n	8003a88 <I2C_RequestMemoryRead+0x12c>
  }
  /* If Memory address size is 16Bit */
  else
  {
    /* Send MSB of Memory Address */
    hi2c->Instance->DR = I2C_MEM_ADD_MSB(MemAddress);
 8003a44:	893b      	ldrh	r3, [r7, #8]
 8003a46:	0a1b      	lsrs	r3, r3, #8
 8003a48:	b29b      	uxth	r3, r3
 8003a4a:	b2da      	uxtb	r2, r3
 8003a4c:	68fb      	ldr	r3, [r7, #12]
 8003a4e:	681b      	ldr	r3, [r3, #0]
 8003a50:	611a      	str	r2, [r3, #16]

    /* Wait until TXE flag is set */
    if (I2C_WaitOnTXEFlagUntilTimeout(hi2c, Timeout, Tickstart) != HAL_OK)
 8003a52:	6a7a      	ldr	r2, [r7, #36]	@ 0x24
 8003a54:	6a39      	ldr	r1, [r7, #32]
 8003a56:	68f8      	ldr	r0, [r7, #12]
 8003a58:	f000 f982 	bl	8003d60 <I2C_WaitOnTXEFlagUntilTimeout>
 8003a5c:	4603      	mov	r3, r0
 8003a5e:	2b00      	cmp	r3, #0
 8003a60:	d00d      	beq.n	8003a7e <I2C_RequestMemoryRead+0x122>
    {
      if (hi2c->ErrorCode == HAL_I2C_ERROR_AF)
 8003a62:	68fb      	ldr	r3, [r7, #12]
 8003a64:	6c1b      	ldr	r3, [r3, #64]	@ 0x40
 8003a66:	2b04      	cmp	r3, #4
 8003a68:	d107      	bne.n	8003a7a <I2C_RequestMemoryRead+0x11e>
      {
        /* Generate Stop */
        SET_BIT(hi2c->Instance->CR1, I2C_CR1_STOP);
 8003a6a:	68fb      	ldr	r3, [r7, #12]
 8003a6c:	681b      	ldr	r3, [r3, #0]
 8003a6e:	681a      	ldr	r2, [r3, #0]
 8003a70:	68fb      	ldr	r3, [r7, #12]
 8003a72:	681b      	ldr	r3, [r3, #0]
 8003a74:	f442 7200 	orr.w	r2, r2, #512	@ 0x200
 8003a78:	601a      	str	r2, [r3, #0]
      }
      return HAL_ERROR;
 8003a7a:	2301      	movs	r3, #1
 8003a7c:	e050      	b.n	8003b20 <I2C_RequestMemoryRead+0x1c4>
    }

    /* Send LSB of Memory Address */
    hi2c->Instance->DR = I2C_MEM_ADD_LSB(MemAddress);
 8003a7e:	893b      	ldrh	r3, [r7, #8]
 8003a80:	b2da      	uxtb	r2, r3
 8003a82:	68fb      	ldr	r3, [r7, #12]
 8003a84:	681b      	ldr	r3, [r3, #0]
 8003a86:	611a      	str	r2, [r3, #16]
  }

  /* Wait until TXE flag is set */
  if (I2C_WaitOnTXEFlagUntilTimeout(hi2c, Timeout, Tickstart) != HAL_OK)
 8003a88:	6a7a      	ldr	r2, [r7, #36]	@ 0x24
 8003a8a:	6a39      	ldr	r1, [r7, #32]
 8003a8c:	68f8      	ldr	r0, [r7, #12]
 8003a8e:	f000 f967 	bl	8003d60 <I2C_WaitOnTXEFlagUntilTimeout>
 8003a92:	4603      	mov	r3, r0
 8003a94:	2b00      	cmp	r3, #0
 8003a96:	d00d      	beq.n	8003ab4 <I2C_RequestMemoryRead+0x158>
  {
    if (hi2c->ErrorCode == HAL_I2C_ERROR_AF)
 8003a98:	68fb      	ldr	r3, [r7, #12]
 8003a9a:	6c1b      	ldr	r3, [r3, #64]	@ 0x40
 8003a9c:	2b04      	cmp	r3, #4
 8003a9e:	d107      	bne.n	8003ab0 <I2C_RequestMemoryRead+0x154>
    {
      /* Generate Stop */
      SET_BIT(hi2c->Instance->CR1, I2C_CR1_STOP);
 8003aa0:	68fb      	ldr	r3, [r7, #12]
 8003aa2:	681b      	ldr	r3, [r3, #0]
 8003aa4:	681a      	ldr	r2, [r3, #0]
 8003aa6:	68fb      	ldr	r3, [r7, #12]
 8003aa8:	681b      	ldr	r3, [r3, #0]
 8003aaa:	f442 7200 	orr.w	r2, r2, #512	@ 0x200
 8003aae:	601a      	str	r2, [r3, #0]
    }
    return HAL_ERROR;
 8003ab0:	2301      	movs	r3, #1
 8003ab2:	e035      	b.n	8003b20 <I2C_RequestMemoryRead+0x1c4>
  }

  /* Generate Restart */
  SET_BIT(hi2c->Instance->CR1, I2C_CR1_START);
 8003ab4:	68fb      	ldr	r3, [r7, #12]
 8003ab6:	681b      	ldr	r3, [r3, #0]
 8003ab8:	681a      	ldr	r2, [r3, #0]
 8003aba:	68fb      	ldr	r3, [r7, #12]
 8003abc:	681b      	ldr	r3, [r3, #0]
 8003abe:	f442 7280 	orr.w	r2, r2, #256	@ 0x100
 8003ac2:	601a      	str	r2, [r3, #0]

  /* Wait until SB flag is set */
  if (I2C_WaitOnFlagUntilTimeout(hi2c, I2C_FLAG_SB, RESET, Timeout, Tickstart) != HAL_OK)
 8003ac4:	6a7b      	ldr	r3, [r7, #36]	@ 0x24
 8003ac6:	9300      	str	r3, [sp, #0]
 8003ac8:	6a3b      	ldr	r3, [r7, #32]
 8003aca:	2200      	movs	r2, #0
 8003acc:	f04f 1101 	mov.w	r1, #65537	@ 0x10001
 8003ad0:	68f8      	ldr	r0, [r7, #12]
 8003ad2:	f000 f82b 	bl	8003b2c <I2C_WaitOnFlagUntilTimeout>
 8003ad6:	4603      	mov	r3, r0
 8003ad8:	2b00      	cmp	r3, #0
 8003ada:	d00d      	beq.n	8003af8 <I2C_RequestMemoryRead+0x19c>
  {
    if (READ_BIT(hi2c->Instance->CR1, I2C_CR1_START) == I2C_CR1_START)
 8003adc:	68fb      	ldr	r3, [r7, #12]
 8003ade:	681b      	ldr	r3, [r3, #0]
 8003ae0:	681b      	ldr	r3, [r3, #0]
 8003ae2:	f403 7380 	and.w	r3, r3, #256	@ 0x100
 8003ae6:	f5b3 7f80 	cmp.w	r3, #256	@ 0x100
 8003aea:	d103      	bne.n	8003af4 <I2C_RequestMemoryRead+0x198>
    {
      hi2c->ErrorCode = HAL_I2C_WRONG_START;
 8003aec:	68fb      	ldr	r3, [r7, #12]
 8003aee:	f44f 7200 	mov.w	r2, #512	@ 0x200
 8003af2:	641a      	str	r2, [r3, #64]	@ 0x40
    }
    return HAL_TIMEOUT;
 8003af4:	2303      	movs	r3, #3
 8003af6:	e013      	b.n	8003b20 <I2C_RequestMemoryRead+0x1c4>
  }

  /* Send slave address */
  hi2c->Instance->DR = I2C_7BIT_ADD_READ(DevAddress);
 8003af8:	897b      	ldrh	r3, [r7, #10]
 8003afa:	b2db      	uxtb	r3, r3
 8003afc:	f043 0301 	orr.w	r3, r3, #1
 8003b00:	b2da      	uxtb	r2, r3
 8003b02:	68fb      	ldr	r3, [r7, #12]
 8003b04:	681b      	ldr	r3, [r3, #0]
 8003b06:	611a      	str	r2, [r3, #16]

  /* Wait until ADDR flag is set */
  if (I2C_WaitOnMasterAddressFlagUntilTimeout(hi2c, I2C_FLAG_ADDR, Timeout, Tickstart) != HAL_OK)
 8003b08:	6a7b      	ldr	r3, [r7, #36]	@ 0x24
 8003b0a:	6a3a      	ldr	r2, [r7, #32]
 8003b0c:	4906      	ldr	r1, [pc, #24]	@ (8003b28 <I2C_RequestMemoryRead+0x1cc>)
 8003b0e:	68f8      	ldr	r0, [r7, #12]
 8003b10:	f000 f886 	bl	8003c20 <I2C_WaitOnMasterAddressFlagUntilTimeout>
 8003b14:	4603      	mov	r3, r0
 8003b16:	2b00      	cmp	r3, #0
 8003b18:	d001      	beq.n	8003b1e <I2C_RequestMemoryRead+0x1c2>
  {
    return HAL_ERROR;
 8003b1a:	2301      	movs	r3, #1
 8003b1c:	e000      	b.n	8003b20 <I2C_RequestMemoryRead+0x1c4>
  }

  return HAL_OK;
 8003b1e:	2300      	movs	r3, #0
}
 8003b20:	4618      	mov	r0, r3
 8003b22:	3718      	adds	r7, #24
 8003b24:	46bd      	mov	sp, r7
 8003b26:	bd80      	pop	{r7, pc}
 8003b28:	00010002 	.word	0x00010002

08003b2c <I2C_WaitOnFlagUntilTimeout>:
  * @param  Timeout Timeout duration
  * @param  Tickstart Tick start value
  * @retval HAL status
  */
static HAL_StatusTypeDef I2C_WaitOnFlagUntilTimeout(I2C_HandleTypeDef *hi2c, uint32_t Flag, FlagStatus Status, uint32_t Timeout, uint32_t Tickstart)
{
 8003b2c:	b580      	push	{r7, lr}
 8003b2e:	b084      	sub	sp, #16
 8003b30:	af00      	add	r7, sp, #0
 8003b32:	60f8      	str	r0, [r7, #12]
 8003b34:	60b9      	str	r1, [r7, #8]
 8003b36:	603b      	str	r3, [r7, #0]
 8003b38:	4613      	mov	r3, r2
 8003b3a:	71fb      	strb	r3, [r7, #7]
  /* Wait until flag is set */
  while (__HAL_I2C_GET_FLAG(hi2c, Flag) == Status)
 8003b3c:	e048      	b.n	8003bd0 <I2C_WaitOnFlagUntilTimeout+0xa4>
  {
    /* Check for the Timeout */
    if (Timeout != HAL_MAX_DELAY)
 8003b3e:	683b      	ldr	r3, [r7, #0]
 8003b40:	f1b3 3fff 	cmp.w	r3, #4294967295
 8003b44:	d044      	beq.n	8003bd0 <I2C_WaitOnFlagUntilTimeout+0xa4>
    {
      if (((HAL_GetTick() - Tickstart) > Timeout) || (Timeout == 0U))
 8003b46:	f7fe fe77 	bl	8002838 <HAL_GetTick>
 8003b4a:	4602      	mov	r2, r0
 8003b4c:	69bb      	ldr	r3, [r7, #24]
 8003b4e:	1ad3      	subs	r3, r2, r3
 8003b50:	683a      	ldr	r2, [r7, #0]
 8003b52:	429a      	cmp	r2, r3
 8003b54:	d302      	bcc.n	8003b5c <I2C_WaitOnFlagUntilTimeout+0x30>
 8003b56:	683b      	ldr	r3, [r7, #0]
 8003b58:	2b00      	cmp	r3, #0
 8003b5a:	d139      	bne.n	8003bd0 <I2C_WaitOnFlagUntilTimeout+0xa4>
      {
        if ((__HAL_I2C_GET_FLAG(hi2c, Flag) == Status))
 8003b5c:	68bb      	ldr	r3, [r7, #8]
 8003b5e:	0c1b      	lsrs	r3, r3, #16
 8003b60:	b2db      	uxtb	r3, r3
 8003b62:	2b01      	cmp	r3, #1
 8003b64:	d10d      	bne.n	8003b82 <I2C_WaitOnFlagUntilTimeout+0x56>
 8003b66:	68fb      	ldr	r3, [r7, #12]
 8003b68:	681b      	ldr	r3, [r3, #0]
 8003b6a:	695b      	ldr	r3, [r3, #20]
 8003b6c:	43da      	mvns	r2, r3
 8003b6e:	68bb      	ldr	r3, [r7, #8]
 8003b70:	4013      	ands	r3, r2
 8003b72:	b29b      	uxth	r3, r3
 8003b74:	2b00      	cmp	r3, #0
 8003b76:	bf0c      	ite	eq
 8003b78:	2301      	moveq	r3, #1
 8003b7a:	2300      	movne	r3, #0
 8003b7c:	b2db      	uxtb	r3, r3
 8003b7e:	461a      	mov	r2, r3
 8003b80:	e00c      	b.n	8003b9c <I2C_WaitOnFlagUntilTimeout+0x70>
 8003b82:	68fb      	ldr	r3, [r7, #12]
 8003b84:	681b      	ldr	r3, [r3, #0]
 8003b86:	699b      	ldr	r3, [r3, #24]
 8003b88:	43da      	mvns	r2, r3
 8003b8a:	68bb      	ldr	r3, [r7, #8]
 8003b8c:	4013      	ands	r3, r2
 8003b8e:	b29b      	uxth	r3, r3
 8003b90:	2b00      	cmp	r3, #0
 8003b92:	bf0c      	ite	eq
 8003b94:	2301      	moveq	r3, #1
 8003b96:	2300      	movne	r3, #0
 8003b98:	b2db      	uxtb	r3, r3
 8003b9a:	461a      	mov	r2, r3
 8003b9c:	79fb      	ldrb	r3, [r7, #7]
 8003b9e:	429a      	cmp	r2, r3
 8003ba0:	d116      	bne.n	8003bd0 <I2C_WaitOnFlagUntilTimeout+0xa4>
        {
          hi2c->PreviousState     = I2C_STATE_NONE;
 8003ba2:	68fb      	ldr	r3, [r7, #12]
 8003ba4:	2200      	movs	r2, #0
 8003ba6:	631a      	str	r2, [r3, #48]	@ 0x30
          hi2c->State             = HAL_I2C_STATE_READY;
 8003ba8:	68fb      	ldr	r3, [r7, #12]
 8003baa:	2220      	movs	r2, #32
 8003bac:	f883 203d 	strb.w	r2, [r3, #61]	@ 0x3d
          hi2c->Mode              = HAL_I2C_MODE_NONE;
 8003bb0:	68fb      	ldr	r3, [r7, #12]
 8003bb2:	2200      	movs	r2, #0
 8003bb4:	f883 203e 	strb.w	r2, [r3, #62]	@ 0x3e
          hi2c->ErrorCode         |= HAL_I2C_ERROR_TIMEOUT;
 8003bb8:	68fb      	ldr	r3, [r7, #12]
 8003bba:	6c1b      	ldr	r3, [r3, #64]	@ 0x40
 8003bbc:	f043 0220 	orr.w	r2, r3, #32
 8003bc0:	68fb      	ldr	r3, [r7, #12]
 8003bc2:	641a      	str	r2, [r3, #64]	@ 0x40

          /* Process Unlocked */
          __HAL_UNLOCK(hi2c);
 8003bc4:	68fb      	ldr	r3, [r7, #12]
 8003bc6:	2200      	movs	r2, #0
 8003bc8:	f883 203c 	strb.w	r2, [r3, #60]	@ 0x3c

          return HAL_ERROR;
 8003bcc:	2301      	movs	r3, #1
 8003bce:	e023      	b.n	8003c18 <I2C_WaitOnFlagUntilTimeout+0xec>
  while (__HAL_I2C_GET_FLAG(hi2c, Flag) == Status)
 8003bd0:	68bb      	ldr	r3, [r7, #8]
 8003bd2:	0c1b      	lsrs	r3, r3, #16
 8003bd4:	b2db      	uxtb	r3, r3
 8003bd6:	2b01      	cmp	r3, #1
 8003bd8:	d10d      	bne.n	8003bf6 <I2C_WaitOnFlagUntilTimeout+0xca>
 8003bda:	68fb      	ldr	r3, [r7, #12]
 8003bdc:	681b      	ldr	r3, [r3, #0]
 8003bde:	695b      	ldr	r3, [r3, #20]
 8003be0:	43da      	mvns	r2, r3
 8003be2:	68bb      	ldr	r3, [r7, #8]
 8003be4:	4013      	ands	r3, r2
 8003be6:	b29b      	uxth	r3, r3
 8003be8:	2b00      	cmp	r3, #0
 8003bea:	bf0c      	ite	eq
 8003bec:	2301      	moveq	r3, #1
 8003bee:	2300      	movne	r3, #0
 8003bf0:	b2db      	uxtb	r3, r3
 8003bf2:	461a      	mov	r2, r3
 8003bf4:	e00c      	b.n	8003c10 <I2C_WaitOnFlagUntilTimeout+0xe4>
 8003bf6:	68fb      	ldr	r3, [r7, #12]
 8003bf8:	681b      	ldr	r3, [r3, #0]
 8003bfa:	699b      	ldr	r3, [r3, #24]
 8003bfc:	43da      	mvns	r2, r3
 8003bfe:	68bb      	ldr	r3, [r7, #8]
 8003c00:	4013      	ands	r3, r2
 8003c02:	b29b      	uxth	r3, r3
 8003c04:	2b00      	cmp	r3, #0
 8003c06:	bf0c      	ite	eq
 8003c08:	2301      	moveq	r3, #1
 8003c0a:	2300      	movne	r3, #0
 8003c0c:	b2db      	uxtb	r3, r3
 8003c0e:	461a      	mov	r2, r3
 8003c10:	79fb      	ldrb	r3, [r7, #7]
 8003c12:	429a      	cmp	r2, r3
 8003c14:	d093      	beq.n	8003b3e <I2C_WaitOnFlagUntilTimeout+0x12>
        }
      }
    }
  }
  return HAL_OK;
 8003c16:	2300      	movs	r3, #0
}
 8003c18:	4618      	mov	r0, r3
 8003c1a:	3710      	adds	r7, #16
 8003c1c:	46bd      	mov	sp, r7
 8003c1e:	bd80      	pop	{r7, pc}

08003c20 <I2C_WaitOnMasterAddressFlagUntilTimeout>:
  * @param  Timeout Timeout duration
  * @param  Tickstart Tick start value
  * @retval HAL status
  */
static HAL_StatusTypeDef I2C_WaitOnMasterAddressFlagUntilTimeout(I2C_HandleTypeDef *hi2c, uint32_t Flag, uint32_t Timeout, uint32_t Tickstart)
{
 8003c20:	b580      	push	{r7, lr}
 8003c22:	b084      	sub	sp, #16
 8003c24:	af00      	add	r7, sp, #0
 8003c26:	60f8      	str	r0, [r7, #12]
 8003c28:	60b9      	str	r1, [r7, #8]
 8003c2a:	607a      	str	r2, [r7, #4]
 8003c2c:	603b      	str	r3, [r7, #0]
  while (__HAL_I2C_GET_FLAG(hi2c, Flag) == RESET)
 8003c2e:	e071      	b.n	8003d14 <I2C_WaitOnMasterAddressFlagUntilTimeout+0xf4>
  {
    if (__HAL_I2C_GET_FLAG(hi2c, I2C_FLAG_AF) == SET)
 8003c30:	68fb      	ldr	r3, [r7, #12]
 8003c32:	681b      	ldr	r3, [r3, #0]
 8003c34:	695b      	ldr	r3, [r3, #20]
 8003c36:	f403 6380 	and.w	r3, r3, #1024	@ 0x400
 8003c3a:	f5b3 6f80 	cmp.w	r3, #1024	@ 0x400
 8003c3e:	d123      	bne.n	8003c88 <I2C_WaitOnMasterAddressFlagUntilTimeout+0x68>
    {
      /* Generate Stop */
      SET_BIT(hi2c->Instance->CR1, I2C_CR1_STOP);
 8003c40:	68fb      	ldr	r3, [r7, #12]
 8003c42:	681b      	ldr	r3, [r3, #0]
 8003c44:	681a      	ldr	r2, [r3, #0]
 8003c46:	68fb      	ldr	r3, [r7, #12]
 8003c48:	681b      	ldr	r3, [r3, #0]
 8003c4a:	f442 7200 	orr.w	r2, r2, #512	@ 0x200
 8003c4e:	601a      	str	r2, [r3, #0]

      /* Clear AF Flag */
      __HAL_I2C_CLEAR_FLAG(hi2c, I2C_FLAG_AF);
 8003c50:	68fb      	ldr	r3, [r7, #12]
 8003c52:	681b      	ldr	r3, [r3, #0]
 8003c54:	f46f 6280 	mvn.w	r2, #1024	@ 0x400
 8003c58:	615a      	str	r2, [r3, #20]

      hi2c->PreviousState       = I2C_STATE_NONE;
 8003c5a:	68fb      	ldr	r3, [r7, #12]
 8003c5c:	2200      	movs	r2, #0
 8003c5e:	631a      	str	r2, [r3, #48]	@ 0x30
      hi2c->State               = HAL_I2C_STATE_READY;
 8003c60:	68fb      	ldr	r3, [r7, #12]
 8003c62:	2220      	movs	r2, #32
 8003c64:	f883 203d 	strb.w	r2, [r3, #61]	@ 0x3d
      hi2c->Mode                = HAL_I2C_MODE_NONE;
 8003c68:	68fb      	ldr	r3, [r7, #12]
 8003c6a:	2200      	movs	r2, #0
 8003c6c:	f883 203e 	strb.w	r2, [r3, #62]	@ 0x3e
      hi2c->ErrorCode           |= HAL_I2C_ERROR_AF;
 8003c70:	68fb      	ldr	r3, [r7, #12]
 8003c72:	6c1b      	ldr	r3, [r3, #64]	@ 0x40
 8003c74:	f043 0204 	orr.w	r2, r3, #4
 8003c78:	68fb      	ldr	r3, [r7, #12]
 8003c7a:	641a      	str	r2, [r3, #64]	@ 0x40

      /* Process Unlocked */
      __HAL_UNLOCK(hi2c);
 8003c7c:	68fb      	ldr	r3, [r7, #12]
 8003c7e:	2200      	movs	r2, #0
 8003c80:	f883 203c 	strb.w	r2, [r3, #60]	@ 0x3c

      return HAL_ERROR;
 8003c84:	2301      	movs	r3, #1
 8003c86:	e067      	b.n	8003d58 <I2C_WaitOnMasterAddressFlagUntilTimeout+0x138>
    }

    /* Check for the Timeout */
    if (Timeout != HAL_MAX_DELAY)
 8003c88:	687b      	ldr	r3, [r7, #4]
 8003c8a:	f1b3 3fff 	cmp.w	r3, #4294967295
 8003c8e:	d041      	beq.n	8003d14 <I2C_WaitOnMasterAddressFlagUntilTimeout+0xf4>
    {
      if (((HAL_GetTick() - Tickstart) > Timeout) || (Timeout == 0U))
 8003c90:	f7fe fdd2 	bl	8002838 <HAL_GetTick>
 8003c94:	4602      	mov	r2, r0
 8003c96:	683b      	ldr	r3, [r7, #0]
 8003c98:	1ad3      	subs	r3, r2, r3
 8003c9a:	687a      	ldr	r2, [r7, #4]
 8003c9c:	429a      	cmp	r2, r3
 8003c9e:	d302      	bcc.n	8003ca6 <I2C_WaitOnMasterAddressFlagUntilTimeout+0x86>
 8003ca0:	687b      	ldr	r3, [r7, #4]
 8003ca2:	2b00      	cmp	r3, #0
 8003ca4:	d136      	bne.n	8003d14 <I2C_WaitOnMasterAddressFlagUntilTimeout+0xf4>
      {
        if ((__HAL_I2C_GET_FLAG(hi2c, Flag) == RESET))
 8003ca6:	68bb      	ldr	r3, [r7, #8]
 8003ca8:	0c1b      	lsrs	r3, r3, #16
 8003caa:	b2db      	uxtb	r3, r3
 8003cac:	2b01      	cmp	r3, #1
 8003cae:	d10c      	bne.n	8003cca <I2C_WaitOnMasterAddressFlagUntilTimeout+0xaa>
 8003cb0:	68fb      	ldr	r3, [r7, #12]
 8003cb2:	681b      	ldr	r3, [r3, #0]
 8003cb4:	695b      	ldr	r3, [r3, #20]
 8003cb6:	43da      	mvns	r2, r3
 8003cb8:	68bb      	ldr	r3, [r7, #8]
 8003cba:	4013      	ands	r3, r2
 8003cbc:	b29b      	uxth	r3, r3
 8003cbe:	2b00      	cmp	r3, #0
 8003cc0:	bf14      	ite	ne
 8003cc2:	2301      	movne	r3, #1
 8003cc4:	2300      	moveq	r3, #0
 8003cc6:	b2db      	uxtb	r3, r3
 8003cc8:	e00b      	b.n	8003ce2 <I2C_WaitOnMasterAddressFlagUntilTimeout+0xc2>
 8003cca:	68fb      	ldr	r3, [r7, #12]
 8003ccc:	681b      	ldr	r3, [r3, #0]
 8003cce:	699b      	ldr	r3, [r3, #24]
 8003cd0:	43da      	mvns	r2, r3
 8003cd2:	68bb      	ldr	r3, [r7, #8]
 8003cd4:	4013      	ands	r3, r2
 8003cd6:	b29b      	uxth	r3, r3
 8003cd8:	2b00      	cmp	r3, #0
 8003cda:	bf14      	ite	ne
 8003cdc:	2301      	movne	r3, #1
 8003cde:	2300      	moveq	r3, #0
 8003ce0:	b2db      	uxtb	r3, r3
 8003ce2:	2b00      	cmp	r3, #0
 8003ce4:	d016      	beq.n	8003d14 <I2C_WaitOnMasterAddressFlagUntilTimeout+0xf4>
        {
          hi2c->PreviousState       = I2C_STATE_NONE;
 8003ce6:	68fb      	ldr	r3, [r7, #12]
 8003ce8:	2200      	movs	r2, #0
 8003cea:	631a      	str	r2, [r3, #48]	@ 0x30
          hi2c->State               = HAL_I2C_STATE_READY;
 8003cec:	68fb      	ldr	r3, [r7, #12]
 8003cee:	2220      	movs	r2, #32
 8003cf0:	f883 203d 	strb.w	r2, [r3, #61]	@ 0x3d
          hi2c->Mode                = HAL_I2C_MODE_NONE;
 8003cf4:	68fb      	ldr	r3, [r7, #12]
 8003cf6:	2200      	movs	r2, #0
 8003cf8:	f883 203e 	strb.w	r2, [r3, #62]	@ 0x3e
          hi2c->ErrorCode           |= HAL_I2C_ERROR_TIMEOUT;
 8003cfc:	68fb      	ldr	r3, [r7, #12]
 8003cfe:	6c1b      	ldr	r3, [r3, #64]	@ 0x40
 8003d00:	f043 0220 	orr.w	r2, r3, #32
 8003d04:	68fb      	ldr	r3, [r7, #12]
 8003d06:	641a      	str	r2, [r3, #64]	@ 0x40

          /* Process Unlocked */
          __HAL_UNLOCK(hi2c);
 8003d08:	68fb      	ldr	r3, [r7, #12]
 8003d0a:	2200      	movs	r2, #0
 8003d0c:	f883 203c 	strb.w	r2, [r3, #60]	@ 0x3c

          return HAL_ERROR;
 8003d10:	2301      	movs	r3, #1
 8003d12:	e021      	b.n	8003d58 <I2C_WaitOnMasterAddressFlagUntilTimeout+0x138>
  while (__HAL_I2C_GET_FLAG(hi2c, Flag) == RESET)
 8003d14:	68bb      	ldr	r3, [r7, #8]
 8003d16:	0c1b      	lsrs	r3, r3, #16
 8003d18:	b2db      	uxtb	r3, r3
 8003d1a:	2b01      	cmp	r3, #1
 8003d1c:	d10c      	bne.n	8003d38 <I2C_WaitOnMasterAddressFlagUntilTimeout+0x118>
 8003d1e:	68fb      	ldr	r3, [r7, #12]
 8003d20:	681b      	ldr	r3, [r3, #0]
 8003d22:	695b      	ldr	r3, [r3, #20]
 8003d24:	43da      	mvns	r2, r3
 8003d26:	68bb      	ldr	r3, [r7, #8]
 8003d28:	4013      	ands	r3, r2
 8003d2a:	b29b      	uxth	r3, r3
 8003d2c:	2b00      	cmp	r3, #0
 8003d2e:	bf14      	ite	ne
 8003d30:	2301      	movne	r3, #1
 8003d32:	2300      	moveq	r3, #0
 8003d34:	b2db      	uxtb	r3, r3
 8003d36:	e00b      	b.n	8003d50 <I2C_WaitOnMasterAddressFlagUntilTimeout+0x130>
 8003d38:	68fb      	ldr	r3, [r7, #12]
 8003d3a:	681b      	ldr	r3, [r3, #0]
 8003d3c:	699b      	ldr	r3, [r3, #24]
 8003d3e:	43da      	mvns	r2, r3
 8003d40:	68bb      	ldr	r3, [r7, #8]
 8003d42:	4013      	ands	r3, r2
 8003d44:	b29b      	uxth	r3, r3
 8003d46:	2b00      	cmp	r3, #0
 8003d48:	bf14      	ite	ne
 8003d4a:	2301      	movne	r3, #1
 8003d4c:	2300      	moveq	r3, #0
 8003d4e:	b2db      	uxtb	r3, r3
 8003d50:	2b00      	cmp	r3, #0
 8003d52:	f47f af6d 	bne.w	8003c30 <I2C_WaitOnMasterAddressFlagUntilTimeout+0x10>
        }
      }
    }
  }
  return HAL_OK;
 8003d56:	2300      	movs	r3, #0
}
 8003d58:	4618      	mov	r0, r3
 8003d5a:	3710      	adds	r7, #16
 8003d5c:	46bd      	mov	sp, r7
 8003d5e:	bd80      	pop	{r7, pc}

08003d60 <I2C_WaitOnTXEFlagUntilTimeout>:
  * @param  Timeout Timeout duration
  * @param  Tickstart Tick start value
  * @retval HAL status
  */
static HAL_StatusTypeDef I2C_WaitOnTXEFlagUntilTimeout(I2C_HandleTypeDef *hi2c, uint32_t Timeout, uint32_t Tickstart)
{
 8003d60:	b580      	push	{r7, lr}
 8003d62:	b084      	sub	sp, #16
 8003d64:	af00      	add	r7, sp, #0
 8003d66:	60f8      	str	r0, [r7, #12]
 8003d68:	60b9      	str	r1, [r7, #8]
 8003d6a:	607a      	str	r2, [r7, #4]
  while (__HAL_I2C_GET_FLAG(hi2c, I2C_FLAG_TXE) == RESET)
 8003d6c:	e034      	b.n	8003dd8 <I2C_WaitOnTXEFlagUntilTimeout+0x78>
  {
    /* Check if a NACK is detected */
    if (I2C_IsAcknowledgeFailed(hi2c) != HAL_OK)
 8003d6e:	68f8      	ldr	r0, [r7, #12]
 8003d70:	f000 f8e3 	bl	8003f3a <I2C_IsAcknowledgeFailed>
 8003d74:	4603      	mov	r3, r0
 8003d76:	2b00      	cmp	r3, #0
 8003d78:	d001      	beq.n	8003d7e <I2C_WaitOnTXEFlagUntilTimeout+0x1e>
    {
      return HAL_ERROR;
 8003d7a:	2301      	movs	r3, #1
 8003d7c:	e034      	b.n	8003de8 <I2C_WaitOnTXEFlagUntilTimeout+0x88>
    }

    /* Check for the Timeout */
    if (Timeout != HAL_MAX_DELAY)
 8003d7e:	68bb      	ldr	r3, [r7, #8]
 8003d80:	f1b3 3fff 	cmp.w	r3, #4294967295
 8003d84:	d028      	beq.n	8003dd8 <I2C_WaitOnTXEFlagUntilTimeout+0x78>
    {
      if (((HAL_GetTick() - Tickstart) > Timeout) || (Timeout == 0U))
 8003d86:	f7fe fd57 	bl	8002838 <HAL_GetTick>
 8003d8a:	4602      	mov	r2, r0
 8003d8c:	687b      	ldr	r3, [r7, #4]
 8003d8e:	1ad3      	subs	r3, r2, r3
 8003d90:	68ba      	ldr	r2, [r7, #8]
 8003d92:	429a      	cmp	r2, r3
 8003d94:	d302      	bcc.n	8003d9c <I2C_WaitOnTXEFlagUntilTimeout+0x3c>
 8003d96:	68bb      	ldr	r3, [r7, #8]
 8003d98:	2b00      	cmp	r3, #0
 8003d9a:	d11d      	bne.n	8003dd8 <I2C_WaitOnTXEFlagUntilTimeout+0x78>
      {
        if ((__HAL_I2C_GET_FLAG(hi2c, I2C_FLAG_TXE) == RESET))
 8003d9c:	68fb      	ldr	r3, [r7, #12]
 8003d9e:	681b      	ldr	r3, [r3, #0]
 8003da0:	695b      	ldr	r3, [r3, #20]
 8003da2:	f003 0380 	and.w	r3, r3, #128	@ 0x80
 8003da6:	2b80      	cmp	r3, #128	@ 0x80
 8003da8:	d016      	beq.n	8003dd8 <I2C_WaitOnTXEFlagUntilTimeout+0x78>
        {
          hi2c->PreviousState       = I2C_STATE_NONE;
 8003daa:	68fb      	ldr	r3, [r7, #12]
 8003dac:	2200      	movs	r2, #0
 8003dae:	631a      	str	r2, [r3, #48]	@ 0x30
          hi2c->State               = HAL_I2C_STATE_READY;
 8003db0:	68fb      	ldr	r3, [r7, #12]
 8003db2:	2220      	movs	r2, #32
 8003db4:	f883 203d 	strb.w	r2, [r3, #61]	@ 0x3d
          hi2c->Mode                = HAL_I2C_MODE_NONE;
 8003db8:	68fb      	ldr	r3, [r7, #12]
 8003dba:	2200      	movs	r2, #0
 8003dbc:	f883 203e 	strb.w	r2, [r3, #62]	@ 0x3e
          hi2c->ErrorCode           |= HAL_I2C_ERROR_TIMEOUT;
 8003dc0:	68fb      	ldr	r3, [r7, #12]
 8003dc2:	6c1b      	ldr	r3, [r3, #64]	@ 0x40
 8003dc4:	f043 0220 	orr.w	r2, r3, #32
 8003dc8:	68fb      	ldr	r3, [r7, #12]
 8003dca:	641a      	str	r2, [r3, #64]	@ 0x40

          /* Process Unlocked */
          __HAL_UNLOCK(hi2c);
 8003dcc:	68fb      	ldr	r3, [r7, #12]
 8003dce:	2200      	movs	r2, #0
 8003dd0:	f883 203c 	strb.w	r2, [r3, #60]	@ 0x3c

          return HAL_ERROR;
 8003dd4:	2301      	movs	r3, #1
 8003dd6:	e007      	b.n	8003de8 <I2C_WaitOnTXEFlagUntilTimeout+0x88>
  while (__HAL_I2C_GET_FLAG(hi2c, I2C_FLAG_TXE) == RESET)
 8003dd8:	68fb      	ldr	r3, [r7, #12]
 8003dda:	681b      	ldr	r3, [r3, #0]
 8003ddc:	695b      	ldr	r3, [r3, #20]
 8003dde:	f003 0380 	and.w	r3, r3, #128	@ 0x80
 8003de2:	2b80      	cmp	r3, #128	@ 0x80
 8003de4:	d1c3      	bne.n	8003d6e <I2C_WaitOnTXEFlagUntilTimeout+0xe>
        }
      }
    }
  }
  return HAL_OK;
 8003de6:	2300      	movs	r3, #0
}
 8003de8:	4618      	mov	r0, r3
 8003dea:	3710      	adds	r7, #16
 8003dec:	46bd      	mov	sp, r7
 8003dee:	bd80      	pop	{r7, pc}

08003df0 <I2C_WaitOnBTFFlagUntilTimeout>:
  * @param  Timeout Timeout duration
  * @param  Tickstart Tick start value
  * @retval HAL status
  */
static HAL_StatusTypeDef I2C_WaitOnBTFFlagUntilTimeout(I2C_HandleTypeDef *hi2c, uint32_t Timeout, uint32_t Tickstart)
{
 8003df0:	b580      	push	{r7, lr}
 8003df2:	b084      	sub	sp, #16
 8003df4:	af00      	add	r7, sp, #0
 8003df6:	60f8      	str	r0, [r7, #12]
 8003df8:	60b9      	str	r1, [r7, #8]
 8003dfa:	607a      	str	r2, [r7, #4]
  while (__HAL_I2C_GET_FLAG(hi2c, I2C_FLAG_BTF) == RESET)
 8003dfc:	e034      	b.n	8003e68 <I2C_WaitOnBTFFlagUntilTimeout+0x78>
  {
    /* Check if a NACK is detected */
    if (I2C_IsAcknowledgeFailed(hi2c) != HAL_OK)
 8003dfe:	68f8      	ldr	r0, [r7, #12]
 8003e00:	f000 f89b 	bl	8003f3a <I2C_IsAcknowledgeFailed>
 8003e04:	4603      	mov	r3, r0
 8003e06:	2b00      	cmp	r3, #0
 8003e08:	d001      	beq.n	8003e0e <I2C_WaitOnBTFFlagUntilTimeout+0x1e>
    {
      return HAL_ERROR;
 8003e0a:	2301      	movs	r3, #1
 8003e0c:	e034      	b.n	8003e78 <I2C_WaitOnBTFFlagUntilTimeout+0x88>
    }

    /* Check for the Timeout */
    if (Timeout != HAL_MAX_DELAY)
 8003e0e:	68bb      	ldr	r3, [r7, #8]
 8003e10:	f1b3 3fff 	cmp.w	r3, #4294967295
 8003e14:	d028      	beq.n	8003e68 <I2C_WaitOnBTFFlagUntilTimeout+0x78>
    {
      if (((HAL_GetTick() - Tickstart) > Timeout) || (Timeout == 0U))
 8003e16:	f7fe fd0f 	bl	8002838 <HAL_GetTick>
 8003e1a:	4602      	mov	r2, r0
 8003e1c:	687b      	ldr	r3, [r7, #4]
 8003e1e:	1ad3      	subs	r3, r2, r3
 8003e20:	68ba      	ldr	r2, [r7, #8]
 8003e22:	429a      	cmp	r2, r3
 8003e24:	d302      	bcc.n	8003e2c <I2C_WaitOnBTFFlagUntilTimeout+0x3c>
 8003e26:	68bb      	ldr	r3, [r7, #8]
 8003e28:	2b00      	cmp	r3, #0
 8003e2a:	d11d      	bne.n	8003e68 <I2C_WaitOnBTFFlagUntilTimeout+0x78>
      {
        if ((__HAL_I2C_GET_FLAG(hi2c, I2C_FLAG_BTF) == RESET))
 8003e2c:	68fb      	ldr	r3, [r7, #12]
 8003e2e:	681b      	ldr	r3, [r3, #0]
 8003e30:	695b      	ldr	r3, [r3, #20]
 8003e32:	f003 0304 	and.w	r3, r3, #4
 8003e36:	2b04      	cmp	r3, #4
 8003e38:	d016      	beq.n	8003e68 <I2C_WaitOnBTFFlagUntilTimeout+0x78>
        {
          hi2c->PreviousState       = I2C_STATE_NONE;
 8003e3a:	68fb      	ldr	r3, [r7, #12]
 8003e3c:	2200      	movs	r2, #0
 8003e3e:	631a      	str	r2, [r3, #48]	@ 0x30
          hi2c->State               = HAL_I2C_STATE_READY;
 8003e40:	68fb      	ldr	r3, [r7, #12]
 8003e42:	2220      	movs	r2, #32
 8003e44:	f883 203d 	strb.w	r2, [r3, #61]	@ 0x3d
          hi2c->Mode                = HAL_I2C_MODE_NONE;
 8003e48:	68fb      	ldr	r3, [r7, #12]
 8003e4a:	2200      	movs	r2, #0
 8003e4c:	f883 203e 	strb.w	r2, [r3, #62]	@ 0x3e
          hi2c->ErrorCode           |= HAL_I2C_ERROR_TIMEOUT;
 8003e50:	68fb      	ldr	r3, [r7, #12]
 8003e52:	6c1b      	ldr	r3, [r3, #64]	@ 0x40
 8003e54:	f043 0220 	orr.w	r2, r3, #32
 8003e58:	68fb      	ldr	r3, [r7, #12]
 8003e5a:	641a      	str	r2, [r3, #64]	@ 0x40

          /* Process Unlocked */
          __HAL_UNLOCK(hi2c);
 8003e5c:	68fb      	ldr	r3, [r7, #12]
 8003e5e:	2200      	movs	r2, #0
 8003e60:	f883 203c 	strb.w	r2, [r3, #60]	@ 0x3c

          return HAL_ERROR;
 8003e64:	2301      	movs	r3, #1
 8003e66:	e007      	b.n	8003e78 <I2C_WaitOnBTFFlagUntilTimeout+0x88>
  while (__HAL_I2C_GET_FLAG(hi2c, I2C_FLAG_BTF) == RESET)
 8003e68:	68fb      	ldr	r3, [r7, #12]
 8003e6a:	681b      	ldr	r3, [r3, #0]
 8003e6c:	695b      	ldr	r3, [r3, #20]
 8003e6e:	f003 0304 	and.w	r3, r3, #4
 8003e72:	2b04      	cmp	r3, #4
 8003e74:	d1c3      	bne.n	8003dfe <I2C_WaitOnBTFFlagUntilTimeout+0xe>
        }
      }
    }
  }
  return HAL_OK;
 8003e76:	2300      	movs	r3, #0
}
 8003e78:	4618      	mov	r0, r3
 8003e7a:	3710      	adds	r7, #16
 8003e7c:	46bd      	mov	sp, r7
 8003e7e:	bd80      	pop	{r7, pc}

08003e80 <I2C_WaitOnRXNEFlagUntilTimeout>:
  * @param  Timeout Timeout duration
  * @param  Tickstart Tick start value
  * @retval HAL status
  */
static HAL_StatusTypeDef I2C_WaitOnRXNEFlagUntilTimeout(I2C_HandleTypeDef *hi2c, uint32_t Timeout, uint32_t Tickstart)
{
 8003e80:	b580      	push	{r7, lr}
 8003e82:	b084      	sub	sp, #16
 8003e84:	af00      	add	r7, sp, #0
 8003e86:	60f8      	str	r0, [r7, #12]
 8003e88:	60b9      	str	r1, [r7, #8]
 8003e8a:	607a      	str	r2, [r7, #4]

  while (__HAL_I2C_GET_FLAG(hi2c, I2C_FLAG_RXNE) == RESET)
 8003e8c:	e049      	b.n	8003f22 <I2C_WaitOnRXNEFlagUntilTimeout+0xa2>
  {
    /* Check if a STOPF is detected */
    if (__HAL_I2C_GET_FLAG(hi2c, I2C_FLAG_STOPF) == SET)
 8003e8e:	68fb      	ldr	r3, [r7, #12]
 8003e90:	681b      	ldr	r3, [r3, #0]
 8003e92:	695b      	ldr	r3, [r3, #20]
 8003e94:	f003 0310 	and.w	r3, r3, #16
 8003e98:	2b10      	cmp	r3, #16
 8003e9a:	d119      	bne.n	8003ed0 <I2C_WaitOnRXNEFlagUntilTimeout+0x50>
    {
      /* Clear STOP Flag */
      __HAL_I2C_CLEAR_FLAG(hi2c, I2C_FLAG_STOPF);
 8003e9c:	68fb      	ldr	r3, [r7, #12]
 8003e9e:	681b      	ldr	r3, [r3, #0]
 8003ea0:	f06f 0210 	mvn.w	r2, #16
 8003ea4:	615a      	str	r2, [r3, #20]

      hi2c->PreviousState       = I2C_STATE_NONE;
 8003ea6:	68fb      	ldr	r3, [r7, #12]
 8003ea8:	2200      	movs	r2, #0
 8003eaa:	631a      	str	r2, [r3, #48]	@ 0x30
      hi2c->State               = HAL_I2C_STATE_READY;
 8003eac:	68fb      	ldr	r3, [r7, #12]
 8003eae:	2220      	movs	r2, #32
 8003eb0:	f883 203d 	strb.w	r2, [r3, #61]	@ 0x3d
      hi2c->Mode                = HAL_I2C_MODE_NONE;
 8003eb4:	68fb      	ldr	r3, [r7, #12]
 8003eb6:	2200      	movs	r2, #0
 8003eb8:	f883 203e 	strb.w	r2, [r3, #62]	@ 0x3e
      hi2c->ErrorCode           |= HAL_I2C_ERROR_NONE;
 8003ebc:	68fb      	ldr	r3, [r7, #12]
 8003ebe:	6c1a      	ldr	r2, [r3, #64]	@ 0x40
 8003ec0:	68fb      	ldr	r3, [r7, #12]
 8003ec2:	641a      	str	r2, [r3, #64]	@ 0x40

      /* Process Unlocked */
      __HAL_UNLOCK(hi2c);
 8003ec4:	68fb      	ldr	r3, [r7, #12]
 8003ec6:	2200      	movs	r2, #0
 8003ec8:	f883 203c 	strb.w	r2, [r3, #60]	@ 0x3c

      return HAL_ERROR;
 8003ecc:	2301      	movs	r3, #1
 8003ece:	e030      	b.n	8003f32 <I2C_WaitOnRXNEFlagUntilTimeout+0xb2>
    }

    /* Check for the Timeout */
    if (((HAL_GetTick() - Tickstart) > Timeout) || (Timeout == 0U))
 8003ed0:	f7fe fcb2 	bl	8002838 <HAL_GetTick>
 8003ed4:	4602      	mov	r2, r0
 8003ed6:	687b      	ldr	r3, [r7, #4]
 8003ed8:	1ad3      	subs	r3, r2, r3
 8003eda:	68ba      	ldr	r2, [r7, #8]
 8003edc:	429a      	cmp	r2, r3
 8003ede:	d302      	bcc.n	8003ee6 <I2C_WaitOnRXNEFlagUntilTimeout+0x66>
 8003ee0:	68bb      	ldr	r3, [r7, #8]
 8003ee2:	2b00      	cmp	r3, #0
 8003ee4:	d11d      	bne.n	8003f22 <I2C_WaitOnRXNEFlagUntilTimeout+0xa2>
    {
      if ((__HAL_I2C_GET_FLAG(hi2c, I2C_FLAG_RXNE) == RESET))
 8003ee6:	68fb      	ldr	r3, [r7, #12]
 8003ee8:	681b      	ldr	r3, [r3, #0]
 8003eea:	695b      	ldr	r3, [r3, #20]
 8003eec:	f003 0340 	and.w	r3, r3, #64	@ 0x40
 8003ef0:	2b40      	cmp	r3, #64	@ 0x40
 8003ef2:	d016      	beq.n	8003f22 <I2C_WaitOnRXNEFlagUntilTimeout+0xa2>
      {
        hi2c->PreviousState       = I2C_STATE_NONE;
 8003ef4:	68fb      	ldr	r3, [r7, #12]
 8003ef6:	2200      	movs	r2, #0
 8003ef8:	631a      	str	r2, [r3, #48]	@ 0x30
        hi2c->State               = HAL_I2C_STATE_READY;
 8003efa:	68fb      	ldr	r3, [r7, #12]
 8003efc:	2220      	movs	r2, #32
 8003efe:	f883 203d 	strb.w	r2, [r3, #61]	@ 0x3d
        hi2c->Mode                = HAL_I2C_MODE_NONE;
 8003f02:	68fb      	ldr	r3, [r7, #12]
 8003f04:	2200      	movs	r2, #0
 8003f06:	f883 203e 	strb.w	r2, [r3, #62]	@ 0x3e
        hi2c->ErrorCode           |= HAL_I2C_ERROR_TIMEOUT;
 8003f0a:	68fb      	ldr	r3, [r7, #12]
 8003f0c:	6c1b      	ldr	r3, [r3, #64]	@ 0x40
 8003f0e:	f043 0220 	orr.w	r2, r3, #32
 8003f12:	68fb      	ldr	r3, [r7, #12]
 8003f14:	641a      	str	r2, [r3, #64]	@ 0x40

        /* Process Unlocked */
        __HAL_UNLOCK(hi2c);
 8003f16:	68fb      	ldr	r3, [r7, #12]
 8003f18:	2200      	movs	r2, #0
 8003f1a:	f883 203c 	strb.w	r2, [r3, #60]	@ 0x3c

        return HAL_ERROR;
 8003f1e:	2301      	movs	r3, #1
 8003f20:	e007      	b.n	8003f32 <I2C_WaitOnRXNEFlagUntilTimeout+0xb2>
  while (__HAL_I2C_GET_FLAG(hi2c, I2C_FLAG_RXNE) == RESET)
 8003f22:	68fb      	ldr	r3, [r7, #12]
 8003f24:	681b      	ldr	r3, [r3, #0]
 8003f26:	695b      	ldr	r3, [r3, #20]
 8003f28:	f003 0340 	and.w	r3, r3, #64	@ 0x40
 8003f2c:	2b40      	cmp	r3, #64	@ 0x40
 8003f2e:	d1ae      	bne.n	8003e8e <I2C_WaitOnRXNEFlagUntilTimeout+0xe>
      }
    }
  }
  return HAL_OK;
 8003f30:	2300      	movs	r3, #0
}
 8003f32:	4618      	mov	r0, r3
 8003f34:	3710      	adds	r7, #16
 8003f36:	46bd      	mov	sp, r7
 8003f38:	bd80      	pop	{r7, pc}

08003f3a <I2C_IsAcknowledgeFailed>:
  * @param  hi2c Pointer to a I2C_HandleTypeDef structure that contains
  *                the configuration information for the specified I2C.
  * @retval HAL status
  */
static HAL_StatusTypeDef I2C_IsAcknowledgeFailed(I2C_HandleTypeDef *hi2c)
{
 8003f3a:	b480      	push	{r7}
 8003f3c:	b083      	sub	sp, #12
 8003f3e:	af00      	add	r7, sp, #0
 8003f40:	6078      	str	r0, [r7, #4]
  if (__HAL_I2C_GET_FLAG(hi2c, I2C_FLAG_AF) == SET)
 8003f42:	687b      	ldr	r3, [r7, #4]
 8003f44:	681b      	ldr	r3, [r3, #0]
 8003f46:	695b      	ldr	r3, [r3, #20]
 8003f48:	f403 6380 	and.w	r3, r3, #1024	@ 0x400
 8003f4c:	f5b3 6f80 	cmp.w	r3, #1024	@ 0x400
 8003f50:	d11b      	bne.n	8003f8a <I2C_IsAcknowledgeFailed+0x50>
  {
    /* Clear NACKF Flag */
    __HAL_I2C_CLEAR_FLAG(hi2c, I2C_FLAG_AF);
 8003f52:	687b      	ldr	r3, [r7, #4]
 8003f54:	681b      	ldr	r3, [r3, #0]
 8003f56:	f46f 6280 	mvn.w	r2, #1024	@ 0x400
 8003f5a:	615a      	str	r2, [r3, #20]

    hi2c->PreviousState       = I2C_STATE_NONE;
 8003f5c:	687b      	ldr	r3, [r7, #4]
 8003f5e:	2200      	movs	r2, #0
 8003f60:	631a      	str	r2, [r3, #48]	@ 0x30
    hi2c->State               = HAL_I2C_STATE_READY;
 8003f62:	687b      	ldr	r3, [r7, #4]
 8003f64:	2220      	movs	r2, #32
 8003f66:	f883 203d 	strb.w	r2, [r3, #61]	@ 0x3d
    hi2c->Mode                = HAL_I2C_MODE_NONE;
 8003f6a:	687b      	ldr	r3, [r7, #4]
 8003f6c:	2200      	movs	r2, #0
 8003f6e:	f883 203e 	strb.w	r2, [r3, #62]	@ 0x3e
    hi2c->ErrorCode           |= HAL_I2C_ERROR_AF;
 8003f72:	687b      	ldr	r3, [r7, #4]
 8003f74:	6c1b      	ldr	r3, [r3, #64]	@ 0x40
 8003f76:	f043 0204 	orr.w	r2, r3, #4
 8003f7a:	687b      	ldr	r3, [r7, #4]
 8003f7c:	641a      	str	r2, [r3, #64]	@ 0x40

    /* Process Unlocked */
    __HAL_UNLOCK(hi2c);
 8003f7e:	687b      	ldr	r3, [r7, #4]
 8003f80:	2200      	movs	r2, #0
 8003f82:	f883 203c 	strb.w	r2, [r3, #60]	@ 0x3c

    return HAL_ERROR;
 8003f86:	2301      	movs	r3, #1
 8003f88:	e000      	b.n	8003f8c <I2C_IsAcknowledgeFailed+0x52>
  }
  return HAL_OK;
 8003f8a:	2300      	movs	r3, #0
}
 8003f8c:	4618      	mov	r0, r3
 8003f8e:	370c      	adds	r7, #12
 8003f90:	46bd      	mov	sp, r7
 8003f92:	f85d 7b04 	ldr.w	r7, [sp], #4
 8003f96:	4770      	bx	lr

08003f98 <HAL_RCC_OscConfig>:
  *         supported by this API. User should request a transition to HSE Off
  *         first and then HSE On or HSE Bypass.
  * @retval HAL status
  */
__weak HAL_StatusTypeDef HAL_RCC_OscConfig(const RCC_OscInitTypeDef  *RCC_OscInitStruct)
{
 8003f98:	b580      	push	{r7, lr}
 8003f9a:	b086      	sub	sp, #24
 8003f9c:	af00      	add	r7, sp, #0
 8003f9e:	6078      	str	r0, [r7, #4]
  uint32_t tickstart;
  uint32_t pll_config;
  /* Check Null pointer */
  if (RCC_OscInitStruct == NULL)
 8003fa0:	687b      	ldr	r3, [r7, #4]
 8003fa2:	2b00      	cmp	r3, #0
 8003fa4:	d101      	bne.n	8003faa <HAL_RCC_OscConfig+0x12>
  {
    return HAL_ERROR;
 8003fa6:	2301      	movs	r3, #1
 8003fa8:	e267      	b.n	800447a <HAL_RCC_OscConfig+0x4e2>
  }

  /* Check the parameters */
  assert_param(IS_RCC_OSCILLATORTYPE(RCC_OscInitStruct->OscillatorType));
  /*------------------------------- HSE Configuration ------------------------*/
  if (((RCC_OscInitStruct->OscillatorType) & RCC_OSCILLATORTYPE_HSE) == RCC_OSCILLATORTYPE_HSE)
 8003faa:	687b      	ldr	r3, [r7, #4]
 8003fac:	681b      	ldr	r3, [r3, #0]
 8003fae:	f003 0301 	and.w	r3, r3, #1
 8003fb2:	2b00      	cmp	r3, #0
 8003fb4:	d075      	beq.n	80040a2 <HAL_RCC_OscConfig+0x10a>
  {
    /* Check the parameters */
    assert_param(IS_RCC_HSE(RCC_OscInitStruct->HSEState));
    /* When the HSE is used as system clock or clock source for PLL in these cases HSE will not disabled */
    if ((__HAL_RCC_GET_SYSCLK_SOURCE() == RCC_CFGR_SWS_HSE) || \
 8003fb6:	4b88      	ldr	r3, [pc, #544]	@ (80041d8 <HAL_RCC_OscConfig+0x240>)
 8003fb8:	689b      	ldr	r3, [r3, #8]
 8003fba:	f003 030c 	and.w	r3, r3, #12
 8003fbe:	2b04      	cmp	r3, #4
 8003fc0:	d00c      	beq.n	8003fdc <HAL_RCC_OscConfig+0x44>
        ((__HAL_RCC_GET_SYSCLK_SOURCE() == RCC_CFGR_SWS_PLL) && ((RCC->PLLCFGR & RCC_PLLCFGR_PLLSRC) == RCC_PLLCFGR_PLLSRC_HSE)))
 8003fc2:	4b85      	ldr	r3, [pc, #532]	@ (80041d8 <HAL_RCC_OscConfig+0x240>)
 8003fc4:	689b      	ldr	r3, [r3, #8]
 8003fc6:	f003 030c 	and.w	r3, r3, #12
    if ((__HAL_RCC_GET_SYSCLK_SOURCE() == RCC_CFGR_SWS_HSE) || \
 8003fca:	2b08      	cmp	r3, #8
 8003fcc:	d112      	bne.n	8003ff4 <HAL_RCC_OscConfig+0x5c>
        ((__HAL_RCC_GET_SYSCLK_SOURCE() == RCC_CFGR_SWS_PLL) && ((RCC->PLLCFGR & RCC_PLLCFGR_PLLSRC) == RCC_PLLCFGR_PLLSRC_HSE)))
 8003fce:	4b82      	ldr	r3, [pc, #520]	@ (80041d8 <HAL_RCC_OscConfig+0x240>)
 8003fd0:	685b      	ldr	r3, [r3, #4]
 8003fd2:	f403 0380 	and.w	r3, r3, #4194304	@ 0x400000
 8003fd6:	f5b3 0f80 	cmp.w	r3, #4194304	@ 0x400000
 8003fda:	d10b      	bne.n	8003ff4 <HAL_RCC_OscConfig+0x5c>
    {
      if ((__HAL_RCC_GET_FLAG(RCC_FLAG_HSERDY) != RESET) && (RCC_OscInitStruct->HSEState == RCC_HSE_OFF))
 8003fdc:	4b7e      	ldr	r3, [pc, #504]	@ (80041d8 <HAL_RCC_OscConfig+0x240>)
 8003fde:	681b      	ldr	r3, [r3, #0]
 8003fe0:	f403 3300 	and.w	r3, r3, #131072	@ 0x20000
 8003fe4:	2b00      	cmp	r3, #0
 8003fe6:	d05b      	beq.n	80040a0 <HAL_RCC_OscConfig+0x108>
 8003fe8:	687b      	ldr	r3, [r7, #4]
 8003fea:	685b      	ldr	r3, [r3, #4]
 8003fec:	2b00      	cmp	r3, #0
 8003fee:	d157      	bne.n	80040a0 <HAL_RCC_OscConfig+0x108>
      {
        return HAL_ERROR;
 8003ff0:	2301      	movs	r3, #1
 8003ff2:	e242      	b.n	800447a <HAL_RCC_OscConfig+0x4e2>
      }
    }
    else
    {
      /* Set the new HSE configuration ---------------------------------------*/
      __HAL_RCC_HSE_CONFIG(RCC_OscInitStruct->HSEState);
 8003ff4:	687b      	ldr	r3, [r7, #4]
 8003ff6:	685b      	ldr	r3, [r3, #4]
 8003ff8:	f5b3 3f80 	cmp.w	r3, #65536	@ 0x10000
 8003ffc:	d106      	bne.n	800400c <HAL_RCC_OscConfig+0x74>
 8003ffe:	4b76      	ldr	r3, [pc, #472]	@ (80041d8 <HAL_RCC_OscConfig+0x240>)
 8004000:	681b      	ldr	r3, [r3, #0]
 8004002:	4a75      	ldr	r2, [pc, #468]	@ (80041d8 <HAL_RCC_OscConfig+0x240>)
 8004004:	f443 3380 	orr.w	r3, r3, #65536	@ 0x10000
 8004008:	6013      	str	r3, [r2, #0]
 800400a:	e01d      	b.n	8004048 <HAL_RCC_OscConfig+0xb0>
 800400c:	687b      	ldr	r3, [r7, #4]
 800400e:	685b      	ldr	r3, [r3, #4]
 8004010:	f5b3 2fa0 	cmp.w	r3, #327680	@ 0x50000
 8004014:	d10c      	bne.n	8004030 <HAL_RCC_OscConfig+0x98>
 8004016:	4b70      	ldr	r3, [pc, #448]	@ (80041d8 <HAL_RCC_OscConfig+0x240>)
 8004018:	681b      	ldr	r3, [r3, #0]
 800401a:	4a6f      	ldr	r2, [pc, #444]	@ (80041d8 <HAL_RCC_OscConfig+0x240>)
 800401c:	f443 2380 	orr.w	r3, r3, #262144	@ 0x40000
 8004020:	6013      	str	r3, [r2, #0]
 8004022:	4b6d      	ldr	r3, [pc, #436]	@ (80041d8 <HAL_RCC_OscConfig+0x240>)
 8004024:	681b      	ldr	r3, [r3, #0]
 8004026:	4a6c      	ldr	r2, [pc, #432]	@ (80041d8 <HAL_RCC_OscConfig+0x240>)
 8004028:	f443 3380 	orr.w	r3, r3, #65536	@ 0x10000
 800402c:	6013      	str	r3, [r2, #0]
 800402e:	e00b      	b.n	8004048 <HAL_RCC_OscConfig+0xb0>
 8004030:	4b69      	ldr	r3, [pc, #420]	@ (80041d8 <HAL_RCC_OscConfig+0x240>)
 8004032:	681b      	ldr	r3, [r3, #0]
 8004034:	4a68      	ldr	r2, [pc, #416]	@ (80041d8 <HAL_RCC_OscConfig+0x240>)
 8004036:	f423 3380 	bic.w	r3, r3, #65536	@ 0x10000
 800403a:	6013      	str	r3, [r2, #0]
 800403c:	4b66      	ldr	r3, [pc, #408]	@ (80041d8 <HAL_RCC_OscConfig+0x240>)
 800403e:	681b      	ldr	r3, [r3, #0]
 8004040:	4a65      	ldr	r2, [pc, #404]	@ (80041d8 <HAL_RCC_OscConfig+0x240>)
 8004042:	f423 2380 	bic.w	r3, r3, #262144	@ 0x40000
 8004046:	6013      	str	r3, [r2, #0]

      /* Check the HSE State */
      if ((RCC_OscInitStruct->HSEState) != RCC_HSE_OFF)
 8004048:	687b      	ldr	r3, [r7, #4]
 800404a:	685b      	ldr	r3, [r3, #4]
 800404c:	2b00      	cmp	r3, #0
 800404e:	d013      	beq.n	8004078 <HAL_RCC_OscConfig+0xe0>
      {
        /* Get Start Tick */
        tickstart = HAL_GetTick();
 8004050:	f7fe fbf2 	bl	8002838 <HAL_GetTick>
 8004054:	6138      	str	r0, [r7, #16]

        /* Wait till HSE is ready */
        while (__HAL_RCC_GET_FLAG(RCC_FLAG_HSERDY) == RESET)
 8004056:	e008      	b.n	800406a <HAL_RCC_OscConfig+0xd2>
        {
          if ((HAL_GetTick() - tickstart) > HSE_TIMEOUT_VALUE)
 8004058:	f7fe fbee 	bl	8002838 <HAL_GetTick>
 800405c:	4602      	mov	r2, r0
 800405e:	693b      	ldr	r3, [r7, #16]
 8004060:	1ad3      	subs	r3, r2, r3
 8004062:	2b64      	cmp	r3, #100	@ 0x64
 8004064:	d901      	bls.n	800406a <HAL_RCC_OscConfig+0xd2>
          {
            return HAL_TIMEOUT;
 8004066:	2303      	movs	r3, #3
 8004068:	e207      	b.n	800447a <HAL_RCC_OscConfig+0x4e2>
        while (__HAL_RCC_GET_FLAG(RCC_FLAG_HSERDY) == RESET)
 800406a:	4b5b      	ldr	r3, [pc, #364]	@ (80041d8 <HAL_RCC_OscConfig+0x240>)
 800406c:	681b      	ldr	r3, [r3, #0]
 800406e:	f403 3300 	and.w	r3, r3, #131072	@ 0x20000
 8004072:	2b00      	cmp	r3, #0
 8004074:	d0f0      	beq.n	8004058 <HAL_RCC_OscConfig+0xc0>
 8004076:	e014      	b.n	80040a2 <HAL_RCC_OscConfig+0x10a>
        }
      }
      else
      {
        /* Get Start Tick */
        tickstart = HAL_GetTick();
 8004078:	f7fe fbde 	bl	8002838 <HAL_GetTick>
 800407c:	6138      	str	r0, [r7, #16]

        /* Wait till HSE is bypassed or disabled */
        while (__HAL_RCC_GET_FLAG(RCC_FLAG_HSERDY) != RESET)
 800407e:	e008      	b.n	8004092 <HAL_RCC_OscConfig+0xfa>
        {
          if ((HAL_GetTick() - tickstart) > HSE_TIMEOUT_VALUE)
 8004080:	f7fe fbda 	bl	8002838 <HAL_GetTick>
 8004084:	4602      	mov	r2, r0
 8004086:	693b      	ldr	r3, [r7, #16]
 8004088:	1ad3      	subs	r3, r2, r3
 800408a:	2b64      	cmp	r3, #100	@ 0x64
 800408c:	d901      	bls.n	8004092 <HAL_RCC_OscConfig+0xfa>
          {
            return HAL_TIMEOUT;
 800408e:	2303      	movs	r3, #3
 8004090:	e1f3      	b.n	800447a <HAL_RCC_OscConfig+0x4e2>
        while (__HAL_RCC_GET_FLAG(RCC_FLAG_HSERDY) != RESET)
 8004092:	4b51      	ldr	r3, [pc, #324]	@ (80041d8 <HAL_RCC_OscConfig+0x240>)
 8004094:	681b      	ldr	r3, [r3, #0]
 8004096:	f403 3300 	and.w	r3, r3, #131072	@ 0x20000
 800409a:	2b00      	cmp	r3, #0
 800409c:	d1f0      	bne.n	8004080 <HAL_RCC_OscConfig+0xe8>
 800409e:	e000      	b.n	80040a2 <HAL_RCC_OscConfig+0x10a>
      if ((__HAL_RCC_GET_FLAG(RCC_FLAG_HSERDY) != RESET) && (RCC_OscInitStruct->HSEState == RCC_HSE_OFF))
 80040a0:	bf00      	nop
        }
      }
    }
  }
  /*----------------------------- HSI Configuration --------------------------*/
  if (((RCC_OscInitStruct->OscillatorType) & RCC_OSCILLATORTYPE_HSI) == RCC_OSCILLATORTYPE_HSI)
 80040a2:	687b      	ldr	r3, [r7, #4]
 80040a4:	681b      	ldr	r3, [r3, #0]
 80040a6:	f003 0302 	and.w	r3, r3, #2
 80040aa:	2b00      	cmp	r3, #0
 80040ac:	d063      	beq.n	8004176 <HAL_RCC_OscConfig+0x1de>
    /* Check the parameters */
    assert_param(IS_RCC_HSI(RCC_OscInitStruct->HSIState));
    assert_param(IS_RCC_CALIBRATION_VALUE(RCC_OscInitStruct->HSICalibrationValue));

    /* Check if HSI is used as system clock or as PLL source when PLL is selected as system clock */
    if ((__HAL_RCC_GET_SYSCLK_SOURCE() == RCC_CFGR_SWS_HSI) || \
 80040ae:	4b4a      	ldr	r3, [pc, #296]	@ (80041d8 <HAL_RCC_OscConfig+0x240>)
 80040b0:	689b      	ldr	r3, [r3, #8]
 80040b2:	f003 030c 	and.w	r3, r3, #12
 80040b6:	2b00      	cmp	r3, #0
 80040b8:	d00b      	beq.n	80040d2 <HAL_RCC_OscConfig+0x13a>
        ((__HAL_RCC_GET_SYSCLK_SOURCE() == RCC_CFGR_SWS_PLL) && ((RCC->PLLCFGR & RCC_PLLCFGR_PLLSRC) == RCC_PLLCFGR_PLLSRC_HSI)))
 80040ba:	4b47      	ldr	r3, [pc, #284]	@ (80041d8 <HAL_RCC_OscConfig+0x240>)
 80040bc:	689b      	ldr	r3, [r3, #8]
 80040be:	f003 030c 	and.w	r3, r3, #12
    if ((__HAL_RCC_GET_SYSCLK_SOURCE() == RCC_CFGR_SWS_HSI) || \
 80040c2:	2b08      	cmp	r3, #8
 80040c4:	d11c      	bne.n	8004100 <HAL_RCC_OscConfig+0x168>
        ((__HAL_RCC_GET_SYSCLK_SOURCE() == RCC_CFGR_SWS_PLL) && ((RCC->PLLCFGR & RCC_PLLCFGR_PLLSRC) == RCC_PLLCFGR_PLLSRC_HSI)))
 80040c6:	4b44      	ldr	r3, [pc, #272]	@ (80041d8 <HAL_RCC_OscConfig+0x240>)
 80040c8:	685b      	ldr	r3, [r3, #4]
 80040ca:	f403 0380 	and.w	r3, r3, #4194304	@ 0x400000
 80040ce:	2b00      	cmp	r3, #0
 80040d0:	d116      	bne.n	8004100 <HAL_RCC_OscConfig+0x168>
    {
      /* When HSI is used as system clock it will not disabled */
      if ((__HAL_RCC_GET_FLAG(RCC_FLAG_HSIRDY) != RESET) && (RCC_OscInitStruct->HSIState != RCC_HSI_ON))
 80040d2:	4b41      	ldr	r3, [pc, #260]	@ (80041d8 <HAL_RCC_OscConfig+0x240>)
 80040d4:	681b      	ldr	r3, [r3, #0]
 80040d6:	f003 0302 	and.w	r3, r3, #2
 80040da:	2b00      	cmp	r3, #0
 80040dc:	d005      	beq.n	80040ea <HAL_RCC_OscConfig+0x152>
 80040de:	687b      	ldr	r3, [r7, #4]
 80040e0:	68db      	ldr	r3, [r3, #12]
 80040e2:	2b01      	cmp	r3, #1
 80040e4:	d001      	beq.n	80040ea <HAL_RCC_OscConfig+0x152>
      {
        return HAL_ERROR;
 80040e6:	2301      	movs	r3, #1
 80040e8:	e1c7      	b.n	800447a <HAL_RCC_OscConfig+0x4e2>
      }
      /* Otherwise, just the calibration is allowed */
      else
      {
        /* Adjusts the Internal High Speed oscillator (HSI) calibration value.*/
        __HAL_RCC_HSI_CALIBRATIONVALUE_ADJUST(RCC_OscInitStruct->HSICalibrationValue);
 80040ea:	4b3b      	ldr	r3, [pc, #236]	@ (80041d8 <HAL_RCC_OscConfig+0x240>)
 80040ec:	681b      	ldr	r3, [r3, #0]
 80040ee:	f023 02f8 	bic.w	r2, r3, #248	@ 0xf8
 80040f2:	687b      	ldr	r3, [r7, #4]
 80040f4:	691b      	ldr	r3, [r3, #16]
 80040f6:	00db      	lsls	r3, r3, #3
 80040f8:	4937      	ldr	r1, [pc, #220]	@ (80041d8 <HAL_RCC_OscConfig+0x240>)
 80040fa:	4313      	orrs	r3, r2
 80040fc:	600b      	str	r3, [r1, #0]
      if ((__HAL_RCC_GET_FLAG(RCC_FLAG_HSIRDY) != RESET) && (RCC_OscInitStruct->HSIState != RCC_HSI_ON))
 80040fe:	e03a      	b.n	8004176 <HAL_RCC_OscConfig+0x1de>
      }
    }
    else
    {
      /* Check the HSI State */
      if ((RCC_OscInitStruct->HSIState) != RCC_HSI_OFF)
 8004100:	687b      	ldr	r3, [r7, #4]
 8004102:	68db      	ldr	r3, [r3, #12]
 8004104:	2b00      	cmp	r3, #0
 8004106:	d020      	beq.n	800414a <HAL_RCC_OscConfig+0x1b2>
      {
        /* Enable the Internal High Speed oscillator (HSI). */
        __HAL_RCC_HSI_ENABLE();
 8004108:	4b34      	ldr	r3, [pc, #208]	@ (80041dc <HAL_RCC_OscConfig+0x244>)
 800410a:	2201      	movs	r2, #1
 800410c:	601a      	str	r2, [r3, #0]

        /* Get Start Tick*/
        tickstart = HAL_GetTick();
 800410e:	f7fe fb93 	bl	8002838 <HAL_GetTick>
 8004112:	6138      	str	r0, [r7, #16]

        /* Wait till HSI is ready */
        while (__HAL_RCC_GET_FLAG(RCC_FLAG_HSIRDY) == RESET)
 8004114:	e008      	b.n	8004128 <HAL_RCC_OscConfig+0x190>
        {
          if ((HAL_GetTick() - tickstart) > HSI_TIMEOUT_VALUE)
 8004116:	f7fe fb8f 	bl	8002838 <HAL_GetTick>
 800411a:	4602      	mov	r2, r0
 800411c:	693b      	ldr	r3, [r7, #16]
 800411e:	1ad3      	subs	r3, r2, r3
 8004120:	2b02      	cmp	r3, #2
 8004122:	d901      	bls.n	8004128 <HAL_RCC_OscConfig+0x190>
          {
            return HAL_TIMEOUT;
 8004124:	2303      	movs	r3, #3
 8004126:	e1a8      	b.n	800447a <HAL_RCC_OscConfig+0x4e2>
        while (__HAL_RCC_GET_FLAG(RCC_FLAG_HSIRDY) == RESET)
 8004128:	4b2b      	ldr	r3, [pc, #172]	@ (80041d8 <HAL_RCC_OscConfig+0x240>)
 800412a:	681b      	ldr	r3, [r3, #0]
 800412c:	f003 0302 	and.w	r3, r3, #2
 8004130:	2b00      	cmp	r3, #0
 8004132:	d0f0      	beq.n	8004116 <HAL_RCC_OscConfig+0x17e>
          }
        }

        /* Adjusts the Internal High Speed oscillator (HSI) calibration value. */
        __HAL_RCC_HSI_CALIBRATIONVALUE_ADJUST(RCC_OscInitStruct->HSICalibrationValue);
 8004134:	4b28      	ldr	r3, [pc, #160]	@ (80041d8 <HAL_RCC_OscConfig+0x240>)
 8004136:	681b      	ldr	r3, [r3, #0]
 8004138:	f023 02f8 	bic.w	r2, r3, #248	@ 0xf8
 800413c:	687b      	ldr	r3, [r7, #4]
 800413e:	691b      	ldr	r3, [r3, #16]
 8004140:	00db      	lsls	r3, r3, #3
 8004142:	4925      	ldr	r1, [pc, #148]	@ (80041d8 <HAL_RCC_OscConfig+0x240>)
 8004144:	4313      	orrs	r3, r2
 8004146:	600b      	str	r3, [r1, #0]
 8004148:	e015      	b.n	8004176 <HAL_RCC_OscConfig+0x1de>
      }
      else
      {
        /* Disable the Internal High Speed oscillator (HSI). */
        __HAL_RCC_HSI_DISABLE();
 800414a:	4b24      	ldr	r3, [pc, #144]	@ (80041dc <HAL_RCC_OscConfig+0x244>)
 800414c:	2200      	movs	r2, #0
 800414e:	601a      	str	r2, [r3, #0]

        /* Get Start Tick*/
        tickstart = HAL_GetTick();
 8004150:	f7fe fb72 	bl	8002838 <HAL_GetTick>
 8004154:	6138      	str	r0, [r7, #16]

        /* Wait till HSI is ready */
        while (__HAL_RCC_GET_FLAG(RCC_FLAG_HSIRDY) != RESET)
 8004156:	e008      	b.n	800416a <HAL_RCC_OscConfig+0x1d2>
        {
          if ((HAL_GetTick() - tickstart) > HSI_TIMEOUT_VALUE)
 8004158:	f7fe fb6e 	bl	8002838 <HAL_GetTick>
 800415c:	4602      	mov	r2, r0
 800415e:	693b      	ldr	r3, [r7, #16]
 8004160:	1ad3      	subs	r3, r2, r3
 8004162:	2b02      	cmp	r3, #2
 8004164:	d901      	bls.n	800416a <HAL_RCC_OscConfig+0x1d2>
          {
            return HAL_TIMEOUT;
 8004166:	2303      	movs	r3, #3
 8004168:	e187      	b.n	800447a <HAL_RCC_OscConfig+0x4e2>
        while (__HAL_RCC_GET_FLAG(RCC_FLAG_HSIRDY) != RESET)
 800416a:	4b1b      	ldr	r3, [pc, #108]	@ (80041d8 <HAL_RCC_OscConfig+0x240>)
 800416c:	681b      	ldr	r3, [r3, #0]
 800416e:	f003 0302 	and.w	r3, r3, #2
 8004172:	2b00      	cmp	r3, #0
 8004174:	d1f0      	bne.n	8004158 <HAL_RCC_OscConfig+0x1c0>
        }
      }
    }
  }
  /*------------------------------ LSI Configuration -------------------------*/
  if (((RCC_OscInitStruct->OscillatorType) & RCC_OSCILLATORTYPE_LSI) == RCC_OSCILLATORTYPE_LSI)
 8004176:	687b      	ldr	r3, [r7, #4]
 8004178:	681b      	ldr	r3, [r3, #0]
 800417a:	f003 0308 	and.w	r3, r3, #8
 800417e:	2b00      	cmp	r3, #0
 8004180:	d036      	beq.n	80041f0 <HAL_RCC_OscConfig+0x258>
  {
    /* Check the parameters */
    assert_param(IS_RCC_LSI(RCC_OscInitStruct->LSIState));

    /* Check the LSI State */
    if ((RCC_OscInitStruct->LSIState) != RCC_LSI_OFF)
 8004182:	687b      	ldr	r3, [r7, #4]
 8004184:	695b      	ldr	r3, [r3, #20]
 8004186:	2b00      	cmp	r3, #0
 8004188:	d016      	beq.n	80041b8 <HAL_RCC_OscConfig+0x220>
    {
      /* Enable the Internal Low Speed oscillator (LSI). */
      __HAL_RCC_LSI_ENABLE();
 800418a:	4b15      	ldr	r3, [pc, #84]	@ (80041e0 <HAL_RCC_OscConfig+0x248>)
 800418c:	2201      	movs	r2, #1
 800418e:	601a      	str	r2, [r3, #0]

      /* Get Start Tick*/
      tickstart = HAL_GetTick();
 8004190:	f7fe fb52 	bl	8002838 <HAL_GetTick>
 8004194:	6138      	str	r0, [r7, #16]

      /* Wait till LSI is ready */
      while (__HAL_RCC_GET_FLAG(RCC_FLAG_LSIRDY) == RESET)
 8004196:	e008      	b.n	80041aa <HAL_RCC_OscConfig+0x212>
      {
        if ((HAL_GetTick() - tickstart) > LSI_TIMEOUT_VALUE)
 8004198:	f7fe fb4e 	bl	8002838 <HAL_GetTick>
 800419c:	4602      	mov	r2, r0
 800419e:	693b      	ldr	r3, [r7, #16]
 80041a0:	1ad3      	subs	r3, r2, r3
 80041a2:	2b02      	cmp	r3, #2
 80041a4:	d901      	bls.n	80041aa <HAL_RCC_OscConfig+0x212>
        {
          return HAL_TIMEOUT;
 80041a6:	2303      	movs	r3, #3
 80041a8:	e167      	b.n	800447a <HAL_RCC_OscConfig+0x4e2>
      while (__HAL_RCC_GET_FLAG(RCC_FLAG_LSIRDY) == RESET)
 80041aa:	4b0b      	ldr	r3, [pc, #44]	@ (80041d8 <HAL_RCC_OscConfig+0x240>)
 80041ac:	6f5b      	ldr	r3, [r3, #116]	@ 0x74
 80041ae:	f003 0302 	and.w	r3, r3, #2
 80041b2:	2b00      	cmp	r3, #0
 80041b4:	d0f0      	beq.n	8004198 <HAL_RCC_OscConfig+0x200>
 80041b6:	e01b      	b.n	80041f0 <HAL_RCC_OscConfig+0x258>
      }
    }
    else
    {
      /* Disable the Internal Low Speed oscillator (LSI). */
      __HAL_RCC_LSI_DISABLE();
 80041b8:	4b09      	ldr	r3, [pc, #36]	@ (80041e0 <HAL_RCC_OscConfig+0x248>)
 80041ba:	2200      	movs	r2, #0
 80041bc:	601a      	str	r2, [r3, #0]

      /* Get Start Tick */
      tickstart = HAL_GetTick();
 80041be:	f7fe fb3b 	bl	8002838 <HAL_GetTick>
 80041c2:	6138      	str	r0, [r7, #16]

      /* Wait till LSI is ready */
      while (__HAL_RCC_GET_FLAG(RCC_FLAG_LSIRDY) != RESET)
 80041c4:	e00e      	b.n	80041e4 <HAL_RCC_OscConfig+0x24c>
      {
        if ((HAL_GetTick() - tickstart) > LSI_TIMEOUT_VALUE)
 80041c6:	f7fe fb37 	bl	8002838 <HAL_GetTick>
 80041ca:	4602      	mov	r2, r0
 80041cc:	693b      	ldr	r3, [r7, #16]
 80041ce:	1ad3      	subs	r3, r2, r3
 80041d0:	2b02      	cmp	r3, #2
 80041d2:	d907      	bls.n	80041e4 <HAL_RCC_OscConfig+0x24c>
        {
          return HAL_TIMEOUT;
 80041d4:	2303      	movs	r3, #3
 80041d6:	e150      	b.n	800447a <HAL_RCC_OscConfig+0x4e2>
 80041d8:	40023800 	.word	0x40023800
 80041dc:	42470000 	.word	0x42470000
 80041e0:	42470e80 	.word	0x42470e80
      while (__HAL_RCC_GET_FLAG(RCC_FLAG_LSIRDY) != RESET)
 80041e4:	4b88      	ldr	r3, [pc, #544]	@ (8004408 <HAL_RCC_OscConfig+0x470>)
 80041e6:	6f5b      	ldr	r3, [r3, #116]	@ 0x74
 80041e8:	f003 0302 	and.w	r3, r3, #2
 80041ec:	2b00      	cmp	r3, #0
 80041ee:	d1ea      	bne.n	80041c6 <HAL_RCC_OscConfig+0x22e>
        }
      }
    }
  }
  /*------------------------------ LSE Configuration -------------------------*/
  if (((RCC_OscInitStruct->OscillatorType) & RCC_OSCILLATORTYPE_LSE) == RCC_OSCILLATORTYPE_LSE)
 80041f0:	687b      	ldr	r3, [r7, #4]
 80041f2:	681b      	ldr	r3, [r3, #0]
 80041f4:	f003 0304 	and.w	r3, r3, #4
 80041f8:	2b00      	cmp	r3, #0
 80041fa:	f000 8097 	beq.w	800432c <HAL_RCC_OscConfig+0x394>
  {
    FlagStatus       pwrclkchanged = RESET;
 80041fe:	2300      	movs	r3, #0
 8004200:	75fb      	strb	r3, [r7, #23]
    /* Check the parameters */
    assert_param(IS_RCC_LSE(RCC_OscInitStruct->LSEState));

    /* Update LSE configuration in Backup Domain control register    */
    /* Requires to enable write access to Backup Domain of necessary */
    if (__HAL_RCC_PWR_IS_CLK_DISABLED())
 8004202:	4b81      	ldr	r3, [pc, #516]	@ (8004408 <HAL_RCC_OscConfig+0x470>)
 8004204:	6c1b      	ldr	r3, [r3, #64]	@ 0x40
 8004206:	f003 5380 	and.w	r3, r3, #268435456	@ 0x10000000
 800420a:	2b00      	cmp	r3, #0
 800420c:	d10f      	bne.n	800422e <HAL_RCC_OscConfig+0x296>
    {
      __HAL_RCC_PWR_CLK_ENABLE();
 800420e:	2300      	movs	r3, #0
 8004210:	60bb      	str	r3, [r7, #8]
 8004212:	4b7d      	ldr	r3, [pc, #500]	@ (8004408 <HAL_RCC_OscConfig+0x470>)
 8004214:	6c1b      	ldr	r3, [r3, #64]	@ 0x40
 8004216:	4a7c      	ldr	r2, [pc, #496]	@ (8004408 <HAL_RCC_OscConfig+0x470>)
 8004218:	f043 5380 	orr.w	r3, r3, #268435456	@ 0x10000000
 800421c:	6413      	str	r3, [r2, #64]	@ 0x40
 800421e:	4b7a      	ldr	r3, [pc, #488]	@ (8004408 <HAL_RCC_OscConfig+0x470>)
 8004220:	6c1b      	ldr	r3, [r3, #64]	@ 0x40
 8004222:	f003 5380 	and.w	r3, r3, #268435456	@ 0x10000000
 8004226:	60bb      	str	r3, [r7, #8]
 8004228:	68bb      	ldr	r3, [r7, #8]
      pwrclkchanged = SET;
 800422a:	2301      	movs	r3, #1
 800422c:	75fb      	strb	r3, [r7, #23]
    }

    if (HAL_IS_BIT_CLR(PWR->CR, PWR_CR_DBP))
 800422e:	4b77      	ldr	r3, [pc, #476]	@ (800440c <HAL_RCC_OscConfig+0x474>)
 8004230:	681b      	ldr	r3, [r3, #0]
 8004232:	f403 7380 	and.w	r3, r3, #256	@ 0x100
 8004236:	2b00      	cmp	r3, #0
 8004238:	d118      	bne.n	800426c <HAL_RCC_OscConfig+0x2d4>
    {
      /* Enable write access to Backup domain */
      SET_BIT(PWR->CR, PWR_CR_DBP);
 800423a:	4b74      	ldr	r3, [pc, #464]	@ (800440c <HAL_RCC_OscConfig+0x474>)
 800423c:	681b      	ldr	r3, [r3, #0]
 800423e:	4a73      	ldr	r2, [pc, #460]	@ (800440c <HAL_RCC_OscConfig+0x474>)
 8004240:	f443 7380 	orr.w	r3, r3, #256	@ 0x100
 8004244:	6013      	str	r3, [r2, #0]

      /* Wait for Backup domain Write protection disable */
      tickstart = HAL_GetTick();
 8004246:	f7fe faf7 	bl	8002838 <HAL_GetTick>
 800424a:	6138      	str	r0, [r7, #16]

      while (HAL_IS_BIT_CLR(PWR->CR, PWR_CR_DBP))
 800424c:	e008      	b.n	8004260 <HAL_RCC_OscConfig+0x2c8>
      {
        if ((HAL_GetTick() - tickstart) > RCC_DBP_TIMEOUT_VALUE)
 800424e:	f7fe faf3 	bl	8002838 <HAL_GetTick>
 8004252:	4602      	mov	r2, r0
 8004254:	693b      	ldr	r3, [r7, #16]
 8004256:	1ad3      	subs	r3, r2, r3
 8004258:	2b02      	cmp	r3, #2
 800425a:	d901      	bls.n	8004260 <HAL_RCC_OscConfig+0x2c8>
        {
          return HAL_TIMEOUT;
 800425c:	2303      	movs	r3, #3
 800425e:	e10c      	b.n	800447a <HAL_RCC_OscConfig+0x4e2>
      while (HAL_IS_BIT_CLR(PWR->CR, PWR_CR_DBP))
 8004260:	4b6a      	ldr	r3, [pc, #424]	@ (800440c <HAL_RCC_OscConfig+0x474>)
 8004262:	681b      	ldr	r3, [r3, #0]
 8004264:	f403 7380 	and.w	r3, r3, #256	@ 0x100
 8004268:	2b00      	cmp	r3, #0
 800426a:	d0f0      	beq.n	800424e <HAL_RCC_OscConfig+0x2b6>
        }
      }
    }

    /* Set the new LSE configuration -----------------------------------------*/
    __HAL_RCC_LSE_CONFIG(RCC_OscInitStruct->LSEState);
 800426c:	687b      	ldr	r3, [r7, #4]
 800426e:	689b      	ldr	r3, [r3, #8]
 8004270:	2b01      	cmp	r3, #1
 8004272:	d106      	bne.n	8004282 <HAL_RCC_OscConfig+0x2ea>
 8004274:	4b64      	ldr	r3, [pc, #400]	@ (8004408 <HAL_RCC_OscConfig+0x470>)
 8004276:	6f1b      	ldr	r3, [r3, #112]	@ 0x70
 8004278:	4a63      	ldr	r2, [pc, #396]	@ (8004408 <HAL_RCC_OscConfig+0x470>)
 800427a:	f043 0301 	orr.w	r3, r3, #1
 800427e:	6713      	str	r3, [r2, #112]	@ 0x70
 8004280:	e01c      	b.n	80042bc <HAL_RCC_OscConfig+0x324>
 8004282:	687b      	ldr	r3, [r7, #4]
 8004284:	689b      	ldr	r3, [r3, #8]
 8004286:	2b05      	cmp	r3, #5
 8004288:	d10c      	bne.n	80042a4 <HAL_RCC_OscConfig+0x30c>
 800428a:	4b5f      	ldr	r3, [pc, #380]	@ (8004408 <HAL_RCC_OscConfig+0x470>)
 800428c:	6f1b      	ldr	r3, [r3, #112]	@ 0x70
 800428e:	4a5e      	ldr	r2, [pc, #376]	@ (8004408 <HAL_RCC_OscConfig+0x470>)
 8004290:	f043 0304 	orr.w	r3, r3, #4
 8004294:	6713      	str	r3, [r2, #112]	@ 0x70
 8004296:	4b5c      	ldr	r3, [pc, #368]	@ (8004408 <HAL_RCC_OscConfig+0x470>)
 8004298:	6f1b      	ldr	r3, [r3, #112]	@ 0x70
 800429a:	4a5b      	ldr	r2, [pc, #364]	@ (8004408 <HAL_RCC_OscConfig+0x470>)
 800429c:	f043 0301 	orr.w	r3, r3, #1
 80042a0:	6713      	str	r3, [r2, #112]	@ 0x70
 80042a2:	e00b      	b.n	80042bc <HAL_RCC_OscConfig+0x324>
 80042a4:	4b58      	ldr	r3, [pc, #352]	@ (8004408 <HAL_RCC_OscConfig+0x470>)
 80042a6:	6f1b      	ldr	r3, [r3, #112]	@ 0x70
 80042a8:	4a57      	ldr	r2, [pc, #348]	@ (8004408 <HAL_RCC_OscConfig+0x470>)
 80042aa:	f023 0301 	bic.w	r3, r3, #1
 80042ae:	6713      	str	r3, [r2, #112]	@ 0x70
 80042b0:	4b55      	ldr	r3, [pc, #340]	@ (8004408 <HAL_RCC_OscConfig+0x470>)
 80042b2:	6f1b      	ldr	r3, [r3, #112]	@ 0x70
 80042b4:	4a54      	ldr	r2, [pc, #336]	@ (8004408 <HAL_RCC_OscConfig+0x470>)
 80042b6:	f023 0304 	bic.w	r3, r3, #4
 80042ba:	6713      	str	r3, [r2, #112]	@ 0x70
    /* Check the LSE State */
    if ((RCC_OscInitStruct->LSEState) != RCC_LSE_OFF)
 80042bc:	687b      	ldr	r3, [r7, #4]
 80042be:	689b      	ldr	r3, [r3, #8]
 80042c0:	2b00      	cmp	r3, #0
 80042c2:	d015      	beq.n	80042f0 <HAL_RCC_OscConfig+0x358>
    {
      /* Get Start Tick*/
      tickstart = HAL_GetTick();
 80042c4:	f7fe fab8 	bl	8002838 <HAL_GetTick>
 80042c8:	6138      	str	r0, [r7, #16]

      /* Wait till LSE is ready */
      while (__HAL_RCC_GET_FLAG(RCC_FLAG_LSERDY) == RESET)
 80042ca:	e00a      	b.n	80042e2 <HAL_RCC_OscConfig+0x34a>
      {
        if ((HAL_GetTick() - tickstart) > RCC_LSE_TIMEOUT_VALUE)
 80042cc:	f7fe fab4 	bl	8002838 <HAL_GetTick>
 80042d0:	4602      	mov	r2, r0
 80042d2:	693b      	ldr	r3, [r7, #16]
 80042d4:	1ad3      	subs	r3, r2, r3
 80042d6:	f241 3288 	movw	r2, #5000	@ 0x1388
 80042da:	4293      	cmp	r3, r2
 80042dc:	d901      	bls.n	80042e2 <HAL_RCC_OscConfig+0x34a>
        {
          return HAL_TIMEOUT;
 80042de:	2303      	movs	r3, #3
 80042e0:	e0cb      	b.n	800447a <HAL_RCC_OscConfig+0x4e2>
      while (__HAL_RCC_GET_FLAG(RCC_FLAG_LSERDY) == RESET)
 80042e2:	4b49      	ldr	r3, [pc, #292]	@ (8004408 <HAL_RCC_OscConfig+0x470>)
 80042e4:	6f1b      	ldr	r3, [r3, #112]	@ 0x70
 80042e6:	f003 0302 	and.w	r3, r3, #2
 80042ea:	2b00      	cmp	r3, #0
 80042ec:	d0ee      	beq.n	80042cc <HAL_RCC_OscConfig+0x334>
 80042ee:	e014      	b.n	800431a <HAL_RCC_OscConfig+0x382>
      }
    }
    else
    {
      /* Get Start Tick */
      tickstart = HAL_GetTick();
 80042f0:	f7fe faa2 	bl	8002838 <HAL_GetTick>
 80042f4:	6138      	str	r0, [r7, #16]

      /* Wait till LSE is ready */
      while (__HAL_RCC_GET_FLAG(RCC_FLAG_LSERDY) != RESET)
 80042f6:	e00a      	b.n	800430e <HAL_RCC_OscConfig+0x376>
      {
        if ((HAL_GetTick() - tickstart) > RCC_LSE_TIMEOUT_VALUE)
 80042f8:	f7fe fa9e 	bl	8002838 <HAL_GetTick>
 80042fc:	4602      	mov	r2, r0
 80042fe:	693b      	ldr	r3, [r7, #16]
 8004300:	1ad3      	subs	r3, r2, r3
 8004302:	f241 3288 	movw	r2, #5000	@ 0x1388
 8004306:	4293      	cmp	r3, r2
 8004308:	d901      	bls.n	800430e <HAL_RCC_OscConfig+0x376>
        {
          return HAL_TIMEOUT;
 800430a:	2303      	movs	r3, #3
 800430c:	e0b5      	b.n	800447a <HAL_RCC_OscConfig+0x4e2>
      while (__HAL_RCC_GET_FLAG(RCC_FLAG_LSERDY) != RESET)
 800430e:	4b3e      	ldr	r3, [pc, #248]	@ (8004408 <HAL_RCC_OscConfig+0x470>)
 8004310:	6f1b      	ldr	r3, [r3, #112]	@ 0x70
 8004312:	f003 0302 	and.w	r3, r3, #2
 8004316:	2b00      	cmp	r3, #0
 8004318:	d1ee      	bne.n	80042f8 <HAL_RCC_OscConfig+0x360>
        }
      }
    }

    /* Restore clock configuration if changed */
    if (pwrclkchanged == SET)
 800431a:	7dfb      	ldrb	r3, [r7, #23]
 800431c:	2b01      	cmp	r3, #1
 800431e:	d105      	bne.n	800432c <HAL_RCC_OscConfig+0x394>
    {
      __HAL_RCC_PWR_CLK_DISABLE();
 8004320:	4b39      	ldr	r3, [pc, #228]	@ (8004408 <HAL_RCC_OscConfig+0x470>)
 8004322:	6c1b      	ldr	r3, [r3, #64]	@ 0x40
 8004324:	4a38      	ldr	r2, [pc, #224]	@ (8004408 <HAL_RCC_OscConfig+0x470>)
 8004326:	f023 5380 	bic.w	r3, r3, #268435456	@ 0x10000000
 800432a:	6413      	str	r3, [r2, #64]	@ 0x40
    }
  }
  /*-------------------------------- PLL Configuration -----------------------*/
  /* Check the parameters */
  assert_param(IS_RCC_PLL(RCC_OscInitStruct->PLL.PLLState));
  if ((RCC_OscInitStruct->PLL.PLLState) != RCC_PLL_NONE)
 800432c:	687b      	ldr	r3, [r7, #4]
 800432e:	699b      	ldr	r3, [r3, #24]
 8004330:	2b00      	cmp	r3, #0
 8004332:	f000 80a1 	beq.w	8004478 <HAL_RCC_OscConfig+0x4e0>
  {
    /* Check if the PLL is used as system clock or not */
    if (__HAL_RCC_GET_SYSCLK_SOURCE() != RCC_CFGR_SWS_PLL)
 8004336:	4b34      	ldr	r3, [pc, #208]	@ (8004408 <HAL_RCC_OscConfig+0x470>)
 8004338:	689b      	ldr	r3, [r3, #8]
 800433a:	f003 030c 	and.w	r3, r3, #12
 800433e:	2b08      	cmp	r3, #8
 8004340:	d05c      	beq.n	80043fc <HAL_RCC_OscConfig+0x464>
    {
      if ((RCC_OscInitStruct->PLL.PLLState) == RCC_PLL_ON)
 8004342:	687b      	ldr	r3, [r7, #4]
 8004344:	699b      	ldr	r3, [r3, #24]
 8004346:	2b02      	cmp	r3, #2
 8004348:	d141      	bne.n	80043ce <HAL_RCC_OscConfig+0x436>
        assert_param(IS_RCC_PLLN_VALUE(RCC_OscInitStruct->PLL.PLLN));
        assert_param(IS_RCC_PLLP_VALUE(RCC_OscInitStruct->PLL.PLLP));
        assert_param(IS_RCC_PLLQ_VALUE(RCC_OscInitStruct->PLL.PLLQ));

        /* Disable the main PLL. */
        __HAL_RCC_PLL_DISABLE();
 800434a:	4b31      	ldr	r3, [pc, #196]	@ (8004410 <HAL_RCC_OscConfig+0x478>)
 800434c:	2200      	movs	r2, #0
 800434e:	601a      	str	r2, [r3, #0]

        /* Get Start Tick */
        tickstart = HAL_GetTick();
 8004350:	f7fe fa72 	bl	8002838 <HAL_GetTick>
 8004354:	6138      	str	r0, [r7, #16]

        /* Wait till PLL is disabled */
        while (__HAL_RCC_GET_FLAG(RCC_FLAG_PLLRDY) != RESET)
 8004356:	e008      	b.n	800436a <HAL_RCC_OscConfig+0x3d2>
        {
          if ((HAL_GetTick() - tickstart) > PLL_TIMEOUT_VALUE)
 8004358:	f7fe fa6e 	bl	8002838 <HAL_GetTick>
 800435c:	4602      	mov	r2, r0
 800435e:	693b      	ldr	r3, [r7, #16]
 8004360:	1ad3      	subs	r3, r2, r3
 8004362:	2b02      	cmp	r3, #2
 8004364:	d901      	bls.n	800436a <HAL_RCC_OscConfig+0x3d2>
          {
            return HAL_TIMEOUT;
 8004366:	2303      	movs	r3, #3
 8004368:	e087      	b.n	800447a <HAL_RCC_OscConfig+0x4e2>
        while (__HAL_RCC_GET_FLAG(RCC_FLAG_PLLRDY) != RESET)
 800436a:	4b27      	ldr	r3, [pc, #156]	@ (8004408 <HAL_RCC_OscConfig+0x470>)
 800436c:	681b      	ldr	r3, [r3, #0]
 800436e:	f003 7300 	and.w	r3, r3, #33554432	@ 0x2000000
 8004372:	2b00      	cmp	r3, #0
 8004374:	d1f0      	bne.n	8004358 <HAL_RCC_OscConfig+0x3c0>
          }
        }

        /* Configure the main PLL clock source, multiplication and division factors. */
        WRITE_REG(RCC->PLLCFGR, (RCC_OscInitStruct->PLL.PLLSource                                            | \
 8004376:	687b      	ldr	r3, [r7, #4]
 8004378:	69da      	ldr	r2, [r3, #28]
 800437a:	687b      	ldr	r3, [r7, #4]
 800437c:	6a1b      	ldr	r3, [r3, #32]
 800437e:	431a      	orrs	r2, r3
 8004380:	687b      	ldr	r3, [r7, #4]
 8004382:	6a5b      	ldr	r3, [r3, #36]	@ 0x24
 8004384:	019b      	lsls	r3, r3, #6
 8004386:	431a      	orrs	r2, r3
 8004388:	687b      	ldr	r3, [r7, #4]
 800438a:	6a9b      	ldr	r3, [r3, #40]	@ 0x28
 800438c:	085b      	lsrs	r3, r3, #1
 800438e:	3b01      	subs	r3, #1
 8004390:	041b      	lsls	r3, r3, #16
 8004392:	431a      	orrs	r2, r3
 8004394:	687b      	ldr	r3, [r7, #4]
 8004396:	6adb      	ldr	r3, [r3, #44]	@ 0x2c
 8004398:	061b      	lsls	r3, r3, #24
 800439a:	491b      	ldr	r1, [pc, #108]	@ (8004408 <HAL_RCC_OscConfig+0x470>)
 800439c:	4313      	orrs	r3, r2
 800439e:	604b      	str	r3, [r1, #4]
                                 RCC_OscInitStruct->PLL.PLLM                                                 | \
                                 (RCC_OscInitStruct->PLL.PLLN << RCC_PLLCFGR_PLLN_Pos)             | \
                                 (((RCC_OscInitStruct->PLL.PLLP >> 1U) - 1U) << RCC_PLLCFGR_PLLP_Pos) | \
                                 (RCC_OscInitStruct->PLL.PLLQ << RCC_PLLCFGR_PLLQ_Pos)));
        /* Enable the main PLL. */
        __HAL_RCC_PLL_ENABLE();
 80043a0:	4b1b      	ldr	r3, [pc, #108]	@ (8004410 <HAL_RCC_OscConfig+0x478>)
 80043a2:	2201      	movs	r2, #1
 80043a4:	601a      	str	r2, [r3, #0]

        /* Get Start Tick */
        tickstart = HAL_GetTick();
 80043a6:	f7fe fa47 	bl	8002838 <HAL_GetTick>
 80043aa:	6138      	str	r0, [r7, #16]

        /* Wait till PLL is ready */
        while (__HAL_RCC_GET_FLAG(RCC_FLAG_PLLRDY) == RESET)
 80043ac:	e008      	b.n	80043c0 <HAL_RCC_OscConfig+0x428>
        {
          if ((HAL_GetTick() - tickstart) > PLL_TIMEOUT_VALUE)
 80043ae:	f7fe fa43 	bl	8002838 <HAL_GetTick>
 80043b2:	4602      	mov	r2, r0
 80043b4:	693b      	ldr	r3, [r7, #16]
 80043b6:	1ad3      	subs	r3, r2, r3
 80043b8:	2b02      	cmp	r3, #2
 80043ba:	d901      	bls.n	80043c0 <HAL_RCC_OscConfig+0x428>
          {
            return HAL_TIMEOUT;
 80043bc:	2303      	movs	r3, #3
 80043be:	e05c      	b.n	800447a <HAL_RCC_OscConfig+0x4e2>
        while (__HAL_RCC_GET_FLAG(RCC_FLAG_PLLRDY) == RESET)
 80043c0:	4b11      	ldr	r3, [pc, #68]	@ (8004408 <HAL_RCC_OscConfig+0x470>)
 80043c2:	681b      	ldr	r3, [r3, #0]
 80043c4:	f003 7300 	and.w	r3, r3, #33554432	@ 0x2000000
 80043c8:	2b00      	cmp	r3, #0
 80043ca:	d0f0      	beq.n	80043ae <HAL_RCC_OscConfig+0x416>
 80043cc:	e054      	b.n	8004478 <HAL_RCC_OscConfig+0x4e0>
        }
      }
      else
      {
        /* Disable the main PLL. */
        __HAL_RCC_PLL_DISABLE();
 80043ce:	4b10      	ldr	r3, [pc, #64]	@ (8004410 <HAL_RCC_OscConfig+0x478>)
 80043d0:	2200      	movs	r2, #0
 80043d2:	601a      	str	r2, [r3, #0]

        /* Get Start Tick */
        tickstart = HAL_GetTick();
 80043d4:	f7fe fa30 	bl	8002838 <HAL_GetTick>
 80043d8:	6138      	str	r0, [r7, #16]

        /* Wait till PLL is disabled */
        while (__HAL_RCC_GET_FLAG(RCC_FLAG_PLLRDY) != RESET)
 80043da:	e008      	b.n	80043ee <HAL_RCC_OscConfig+0x456>
        {
          if ((HAL_GetTick() - tickstart) > PLL_TIMEOUT_VALUE)
 80043dc:	f7fe fa2c 	bl	8002838 <HAL_GetTick>
 80043e0:	4602      	mov	r2, r0
 80043e2:	693b      	ldr	r3, [r7, #16]
 80043e4:	1ad3      	subs	r3, r2, r3
 80043e6:	2b02      	cmp	r3, #2
 80043e8:	d901      	bls.n	80043ee <HAL_RCC_OscConfig+0x456>
          {
            return HAL_TIMEOUT;
 80043ea:	2303      	movs	r3, #3
 80043ec:	e045      	b.n	800447a <HAL_RCC_OscConfig+0x4e2>
        while (__HAL_RCC_GET_FLAG(RCC_FLAG_PLLRDY) != RESET)
 80043ee:	4b06      	ldr	r3, [pc, #24]	@ (8004408 <HAL_RCC_OscConfig+0x470>)
 80043f0:	681b      	ldr	r3, [r3, #0]
 80043f2:	f003 7300 	and.w	r3, r3, #33554432	@ 0x2000000
 80043f6:	2b00      	cmp	r3, #0
 80043f8:	d1f0      	bne.n	80043dc <HAL_RCC_OscConfig+0x444>
 80043fa:	e03d      	b.n	8004478 <HAL_RCC_OscConfig+0x4e0>
      }
    }
    else
    {
      /* Check if there is a request to disable the PLL used as System clock source */
      if ((RCC_OscInitStruct->PLL.PLLState) == RCC_PLL_OFF)
 80043fc:	687b      	ldr	r3, [r7, #4]
 80043fe:	699b      	ldr	r3, [r3, #24]
 8004400:	2b01      	cmp	r3, #1
 8004402:	d107      	bne.n	8004414 <HAL_RCC_OscConfig+0x47c>
      {
        return HAL_ERROR;
 8004404:	2301      	movs	r3, #1
 8004406:	e038      	b.n	800447a <HAL_RCC_OscConfig+0x4e2>
 8004408:	40023800 	.word	0x40023800
 800440c:	40007000 	.word	0x40007000
 8004410:	42470060 	.word	0x42470060
      }
      else
      {
        /* Do not return HAL_ERROR if request repeats the current configuration */
        pll_config = RCC->PLLCFGR;
 8004414:	4b1b      	ldr	r3, [pc, #108]	@ (8004484 <HAL_RCC_OscConfig+0x4ec>)
 8004416:	685b      	ldr	r3, [r3, #4]
 8004418:	60fb      	str	r3, [r7, #12]
            (READ_BIT(pll_config, RCC_PLLCFGR_PLLN) != (RCC_OscInitStruct->PLL.PLLN) << RCC_PLLCFGR_PLLN_Pos) ||
            (READ_BIT(pll_config, RCC_PLLCFGR_PLLP) != (((RCC_OscInitStruct->PLL.PLLP >> 1U) - 1U)) << RCC_PLLCFGR_PLLP_Pos) ||
            (READ_BIT(pll_config, RCC_PLLCFGR_PLLQ) != (RCC_OscInitStruct->PLL.PLLQ << RCC_PLLCFGR_PLLQ_Pos)) ||
            (READ_BIT(pll_config, RCC_PLLCFGR_PLLR) != (RCC_OscInitStruct->PLL.PLLR << RCC_PLLCFGR_PLLR_Pos)))
#else
        if (((RCC_OscInitStruct->PLL.PLLState) == RCC_PLL_OFF) ||
 800441a:	687b      	ldr	r3, [r7, #4]
 800441c:	699b      	ldr	r3, [r3, #24]
 800441e:	2b01      	cmp	r3, #1
 8004420:	d028      	beq.n	8004474 <HAL_RCC_OscConfig+0x4dc>
            (READ_BIT(pll_config, RCC_PLLCFGR_PLLSRC) != RCC_OscInitStruct->PLL.PLLSource) ||
 8004422:	68fb      	ldr	r3, [r7, #12]
 8004424:	f403 0280 	and.w	r2, r3, #4194304	@ 0x400000
 8004428:	687b      	ldr	r3, [r7, #4]
 800442a:	69db      	ldr	r3, [r3, #28]
        if (((RCC_OscInitStruct->PLL.PLLState) == RCC_PLL_OFF) ||
 800442c:	429a      	cmp	r2, r3
 800442e:	d121      	bne.n	8004474 <HAL_RCC_OscConfig+0x4dc>
            (READ_BIT(pll_config, RCC_PLLCFGR_PLLM) != (RCC_OscInitStruct->PLL.PLLM) << RCC_PLLCFGR_PLLM_Pos) ||
 8004430:	68fb      	ldr	r3, [r7, #12]
 8004432:	f003 023f 	and.w	r2, r3, #63	@ 0x3f
 8004436:	687b      	ldr	r3, [r7, #4]
 8004438:	6a1b      	ldr	r3, [r3, #32]
            (READ_BIT(pll_config, RCC_PLLCFGR_PLLSRC) != RCC_OscInitStruct->PLL.PLLSource) ||
 800443a:	429a      	cmp	r2, r3
 800443c:	d11a      	bne.n	8004474 <HAL_RCC_OscConfig+0x4dc>
            (READ_BIT(pll_config, RCC_PLLCFGR_PLLN) != (RCC_OscInitStruct->PLL.PLLN) << RCC_PLLCFGR_PLLN_Pos) ||
 800443e:	68fa      	ldr	r2, [r7, #12]
 8004440:	f647 73c0 	movw	r3, #32704	@ 0x7fc0
 8004444:	4013      	ands	r3, r2
 8004446:	687a      	ldr	r2, [r7, #4]
 8004448:	6a52      	ldr	r2, [r2, #36]	@ 0x24
 800444a:	0192      	lsls	r2, r2, #6
            (READ_BIT(pll_config, RCC_PLLCFGR_PLLM) != (RCC_OscInitStruct->PLL.PLLM) << RCC_PLLCFGR_PLLM_Pos) ||
 800444c:	4293      	cmp	r3, r2
 800444e:	d111      	bne.n	8004474 <HAL_RCC_OscConfig+0x4dc>
            (READ_BIT(pll_config, RCC_PLLCFGR_PLLP) != (((RCC_OscInitStruct->PLL.PLLP >> 1U) - 1U)) << RCC_PLLCFGR_PLLP_Pos) ||
 8004450:	68fb      	ldr	r3, [r7, #12]
 8004452:	f403 3240 	and.w	r2, r3, #196608	@ 0x30000
 8004456:	687b      	ldr	r3, [r7, #4]
 8004458:	6a9b      	ldr	r3, [r3, #40]	@ 0x28
 800445a:	085b      	lsrs	r3, r3, #1
 800445c:	3b01      	subs	r3, #1
 800445e:	041b      	lsls	r3, r3, #16
            (READ_BIT(pll_config, RCC_PLLCFGR_PLLN) != (RCC_OscInitStruct->PLL.PLLN) << RCC_PLLCFGR_PLLN_Pos) ||
 8004460:	429a      	cmp	r2, r3
 8004462:	d107      	bne.n	8004474 <HAL_RCC_OscConfig+0x4dc>
            (READ_BIT(pll_config, RCC_PLLCFGR_PLLQ) != (RCC_OscInitStruct->PLL.PLLQ << RCC_PLLCFGR_PLLQ_Pos)))
 8004464:	68fb      	ldr	r3, [r7, #12]
 8004466:	f003 6270 	and.w	r2, r3, #251658240	@ 0xf000000
 800446a:	687b      	ldr	r3, [r7, #4]
 800446c:	6adb      	ldr	r3, [r3, #44]	@ 0x2c
 800446e:	061b      	lsls	r3, r3, #24
            (READ_BIT(pll_config, RCC_PLLCFGR_PLLP) != (((RCC_OscInitStruct->PLL.PLLP >> 1U) - 1U)) << RCC_PLLCFGR_PLLP_Pos) ||
 8004470:	429a      	cmp	r2, r3
 8004472:	d001      	beq.n	8004478 <HAL_RCC_OscConfig+0x4e0>
#endif /* RCC_PLLCFGR_PLLR */
        {
          return HAL_ERROR;
 8004474:	2301      	movs	r3, #1
 8004476:	e000      	b.n	800447a <HAL_RCC_OscConfig+0x4e2>
        }
      }
    }
  }
  return HAL_OK;
 8004478:	2300      	movs	r3, #0
}
 800447a:	4618      	mov	r0, r3
 800447c:	3718      	adds	r7, #24
 800447e:	46bd      	mov	sp, r7
 8004480:	bd80      	pop	{r7, pc}
 8004482:	bf00      	nop
 8004484:	40023800 	.word	0x40023800

08004488 <HAL_RCC_ClockConfig>:
  *         HPRE[3:0] bits to ensure that HCLK not exceed the maximum allowed frequency
  *         (for more details refer to section above "Initialization/de-initialization functions")
  * @retval None
  */
HAL_StatusTypeDef HAL_RCC_ClockConfig(const RCC_ClkInitTypeDef  *RCC_ClkInitStruct, uint32_t FLatency)
{
 8004488:	b580      	push	{r7, lr}
 800448a:	b084      	sub	sp, #16
 800448c:	af00      	add	r7, sp, #0
 800448e:	6078      	str	r0, [r7, #4]
 8004490:	6039      	str	r1, [r7, #0]
  uint32_t tickstart;

  /* Check Null pointer */
  if (RCC_ClkInitStruct == NULL)
 8004492:	687b      	ldr	r3, [r7, #4]
 8004494:	2b00      	cmp	r3, #0
 8004496:	d101      	bne.n	800449c <HAL_RCC_ClockConfig+0x14>
  {
    return HAL_ERROR;
 8004498:	2301      	movs	r3, #1
 800449a:	e0cc      	b.n	8004636 <HAL_RCC_ClockConfig+0x1ae>
  /* To correctly read data from FLASH memory, the number of wait states (LATENCY)
    must be correctly programmed according to the frequency of the CPU clock
    (HCLK) and the supply voltage of the device. */

  /* Increasing the number of wait states because of higher CPU frequency */
  if (FLatency > __HAL_FLASH_GET_LATENCY())
 800449c:	4b68      	ldr	r3, [pc, #416]	@ (8004640 <HAL_RCC_ClockConfig+0x1b8>)
 800449e:	681b      	ldr	r3, [r3, #0]
 80044a0:	f003 0307 	and.w	r3, r3, #7
 80044a4:	683a      	ldr	r2, [r7, #0]
 80044a6:	429a      	cmp	r2, r3
 80044a8:	d90c      	bls.n	80044c4 <HAL_RCC_ClockConfig+0x3c>
  {
    /* Program the new number of wait states to the LATENCY bits in the FLASH_ACR register */
    __HAL_FLASH_SET_LATENCY(FLatency);
 80044aa:	4b65      	ldr	r3, [pc, #404]	@ (8004640 <HAL_RCC_ClockConfig+0x1b8>)
 80044ac:	683a      	ldr	r2, [r7, #0]
 80044ae:	b2d2      	uxtb	r2, r2
 80044b0:	701a      	strb	r2, [r3, #0]

    /* Check that the new number of wait states is taken into account to access the Flash
    memory by reading the FLASH_ACR register */
    if (__HAL_FLASH_GET_LATENCY() != FLatency)
 80044b2:	4b63      	ldr	r3, [pc, #396]	@ (8004640 <HAL_RCC_ClockConfig+0x1b8>)
 80044b4:	681b      	ldr	r3, [r3, #0]
 80044b6:	f003 0307 	and.w	r3, r3, #7
 80044ba:	683a      	ldr	r2, [r7, #0]
 80044bc:	429a      	cmp	r2, r3
 80044be:	d001      	beq.n	80044c4 <HAL_RCC_ClockConfig+0x3c>
    {
      return HAL_ERROR;
 80044c0:	2301      	movs	r3, #1
 80044c2:	e0b8      	b.n	8004636 <HAL_RCC_ClockConfig+0x1ae>
    }
  }

  /*-------------------------- HCLK Configuration --------------------------*/
  if (((RCC_ClkInitStruct->ClockType) & RCC_CLOCKTYPE_HCLK) == RCC_CLOCKTYPE_HCLK)
 80044c4:	687b      	ldr	r3, [r7, #4]
 80044c6:	681b      	ldr	r3, [r3, #0]
 80044c8:	f003 0302 	and.w	r3, r3, #2
 80044cc:	2b00      	cmp	r3, #0
 80044ce:	d020      	beq.n	8004512 <HAL_RCC_ClockConfig+0x8a>
  {
    /* Set the highest APBx dividers in order to ensure that we do not go through
       a non-spec phase whatever we decrease or increase HCLK. */
    if (((RCC_ClkInitStruct->ClockType) & RCC_CLOCKTYPE_PCLK1) == RCC_CLOCKTYPE_PCLK1)
 80044d0:	687b      	ldr	r3, [r7, #4]
 80044d2:	681b      	ldr	r3, [r3, #0]
 80044d4:	f003 0304 	and.w	r3, r3, #4
 80044d8:	2b00      	cmp	r3, #0
 80044da:	d005      	beq.n	80044e8 <HAL_RCC_ClockConfig+0x60>
    {
      MODIFY_REG(RCC->CFGR, RCC_CFGR_PPRE1, RCC_HCLK_DIV16);
 80044dc:	4b59      	ldr	r3, [pc, #356]	@ (8004644 <HAL_RCC_ClockConfig+0x1bc>)
 80044de:	689b      	ldr	r3, [r3, #8]
 80044e0:	4a58      	ldr	r2, [pc, #352]	@ (8004644 <HAL_RCC_ClockConfig+0x1bc>)
 80044e2:	f443 53e0 	orr.w	r3, r3, #7168	@ 0x1c00
 80044e6:	6093      	str	r3, [r2, #8]
    }

    if (((RCC_ClkInitStruct->ClockType) & RCC_CLOCKTYPE_PCLK2) == RCC_CLOCKTYPE_PCLK2)
 80044e8:	687b      	ldr	r3, [r7, #4]
 80044ea:	681b      	ldr	r3, [r3, #0]
 80044ec:	f003 0308 	and.w	r3, r3, #8
 80044f0:	2b00      	cmp	r3, #0
 80044f2:	d005      	beq.n	8004500 <HAL_RCC_ClockConfig+0x78>
    {
      MODIFY_REG(RCC->CFGR, RCC_CFGR_PPRE2, (RCC_HCLK_DIV16 << 3));
 80044f4:	4b53      	ldr	r3, [pc, #332]	@ (8004644 <HAL_RCC_ClockConfig+0x1bc>)
 80044f6:	689b      	ldr	r3, [r3, #8]
 80044f8:	4a52      	ldr	r2, [pc, #328]	@ (8004644 <HAL_RCC_ClockConfig+0x1bc>)
 80044fa:	f443 4360 	orr.w	r3, r3, #57344	@ 0xe000
 80044fe:	6093      	str	r3, [r2, #8]
    }

    assert_param(IS_RCC_HCLK(RCC_ClkInitStruct->AHBCLKDivider));
    MODIFY_REG(RCC->CFGR, RCC_CFGR_HPRE, RCC_ClkInitStruct->AHBCLKDivider);
 8004500:	4b50      	ldr	r3, [pc, #320]	@ (8004644 <HAL_RCC_ClockConfig+0x1bc>)
 8004502:	689b      	ldr	r3, [r3, #8]
 8004504:	f023 02f0 	bic.w	r2, r3, #240	@ 0xf0
 8004508:	687b      	ldr	r3, [r7, #4]
 800450a:	689b      	ldr	r3, [r3, #8]
 800450c:	494d      	ldr	r1, [pc, #308]	@ (8004644 <HAL_RCC_ClockConfig+0x1bc>)
 800450e:	4313      	orrs	r3, r2
 8004510:	608b      	str	r3, [r1, #8]
  }

  /*------------------------- SYSCLK Configuration ---------------------------*/
  if (((RCC_ClkInitStruct->ClockType) & RCC_CLOCKTYPE_SYSCLK) == RCC_CLOCKTYPE_SYSCLK)
 8004512:	687b      	ldr	r3, [r7, #4]
 8004514:	681b      	ldr	r3, [r3, #0]
 8004516:	f003 0301 	and.w	r3, r3, #1
 800451a:	2b00      	cmp	r3, #0
 800451c:	d044      	beq.n	80045a8 <HAL_RCC_ClockConfig+0x120>
  {
    assert_param(IS_RCC_SYSCLKSOURCE(RCC_ClkInitStruct->SYSCLKSource));

    /* HSE is selected as System Clock Source */
    if (RCC_ClkInitStruct->SYSCLKSource == RCC_SYSCLKSOURCE_HSE)
 800451e:	687b      	ldr	r3, [r7, #4]
 8004520:	685b      	ldr	r3, [r3, #4]
 8004522:	2b01      	cmp	r3, #1
 8004524:	d107      	bne.n	8004536 <HAL_RCC_ClockConfig+0xae>
    {
      /* Check the HSE ready flag */
      if (__HAL_RCC_GET_FLAG(RCC_FLAG_HSERDY) == RESET)
 8004526:	4b47      	ldr	r3, [pc, #284]	@ (8004644 <HAL_RCC_ClockConfig+0x1bc>)
 8004528:	681b      	ldr	r3, [r3, #0]
 800452a:	f403 3300 	and.w	r3, r3, #131072	@ 0x20000
 800452e:	2b00      	cmp	r3, #0
 8004530:	d119      	bne.n	8004566 <HAL_RCC_ClockConfig+0xde>
      {
        return HAL_ERROR;
 8004532:	2301      	movs	r3, #1
 8004534:	e07f      	b.n	8004636 <HAL_RCC_ClockConfig+0x1ae>
      }
    }
    /* PLL is selected as System Clock Source */
    else if ((RCC_ClkInitStruct->SYSCLKSource == RCC_SYSCLKSOURCE_PLLCLK)   ||
 8004536:	687b      	ldr	r3, [r7, #4]
 8004538:	685b      	ldr	r3, [r3, #4]
 800453a:	2b02      	cmp	r3, #2
 800453c:	d003      	beq.n	8004546 <HAL_RCC_ClockConfig+0xbe>
             (RCC_ClkInitStruct->SYSCLKSource == RCC_SYSCLKSOURCE_PLLRCLK))
 800453e:	687b      	ldr	r3, [r7, #4]
 8004540:	685b      	ldr	r3, [r3, #4]
    else if ((RCC_ClkInitStruct->SYSCLKSource == RCC_SYSCLKSOURCE_PLLCLK)   ||
 8004542:	2b03      	cmp	r3, #3
 8004544:	d107      	bne.n	8004556 <HAL_RCC_ClockConfig+0xce>
    {
      /* Check the PLL ready flag */
      if (__HAL_RCC_GET_FLAG(RCC_FLAG_PLLRDY) == RESET)
 8004546:	4b3f      	ldr	r3, [pc, #252]	@ (8004644 <HAL_RCC_ClockConfig+0x1bc>)
 8004548:	681b      	ldr	r3, [r3, #0]
 800454a:	f003 7300 	and.w	r3, r3, #33554432	@ 0x2000000
 800454e:	2b00      	cmp	r3, #0
 8004550:	d109      	bne.n	8004566 <HAL_RCC_ClockConfig+0xde>
      {
        return HAL_ERROR;
 8004552:	2301      	movs	r3, #1
 8004554:	e06f      	b.n	8004636 <HAL_RCC_ClockConfig+0x1ae>
    }
    /* HSI is selected as System Clock Source */
    else
    {
      /* Check the HSI ready flag */
      if (__HAL_RCC_GET_FLAG(RCC_FLAG_HSIRDY) == RESET)
 8004556:	4b3b      	ldr	r3, [pc, #236]	@ (8004644 <HAL_RCC_ClockConfig+0x1bc>)
 8004558:	681b      	ldr	r3, [r3, #0]
 800455a:	f003 0302 	and.w	r3, r3, #2
 800455e:	2b00      	cmp	r3, #0
 8004560:	d101      	bne.n	8004566 <HAL_RCC_ClockConfig+0xde>
      {
        return HAL_ERROR;
 8004562:	2301      	movs	r3, #1
 8004564:	e067      	b.n	8004636 <HAL_RCC_ClockConfig+0x1ae>
      }
    }

    __HAL_RCC_SYSCLK_CONFIG(RCC_ClkInitStruct->SYSCLKSource);
 8004566:	4b37      	ldr	r3, [pc, #220]	@ (8004644 <HAL_RCC_ClockConfig+0x1bc>)
 8004568:	689b      	ldr	r3, [r3, #8]
 800456a:	f023 0203 	bic.w	r2, r3, #3
 800456e:	687b      	ldr	r3, [r7, #4]
 8004570:	685b      	ldr	r3, [r3, #4]
 8004572:	4934      	ldr	r1, [pc, #208]	@ (8004644 <HAL_RCC_ClockConfig+0x1bc>)
 8004574:	4313      	orrs	r3, r2
 8004576:	608b      	str	r3, [r1, #8]

    /* Get Start Tick */
    tickstart = HAL_GetTick();
 8004578:	f7fe f95e 	bl	8002838 <HAL_GetTick>
 800457c:	60f8      	str	r0, [r7, #12]

    while (__HAL_RCC_GET_SYSCLK_SOURCE() != (RCC_ClkInitStruct->SYSCLKSource << RCC_CFGR_SWS_Pos))
 800457e:	e00a      	b.n	8004596 <HAL_RCC_ClockConfig+0x10e>
    {
      if ((HAL_GetTick() - tickstart) > CLOCKSWITCH_TIMEOUT_VALUE)
 8004580:	f7fe f95a 	bl	8002838 <HAL_GetTick>
 8004584:	4602      	mov	r2, r0
 8004586:	68fb      	ldr	r3, [r7, #12]
 8004588:	1ad3      	subs	r3, r2, r3
 800458a:	f241 3288 	movw	r2, #5000	@ 0x1388
 800458e:	4293      	cmp	r3, r2
 8004590:	d901      	bls.n	8004596 <HAL_RCC_ClockConfig+0x10e>
      {
        return HAL_TIMEOUT;
 8004592:	2303      	movs	r3, #3
 8004594:	e04f      	b.n	8004636 <HAL_RCC_ClockConfig+0x1ae>
    while (__HAL_RCC_GET_SYSCLK_SOURCE() != (RCC_ClkInitStruct->SYSCLKSource << RCC_CFGR_SWS_Pos))
 8004596:	4b2b      	ldr	r3, [pc, #172]	@ (8004644 <HAL_RCC_ClockConfig+0x1bc>)
 8004598:	689b      	ldr	r3, [r3, #8]
 800459a:	f003 020c 	and.w	r2, r3, #12
 800459e:	687b      	ldr	r3, [r7, #4]
 80045a0:	685b      	ldr	r3, [r3, #4]
 80045a2:	009b      	lsls	r3, r3, #2
 80045a4:	429a      	cmp	r2, r3
 80045a6:	d1eb      	bne.n	8004580 <HAL_RCC_ClockConfig+0xf8>
      }
    }
  }

  /* Decreasing the number of wait states because of lower CPU frequency */
  if (FLatency < __HAL_FLASH_GET_LATENCY())
 80045a8:	4b25      	ldr	r3, [pc, #148]	@ (8004640 <HAL_RCC_ClockConfig+0x1b8>)
 80045aa:	681b      	ldr	r3, [r3, #0]
 80045ac:	f003 0307 	and.w	r3, r3, #7
 80045b0:	683a      	ldr	r2, [r7, #0]
 80045b2:	429a      	cmp	r2, r3
 80045b4:	d20c      	bcs.n	80045d0 <HAL_RCC_ClockConfig+0x148>
  {
    /* Program the new number of wait states to the LATENCY bits in the FLASH_ACR register */
    __HAL_FLASH_SET_LATENCY(FLatency);
 80045b6:	4b22      	ldr	r3, [pc, #136]	@ (8004640 <HAL_RCC_ClockConfig+0x1b8>)
 80045b8:	683a      	ldr	r2, [r7, #0]
 80045ba:	b2d2      	uxtb	r2, r2
 80045bc:	701a      	strb	r2, [r3, #0]

    /* Check that the new number of wait states is taken into account to access the Flash
    memory by reading the FLASH_ACR register */
    if (__HAL_FLASH_GET_LATENCY() != FLatency)
 80045be:	4b20      	ldr	r3, [pc, #128]	@ (8004640 <HAL_RCC_ClockConfig+0x1b8>)
 80045c0:	681b      	ldr	r3, [r3, #0]
 80045c2:	f003 0307 	and.w	r3, r3, #7
 80045c6:	683a      	ldr	r2, [r7, #0]
 80045c8:	429a      	cmp	r2, r3
 80045ca:	d001      	beq.n	80045d0 <HAL_RCC_ClockConfig+0x148>
    {
      return HAL_ERROR;
 80045cc:	2301      	movs	r3, #1
 80045ce:	e032      	b.n	8004636 <HAL_RCC_ClockConfig+0x1ae>
    }
  }

  /*-------------------------- PCLK1 Configuration ---------------------------*/
  if (((RCC_ClkInitStruct->ClockType) & RCC_CLOCKTYPE_PCLK1) == RCC_CLOCKTYPE_PCLK1)
 80045d0:	687b      	ldr	r3, [r7, #4]
 80045d2:	681b      	ldr	r3, [r3, #0]
 80045d4:	f003 0304 	and.w	r3, r3, #4
 80045d8:	2b00      	cmp	r3, #0
 80045da:	d008      	beq.n	80045ee <HAL_RCC_ClockConfig+0x166>
  {
    assert_param(IS_RCC_PCLK(RCC_ClkInitStruct->APB1CLKDivider));
    MODIFY_REG(RCC->CFGR, RCC_CFGR_PPRE1, RCC_ClkInitStruct->APB1CLKDivider);
 80045dc:	4b19      	ldr	r3, [pc, #100]	@ (8004644 <HAL_RCC_ClockConfig+0x1bc>)
 80045de:	689b      	ldr	r3, [r3, #8]
 80045e0:	f423 52e0 	bic.w	r2, r3, #7168	@ 0x1c00
 80045e4:	687b      	ldr	r3, [r7, #4]
 80045e6:	68db      	ldr	r3, [r3, #12]
 80045e8:	4916      	ldr	r1, [pc, #88]	@ (8004644 <HAL_RCC_ClockConfig+0x1bc>)
 80045ea:	4313      	orrs	r3, r2
 80045ec:	608b      	str	r3, [r1, #8]
  }

  /*-------------------------- PCLK2 Configuration ---------------------------*/
  if (((RCC_ClkInitStruct->ClockType) & RCC_CLOCKTYPE_PCLK2) == RCC_CLOCKTYPE_PCLK2)
 80045ee:	687b      	ldr	r3, [r7, #4]
 80045f0:	681b      	ldr	r3, [r3, #0]
 80045f2:	f003 0308 	and.w	r3, r3, #8
 80045f6:	2b00      	cmp	r3, #0
 80045f8:	d009      	beq.n	800460e <HAL_RCC_ClockConfig+0x186>
  {
    assert_param(IS_RCC_PCLK(RCC_ClkInitStruct->APB2CLKDivider));
    MODIFY_REG(RCC->CFGR, RCC_CFGR_PPRE2, ((RCC_ClkInitStruct->APB2CLKDivider) << 3U));
 80045fa:	4b12      	ldr	r3, [pc, #72]	@ (8004644 <HAL_RCC_ClockConfig+0x1bc>)
 80045fc:	689b      	ldr	r3, [r3, #8]
 80045fe:	f423 4260 	bic.w	r2, r3, #57344	@ 0xe000
 8004602:	687b      	ldr	r3, [r7, #4]
 8004604:	691b      	ldr	r3, [r3, #16]
 8004606:	00db      	lsls	r3, r3, #3
 8004608:	490e      	ldr	r1, [pc, #56]	@ (8004644 <HAL_RCC_ClockConfig+0x1bc>)
 800460a:	4313      	orrs	r3, r2
 800460c:	608b      	str	r3, [r1, #8]
  }

  /* Update the SystemCoreClock global variable */
  SystemCoreClock = HAL_RCC_GetSysClockFreq() >> AHBPrescTable[(RCC->CFGR & RCC_CFGR_HPRE) >> RCC_CFGR_HPRE_Pos];
 800460e:	f000 f821 	bl	8004654 <HAL_RCC_GetSysClockFreq>
 8004612:	4602      	mov	r2, r0
 8004614:	4b0b      	ldr	r3, [pc, #44]	@ (8004644 <HAL_RCC_ClockConfig+0x1bc>)
 8004616:	689b      	ldr	r3, [r3, #8]
 8004618:	091b      	lsrs	r3, r3, #4
 800461a:	f003 030f 	and.w	r3, r3, #15
 800461e:	490a      	ldr	r1, [pc, #40]	@ (8004648 <HAL_RCC_ClockConfig+0x1c0>)
 8004620:	5ccb      	ldrb	r3, [r1, r3]
 8004622:	fa22 f303 	lsr.w	r3, r2, r3
 8004626:	4a09      	ldr	r2, [pc, #36]	@ (800464c <HAL_RCC_ClockConfig+0x1c4>)
 8004628:	6013      	str	r3, [r2, #0]

  /* Configure the source of time base considering new system clocks settings */
  HAL_InitTick(uwTickPrio);
 800462a:	4b09      	ldr	r3, [pc, #36]	@ (8004650 <HAL_RCC_ClockConfig+0x1c8>)
 800462c:	681b      	ldr	r3, [r3, #0]
 800462e:	4618      	mov	r0, r3
 8004630:	f7fe f8be 	bl	80027b0 <HAL_InitTick>

  return HAL_OK;
 8004634:	2300      	movs	r3, #0
}
 8004636:	4618      	mov	r0, r3
 8004638:	3710      	adds	r7, #16
 800463a:	46bd      	mov	sp, r7
 800463c:	bd80      	pop	{r7, pc}
 800463e:	bf00      	nop
 8004640:	40023c00 	.word	0x40023c00
 8004644:	40023800 	.word	0x40023800
 8004648:	08009a94 	.word	0x08009a94
 800464c:	20000004 	.word	0x20000004
 8004650:	20000008 	.word	0x20000008

08004654 <HAL_RCC_GetSysClockFreq>:
  *
  *
  * @retval SYSCLK frequency
  */
__weak uint32_t HAL_RCC_GetSysClockFreq(void)
{
 8004654:	e92d 4fb0 	stmdb	sp!, {r4, r5, r7, r8, r9, sl, fp, lr}
 8004658:	b090      	sub	sp, #64	@ 0x40
 800465a:	af00      	add	r7, sp, #0
  uint32_t pllm = 0U;
 800465c:	2300      	movs	r3, #0
 800465e:	637b      	str	r3, [r7, #52]	@ 0x34
  uint32_t pllvco = 0U;
 8004660:	2300      	movs	r3, #0
 8004662:	63fb      	str	r3, [r7, #60]	@ 0x3c
  uint32_t pllp = 0U;
 8004664:	2300      	movs	r3, #0
 8004666:	633b      	str	r3, [r7, #48]	@ 0x30
  uint32_t sysclockfreq = 0U;
 8004668:	2300      	movs	r3, #0
 800466a:	63bb      	str	r3, [r7, #56]	@ 0x38

  /* Get SYSCLK source -------------------------------------------------------*/
  switch (RCC->CFGR & RCC_CFGR_SWS)
 800466c:	4b59      	ldr	r3, [pc, #356]	@ (80047d4 <HAL_RCC_GetSysClockFreq+0x180>)
 800466e:	689b      	ldr	r3, [r3, #8]
 8004670:	f003 030c 	and.w	r3, r3, #12
 8004674:	2b08      	cmp	r3, #8
 8004676:	d00d      	beq.n	8004694 <HAL_RCC_GetSysClockFreq+0x40>
 8004678:	2b08      	cmp	r3, #8
 800467a:	f200 80a1 	bhi.w	80047c0 <HAL_RCC_GetSysClockFreq+0x16c>
 800467e:	2b00      	cmp	r3, #0
 8004680:	d002      	beq.n	8004688 <HAL_RCC_GetSysClockFreq+0x34>
 8004682:	2b04      	cmp	r3, #4
 8004684:	d003      	beq.n	800468e <HAL_RCC_GetSysClockFreq+0x3a>
 8004686:	e09b      	b.n	80047c0 <HAL_RCC_GetSysClockFreq+0x16c>
  {
    case RCC_CFGR_SWS_HSI:  /* HSI used as system clock source */
    {
      sysclockfreq = HSI_VALUE;
 8004688:	4b53      	ldr	r3, [pc, #332]	@ (80047d8 <HAL_RCC_GetSysClockFreq+0x184>)
 800468a:	63bb      	str	r3, [r7, #56]	@ 0x38
      break;
 800468c:	e09b      	b.n	80047c6 <HAL_RCC_GetSysClockFreq+0x172>
    }
    case RCC_CFGR_SWS_HSE:  /* HSE used as system clock  source */
    {
      sysclockfreq = HSE_VALUE;
 800468e:	4b53      	ldr	r3, [pc, #332]	@ (80047dc <HAL_RCC_GetSysClockFreq+0x188>)
 8004690:	63bb      	str	r3, [r7, #56]	@ 0x38
      break;
 8004692:	e098      	b.n	80047c6 <HAL_RCC_GetSysClockFreq+0x172>
    }
    case RCC_CFGR_SWS_PLL:  /* PLL used as system clock  source */
    {
      /* PLL_VCO = (HSE_VALUE or HSI_VALUE / PLLM) * PLLN
      SYSCLK = PLL_VCO / PLLP */
      pllm = RCC->PLLCFGR & RCC_PLLCFGR_PLLM;
 8004694:	4b4f      	ldr	r3, [pc, #316]	@ (80047d4 <HAL_RCC_GetSysClockFreq+0x180>)
 8004696:	685b      	ldr	r3, [r3, #4]
 8004698:	f003 033f 	and.w	r3, r3, #63	@ 0x3f
 800469c:	637b      	str	r3, [r7, #52]	@ 0x34
      if (__HAL_RCC_GET_PLL_OSCSOURCE() != RCC_PLLSOURCE_HSI)
 800469e:	4b4d      	ldr	r3, [pc, #308]	@ (80047d4 <HAL_RCC_GetSysClockFreq+0x180>)
 80046a0:	685b      	ldr	r3, [r3, #4]
 80046a2:	f403 0380 	and.w	r3, r3, #4194304	@ 0x400000
 80046a6:	2b00      	cmp	r3, #0
 80046a8:	d028      	beq.n	80046fc <HAL_RCC_GetSysClockFreq+0xa8>
      {
        /* HSE used as PLL clock source */
        pllvco = (uint32_t)((((uint64_t) HSE_VALUE * ((uint64_t)((RCC->PLLCFGR & RCC_PLLCFGR_PLLN) >> RCC_PLLCFGR_PLLN_Pos)))) / (uint64_t)pllm);
 80046aa:	4b4a      	ldr	r3, [pc, #296]	@ (80047d4 <HAL_RCC_GetSysClockFreq+0x180>)
 80046ac:	685b      	ldr	r3, [r3, #4]
 80046ae:	099b      	lsrs	r3, r3, #6
 80046b0:	2200      	movs	r2, #0
 80046b2:	623b      	str	r3, [r7, #32]
 80046b4:	627a      	str	r2, [r7, #36]	@ 0x24
 80046b6:	6a3b      	ldr	r3, [r7, #32]
 80046b8:	f3c3 0008 	ubfx	r0, r3, #0, #9
 80046bc:	2100      	movs	r1, #0
 80046be:	4b47      	ldr	r3, [pc, #284]	@ (80047dc <HAL_RCC_GetSysClockFreq+0x188>)
 80046c0:	fb03 f201 	mul.w	r2, r3, r1
 80046c4:	2300      	movs	r3, #0
 80046c6:	fb00 f303 	mul.w	r3, r0, r3
 80046ca:	4413      	add	r3, r2
 80046cc:	4a43      	ldr	r2, [pc, #268]	@ (80047dc <HAL_RCC_GetSysClockFreq+0x188>)
 80046ce:	fba0 1202 	umull	r1, r2, r0, r2
 80046d2:	62fa      	str	r2, [r7, #44]	@ 0x2c
 80046d4:	460a      	mov	r2, r1
 80046d6:	62ba      	str	r2, [r7, #40]	@ 0x28
 80046d8:	6afa      	ldr	r2, [r7, #44]	@ 0x2c
 80046da:	4413      	add	r3, r2
 80046dc:	62fb      	str	r3, [r7, #44]	@ 0x2c
 80046de:	6b7b      	ldr	r3, [r7, #52]	@ 0x34
 80046e0:	2200      	movs	r2, #0
 80046e2:	61bb      	str	r3, [r7, #24]
 80046e4:	61fa      	str	r2, [r7, #28]
 80046e6:	e9d7 2306 	ldrd	r2, r3, [r7, #24]
 80046ea:	e9d7 010a 	ldrd	r0, r1, [r7, #40]	@ 0x28
 80046ee:	f7fc fad3 	bl	8000c98 <__aeabi_uldivmod>
 80046f2:	4602      	mov	r2, r0
 80046f4:	460b      	mov	r3, r1
 80046f6:	4613      	mov	r3, r2
 80046f8:	63fb      	str	r3, [r7, #60]	@ 0x3c
 80046fa:	e053      	b.n	80047a4 <HAL_RCC_GetSysClockFreq+0x150>
      }
      else
      {
        /* HSI used as PLL clock source */
        pllvco = (uint32_t)((((uint64_t) HSI_VALUE * ((uint64_t)((RCC->PLLCFGR & RCC_PLLCFGR_PLLN) >> RCC_PLLCFGR_PLLN_Pos)))) / (uint64_t)pllm);
 80046fc:	4b35      	ldr	r3, [pc, #212]	@ (80047d4 <HAL_RCC_GetSysClockFreq+0x180>)
 80046fe:	685b      	ldr	r3, [r3, #4]
 8004700:	099b      	lsrs	r3, r3, #6
 8004702:	2200      	movs	r2, #0
 8004704:	613b      	str	r3, [r7, #16]
 8004706:	617a      	str	r2, [r7, #20]
 8004708:	693b      	ldr	r3, [r7, #16]
 800470a:	f3c3 0a08 	ubfx	sl, r3, #0, #9
 800470e:	f04f 0b00 	mov.w	fp, #0
 8004712:	4652      	mov	r2, sl
 8004714:	465b      	mov	r3, fp
 8004716:	f04f 0000 	mov.w	r0, #0
 800471a:	f04f 0100 	mov.w	r1, #0
 800471e:	0159      	lsls	r1, r3, #5
 8004720:	ea41 61d2 	orr.w	r1, r1, r2, lsr #27
 8004724:	0150      	lsls	r0, r2, #5
 8004726:	4602      	mov	r2, r0
 8004728:	460b      	mov	r3, r1
 800472a:	ebb2 080a 	subs.w	r8, r2, sl
 800472e:	eb63 090b 	sbc.w	r9, r3, fp
 8004732:	f04f 0200 	mov.w	r2, #0
 8004736:	f04f 0300 	mov.w	r3, #0
 800473a:	ea4f 1389 	mov.w	r3, r9, lsl #6
 800473e:	ea43 6398 	orr.w	r3, r3, r8, lsr #26
 8004742:	ea4f 1288 	mov.w	r2, r8, lsl #6
 8004746:	ebb2 0408 	subs.w	r4, r2, r8
 800474a:	eb63 0509 	sbc.w	r5, r3, r9
 800474e:	f04f 0200 	mov.w	r2, #0
 8004752:	f04f 0300 	mov.w	r3, #0
 8004756:	00eb      	lsls	r3, r5, #3
 8004758:	ea43 7354 	orr.w	r3, r3, r4, lsr #29
 800475c:	00e2      	lsls	r2, r4, #3
 800475e:	4614      	mov	r4, r2
 8004760:	461d      	mov	r5, r3
 8004762:	eb14 030a 	adds.w	r3, r4, sl
 8004766:	603b      	str	r3, [r7, #0]
 8004768:	eb45 030b 	adc.w	r3, r5, fp
 800476c:	607b      	str	r3, [r7, #4]
 800476e:	f04f 0200 	mov.w	r2, #0
 8004772:	f04f 0300 	mov.w	r3, #0
 8004776:	e9d7 4500 	ldrd	r4, r5, [r7]
 800477a:	4629      	mov	r1, r5
 800477c:	028b      	lsls	r3, r1, #10
 800477e:	4621      	mov	r1, r4
 8004780:	ea43 5391 	orr.w	r3, r3, r1, lsr #22
 8004784:	4621      	mov	r1, r4
 8004786:	028a      	lsls	r2, r1, #10
 8004788:	4610      	mov	r0, r2
 800478a:	4619      	mov	r1, r3
 800478c:	6b7b      	ldr	r3, [r7, #52]	@ 0x34
 800478e:	2200      	movs	r2, #0
 8004790:	60bb      	str	r3, [r7, #8]
 8004792:	60fa      	str	r2, [r7, #12]
 8004794:	e9d7 2302 	ldrd	r2, r3, [r7, #8]
 8004798:	f7fc fa7e 	bl	8000c98 <__aeabi_uldivmod>
 800479c:	4602      	mov	r2, r0
 800479e:	460b      	mov	r3, r1
 80047a0:	4613      	mov	r3, r2
 80047a2:	63fb      	str	r3, [r7, #60]	@ 0x3c
      }
      pllp = ((((RCC->PLLCFGR & RCC_PLLCFGR_PLLP) >> RCC_PLLCFGR_PLLP_Pos) + 1U) * 2U);
 80047a4:	4b0b      	ldr	r3, [pc, #44]	@ (80047d4 <HAL_RCC_GetSysClockFreq+0x180>)
 80047a6:	685b      	ldr	r3, [r3, #4]
 80047a8:	0c1b      	lsrs	r3, r3, #16
 80047aa:	f003 0303 	and.w	r3, r3, #3
 80047ae:	3301      	adds	r3, #1
 80047b0:	005b      	lsls	r3, r3, #1
 80047b2:	633b      	str	r3, [r7, #48]	@ 0x30

      sysclockfreq = pllvco / pllp;
 80047b4:	6bfa      	ldr	r2, [r7, #60]	@ 0x3c
 80047b6:	6b3b      	ldr	r3, [r7, #48]	@ 0x30
 80047b8:	fbb2 f3f3 	udiv	r3, r2, r3
 80047bc:	63bb      	str	r3, [r7, #56]	@ 0x38
      break;
 80047be:	e002      	b.n	80047c6 <HAL_RCC_GetSysClockFreq+0x172>
    }
    default:
    {
      sysclockfreq = HSI_VALUE;
 80047c0:	4b05      	ldr	r3, [pc, #20]	@ (80047d8 <HAL_RCC_GetSysClockFreq+0x184>)
 80047c2:	63bb      	str	r3, [r7, #56]	@ 0x38
      break;
 80047c4:	bf00      	nop
    }
  }
  return sysclockfreq;
 80047c6:	6bbb      	ldr	r3, [r7, #56]	@ 0x38
}
 80047c8:	4618      	mov	r0, r3
 80047ca:	3740      	adds	r7, #64	@ 0x40
 80047cc:	46bd      	mov	sp, r7
 80047ce:	e8bd 8fb0 	ldmia.w	sp!, {r4, r5, r7, r8, r9, sl, fp, pc}
 80047d2:	bf00      	nop
 80047d4:	40023800 	.word	0x40023800
 80047d8:	00f42400 	.word	0x00f42400
 80047dc:	017d7840 	.word	0x017d7840

080047e0 <HAL_RCC_GetHCLKFreq>:
  * @note   The SystemCoreClock CMSIS variable is used to store System Clock Frequency
  *         and updated within this function
  * @retval HCLK frequency
  */
uint32_t HAL_RCC_GetHCLKFreq(void)
{
 80047e0:	b480      	push	{r7}
 80047e2:	af00      	add	r7, sp, #0
  return SystemCoreClock;
 80047e4:	4b03      	ldr	r3, [pc, #12]	@ (80047f4 <HAL_RCC_GetHCLKFreq+0x14>)
 80047e6:	681b      	ldr	r3, [r3, #0]
}
 80047e8:	4618      	mov	r0, r3
 80047ea:	46bd      	mov	sp, r7
 80047ec:	f85d 7b04 	ldr.w	r7, [sp], #4
 80047f0:	4770      	bx	lr
 80047f2:	bf00      	nop
 80047f4:	20000004 	.word	0x20000004

080047f8 <HAL_RCC_GetPCLK1Freq>:
  * @note   Each time PCLK1 changes, this function must be called to update the
  *         right PCLK1 value. Otherwise, any configuration based on this function will be incorrect.
  * @retval PCLK1 frequency
  */
uint32_t HAL_RCC_GetPCLK1Freq(void)
{
 80047f8:	b580      	push	{r7, lr}
 80047fa:	af00      	add	r7, sp, #0
  /* Get HCLK source and Compute PCLK1 frequency ---------------------------*/
  return (HAL_RCC_GetHCLKFreq() >> APBPrescTable[(RCC->CFGR & RCC_CFGR_PPRE1) >> RCC_CFGR_PPRE1_Pos]);
 80047fc:	f7ff fff0 	bl	80047e0 <HAL_RCC_GetHCLKFreq>
 8004800:	4602      	mov	r2, r0
 8004802:	4b05      	ldr	r3, [pc, #20]	@ (8004818 <HAL_RCC_GetPCLK1Freq+0x20>)
 8004804:	689b      	ldr	r3, [r3, #8]
 8004806:	0a9b      	lsrs	r3, r3, #10
 8004808:	f003 0307 	and.w	r3, r3, #7
 800480c:	4903      	ldr	r1, [pc, #12]	@ (800481c <HAL_RCC_GetPCLK1Freq+0x24>)
 800480e:	5ccb      	ldrb	r3, [r1, r3]
 8004810:	fa22 f303 	lsr.w	r3, r2, r3
}
 8004814:	4618      	mov	r0, r3
 8004816:	bd80      	pop	{r7, pc}
 8004818:	40023800 	.word	0x40023800
 800481c:	08009aa4 	.word	0x08009aa4

08004820 <HAL_RCC_GetPCLK2Freq>:
  * @note   Each time PCLK2 changes, this function must be called to update the
  *         right PCLK2 value. Otherwise, any configuration based on this function will be incorrect.
  * @retval PCLK2 frequency
  */
uint32_t HAL_RCC_GetPCLK2Freq(void)
{
 8004820:	b580      	push	{r7, lr}
 8004822:	af00      	add	r7, sp, #0
  /* Get HCLK source and Compute PCLK2 frequency ---------------------------*/
  return (HAL_RCC_GetHCLKFreq() >> APBPrescTable[(RCC->CFGR & RCC_CFGR_PPRE2) >> RCC_CFGR_PPRE2_Pos]);
 8004824:	f7ff ffdc 	bl	80047e0 <HAL_RCC_GetHCLKFreq>
 8004828:	4602      	mov	r2, r0
 800482a:	4b05      	ldr	r3, [pc, #20]	@ (8004840 <HAL_RCC_GetPCLK2Freq+0x20>)
 800482c:	689b      	ldr	r3, [r3, #8]
 800482e:	0b5b      	lsrs	r3, r3, #13
 8004830:	f003 0307 	and.w	r3, r3, #7
 8004834:	4903      	ldr	r1, [pc, #12]	@ (8004844 <HAL_RCC_GetPCLK2Freq+0x24>)
 8004836:	5ccb      	ldrb	r3, [r1, r3]
 8004838:	fa22 f303 	lsr.w	r3, r2, r3
}
 800483c:	4618      	mov	r0, r3
 800483e:	bd80      	pop	{r7, pc}
 8004840:	40023800 	.word	0x40023800
 8004844:	08009aa4 	.word	0x08009aa4

08004848 <HAL_UART_Init>:
  * @param  huart  Pointer to a UART_HandleTypeDef structure that contains
  *                the configuration information for the specified UART module.
  * @retval HAL status
  */
HAL_StatusTypeDef HAL_UART_Init(UART_HandleTypeDef *huart)
{
 8004848:	b580      	push	{r7, lr}
 800484a:	b082      	sub	sp, #8
 800484c:	af00      	add	r7, sp, #0
 800484e:	6078      	str	r0, [r7, #4]
  /* Check the UART handle allocation */
  if (huart == NULL)
 8004850:	687b      	ldr	r3, [r7, #4]
 8004852:	2b00      	cmp	r3, #0
 8004854:	d101      	bne.n	800485a <HAL_UART_Init+0x12>
  {
    return HAL_ERROR;
 8004856:	2301      	movs	r3, #1
 8004858:	e042      	b.n	80048e0 <HAL_UART_Init+0x98>
    assert_param(IS_UART_INSTANCE(huart->Instance));
  }
  assert_param(IS_UART_WORD_LENGTH(huart->Init.WordLength));
  assert_param(IS_UART_OVERSAMPLING(huart->Init.OverSampling));

  if (huart->gState == HAL_UART_STATE_RESET)
 800485a:	687b      	ldr	r3, [r7, #4]
 800485c:	f893 3041 	ldrb.w	r3, [r3, #65]	@ 0x41
 8004860:	b2db      	uxtb	r3, r3
 8004862:	2b00      	cmp	r3, #0
 8004864:	d106      	bne.n	8004874 <HAL_UART_Init+0x2c>
  {
    /* Allocate lock resource and initialize it */
    huart->Lock = HAL_UNLOCKED;
 8004866:	687b      	ldr	r3, [r7, #4]
 8004868:	2200      	movs	r2, #0
 800486a:	f883 2040 	strb.w	r2, [r3, #64]	@ 0x40

    /* Init the low level hardware */
    huart->MspInitCallback(huart);
#else
    /* Init the low level hardware : GPIO, CLOCK */
    HAL_UART_MspInit(huart);
 800486e:	6878      	ldr	r0, [r7, #4]
 8004870:	f7fd fdd8 	bl	8002424 <HAL_UART_MspInit>
#endif /* (USE_HAL_UART_REGISTER_CALLBACKS) */
  }

  huart->gState = HAL_UART_STATE_BUSY;
 8004874:	687b      	ldr	r3, [r7, #4]
 8004876:	2224      	movs	r2, #36	@ 0x24
 8004878:	f883 2041 	strb.w	r2, [r3, #65]	@ 0x41

  /* Disable the peripheral */
  __HAL_UART_DISABLE(huart);
 800487c:	687b      	ldr	r3, [r7, #4]
 800487e:	681b      	ldr	r3, [r3, #0]
 8004880:	68da      	ldr	r2, [r3, #12]
 8004882:	687b      	ldr	r3, [r7, #4]
 8004884:	681b      	ldr	r3, [r3, #0]
 8004886:	f422 5200 	bic.w	r2, r2, #8192	@ 0x2000
 800488a:	60da      	str	r2, [r3, #12]

  /* Set the UART Communication parameters */
  UART_SetConfig(huart);
 800488c:	6878      	ldr	r0, [r7, #4]
 800488e:	f000 fdd5 	bl	800543c <UART_SetConfig>

  /* In asynchronous mode, the following bits must be kept cleared:
     - LINEN and CLKEN bits in the USART_CR2 register,
     - SCEN, HDSEL and IREN  bits in the USART_CR3 register.*/
  CLEAR_BIT(huart->Instance->CR2, (USART_CR2_LINEN | USART_CR2_CLKEN));
 8004892:	687b      	ldr	r3, [r7, #4]
 8004894:	681b      	ldr	r3, [r3, #0]
 8004896:	691a      	ldr	r2, [r3, #16]
 8004898:	687b      	ldr	r3, [r7, #4]
 800489a:	681b      	ldr	r3, [r3, #0]
 800489c:	f422 4290 	bic.w	r2, r2, #18432	@ 0x4800
 80048a0:	611a      	str	r2, [r3, #16]
  CLEAR_BIT(huart->Instance->CR3, (USART_CR3_SCEN | USART_CR3_HDSEL | USART_CR3_IREN));
 80048a2:	687b      	ldr	r3, [r7, #4]
 80048a4:	681b      	ldr	r3, [r3, #0]
 80048a6:	695a      	ldr	r2, [r3, #20]
 80048a8:	687b      	ldr	r3, [r7, #4]
 80048aa:	681b      	ldr	r3, [r3, #0]
 80048ac:	f022 022a 	bic.w	r2, r2, #42	@ 0x2a
 80048b0:	615a      	str	r2, [r3, #20]

  /* Enable the peripheral */
  __HAL_UART_ENABLE(huart);
 80048b2:	687b      	ldr	r3, [r7, #4]
 80048b4:	681b      	ldr	r3, [r3, #0]
 80048b6:	68da      	ldr	r2, [r3, #12]
 80048b8:	687b      	ldr	r3, [r7, #4]
 80048ba:	681b      	ldr	r3, [r3, #0]
 80048bc:	f442 5200 	orr.w	r2, r2, #8192	@ 0x2000
 80048c0:	60da      	str	r2, [r3, #12]

  /* Initialize the UART state */
  huart->ErrorCode = HAL_UART_ERROR_NONE;
 80048c2:	687b      	ldr	r3, [r7, #4]
 80048c4:	2200      	movs	r2, #0
 80048c6:	645a      	str	r2, [r3, #68]	@ 0x44
  huart->gState = HAL_UART_STATE_READY;
 80048c8:	687b      	ldr	r3, [r7, #4]
 80048ca:	2220      	movs	r2, #32
 80048cc:	f883 2041 	strb.w	r2, [r3, #65]	@ 0x41
  huart->RxState = HAL_UART_STATE_READY;
 80048d0:	687b      	ldr	r3, [r7, #4]
 80048d2:	2220      	movs	r2, #32
 80048d4:	f883 2042 	strb.w	r2, [r3, #66]	@ 0x42
  huart->RxEventType = HAL_UART_RXEVENT_TC;
 80048d8:	687b      	ldr	r3, [r7, #4]
 80048da:	2200      	movs	r2, #0
 80048dc:	635a      	str	r2, [r3, #52]	@ 0x34

  return HAL_OK;
 80048de:	2300      	movs	r3, #0
}
 80048e0:	4618      	mov	r0, r3
 80048e2:	3708      	adds	r7, #8
 80048e4:	46bd      	mov	sp, r7
 80048e6:	bd80      	pop	{r7, pc}

080048e8 <HAL_UART_Transmit>:
  * @param  Size  Amount of data elements (u8 or u16) to be sent
  * @param  Timeout Timeout duration
  * @retval HAL status
  */
HAL_StatusTypeDef HAL_UART_Transmit(UART_HandleTypeDef *huart, const uint8_t *pData, uint16_t Size, uint32_t Timeout)
{
 80048e8:	b580      	push	{r7, lr}
 80048ea:	b08a      	sub	sp, #40	@ 0x28
 80048ec:	af02      	add	r7, sp, #8
 80048ee:	60f8      	str	r0, [r7, #12]
 80048f0:	60b9      	str	r1, [r7, #8]
 80048f2:	603b      	str	r3, [r7, #0]
 80048f4:	4613      	mov	r3, r2
 80048f6:	80fb      	strh	r3, [r7, #6]
  const uint8_t  *pdata8bits;
  const uint16_t *pdata16bits;
  uint32_t tickstart = 0U;
 80048f8:	2300      	movs	r3, #0
 80048fa:	617b      	str	r3, [r7, #20]

  /* Check that a Tx process is not already ongoing */
  if (huart->gState == HAL_UART_STATE_READY)
 80048fc:	68fb      	ldr	r3, [r7, #12]
 80048fe:	f893 3041 	ldrb.w	r3, [r3, #65]	@ 0x41
 8004902:	b2db      	uxtb	r3, r3
 8004904:	2b20      	cmp	r3, #32
 8004906:	d175      	bne.n	80049f4 <HAL_UART_Transmit+0x10c>
  {
    if ((pData == NULL) || (Size == 0U))
 8004908:	68bb      	ldr	r3, [r7, #8]
 800490a:	2b00      	cmp	r3, #0
 800490c:	d002      	beq.n	8004914 <HAL_UART_Transmit+0x2c>
 800490e:	88fb      	ldrh	r3, [r7, #6]
 8004910:	2b00      	cmp	r3, #0
 8004912:	d101      	bne.n	8004918 <HAL_UART_Transmit+0x30>
    {
      return  HAL_ERROR;
 8004914:	2301      	movs	r3, #1
 8004916:	e06e      	b.n	80049f6 <HAL_UART_Transmit+0x10e>
    }

    huart->ErrorCode = HAL_UART_ERROR_NONE;
 8004918:	68fb      	ldr	r3, [r7, #12]
 800491a:	2200      	movs	r2, #0
 800491c:	645a      	str	r2, [r3, #68]	@ 0x44
    huart->gState = HAL_UART_STATE_BUSY_TX;
 800491e:	68fb      	ldr	r3, [r7, #12]
 8004920:	2221      	movs	r2, #33	@ 0x21
 8004922:	f883 2041 	strb.w	r2, [r3, #65]	@ 0x41

    /* Init tickstart for timeout management */
    tickstart = HAL_GetTick();
 8004926:	f7fd ff87 	bl	8002838 <HAL_GetTick>
 800492a:	6178      	str	r0, [r7, #20]

    huart->TxXferSize = Size;
 800492c:	68fb      	ldr	r3, [r7, #12]
 800492e:	88fa      	ldrh	r2, [r7, #6]
 8004930:	849a      	strh	r2, [r3, #36]	@ 0x24
    huart->TxXferCount = Size;
 8004932:	68fb      	ldr	r3, [r7, #12]
 8004934:	88fa      	ldrh	r2, [r7, #6]
 8004936:	84da      	strh	r2, [r3, #38]	@ 0x26

    /* In case of 9bits/No Parity transfer, pData needs to be handled as a uint16_t pointer */
    if ((huart->Init.WordLength == UART_WORDLENGTH_9B) && (huart->Init.Parity == UART_PARITY_NONE))
 8004938:	68fb      	ldr	r3, [r7, #12]
 800493a:	689b      	ldr	r3, [r3, #8]
 800493c:	f5b3 5f80 	cmp.w	r3, #4096	@ 0x1000
 8004940:	d108      	bne.n	8004954 <HAL_UART_Transmit+0x6c>
 8004942:	68fb      	ldr	r3, [r7, #12]
 8004944:	691b      	ldr	r3, [r3, #16]
 8004946:	2b00      	cmp	r3, #0
 8004948:	d104      	bne.n	8004954 <HAL_UART_Transmit+0x6c>
    {
      pdata8bits  = NULL;
 800494a:	2300      	movs	r3, #0
 800494c:	61fb      	str	r3, [r7, #28]
      pdata16bits = (const uint16_t *) pData;
 800494e:	68bb      	ldr	r3, [r7, #8]
 8004950:	61bb      	str	r3, [r7, #24]
 8004952:	e003      	b.n	800495c <HAL_UART_Transmit+0x74>
    }
    else
    {
      pdata8bits  = pData;
 8004954:	68bb      	ldr	r3, [r7, #8]
 8004956:	61fb      	str	r3, [r7, #28]
      pdata16bits = NULL;
 8004958:	2300      	movs	r3, #0
 800495a:	61bb      	str	r3, [r7, #24]
    }

    while (huart->TxXferCount > 0U)
 800495c:	e02e      	b.n	80049bc <HAL_UART_Transmit+0xd4>
    {
      if (UART_WaitOnFlagUntilTimeout(huart, UART_FLAG_TXE, RESET, tickstart, Timeout) != HAL_OK)
 800495e:	683b      	ldr	r3, [r7, #0]
 8004960:	9300      	str	r3, [sp, #0]
 8004962:	697b      	ldr	r3, [r7, #20]
 8004964:	2200      	movs	r2, #0
 8004966:	2180      	movs	r1, #128	@ 0x80
 8004968:	68f8      	ldr	r0, [r7, #12]
 800496a:	f000 fb39 	bl	8004fe0 <UART_WaitOnFlagUntilTimeout>
 800496e:	4603      	mov	r3, r0
 8004970:	2b00      	cmp	r3, #0
 8004972:	d005      	beq.n	8004980 <HAL_UART_Transmit+0x98>
      {
        huart->gState = HAL_UART_STATE_READY;
 8004974:	68fb      	ldr	r3, [r7, #12]
 8004976:	2220      	movs	r2, #32
 8004978:	f883 2041 	strb.w	r2, [r3, #65]	@ 0x41

        return HAL_TIMEOUT;
 800497c:	2303      	movs	r3, #3
 800497e:	e03a      	b.n	80049f6 <HAL_UART_Transmit+0x10e>
      }
      if (pdata8bits == NULL)
 8004980:	69fb      	ldr	r3, [r7, #28]
 8004982:	2b00      	cmp	r3, #0
 8004984:	d10b      	bne.n	800499e <HAL_UART_Transmit+0xb6>
      {
        huart->Instance->DR = (uint16_t)(*pdata16bits & 0x01FFU);
 8004986:	69bb      	ldr	r3, [r7, #24]
 8004988:	881b      	ldrh	r3, [r3, #0]
 800498a:	461a      	mov	r2, r3
 800498c:	68fb      	ldr	r3, [r7, #12]
 800498e:	681b      	ldr	r3, [r3, #0]
 8004990:	f3c2 0208 	ubfx	r2, r2, #0, #9
 8004994:	605a      	str	r2, [r3, #4]
        pdata16bits++;
 8004996:	69bb      	ldr	r3, [r7, #24]
 8004998:	3302      	adds	r3, #2
 800499a:	61bb      	str	r3, [r7, #24]
 800499c:	e007      	b.n	80049ae <HAL_UART_Transmit+0xc6>
      }
      else
      {
        huart->Instance->DR = (uint8_t)(*pdata8bits & 0xFFU);
 800499e:	69fb      	ldr	r3, [r7, #28]
 80049a0:	781a      	ldrb	r2, [r3, #0]
 80049a2:	68fb      	ldr	r3, [r7, #12]
 80049a4:	681b      	ldr	r3, [r3, #0]
 80049a6:	605a      	str	r2, [r3, #4]
        pdata8bits++;
 80049a8:	69fb      	ldr	r3, [r7, #28]
 80049aa:	3301      	adds	r3, #1
 80049ac:	61fb      	str	r3, [r7, #28]
      }
      huart->TxXferCount--;
 80049ae:	68fb      	ldr	r3, [r7, #12]
 80049b0:	8cdb      	ldrh	r3, [r3, #38]	@ 0x26
 80049b2:	b29b      	uxth	r3, r3
 80049b4:	3b01      	subs	r3, #1
 80049b6:	b29a      	uxth	r2, r3
 80049b8:	68fb      	ldr	r3, [r7, #12]
 80049ba:	84da      	strh	r2, [r3, #38]	@ 0x26
    while (huart->TxXferCount > 0U)
 80049bc:	68fb      	ldr	r3, [r7, #12]
 80049be:	8cdb      	ldrh	r3, [r3, #38]	@ 0x26
 80049c0:	b29b      	uxth	r3, r3
 80049c2:	2b00      	cmp	r3, #0
 80049c4:	d1cb      	bne.n	800495e <HAL_UART_Transmit+0x76>
    }

    if (UART_WaitOnFlagUntilTimeout(huart, UART_FLAG_TC, RESET, tickstart, Timeout) != HAL_OK)
 80049c6:	683b      	ldr	r3, [r7, #0]
 80049c8:	9300      	str	r3, [sp, #0]
 80049ca:	697b      	ldr	r3, [r7, #20]
 80049cc:	2200      	movs	r2, #0
 80049ce:	2140      	movs	r1, #64	@ 0x40
 80049d0:	68f8      	ldr	r0, [r7, #12]
 80049d2:	f000 fb05 	bl	8004fe0 <UART_WaitOnFlagUntilTimeout>
 80049d6:	4603      	mov	r3, r0
 80049d8:	2b00      	cmp	r3, #0
 80049da:	d005      	beq.n	80049e8 <HAL_UART_Transmit+0x100>
    {
      huart->gState = HAL_UART_STATE_READY;
 80049dc:	68fb      	ldr	r3, [r7, #12]
 80049de:	2220      	movs	r2, #32
 80049e0:	f883 2041 	strb.w	r2, [r3, #65]	@ 0x41

      return HAL_TIMEOUT;
 80049e4:	2303      	movs	r3, #3
 80049e6:	e006      	b.n	80049f6 <HAL_UART_Transmit+0x10e>
    }

    /* At end of Tx process, restore huart->gState to Ready */
    huart->gState = HAL_UART_STATE_READY;
 80049e8:	68fb      	ldr	r3, [r7, #12]
 80049ea:	2220      	movs	r2, #32
 80049ec:	f883 2041 	strb.w	r2, [r3, #65]	@ 0x41

    return HAL_OK;
 80049f0:	2300      	movs	r3, #0
 80049f2:	e000      	b.n	80049f6 <HAL_UART_Transmit+0x10e>
  }
  else
  {
    return HAL_BUSY;
 80049f4:	2302      	movs	r3, #2
  }
}
 80049f6:	4618      	mov	r0, r3
 80049f8:	3720      	adds	r7, #32
 80049fa:	46bd      	mov	sp, r7
 80049fc:	bd80      	pop	{r7, pc}

080049fe <HAL_UART_Receive_IT>:
  * @param  pData Pointer to data buffer (u8 or u16 data elements).
  * @param  Size  Amount of data elements (u8 or u16) to be received.
  * @retval HAL status
  */
HAL_StatusTypeDef HAL_UART_Receive_IT(UART_HandleTypeDef *huart, uint8_t *pData, uint16_t Size)
{
 80049fe:	b580      	push	{r7, lr}
 8004a00:	b084      	sub	sp, #16
 8004a02:	af00      	add	r7, sp, #0
 8004a04:	60f8      	str	r0, [r7, #12]
 8004a06:	60b9      	str	r1, [r7, #8]
 8004a08:	4613      	mov	r3, r2
 8004a0a:	80fb      	strh	r3, [r7, #6]
  /* Check that a Rx process is not already ongoing */
  if (huart->RxState == HAL_UART_STATE_READY)
 8004a0c:	68fb      	ldr	r3, [r7, #12]
 8004a0e:	f893 3042 	ldrb.w	r3, [r3, #66]	@ 0x42
 8004a12:	b2db      	uxtb	r3, r3
 8004a14:	2b20      	cmp	r3, #32
 8004a16:	d112      	bne.n	8004a3e <HAL_UART_Receive_IT+0x40>
  {
    if ((pData == NULL) || (Size == 0U))
 8004a18:	68bb      	ldr	r3, [r7, #8]
 8004a1a:	2b00      	cmp	r3, #0
 8004a1c:	d002      	beq.n	8004a24 <HAL_UART_Receive_IT+0x26>
 8004a1e:	88fb      	ldrh	r3, [r7, #6]
 8004a20:	2b00      	cmp	r3, #0
 8004a22:	d101      	bne.n	8004a28 <HAL_UART_Receive_IT+0x2a>
    {
      return HAL_ERROR;
 8004a24:	2301      	movs	r3, #1
 8004a26:	e00b      	b.n	8004a40 <HAL_UART_Receive_IT+0x42>
    }

    /* Set Reception type to Standard reception */
    huart->ReceptionType = HAL_UART_RECEPTION_STANDARD;
 8004a28:	68fb      	ldr	r3, [r7, #12]
 8004a2a:	2200      	movs	r2, #0
 8004a2c:	631a      	str	r2, [r3, #48]	@ 0x30

    return (UART_Start_Receive_IT(huart, pData, Size));
 8004a2e:	88fb      	ldrh	r3, [r7, #6]
 8004a30:	461a      	mov	r2, r3
 8004a32:	68b9      	ldr	r1, [r7, #8]
 8004a34:	68f8      	ldr	r0, [r7, #12]
 8004a36:	f000 fb2c 	bl	8005092 <UART_Start_Receive_IT>
 8004a3a:	4603      	mov	r3, r0
 8004a3c:	e000      	b.n	8004a40 <HAL_UART_Receive_IT+0x42>
  }
  else
  {
    return HAL_BUSY;
 8004a3e:	2302      	movs	r3, #2
  }
}
 8004a40:	4618      	mov	r0, r3
 8004a42:	3710      	adds	r7, #16
 8004a44:	46bd      	mov	sp, r7
 8004a46:	bd80      	pop	{r7, pc}

08004a48 <HAL_UART_IRQHandler>:
  * @param  huart  Pointer to a UART_HandleTypeDef structure that contains
  *                the configuration information for the specified UART module.
  * @retval None
  */
void HAL_UART_IRQHandler(UART_HandleTypeDef *huart)
{
 8004a48:	b580      	push	{r7, lr}
 8004a4a:	b0ba      	sub	sp, #232	@ 0xe8
 8004a4c:	af00      	add	r7, sp, #0
 8004a4e:	6078      	str	r0, [r7, #4]
  uint32_t isrflags   = READ_REG(huart->Instance->SR);
 8004a50:	687b      	ldr	r3, [r7, #4]
 8004a52:	681b      	ldr	r3, [r3, #0]
 8004a54:	681b      	ldr	r3, [r3, #0]
 8004a56:	f8c7 30e4 	str.w	r3, [r7, #228]	@ 0xe4
  uint32_t cr1its     = READ_REG(huart->Instance->CR1);
 8004a5a:	687b      	ldr	r3, [r7, #4]
 8004a5c:	681b      	ldr	r3, [r3, #0]
 8004a5e:	68db      	ldr	r3, [r3, #12]
 8004a60:	f8c7 30e0 	str.w	r3, [r7, #224]	@ 0xe0
  uint32_t cr3its     = READ_REG(huart->Instance->CR3);
 8004a64:	687b      	ldr	r3, [r7, #4]
 8004a66:	681b      	ldr	r3, [r3, #0]
 8004a68:	695b      	ldr	r3, [r3, #20]
 8004a6a:	f8c7 30dc 	str.w	r3, [r7, #220]	@ 0xdc
  uint32_t errorflags = 0x00U;
 8004a6e:	2300      	movs	r3, #0
 8004a70:	f8c7 30d8 	str.w	r3, [r7, #216]	@ 0xd8
  uint32_t dmarequest = 0x00U;
 8004a74:	2300      	movs	r3, #0
 8004a76:	f8c7 30d4 	str.w	r3, [r7, #212]	@ 0xd4

  /* If no error occurs */
  errorflags = (isrflags & (uint32_t)(USART_SR_PE | USART_SR_FE | USART_SR_ORE | USART_SR_NE));
 8004a7a:	f8d7 30e4 	ldr.w	r3, [r7, #228]	@ 0xe4
 8004a7e:	f003 030f 	and.w	r3, r3, #15
 8004a82:	f8c7 30d8 	str.w	r3, [r7, #216]	@ 0xd8
  if (errorflags == RESET)
 8004a86:	f8d7 30d8 	ldr.w	r3, [r7, #216]	@ 0xd8
 8004a8a:	2b00      	cmp	r3, #0
 8004a8c:	d10f      	bne.n	8004aae <HAL_UART_IRQHandler+0x66>
  {
    /* UART in mode Receiver -------------------------------------------------*/
    if (((isrflags & USART_SR_RXNE) != RESET) && ((cr1its & USART_CR1_RXNEIE) != RESET))
 8004a8e:	f8d7 30e4 	ldr.w	r3, [r7, #228]	@ 0xe4
 8004a92:	f003 0320 	and.w	r3, r3, #32
 8004a96:	2b00      	cmp	r3, #0
 8004a98:	d009      	beq.n	8004aae <HAL_UART_IRQHandler+0x66>
 8004a9a:	f8d7 30e0 	ldr.w	r3, [r7, #224]	@ 0xe0
 8004a9e:	f003 0320 	and.w	r3, r3, #32
 8004aa2:	2b00      	cmp	r3, #0
 8004aa4:	d003      	beq.n	8004aae <HAL_UART_IRQHandler+0x66>
    {
      UART_Receive_IT(huart);
 8004aa6:	6878      	ldr	r0, [r7, #4]
 8004aa8:	f000 fc09 	bl	80052be <UART_Receive_IT>
      return;
 8004aac:	e273      	b.n	8004f96 <HAL_UART_IRQHandler+0x54e>
    }
  }

  /* If some errors occur */
  if ((errorflags != RESET) && (((cr3its & USART_CR3_EIE) != RESET)
 8004aae:	f8d7 30d8 	ldr.w	r3, [r7, #216]	@ 0xd8
 8004ab2:	2b00      	cmp	r3, #0
 8004ab4:	f000 80de 	beq.w	8004c74 <HAL_UART_IRQHandler+0x22c>
 8004ab8:	f8d7 30dc 	ldr.w	r3, [r7, #220]	@ 0xdc
 8004abc:	f003 0301 	and.w	r3, r3, #1
 8004ac0:	2b00      	cmp	r3, #0
 8004ac2:	d106      	bne.n	8004ad2 <HAL_UART_IRQHandler+0x8a>
                                || ((cr1its & (USART_CR1_RXNEIE | USART_CR1_PEIE)) != RESET)))
 8004ac4:	f8d7 30e0 	ldr.w	r3, [r7, #224]	@ 0xe0
 8004ac8:	f403 7390 	and.w	r3, r3, #288	@ 0x120
 8004acc:	2b00      	cmp	r3, #0
 8004ace:	f000 80d1 	beq.w	8004c74 <HAL_UART_IRQHandler+0x22c>
  {
    /* UART parity error interrupt occurred ----------------------------------*/
    if (((isrflags & USART_SR_PE) != RESET) && ((cr1its & USART_CR1_PEIE) != RESET))
 8004ad2:	f8d7 30e4 	ldr.w	r3, [r7, #228]	@ 0xe4
 8004ad6:	f003 0301 	and.w	r3, r3, #1
 8004ada:	2b00      	cmp	r3, #0
 8004adc:	d00b      	beq.n	8004af6 <HAL_UART_IRQHandler+0xae>
 8004ade:	f8d7 30e0 	ldr.w	r3, [r7, #224]	@ 0xe0
 8004ae2:	f403 7380 	and.w	r3, r3, #256	@ 0x100
 8004ae6:	2b00      	cmp	r3, #0
 8004ae8:	d005      	beq.n	8004af6 <HAL_UART_IRQHandler+0xae>
    {
      huart->ErrorCode |= HAL_UART_ERROR_PE;
 8004aea:	687b      	ldr	r3, [r7, #4]
 8004aec:	6c5b      	ldr	r3, [r3, #68]	@ 0x44
 8004aee:	f043 0201 	orr.w	r2, r3, #1
 8004af2:	687b      	ldr	r3, [r7, #4]
 8004af4:	645a      	str	r2, [r3, #68]	@ 0x44
    }

    /* UART noise error interrupt occurred -----------------------------------*/
    if (((isrflags & USART_SR_NE) != RESET) && ((cr3its & USART_CR3_EIE) != RESET))
 8004af6:	f8d7 30e4 	ldr.w	r3, [r7, #228]	@ 0xe4
 8004afa:	f003 0304 	and.w	r3, r3, #4
 8004afe:	2b00      	cmp	r3, #0
 8004b00:	d00b      	beq.n	8004b1a <HAL_UART_IRQHandler+0xd2>
 8004b02:	f8d7 30dc 	ldr.w	r3, [r7, #220]	@ 0xdc
 8004b06:	f003 0301 	and.w	r3, r3, #1
 8004b0a:	2b00      	cmp	r3, #0
 8004b0c:	d005      	beq.n	8004b1a <HAL_UART_IRQHandler+0xd2>
    {
      huart->ErrorCode |= HAL_UART_ERROR_NE;
 8004b0e:	687b      	ldr	r3, [r7, #4]
 8004b10:	6c5b      	ldr	r3, [r3, #68]	@ 0x44
 8004b12:	f043 0202 	orr.w	r2, r3, #2
 8004b16:	687b      	ldr	r3, [r7, #4]
 8004b18:	645a      	str	r2, [r3, #68]	@ 0x44
    }

    /* UART frame error interrupt occurred -----------------------------------*/
    if (((isrflags & USART_SR_FE) != RESET) && ((cr3its & USART_CR3_EIE) != RESET))
 8004b1a:	f8d7 30e4 	ldr.w	r3, [r7, #228]	@ 0xe4
 8004b1e:	f003 0302 	and.w	r3, r3, #2
 8004b22:	2b00      	cmp	r3, #0
 8004b24:	d00b      	beq.n	8004b3e <HAL_UART_IRQHandler+0xf6>
 8004b26:	f8d7 30dc 	ldr.w	r3, [r7, #220]	@ 0xdc
 8004b2a:	f003 0301 	and.w	r3, r3, #1
 8004b2e:	2b00      	cmp	r3, #0
 8004b30:	d005      	beq.n	8004b3e <HAL_UART_IRQHandler+0xf6>
    {
      huart->ErrorCode |= HAL_UART_ERROR_FE;
 8004b32:	687b      	ldr	r3, [r7, #4]
 8004b34:	6c5b      	ldr	r3, [r3, #68]	@ 0x44
 8004b36:	f043 0204 	orr.w	r2, r3, #4
 8004b3a:	687b      	ldr	r3, [r7, #4]
 8004b3c:	645a      	str	r2, [r3, #68]	@ 0x44
    }

    /* UART Over-Run interrupt occurred --------------------------------------*/
    if (((isrflags & USART_SR_ORE) != RESET) && (((cr1its & USART_CR1_RXNEIE) != RESET)
 8004b3e:	f8d7 30e4 	ldr.w	r3, [r7, #228]	@ 0xe4
 8004b42:	f003 0308 	and.w	r3, r3, #8
 8004b46:	2b00      	cmp	r3, #0
 8004b48:	d011      	beq.n	8004b6e <HAL_UART_IRQHandler+0x126>
 8004b4a:	f8d7 30e0 	ldr.w	r3, [r7, #224]	@ 0xe0
 8004b4e:	f003 0320 	and.w	r3, r3, #32
 8004b52:	2b00      	cmp	r3, #0
 8004b54:	d105      	bne.n	8004b62 <HAL_UART_IRQHandler+0x11a>
                                                 || ((cr3its & USART_CR3_EIE) != RESET)))
 8004b56:	f8d7 30dc 	ldr.w	r3, [r7, #220]	@ 0xdc
 8004b5a:	f003 0301 	and.w	r3, r3, #1
 8004b5e:	2b00      	cmp	r3, #0
 8004b60:	d005      	beq.n	8004b6e <HAL_UART_IRQHandler+0x126>
    {
      huart->ErrorCode |= HAL_UART_ERROR_ORE;
 8004b62:	687b      	ldr	r3, [r7, #4]
 8004b64:	6c5b      	ldr	r3, [r3, #68]	@ 0x44
 8004b66:	f043 0208 	orr.w	r2, r3, #8
 8004b6a:	687b      	ldr	r3, [r7, #4]
 8004b6c:	645a      	str	r2, [r3, #68]	@ 0x44
    }

    /* Call UART Error Call back function if need be --------------------------*/
    if (huart->ErrorCode != HAL_UART_ERROR_NONE)
 8004b6e:	687b      	ldr	r3, [r7, #4]
 8004b70:	6c5b      	ldr	r3, [r3, #68]	@ 0x44
 8004b72:	2b00      	cmp	r3, #0
 8004b74:	f000 820a 	beq.w	8004f8c <HAL_UART_IRQHandler+0x544>
    {
      /* UART in mode Receiver -----------------------------------------------*/
      if (((isrflags & USART_SR_RXNE) != RESET) && ((cr1its & USART_CR1_RXNEIE) != RESET))
 8004b78:	f8d7 30e4 	ldr.w	r3, [r7, #228]	@ 0xe4
 8004b7c:	f003 0320 	and.w	r3, r3, #32
 8004b80:	2b00      	cmp	r3, #0
 8004b82:	d008      	beq.n	8004b96 <HAL_UART_IRQHandler+0x14e>
 8004b84:	f8d7 30e0 	ldr.w	r3, [r7, #224]	@ 0xe0
 8004b88:	f003 0320 	and.w	r3, r3, #32
 8004b8c:	2b00      	cmp	r3, #0
 8004b8e:	d002      	beq.n	8004b96 <HAL_UART_IRQHandler+0x14e>
      {
        UART_Receive_IT(huart);
 8004b90:	6878      	ldr	r0, [r7, #4]
 8004b92:	f000 fb94 	bl	80052be <UART_Receive_IT>
      }

      /* If Overrun error occurs, or if any error occurs in DMA mode reception,
         consider error as blocking */
      dmarequest = HAL_IS_BIT_SET(huart->Instance->CR3, USART_CR3_DMAR);
 8004b96:	687b      	ldr	r3, [r7, #4]
 8004b98:	681b      	ldr	r3, [r3, #0]
 8004b9a:	695b      	ldr	r3, [r3, #20]
 8004b9c:	f003 0340 	and.w	r3, r3, #64	@ 0x40
 8004ba0:	2b40      	cmp	r3, #64	@ 0x40
 8004ba2:	bf0c      	ite	eq
 8004ba4:	2301      	moveq	r3, #1
 8004ba6:	2300      	movne	r3, #0
 8004ba8:	b2db      	uxtb	r3, r3
 8004baa:	f8c7 30d4 	str.w	r3, [r7, #212]	@ 0xd4
      if (((huart->ErrorCode & HAL_UART_ERROR_ORE) != RESET) || dmarequest)
 8004bae:	687b      	ldr	r3, [r7, #4]
 8004bb0:	6c5b      	ldr	r3, [r3, #68]	@ 0x44
 8004bb2:	f003 0308 	and.w	r3, r3, #8
 8004bb6:	2b00      	cmp	r3, #0
 8004bb8:	d103      	bne.n	8004bc2 <HAL_UART_IRQHandler+0x17a>
 8004bba:	f8d7 30d4 	ldr.w	r3, [r7, #212]	@ 0xd4
 8004bbe:	2b00      	cmp	r3, #0
 8004bc0:	d04f      	beq.n	8004c62 <HAL_UART_IRQHandler+0x21a>
      {
        /* Blocking error : transfer is aborted
           Set the UART state ready to be able to start again the process,
           Disable Rx Interrupts, and disable Rx DMA request, if ongoing */
        UART_EndRxTransfer(huart);
 8004bc2:	6878      	ldr	r0, [r7, #4]
 8004bc4:	f000 fa9f 	bl	8005106 <UART_EndRxTransfer>

        /* Disable the UART DMA Rx request if enabled */
        if (HAL_IS_BIT_SET(huart->Instance->CR3, USART_CR3_DMAR))
 8004bc8:	687b      	ldr	r3, [r7, #4]
 8004bca:	681b      	ldr	r3, [r3, #0]
 8004bcc:	695b      	ldr	r3, [r3, #20]
 8004bce:	f003 0340 	and.w	r3, r3, #64	@ 0x40
 8004bd2:	2b40      	cmp	r3, #64	@ 0x40
 8004bd4:	d141      	bne.n	8004c5a <HAL_UART_IRQHandler+0x212>
        {
          ATOMIC_CLEAR_BIT(huart->Instance->CR3, USART_CR3_DMAR);
 8004bd6:	687b      	ldr	r3, [r7, #4]
 8004bd8:	681b      	ldr	r3, [r3, #0]
 8004bda:	3314      	adds	r3, #20
 8004bdc:	f8c7 309c 	str.w	r3, [r7, #156]	@ 0x9c
   __ASM volatile ("ldrex %0, %1" : "=r" (result) : "Q" (*addr) );
 8004be0:	f8d7 309c 	ldr.w	r3, [r7, #156]	@ 0x9c
 8004be4:	e853 3f00 	ldrex	r3, [r3]
 8004be8:	f8c7 3098 	str.w	r3, [r7, #152]	@ 0x98
   return(result);
 8004bec:	f8d7 3098 	ldr.w	r3, [r7, #152]	@ 0x98
 8004bf0:	f023 0340 	bic.w	r3, r3, #64	@ 0x40
 8004bf4:	f8c7 30d0 	str.w	r3, [r7, #208]	@ 0xd0
 8004bf8:	687b      	ldr	r3, [r7, #4]
 8004bfa:	681b      	ldr	r3, [r3, #0]
 8004bfc:	3314      	adds	r3, #20
 8004bfe:	f8d7 20d0 	ldr.w	r2, [r7, #208]	@ 0xd0
 8004c02:	f8c7 20a8 	str.w	r2, [r7, #168]	@ 0xa8
 8004c06:	f8c7 30a4 	str.w	r3, [r7, #164]	@ 0xa4
   __ASM volatile ("strex %0, %2, %1" : "=&r" (result), "=Q" (*addr) : "r" (value) );
 8004c0a:	f8d7 10a4 	ldr.w	r1, [r7, #164]	@ 0xa4
 8004c0e:	f8d7 20a8 	ldr.w	r2, [r7, #168]	@ 0xa8
 8004c12:	e841 2300 	strex	r3, r2, [r1]
 8004c16:	f8c7 30a0 	str.w	r3, [r7, #160]	@ 0xa0
   return(result);
 8004c1a:	f8d7 30a0 	ldr.w	r3, [r7, #160]	@ 0xa0
 8004c1e:	2b00      	cmp	r3, #0
 8004c20:	d1d9      	bne.n	8004bd6 <HAL_UART_IRQHandler+0x18e>

          /* Abort the UART DMA Rx stream */
          if (huart->hdmarx != NULL)
 8004c22:	687b      	ldr	r3, [r7, #4]
 8004c24:	6bdb      	ldr	r3, [r3, #60]	@ 0x3c
 8004c26:	2b00      	cmp	r3, #0
 8004c28:	d013      	beq.n	8004c52 <HAL_UART_IRQHandler+0x20a>
          {
            /* Set the UART DMA Abort callback :
               will lead to call HAL_UART_ErrorCallback() at end of DMA abort procedure */
            huart->hdmarx->XferAbortCallback = UART_DMAAbortOnError;
 8004c2a:	687b      	ldr	r3, [r7, #4]
 8004c2c:	6bdb      	ldr	r3, [r3, #60]	@ 0x3c
 8004c2e:	4a8a      	ldr	r2, [pc, #552]	@ (8004e58 <HAL_UART_IRQHandler+0x410>)
 8004c30:	651a      	str	r2, [r3, #80]	@ 0x50
            if (HAL_DMA_Abort_IT(huart->hdmarx) != HAL_OK)
 8004c32:	687b      	ldr	r3, [r7, #4]
 8004c34:	6bdb      	ldr	r3, [r3, #60]	@ 0x3c
 8004c36:	4618      	mov	r0, r3
 8004c38:	f7fd ffaf 	bl	8002b9a <HAL_DMA_Abort_IT>
 8004c3c:	4603      	mov	r3, r0
 8004c3e:	2b00      	cmp	r3, #0
 8004c40:	d016      	beq.n	8004c70 <HAL_UART_IRQHandler+0x228>
            {
              /* Call Directly XferAbortCallback function in case of error */
              huart->hdmarx->XferAbortCallback(huart->hdmarx);
 8004c42:	687b      	ldr	r3, [r7, #4]
 8004c44:	6bdb      	ldr	r3, [r3, #60]	@ 0x3c
 8004c46:	6d1b      	ldr	r3, [r3, #80]	@ 0x50
 8004c48:	687a      	ldr	r2, [r7, #4]
 8004c4a:	6bd2      	ldr	r2, [r2, #60]	@ 0x3c
 8004c4c:	4610      	mov	r0, r2
 8004c4e:	4798      	blx	r3
        if (HAL_IS_BIT_SET(huart->Instance->CR3, USART_CR3_DMAR))
 8004c50:	e00e      	b.n	8004c70 <HAL_UART_IRQHandler+0x228>
#if (USE_HAL_UART_REGISTER_CALLBACKS == 1)
            /*Call registered error callback*/
            huart->ErrorCallback(huart);
#else
            /*Call legacy weak error callback*/
            HAL_UART_ErrorCallback(huart);
 8004c52:	6878      	ldr	r0, [r7, #4]
 8004c54:	f7fc fee4 	bl	8001a20 <HAL_UART_ErrorCallback>
        if (HAL_IS_BIT_SET(huart->Instance->CR3, USART_CR3_DMAR))
 8004c58:	e00a      	b.n	8004c70 <HAL_UART_IRQHandler+0x228>
#if (USE_HAL_UART_REGISTER_CALLBACKS == 1)
          /*Call registered error callback*/
          huart->ErrorCallback(huart);
#else
          /*Call legacy weak error callback*/
          HAL_UART_ErrorCallback(huart);
 8004c5a:	6878      	ldr	r0, [r7, #4]
 8004c5c:	f7fc fee0 	bl	8001a20 <HAL_UART_ErrorCallback>
        if (HAL_IS_BIT_SET(huart->Instance->CR3, USART_CR3_DMAR))
 8004c60:	e006      	b.n	8004c70 <HAL_UART_IRQHandler+0x228>
#if (USE_HAL_UART_REGISTER_CALLBACKS == 1)
        /*Call registered error callback*/
        huart->ErrorCallback(huart);
#else
        /*Call legacy weak error callback*/
        HAL_UART_ErrorCallback(huart);
 8004c62:	6878      	ldr	r0, [r7, #4]
 8004c64:	f7fc fedc 	bl	8001a20 <HAL_UART_ErrorCallback>
#endif /* USE_HAL_UART_REGISTER_CALLBACKS */

        huart->ErrorCode = HAL_UART_ERROR_NONE;
 8004c68:	687b      	ldr	r3, [r7, #4]
 8004c6a:	2200      	movs	r2, #0
 8004c6c:	645a      	str	r2, [r3, #68]	@ 0x44
      }
    }
    return;
 8004c6e:	e18d      	b.n	8004f8c <HAL_UART_IRQHandler+0x544>
        if (HAL_IS_BIT_SET(huart->Instance->CR3, USART_CR3_DMAR))
 8004c70:	bf00      	nop
    return;
 8004c72:	e18b      	b.n	8004f8c <HAL_UART_IRQHandler+0x544>
  } /* End if some error occurs */

  /* Check current reception Mode :
     If Reception till IDLE event has been selected : */
  if ((huart->ReceptionType == HAL_UART_RECEPTION_TOIDLE)
 8004c74:	687b      	ldr	r3, [r7, #4]
 8004c76:	6b1b      	ldr	r3, [r3, #48]	@ 0x30
 8004c78:	2b01      	cmp	r3, #1
 8004c7a:	f040 8167 	bne.w	8004f4c <HAL_UART_IRQHandler+0x504>
      && ((isrflags & USART_SR_IDLE) != 0U)
 8004c7e:	f8d7 30e4 	ldr.w	r3, [r7, #228]	@ 0xe4
 8004c82:	f003 0310 	and.w	r3, r3, #16
 8004c86:	2b00      	cmp	r3, #0
 8004c88:	f000 8160 	beq.w	8004f4c <HAL_UART_IRQHandler+0x504>
      && ((cr1its & USART_CR1_IDLEIE) != 0U))
 8004c8c:	f8d7 30e0 	ldr.w	r3, [r7, #224]	@ 0xe0
 8004c90:	f003 0310 	and.w	r3, r3, #16
 8004c94:	2b00      	cmp	r3, #0
 8004c96:	f000 8159 	beq.w	8004f4c <HAL_UART_IRQHandler+0x504>
  {
    __HAL_UART_CLEAR_IDLEFLAG(huart);
 8004c9a:	2300      	movs	r3, #0
 8004c9c:	60bb      	str	r3, [r7, #8]
 8004c9e:	687b      	ldr	r3, [r7, #4]
 8004ca0:	681b      	ldr	r3, [r3, #0]
 8004ca2:	681b      	ldr	r3, [r3, #0]
 8004ca4:	60bb      	str	r3, [r7, #8]
 8004ca6:	687b      	ldr	r3, [r7, #4]
 8004ca8:	681b      	ldr	r3, [r3, #0]
 8004caa:	685b      	ldr	r3, [r3, #4]
 8004cac:	60bb      	str	r3, [r7, #8]
 8004cae:	68bb      	ldr	r3, [r7, #8]

    /* Check if DMA mode is enabled in UART */
    if (HAL_IS_BIT_SET(huart->Instance->CR3, USART_CR3_DMAR))
 8004cb0:	687b      	ldr	r3, [r7, #4]
 8004cb2:	681b      	ldr	r3, [r3, #0]
 8004cb4:	695b      	ldr	r3, [r3, #20]
 8004cb6:	f003 0340 	and.w	r3, r3, #64	@ 0x40
 8004cba:	2b40      	cmp	r3, #64	@ 0x40
 8004cbc:	f040 80ce 	bne.w	8004e5c <HAL_UART_IRQHandler+0x414>
    {
      /* DMA mode enabled */
      /* Check received length : If all expected data are received, do nothing,
         (DMA cplt callback will be called).
         Otherwise, if at least one data has already been received, IDLE event is to be notified to user */
      uint16_t nb_remaining_rx_data = (uint16_t) __HAL_DMA_GET_COUNTER(huart->hdmarx);
 8004cc0:	687b      	ldr	r3, [r7, #4]
 8004cc2:	6bdb      	ldr	r3, [r3, #60]	@ 0x3c
 8004cc4:	681b      	ldr	r3, [r3, #0]
 8004cc6:	685b      	ldr	r3, [r3, #4]
 8004cc8:	f8a7 30be 	strh.w	r3, [r7, #190]	@ 0xbe
      if ((nb_remaining_rx_data > 0U)
 8004ccc:	f8b7 30be 	ldrh.w	r3, [r7, #190]	@ 0xbe
 8004cd0:	2b00      	cmp	r3, #0
 8004cd2:	f000 80a9 	beq.w	8004e28 <HAL_UART_IRQHandler+0x3e0>
          && (nb_remaining_rx_data < huart->RxXferSize))
 8004cd6:	687b      	ldr	r3, [r7, #4]
 8004cd8:	8d9b      	ldrh	r3, [r3, #44]	@ 0x2c
 8004cda:	f8b7 20be 	ldrh.w	r2, [r7, #190]	@ 0xbe
 8004cde:	429a      	cmp	r2, r3
 8004ce0:	f080 80a2 	bcs.w	8004e28 <HAL_UART_IRQHandler+0x3e0>
      {
        /* Reception is not complete */
        huart->RxXferCount = nb_remaining_rx_data;
 8004ce4:	687b      	ldr	r3, [r7, #4]
 8004ce6:	f8b7 20be 	ldrh.w	r2, [r7, #190]	@ 0xbe
 8004cea:	85da      	strh	r2, [r3, #46]	@ 0x2e

        /* In Normal mode, end DMA xfer and HAL UART Rx process*/
        if (huart->hdmarx->Init.Mode != DMA_CIRCULAR)
 8004cec:	687b      	ldr	r3, [r7, #4]
 8004cee:	6bdb      	ldr	r3, [r3, #60]	@ 0x3c
 8004cf0:	69db      	ldr	r3, [r3, #28]
 8004cf2:	f5b3 7f80 	cmp.w	r3, #256	@ 0x100
 8004cf6:	f000 8088 	beq.w	8004e0a <HAL_UART_IRQHandler+0x3c2>
        {
          /* Disable PE and ERR (Frame error, noise error, overrun error) interrupts */
          ATOMIC_CLEAR_BIT(huart->Instance->CR1, USART_CR1_PEIE);
 8004cfa:	687b      	ldr	r3, [r7, #4]
 8004cfc:	681b      	ldr	r3, [r3, #0]
 8004cfe:	330c      	adds	r3, #12
 8004d00:	f8c7 3088 	str.w	r3, [r7, #136]	@ 0x88
   __ASM volatile ("ldrex %0, %1" : "=r" (result) : "Q" (*addr) );
 8004d04:	f8d7 3088 	ldr.w	r3, [r7, #136]	@ 0x88
 8004d08:	e853 3f00 	ldrex	r3, [r3]
 8004d0c:	f8c7 3084 	str.w	r3, [r7, #132]	@ 0x84
   return(result);
 8004d10:	f8d7 3084 	ldr.w	r3, [r7, #132]	@ 0x84
 8004d14:	f423 7380 	bic.w	r3, r3, #256	@ 0x100
 8004d18:	f8c7 30b8 	str.w	r3, [r7, #184]	@ 0xb8
 8004d1c:	687b      	ldr	r3, [r7, #4]
 8004d1e:	681b      	ldr	r3, [r3, #0]
 8004d20:	330c      	adds	r3, #12
 8004d22:	f8d7 20b8 	ldr.w	r2, [r7, #184]	@ 0xb8
 8004d26:	f8c7 2094 	str.w	r2, [r7, #148]	@ 0x94
 8004d2a:	f8c7 3090 	str.w	r3, [r7, #144]	@ 0x90
   __ASM volatile ("strex %0, %2, %1" : "=&r" (result), "=Q" (*addr) : "r" (value) );
 8004d2e:	f8d7 1090 	ldr.w	r1, [r7, #144]	@ 0x90
 8004d32:	f8d7 2094 	ldr.w	r2, [r7, #148]	@ 0x94
 8004d36:	e841 2300 	strex	r3, r2, [r1]
 8004d3a:	f8c7 308c 	str.w	r3, [r7, #140]	@ 0x8c
   return(result);
 8004d3e:	f8d7 308c 	ldr.w	r3, [r7, #140]	@ 0x8c
 8004d42:	2b00      	cmp	r3, #0
 8004d44:	d1d9      	bne.n	8004cfa <HAL_UART_IRQHandler+0x2b2>
          ATOMIC_CLEAR_BIT(huart->Instance->CR3, USART_CR3_EIE);
 8004d46:	687b      	ldr	r3, [r7, #4]
 8004d48:	681b      	ldr	r3, [r3, #0]
 8004d4a:	3314      	adds	r3, #20
 8004d4c:	677b      	str	r3, [r7, #116]	@ 0x74
   __ASM volatile ("ldrex %0, %1" : "=r" (result) : "Q" (*addr) );
 8004d4e:	6f7b      	ldr	r3, [r7, #116]	@ 0x74
 8004d50:	e853 3f00 	ldrex	r3, [r3]
 8004d54:	673b      	str	r3, [r7, #112]	@ 0x70
   return(result);
 8004d56:	6f3b      	ldr	r3, [r7, #112]	@ 0x70
 8004d58:	f023 0301 	bic.w	r3, r3, #1
 8004d5c:	f8c7 30b4 	str.w	r3, [r7, #180]	@ 0xb4
 8004d60:	687b      	ldr	r3, [r7, #4]
 8004d62:	681b      	ldr	r3, [r3, #0]
 8004d64:	3314      	adds	r3, #20
 8004d66:	f8d7 20b4 	ldr.w	r2, [r7, #180]	@ 0xb4
 8004d6a:	f8c7 2080 	str.w	r2, [r7, #128]	@ 0x80
 8004d6e:	67fb      	str	r3, [r7, #124]	@ 0x7c
   __ASM volatile ("strex %0, %2, %1" : "=&r" (result), "=Q" (*addr) : "r" (value) );
 8004d70:	6ff9      	ldr	r1, [r7, #124]	@ 0x7c
 8004d72:	f8d7 2080 	ldr.w	r2, [r7, #128]	@ 0x80
 8004d76:	e841 2300 	strex	r3, r2, [r1]
 8004d7a:	67bb      	str	r3, [r7, #120]	@ 0x78
   return(result);
 8004d7c:	6fbb      	ldr	r3, [r7, #120]	@ 0x78
 8004d7e:	2b00      	cmp	r3, #0
 8004d80:	d1e1      	bne.n	8004d46 <HAL_UART_IRQHandler+0x2fe>

          /* Disable the DMA transfer for the receiver request by resetting the DMAR bit
             in the UART CR3 register */
          ATOMIC_CLEAR_BIT(huart->Instance->CR3, USART_CR3_DMAR);
 8004d82:	687b      	ldr	r3, [r7, #4]
 8004d84:	681b      	ldr	r3, [r3, #0]
 8004d86:	3314      	adds	r3, #20
 8004d88:	663b      	str	r3, [r7, #96]	@ 0x60
   __ASM volatile ("ldrex %0, %1" : "=r" (result) : "Q" (*addr) );
 8004d8a:	6e3b      	ldr	r3, [r7, #96]	@ 0x60
 8004d8c:	e853 3f00 	ldrex	r3, [r3]
 8004d90:	65fb      	str	r3, [r7, #92]	@ 0x5c
   return(result);
 8004d92:	6dfb      	ldr	r3, [r7, #92]	@ 0x5c
 8004d94:	f023 0340 	bic.w	r3, r3, #64	@ 0x40
 8004d98:	f8c7 30b0 	str.w	r3, [r7, #176]	@ 0xb0
 8004d9c:	687b      	ldr	r3, [r7, #4]
 8004d9e:	681b      	ldr	r3, [r3, #0]
 8004da0:	3314      	adds	r3, #20
 8004da2:	f8d7 20b0 	ldr.w	r2, [r7, #176]	@ 0xb0
 8004da6:	66fa      	str	r2, [r7, #108]	@ 0x6c
 8004da8:	66bb      	str	r3, [r7, #104]	@ 0x68
   __ASM volatile ("strex %0, %2, %1" : "=&r" (result), "=Q" (*addr) : "r" (value) );
 8004daa:	6eb9      	ldr	r1, [r7, #104]	@ 0x68
 8004dac:	6efa      	ldr	r2, [r7, #108]	@ 0x6c
 8004dae:	e841 2300 	strex	r3, r2, [r1]
 8004db2:	667b      	str	r3, [r7, #100]	@ 0x64
   return(result);
 8004db4:	6e7b      	ldr	r3, [r7, #100]	@ 0x64
 8004db6:	2b00      	cmp	r3, #0
 8004db8:	d1e3      	bne.n	8004d82 <HAL_UART_IRQHandler+0x33a>

          /* At end of Rx process, restore huart->RxState to Ready */
          huart->RxState = HAL_UART_STATE_READY;
 8004dba:	687b      	ldr	r3, [r7, #4]
 8004dbc:	2220      	movs	r2, #32
 8004dbe:	f883 2042 	strb.w	r2, [r3, #66]	@ 0x42
          huart->ReceptionType = HAL_UART_RECEPTION_STANDARD;
 8004dc2:	687b      	ldr	r3, [r7, #4]
 8004dc4:	2200      	movs	r2, #0
 8004dc6:	631a      	str	r2, [r3, #48]	@ 0x30

          ATOMIC_CLEAR_BIT(huart->Instance->CR1, USART_CR1_IDLEIE);
 8004dc8:	687b      	ldr	r3, [r7, #4]
 8004dca:	681b      	ldr	r3, [r3, #0]
 8004dcc:	330c      	adds	r3, #12
 8004dce:	64fb      	str	r3, [r7, #76]	@ 0x4c
   __ASM volatile ("ldrex %0, %1" : "=r" (result) : "Q" (*addr) );
 8004dd0:	6cfb      	ldr	r3, [r7, #76]	@ 0x4c
 8004dd2:	e853 3f00 	ldrex	r3, [r3]
 8004dd6:	64bb      	str	r3, [r7, #72]	@ 0x48
   return(result);
 8004dd8:	6cbb      	ldr	r3, [r7, #72]	@ 0x48
 8004dda:	f023 0310 	bic.w	r3, r3, #16
 8004dde:	f8c7 30ac 	str.w	r3, [r7, #172]	@ 0xac
 8004de2:	687b      	ldr	r3, [r7, #4]
 8004de4:	681b      	ldr	r3, [r3, #0]
 8004de6:	330c      	adds	r3, #12
 8004de8:	f8d7 20ac 	ldr.w	r2, [r7, #172]	@ 0xac
 8004dec:	65ba      	str	r2, [r7, #88]	@ 0x58
 8004dee:	657b      	str	r3, [r7, #84]	@ 0x54
   __ASM volatile ("strex %0, %2, %1" : "=&r" (result), "=Q" (*addr) : "r" (value) );
 8004df0:	6d79      	ldr	r1, [r7, #84]	@ 0x54
 8004df2:	6dba      	ldr	r2, [r7, #88]	@ 0x58
 8004df4:	e841 2300 	strex	r3, r2, [r1]
 8004df8:	653b      	str	r3, [r7, #80]	@ 0x50
   return(result);
 8004dfa:	6d3b      	ldr	r3, [r7, #80]	@ 0x50
 8004dfc:	2b00      	cmp	r3, #0
 8004dfe:	d1e3      	bne.n	8004dc8 <HAL_UART_IRQHandler+0x380>

          /* Last bytes received, so no need as the abort is immediate */
          (void)HAL_DMA_Abort(huart->hdmarx);
 8004e00:	687b      	ldr	r3, [r7, #4]
 8004e02:	6bdb      	ldr	r3, [r3, #60]	@ 0x3c
 8004e04:	4618      	mov	r0, r3
 8004e06:	f7fd fe58 	bl	8002aba <HAL_DMA_Abort>
        }

        /* Initialize type of RxEvent that correspond to RxEvent callback execution;
        In this case, Rx Event type is Idle Event */
        huart->RxEventType = HAL_UART_RXEVENT_IDLE;
 8004e0a:	687b      	ldr	r3, [r7, #4]
 8004e0c:	2202      	movs	r2, #2
 8004e0e:	635a      	str	r2, [r3, #52]	@ 0x34
#if (USE_HAL_UART_REGISTER_CALLBACKS == 1)
        /*Call registered Rx Event callback*/
        huart->RxEventCallback(huart, (huart->RxXferSize - huart->RxXferCount));
#else
        /*Call legacy weak Rx Event callback*/
        HAL_UARTEx_RxEventCallback(huart, (huart->RxXferSize - huart->RxXferCount));
 8004e10:	687b      	ldr	r3, [r7, #4]
 8004e12:	8d9a      	ldrh	r2, [r3, #44]	@ 0x2c
 8004e14:	687b      	ldr	r3, [r7, #4]
 8004e16:	8ddb      	ldrh	r3, [r3, #46]	@ 0x2e
 8004e18:	b29b      	uxth	r3, r3
 8004e1a:	1ad3      	subs	r3, r2, r3
 8004e1c:	b29b      	uxth	r3, r3
 8004e1e:	4619      	mov	r1, r3
 8004e20:	6878      	ldr	r0, [r7, #4]
 8004e22:	f000 f8c5 	bl	8004fb0 <HAL_UARTEx_RxEventCallback>
            HAL_UARTEx_RxEventCallback(huart, huart->RxXferSize);
#endif /* (USE_HAL_UART_REGISTER_CALLBACKS) */
          }
        }
      }
      return;
 8004e26:	e0b3      	b.n	8004f90 <HAL_UART_IRQHandler+0x548>
        if (nb_remaining_rx_data == huart->RxXferSize)
 8004e28:	687b      	ldr	r3, [r7, #4]
 8004e2a:	8d9b      	ldrh	r3, [r3, #44]	@ 0x2c
 8004e2c:	f8b7 20be 	ldrh.w	r2, [r7, #190]	@ 0xbe
 8004e30:	429a      	cmp	r2, r3
 8004e32:	f040 80ad 	bne.w	8004f90 <HAL_UART_IRQHandler+0x548>
          if (huart->hdmarx->Init.Mode == DMA_CIRCULAR)
 8004e36:	687b      	ldr	r3, [r7, #4]
 8004e38:	6bdb      	ldr	r3, [r3, #60]	@ 0x3c
 8004e3a:	69db      	ldr	r3, [r3, #28]
 8004e3c:	f5b3 7f80 	cmp.w	r3, #256	@ 0x100
 8004e40:	f040 80a6 	bne.w	8004f90 <HAL_UART_IRQHandler+0x548>
            huart->RxEventType = HAL_UART_RXEVENT_IDLE;
 8004e44:	687b      	ldr	r3, [r7, #4]
 8004e46:	2202      	movs	r2, #2
 8004e48:	635a      	str	r2, [r3, #52]	@ 0x34
            HAL_UARTEx_RxEventCallback(huart, huart->RxXferSize);
 8004e4a:	687b      	ldr	r3, [r7, #4]
 8004e4c:	8d9b      	ldrh	r3, [r3, #44]	@ 0x2c
 8004e4e:	4619      	mov	r1, r3
 8004e50:	6878      	ldr	r0, [r7, #4]
 8004e52:	f000 f8ad 	bl	8004fb0 <HAL_UARTEx_RxEventCallback>
      return;
 8004e56:	e09b      	b.n	8004f90 <HAL_UART_IRQHandler+0x548>
 8004e58:	080051cd 	.word	0x080051cd
    else
    {
      /* DMA mode not enabled */
      /* Check received length : If all expected data are received, do nothing.
         Otherwise, if at least one data has already been received, IDLE event is to be notified to user */
      uint16_t nb_rx_data = huart->RxXferSize - huart->RxXferCount;
 8004e5c:	687b      	ldr	r3, [r7, #4]
 8004e5e:	8d9a      	ldrh	r2, [r3, #44]	@ 0x2c
 8004e60:	687b      	ldr	r3, [r7, #4]
 8004e62:	8ddb      	ldrh	r3, [r3, #46]	@ 0x2e
 8004e64:	b29b      	uxth	r3, r3
 8004e66:	1ad3      	subs	r3, r2, r3
 8004e68:	f8a7 30ce 	strh.w	r3, [r7, #206]	@ 0xce
      if ((huart->RxXferCount > 0U)
 8004e6c:	687b      	ldr	r3, [r7, #4]
 8004e6e:	8ddb      	ldrh	r3, [r3, #46]	@ 0x2e
 8004e70:	b29b      	uxth	r3, r3
 8004e72:	2b00      	cmp	r3, #0
 8004e74:	f000 808e 	beq.w	8004f94 <HAL_UART_IRQHandler+0x54c>
          && (nb_rx_data > 0U))
 8004e78:	f8b7 30ce 	ldrh.w	r3, [r7, #206]	@ 0xce
 8004e7c:	2b00      	cmp	r3, #0
 8004e7e:	f000 8089 	beq.w	8004f94 <HAL_UART_IRQHandler+0x54c>
      {
        /* Disable the UART Parity Error Interrupt and RXNE interrupts */
        ATOMIC_CLEAR_BIT(huart->Instance->CR1, (USART_CR1_RXNEIE | USART_CR1_PEIE));
 8004e82:	687b      	ldr	r3, [r7, #4]
 8004e84:	681b      	ldr	r3, [r3, #0]
 8004e86:	330c      	adds	r3, #12
 8004e88:	63bb      	str	r3, [r7, #56]	@ 0x38
   __ASM volatile ("ldrex %0, %1" : "=r" (result) : "Q" (*addr) );
 8004e8a:	6bbb      	ldr	r3, [r7, #56]	@ 0x38
 8004e8c:	e853 3f00 	ldrex	r3, [r3]
 8004e90:	637b      	str	r3, [r7, #52]	@ 0x34
   return(result);
 8004e92:	6b7b      	ldr	r3, [r7, #52]	@ 0x34
 8004e94:	f423 7390 	bic.w	r3, r3, #288	@ 0x120
 8004e98:	f8c7 30c8 	str.w	r3, [r7, #200]	@ 0xc8
 8004e9c:	687b      	ldr	r3, [r7, #4]
 8004e9e:	681b      	ldr	r3, [r3, #0]
 8004ea0:	330c      	adds	r3, #12
 8004ea2:	f8d7 20c8 	ldr.w	r2, [r7, #200]	@ 0xc8
 8004ea6:	647a      	str	r2, [r7, #68]	@ 0x44
 8004ea8:	643b      	str	r3, [r7, #64]	@ 0x40
   __ASM volatile ("strex %0, %2, %1" : "=&r" (result), "=Q" (*addr) : "r" (value) );
 8004eaa:	6c39      	ldr	r1, [r7, #64]	@ 0x40
 8004eac:	6c7a      	ldr	r2, [r7, #68]	@ 0x44
 8004eae:	e841 2300 	strex	r3, r2, [r1]
 8004eb2:	63fb      	str	r3, [r7, #60]	@ 0x3c
   return(result);
 8004eb4:	6bfb      	ldr	r3, [r7, #60]	@ 0x3c
 8004eb6:	2b00      	cmp	r3, #0
 8004eb8:	d1e3      	bne.n	8004e82 <HAL_UART_IRQHandler+0x43a>

        /* Disable the UART Error Interrupt: (Frame error, noise error, overrun error) */
        ATOMIC_CLEAR_BIT(huart->Instance->CR3, USART_CR3_EIE);
 8004eba:	687b      	ldr	r3, [r7, #4]
 8004ebc:	681b      	ldr	r3, [r3, #0]
 8004ebe:	3314      	adds	r3, #20
 8004ec0:	627b      	str	r3, [r7, #36]	@ 0x24
   __ASM volatile ("ldrex %0, %1" : "=r" (result) : "Q" (*addr) );
 8004ec2:	6a7b      	ldr	r3, [r7, #36]	@ 0x24
 8004ec4:	e853 3f00 	ldrex	r3, [r3]
 8004ec8:	623b      	str	r3, [r7, #32]
   return(result);
 8004eca:	6a3b      	ldr	r3, [r7, #32]
 8004ecc:	f023 0301 	bic.w	r3, r3, #1
 8004ed0:	f8c7 30c4 	str.w	r3, [r7, #196]	@ 0xc4
 8004ed4:	687b      	ldr	r3, [r7, #4]
 8004ed6:	681b      	ldr	r3, [r3, #0]
 8004ed8:	3314      	adds	r3, #20
 8004eda:	f8d7 20c4 	ldr.w	r2, [r7, #196]	@ 0xc4
 8004ede:	633a      	str	r2, [r7, #48]	@ 0x30
 8004ee0:	62fb      	str	r3, [r7, #44]	@ 0x2c
   __ASM volatile ("strex %0, %2, %1" : "=&r" (result), "=Q" (*addr) : "r" (value) );
 8004ee2:	6af9      	ldr	r1, [r7, #44]	@ 0x2c
 8004ee4:	6b3a      	ldr	r2, [r7, #48]	@ 0x30
 8004ee6:	e841 2300 	strex	r3, r2, [r1]
 8004eea:	62bb      	str	r3, [r7, #40]	@ 0x28
   return(result);
 8004eec:	6abb      	ldr	r3, [r7, #40]	@ 0x28
 8004eee:	2b00      	cmp	r3, #0
 8004ef0:	d1e3      	bne.n	8004eba <HAL_UART_IRQHandler+0x472>

        /* Rx process is completed, restore huart->RxState to Ready */
        huart->RxState = HAL_UART_STATE_READY;
 8004ef2:	687b      	ldr	r3, [r7, #4]
 8004ef4:	2220      	movs	r2, #32
 8004ef6:	f883 2042 	strb.w	r2, [r3, #66]	@ 0x42
        huart->ReceptionType = HAL_UART_RECEPTION_STANDARD;
 8004efa:	687b      	ldr	r3, [r7, #4]
 8004efc:	2200      	movs	r2, #0
 8004efe:	631a      	str	r2, [r3, #48]	@ 0x30

        ATOMIC_CLEAR_BIT(huart->Instance->CR1, USART_CR1_IDLEIE);
 8004f00:	687b      	ldr	r3, [r7, #4]
 8004f02:	681b      	ldr	r3, [r3, #0]
 8004f04:	330c      	adds	r3, #12
 8004f06:	613b      	str	r3, [r7, #16]
   __ASM volatile ("ldrex %0, %1" : "=r" (result) : "Q" (*addr) );
 8004f08:	693b      	ldr	r3, [r7, #16]
 8004f0a:	e853 3f00 	ldrex	r3, [r3]
 8004f0e:	60fb      	str	r3, [r7, #12]
   return(result);
 8004f10:	68fb      	ldr	r3, [r7, #12]
 8004f12:	f023 0310 	bic.w	r3, r3, #16
 8004f16:	f8c7 30c0 	str.w	r3, [r7, #192]	@ 0xc0
 8004f1a:	687b      	ldr	r3, [r7, #4]
 8004f1c:	681b      	ldr	r3, [r3, #0]
 8004f1e:	330c      	adds	r3, #12
 8004f20:	f8d7 20c0 	ldr.w	r2, [r7, #192]	@ 0xc0
 8004f24:	61fa      	str	r2, [r7, #28]
 8004f26:	61bb      	str	r3, [r7, #24]
   __ASM volatile ("strex %0, %2, %1" : "=&r" (result), "=Q" (*addr) : "r" (value) );
 8004f28:	69b9      	ldr	r1, [r7, #24]
 8004f2a:	69fa      	ldr	r2, [r7, #28]
 8004f2c:	e841 2300 	strex	r3, r2, [r1]
 8004f30:	617b      	str	r3, [r7, #20]
   return(result);
 8004f32:	697b      	ldr	r3, [r7, #20]
 8004f34:	2b00      	cmp	r3, #0
 8004f36:	d1e3      	bne.n	8004f00 <HAL_UART_IRQHandler+0x4b8>

        /* Initialize type of RxEvent that correspond to RxEvent callback execution;
           In this case, Rx Event type is Idle Event */
        huart->RxEventType = HAL_UART_RXEVENT_IDLE;
 8004f38:	687b      	ldr	r3, [r7, #4]
 8004f3a:	2202      	movs	r2, #2
 8004f3c:	635a      	str	r2, [r3, #52]	@ 0x34
#if (USE_HAL_UART_REGISTER_CALLBACKS == 1)
        /*Call registered Rx complete callback*/
        huart->RxEventCallback(huart, nb_rx_data);
#else
        /*Call legacy weak Rx Event callback*/
        HAL_UARTEx_RxEventCallback(huart, nb_rx_data);
 8004f3e:	f8b7 30ce 	ldrh.w	r3, [r7, #206]	@ 0xce
 8004f42:	4619      	mov	r1, r3
 8004f44:	6878      	ldr	r0, [r7, #4]
 8004f46:	f000 f833 	bl	8004fb0 <HAL_UARTEx_RxEventCallback>
#endif /* USE_HAL_UART_REGISTER_CALLBACKS */
      }
      return;
 8004f4a:	e023      	b.n	8004f94 <HAL_UART_IRQHandler+0x54c>
    }
  }

  /* UART in mode Transmitter ------------------------------------------------*/
  if (((isrflags & USART_SR_TXE) != RESET) && ((cr1its & USART_CR1_TXEIE) != RESET))
 8004f4c:	f8d7 30e4 	ldr.w	r3, [r7, #228]	@ 0xe4
 8004f50:	f003 0380 	and.w	r3, r3, #128	@ 0x80
 8004f54:	2b00      	cmp	r3, #0
 8004f56:	d009      	beq.n	8004f6c <HAL_UART_IRQHandler+0x524>
 8004f58:	f8d7 30e0 	ldr.w	r3, [r7, #224]	@ 0xe0
 8004f5c:	f003 0380 	and.w	r3, r3, #128	@ 0x80
 8004f60:	2b00      	cmp	r3, #0
 8004f62:	d003      	beq.n	8004f6c <HAL_UART_IRQHandler+0x524>
  {
    UART_Transmit_IT(huart);
 8004f64:	6878      	ldr	r0, [r7, #4]
 8004f66:	f000 f942 	bl	80051ee <UART_Transmit_IT>
    return;
 8004f6a:	e014      	b.n	8004f96 <HAL_UART_IRQHandler+0x54e>
  }

  /* UART in mode Transmitter end --------------------------------------------*/
  if (((isrflags & USART_SR_TC) != RESET) && ((cr1its & USART_CR1_TCIE) != RESET))
 8004f6c:	f8d7 30e4 	ldr.w	r3, [r7, #228]	@ 0xe4
 8004f70:	f003 0340 	and.w	r3, r3, #64	@ 0x40
 8004f74:	2b00      	cmp	r3, #0
 8004f76:	d00e      	beq.n	8004f96 <HAL_UART_IRQHandler+0x54e>
 8004f78:	f8d7 30e0 	ldr.w	r3, [r7, #224]	@ 0xe0
 8004f7c:	f003 0340 	and.w	r3, r3, #64	@ 0x40
 8004f80:	2b00      	cmp	r3, #0
 8004f82:	d008      	beq.n	8004f96 <HAL_UART_IRQHandler+0x54e>
  {
    UART_EndTransmit_IT(huart);
 8004f84:	6878      	ldr	r0, [r7, #4]
 8004f86:	f000 f982 	bl	800528e <UART_EndTransmit_IT>
    return;
 8004f8a:	e004      	b.n	8004f96 <HAL_UART_IRQHandler+0x54e>
    return;
 8004f8c:	bf00      	nop
 8004f8e:	e002      	b.n	8004f96 <HAL_UART_IRQHandler+0x54e>
      return;
 8004f90:	bf00      	nop
 8004f92:	e000      	b.n	8004f96 <HAL_UART_IRQHandler+0x54e>
      return;
 8004f94:	bf00      	nop
  }
}
 8004f96:	37e8      	adds	r7, #232	@ 0xe8
 8004f98:	46bd      	mov	sp, r7
 8004f9a:	bd80      	pop	{r7, pc}

08004f9c <HAL_UART_TxCpltCallback>:
  * @param  huart  Pointer to a UART_HandleTypeDef structure that contains
  *                the configuration information for the specified UART module.
  * @retval None
  */
__weak void HAL_UART_TxCpltCallback(UART_HandleTypeDef *huart)
{
 8004f9c:	b480      	push	{r7}
 8004f9e:	b083      	sub	sp, #12
 8004fa0:	af00      	add	r7, sp, #0
 8004fa2:	6078      	str	r0, [r7, #4]
  /* Prevent unused argument(s) compilation warning */
  UNUSED(huart);
  /* NOTE: This function should not be modified, when the callback is needed,
           the HAL_UART_TxCpltCallback could be implemented in the user file
   */
}
 8004fa4:	bf00      	nop
 8004fa6:	370c      	adds	r7, #12
 8004fa8:	46bd      	mov	sp, r7
 8004faa:	f85d 7b04 	ldr.w	r7, [sp], #4
 8004fae:	4770      	bx	lr

08004fb0 <HAL_UARTEx_RxEventCallback>:
  * @param  Size  Number of data available in application reception buffer (indicates a position in
  *               reception buffer until which, data are available)
  * @retval None
  */
__weak void HAL_UARTEx_RxEventCallback(UART_HandleTypeDef *huart, uint16_t Size)
{
 8004fb0:	b480      	push	{r7}
 8004fb2:	b083      	sub	sp, #12
 8004fb4:	af00      	add	r7, sp, #0
 8004fb6:	6078      	str	r0, [r7, #4]
 8004fb8:	460b      	mov	r3, r1
 8004fba:	807b      	strh	r3, [r7, #2]
  UNUSED(Size);

  /* NOTE : This function should not be modified, when the callback is needed,
            the HAL_UARTEx_RxEventCallback can be implemented in the user file.
   */
}
 8004fbc:	bf00      	nop
 8004fbe:	370c      	adds	r7, #12
 8004fc0:	46bd      	mov	sp, r7
 8004fc2:	f85d 7b04 	ldr.w	r7, [sp], #4
 8004fc6:	4770      	bx	lr

08004fc8 <HAL_UART_GetError>:
  * @param  huart Pointer to a UART_HandleTypeDef structure that contains
  *               the configuration information for the specified UART.
  * @retval UART Error Code
  */
uint32_t HAL_UART_GetError(const UART_HandleTypeDef *huart)
{
 8004fc8:	b480      	push	{r7}
 8004fca:	b083      	sub	sp, #12
 8004fcc:	af00      	add	r7, sp, #0
 8004fce:	6078      	str	r0, [r7, #4]
  return huart->ErrorCode;
 8004fd0:	687b      	ldr	r3, [r7, #4]
 8004fd2:	6c5b      	ldr	r3, [r3, #68]	@ 0x44
}
 8004fd4:	4618      	mov	r0, r3
 8004fd6:	370c      	adds	r7, #12
 8004fd8:	46bd      	mov	sp, r7
 8004fda:	f85d 7b04 	ldr.w	r7, [sp], #4
 8004fde:	4770      	bx	lr

08004fe0 <UART_WaitOnFlagUntilTimeout>:
  * @param  Timeout Timeout duration
  * @retval HAL status
  */
static HAL_StatusTypeDef UART_WaitOnFlagUntilTimeout(UART_HandleTypeDef *huart, uint32_t Flag, FlagStatus Status,
                                                     uint32_t Tickstart, uint32_t Timeout)
{
 8004fe0:	b580      	push	{r7, lr}
 8004fe2:	b086      	sub	sp, #24
 8004fe4:	af00      	add	r7, sp, #0
 8004fe6:	60f8      	str	r0, [r7, #12]
 8004fe8:	60b9      	str	r1, [r7, #8]
 8004fea:	603b      	str	r3, [r7, #0]
 8004fec:	4613      	mov	r3, r2
 8004fee:	71fb      	strb	r3, [r7, #7]
  /* Wait until flag is set */
  while ((__HAL_UART_GET_FLAG(huart, Flag) ? SET : RESET) == Status)
 8004ff0:	e03b      	b.n	800506a <UART_WaitOnFlagUntilTimeout+0x8a>
  {
    /* Check for the Timeout */
    if (Timeout != HAL_MAX_DELAY)
 8004ff2:	6a3b      	ldr	r3, [r7, #32]
 8004ff4:	f1b3 3fff 	cmp.w	r3, #4294967295
 8004ff8:	d037      	beq.n	800506a <UART_WaitOnFlagUntilTimeout+0x8a>
    {
      if (((HAL_GetTick() - Tickstart) > Timeout) || (Timeout == 0U))
 8004ffa:	f7fd fc1d 	bl	8002838 <HAL_GetTick>
 8004ffe:	4602      	mov	r2, r0
 8005000:	683b      	ldr	r3, [r7, #0]
 8005002:	1ad3      	subs	r3, r2, r3
 8005004:	6a3a      	ldr	r2, [r7, #32]
 8005006:	429a      	cmp	r2, r3
 8005008:	d302      	bcc.n	8005010 <UART_WaitOnFlagUntilTimeout+0x30>
 800500a:	6a3b      	ldr	r3, [r7, #32]
 800500c:	2b00      	cmp	r3, #0
 800500e:	d101      	bne.n	8005014 <UART_WaitOnFlagUntilTimeout+0x34>
      {

        return HAL_TIMEOUT;
 8005010:	2303      	movs	r3, #3
 8005012:	e03a      	b.n	800508a <UART_WaitOnFlagUntilTimeout+0xaa>
      }

      if ((READ_BIT(huart->Instance->CR1, USART_CR1_RE) != 0U) && (Flag != UART_FLAG_TXE) && (Flag != UART_FLAG_TC))
 8005014:	68fb      	ldr	r3, [r7, #12]
 8005016:	681b      	ldr	r3, [r3, #0]
 8005018:	68db      	ldr	r3, [r3, #12]
 800501a:	f003 0304 	and.w	r3, r3, #4
 800501e:	2b00      	cmp	r3, #0
 8005020:	d023      	beq.n	800506a <UART_WaitOnFlagUntilTimeout+0x8a>
 8005022:	68bb      	ldr	r3, [r7, #8]
 8005024:	2b80      	cmp	r3, #128	@ 0x80
 8005026:	d020      	beq.n	800506a <UART_WaitOnFlagUntilTimeout+0x8a>
 8005028:	68bb      	ldr	r3, [r7, #8]
 800502a:	2b40      	cmp	r3, #64	@ 0x40
 800502c:	d01d      	beq.n	800506a <UART_WaitOnFlagUntilTimeout+0x8a>
      {
        if (__HAL_UART_GET_FLAG(huart, UART_FLAG_ORE) == SET)
 800502e:	68fb      	ldr	r3, [r7, #12]
 8005030:	681b      	ldr	r3, [r3, #0]
 8005032:	681b      	ldr	r3, [r3, #0]
 8005034:	f003 0308 	and.w	r3, r3, #8
 8005038:	2b08      	cmp	r3, #8
 800503a:	d116      	bne.n	800506a <UART_WaitOnFlagUntilTimeout+0x8a>
        {
          /* Clear Overrun Error flag*/
          __HAL_UART_CLEAR_OREFLAG(huart);
 800503c:	2300      	movs	r3, #0
 800503e:	617b      	str	r3, [r7, #20]
 8005040:	68fb      	ldr	r3, [r7, #12]
 8005042:	681b      	ldr	r3, [r3, #0]
 8005044:	681b      	ldr	r3, [r3, #0]
 8005046:	617b      	str	r3, [r7, #20]
 8005048:	68fb      	ldr	r3, [r7, #12]
 800504a:	681b      	ldr	r3, [r3, #0]
 800504c:	685b      	ldr	r3, [r3, #4]
 800504e:	617b      	str	r3, [r7, #20]
 8005050:	697b      	ldr	r3, [r7, #20]

          /* Blocking error : transfer is aborted
          Set the UART state ready to be able to start again the process,
          Disable Rx Interrupts if ongoing */
          UART_EndRxTransfer(huart);
 8005052:	68f8      	ldr	r0, [r7, #12]
 8005054:	f000 f857 	bl	8005106 <UART_EndRxTransfer>

          huart->ErrorCode = HAL_UART_ERROR_ORE;
 8005058:	68fb      	ldr	r3, [r7, #12]
 800505a:	2208      	movs	r2, #8
 800505c:	645a      	str	r2, [r3, #68]	@ 0x44

          /* Process Unlocked */
          __HAL_UNLOCK(huart);
 800505e:	68fb      	ldr	r3, [r7, #12]
 8005060:	2200      	movs	r2, #0
 8005062:	f883 2040 	strb.w	r2, [r3, #64]	@ 0x40

          return HAL_ERROR;
 8005066:	2301      	movs	r3, #1
 8005068:	e00f      	b.n	800508a <UART_WaitOnFlagUntilTimeout+0xaa>
  while ((__HAL_UART_GET_FLAG(huart, Flag) ? SET : RESET) == Status)
 800506a:	68fb      	ldr	r3, [r7, #12]
 800506c:	681b      	ldr	r3, [r3, #0]
 800506e:	681a      	ldr	r2, [r3, #0]
 8005070:	68bb      	ldr	r3, [r7, #8]
 8005072:	4013      	ands	r3, r2
 8005074:	68ba      	ldr	r2, [r7, #8]
 8005076:	429a      	cmp	r2, r3
 8005078:	bf0c      	ite	eq
 800507a:	2301      	moveq	r3, #1
 800507c:	2300      	movne	r3, #0
 800507e:	b2db      	uxtb	r3, r3
 8005080:	461a      	mov	r2, r3
 8005082:	79fb      	ldrb	r3, [r7, #7]
 8005084:	429a      	cmp	r2, r3
 8005086:	d0b4      	beq.n	8004ff2 <UART_WaitOnFlagUntilTimeout+0x12>
        }
      }
    }
  }
  return HAL_OK;
 8005088:	2300      	movs	r3, #0
}
 800508a:	4618      	mov	r0, r3
 800508c:	3718      	adds	r7, #24
 800508e:	46bd      	mov	sp, r7
 8005090:	bd80      	pop	{r7, pc}

08005092 <UART_Start_Receive_IT>:
  * @param  pData Pointer to data buffer (u8 or u16 data elements).
  * @param  Size  Amount of data elements (u8 or u16) to be received.
  * @retval HAL status
  */
HAL_StatusTypeDef UART_Start_Receive_IT(UART_HandleTypeDef *huart, uint8_t *pData, uint16_t Size)
{
 8005092:	b480      	push	{r7}
 8005094:	b085      	sub	sp, #20
 8005096:	af00      	add	r7, sp, #0
 8005098:	60f8      	str	r0, [r7, #12]
 800509a:	60b9      	str	r1, [r7, #8]
 800509c:	4613      	mov	r3, r2
 800509e:	80fb      	strh	r3, [r7, #6]
  huart->pRxBuffPtr = pData;
 80050a0:	68fb      	ldr	r3, [r7, #12]
 80050a2:	68ba      	ldr	r2, [r7, #8]
 80050a4:	629a      	str	r2, [r3, #40]	@ 0x28
  huart->RxXferSize = Size;
 80050a6:	68fb      	ldr	r3, [r7, #12]
 80050a8:	88fa      	ldrh	r2, [r7, #6]
 80050aa:	859a      	strh	r2, [r3, #44]	@ 0x2c
  huart->RxXferCount = Size;
 80050ac:	68fb      	ldr	r3, [r7, #12]
 80050ae:	88fa      	ldrh	r2, [r7, #6]
 80050b0:	85da      	strh	r2, [r3, #46]	@ 0x2e

  huart->ErrorCode = HAL_UART_ERROR_NONE;
 80050b2:	68fb      	ldr	r3, [r7, #12]
 80050b4:	2200      	movs	r2, #0
 80050b6:	645a      	str	r2, [r3, #68]	@ 0x44
  huart->RxState = HAL_UART_STATE_BUSY_RX;
 80050b8:	68fb      	ldr	r3, [r7, #12]
 80050ba:	2222      	movs	r2, #34	@ 0x22
 80050bc:	f883 2042 	strb.w	r2, [r3, #66]	@ 0x42

  if (huart->Init.Parity != UART_PARITY_NONE)
 80050c0:	68fb      	ldr	r3, [r7, #12]
 80050c2:	691b      	ldr	r3, [r3, #16]
 80050c4:	2b00      	cmp	r3, #0
 80050c6:	d007      	beq.n	80050d8 <UART_Start_Receive_IT+0x46>
  {
    /* Enable the UART Parity Error Interrupt */
    __HAL_UART_ENABLE_IT(huart, UART_IT_PE);
 80050c8:	68fb      	ldr	r3, [r7, #12]
 80050ca:	681b      	ldr	r3, [r3, #0]
 80050cc:	68da      	ldr	r2, [r3, #12]
 80050ce:	68fb      	ldr	r3, [r7, #12]
 80050d0:	681b      	ldr	r3, [r3, #0]
 80050d2:	f442 7280 	orr.w	r2, r2, #256	@ 0x100
 80050d6:	60da      	str	r2, [r3, #12]
  }

  /* Enable the UART Error Interrupt: (Frame error, noise error, overrun error) */
  __HAL_UART_ENABLE_IT(huart, UART_IT_ERR);
 80050d8:	68fb      	ldr	r3, [r7, #12]
 80050da:	681b      	ldr	r3, [r3, #0]
 80050dc:	695a      	ldr	r2, [r3, #20]
 80050de:	68fb      	ldr	r3, [r7, #12]
 80050e0:	681b      	ldr	r3, [r3, #0]
 80050e2:	f042 0201 	orr.w	r2, r2, #1
 80050e6:	615a      	str	r2, [r3, #20]

  /* Enable the UART Data Register not empty Interrupt */
  __HAL_UART_ENABLE_IT(huart, UART_IT_RXNE);
 80050e8:	68fb      	ldr	r3, [r7, #12]
 80050ea:	681b      	ldr	r3, [r3, #0]
 80050ec:	68da      	ldr	r2, [r3, #12]
 80050ee:	68fb      	ldr	r3, [r7, #12]
 80050f0:	681b      	ldr	r3, [r3, #0]
 80050f2:	f042 0220 	orr.w	r2, r2, #32
 80050f6:	60da      	str	r2, [r3, #12]

  return HAL_OK;
 80050f8:	2300      	movs	r3, #0
}
 80050fa:	4618      	mov	r0, r3
 80050fc:	3714      	adds	r7, #20
 80050fe:	46bd      	mov	sp, r7
 8005100:	f85d 7b04 	ldr.w	r7, [sp], #4
 8005104:	4770      	bx	lr

08005106 <UART_EndRxTransfer>:
  * @brief  End ongoing Rx transfer on UART peripheral (following error detection or Reception completion).
  * @param  huart UART handle.
  * @retval None
  */
static void UART_EndRxTransfer(UART_HandleTypeDef *huart)
{
 8005106:	b480      	push	{r7}
 8005108:	b095      	sub	sp, #84	@ 0x54
 800510a:	af00      	add	r7, sp, #0
 800510c:	6078      	str	r0, [r7, #4]
  /* Disable RXNE, PE and ERR (Frame error, noise error, overrun error) interrupts */
  ATOMIC_CLEAR_BIT(huart->Instance->CR1, (USART_CR1_RXNEIE | USART_CR1_PEIE));
 800510e:	687b      	ldr	r3, [r7, #4]
 8005110:	681b      	ldr	r3, [r3, #0]
 8005112:	330c      	adds	r3, #12
 8005114:	637b      	str	r3, [r7, #52]	@ 0x34
   __ASM volatile ("ldrex %0, %1" : "=r" (result) : "Q" (*addr) );
 8005116:	6b7b      	ldr	r3, [r7, #52]	@ 0x34
 8005118:	e853 3f00 	ldrex	r3, [r3]
 800511c:	633b      	str	r3, [r7, #48]	@ 0x30
   return(result);
 800511e:	6b3b      	ldr	r3, [r7, #48]	@ 0x30
 8005120:	f423 7390 	bic.w	r3, r3, #288	@ 0x120
 8005124:	64fb      	str	r3, [r7, #76]	@ 0x4c
 8005126:	687b      	ldr	r3, [r7, #4]
 8005128:	681b      	ldr	r3, [r3, #0]
 800512a:	330c      	adds	r3, #12
 800512c:	6cfa      	ldr	r2, [r7, #76]	@ 0x4c
 800512e:	643a      	str	r2, [r7, #64]	@ 0x40
 8005130:	63fb      	str	r3, [r7, #60]	@ 0x3c
   __ASM volatile ("strex %0, %2, %1" : "=&r" (result), "=Q" (*addr) : "r" (value) );
 8005132:	6bf9      	ldr	r1, [r7, #60]	@ 0x3c
 8005134:	6c3a      	ldr	r2, [r7, #64]	@ 0x40
 8005136:	e841 2300 	strex	r3, r2, [r1]
 800513a:	63bb      	str	r3, [r7, #56]	@ 0x38
   return(result);
 800513c:	6bbb      	ldr	r3, [r7, #56]	@ 0x38
 800513e:	2b00      	cmp	r3, #0
 8005140:	d1e5      	bne.n	800510e <UART_EndRxTransfer+0x8>
  ATOMIC_CLEAR_BIT(huart->Instance->CR3, USART_CR3_EIE);
 8005142:	687b      	ldr	r3, [r7, #4]
 8005144:	681b      	ldr	r3, [r3, #0]
 8005146:	3314      	adds	r3, #20
 8005148:	623b      	str	r3, [r7, #32]
   __ASM volatile ("ldrex %0, %1" : "=r" (result) : "Q" (*addr) );
 800514a:	6a3b      	ldr	r3, [r7, #32]
 800514c:	e853 3f00 	ldrex	r3, [r3]
 8005150:	61fb      	str	r3, [r7, #28]
   return(result);
 8005152:	69fb      	ldr	r3, [r7, #28]
 8005154:	f023 0301 	bic.w	r3, r3, #1
 8005158:	64bb      	str	r3, [r7, #72]	@ 0x48
 800515a:	687b      	ldr	r3, [r7, #4]
 800515c:	681b      	ldr	r3, [r3, #0]
 800515e:	3314      	adds	r3, #20
 8005160:	6cba      	ldr	r2, [r7, #72]	@ 0x48
 8005162:	62fa      	str	r2, [r7, #44]	@ 0x2c
 8005164:	62bb      	str	r3, [r7, #40]	@ 0x28
   __ASM volatile ("strex %0, %2, %1" : "=&r" (result), "=Q" (*addr) : "r" (value) );
 8005166:	6ab9      	ldr	r1, [r7, #40]	@ 0x28
 8005168:	6afa      	ldr	r2, [r7, #44]	@ 0x2c
 800516a:	e841 2300 	strex	r3, r2, [r1]
 800516e:	627b      	str	r3, [r7, #36]	@ 0x24
   return(result);
 8005170:	6a7b      	ldr	r3, [r7, #36]	@ 0x24
 8005172:	2b00      	cmp	r3, #0
 8005174:	d1e5      	bne.n	8005142 <UART_EndRxTransfer+0x3c>

  /* In case of reception waiting for IDLE event, disable also the IDLE IE interrupt source */
  if (huart->ReceptionType == HAL_UART_RECEPTION_TOIDLE)
 8005176:	687b      	ldr	r3, [r7, #4]
 8005178:	6b1b      	ldr	r3, [r3, #48]	@ 0x30
 800517a:	2b01      	cmp	r3, #1
 800517c:	d119      	bne.n	80051b2 <UART_EndRxTransfer+0xac>
  {
    ATOMIC_CLEAR_BIT(huart->Instance->CR1, USART_CR1_IDLEIE);
 800517e:	687b      	ldr	r3, [r7, #4]
 8005180:	681b      	ldr	r3, [r3, #0]
 8005182:	330c      	adds	r3, #12
 8005184:	60fb      	str	r3, [r7, #12]
   __ASM volatile ("ldrex %0, %1" : "=r" (result) : "Q" (*addr) );
 8005186:	68fb      	ldr	r3, [r7, #12]
 8005188:	e853 3f00 	ldrex	r3, [r3]
 800518c:	60bb      	str	r3, [r7, #8]
   return(result);
 800518e:	68bb      	ldr	r3, [r7, #8]
 8005190:	f023 0310 	bic.w	r3, r3, #16
 8005194:	647b      	str	r3, [r7, #68]	@ 0x44
 8005196:	687b      	ldr	r3, [r7, #4]
 8005198:	681b      	ldr	r3, [r3, #0]
 800519a:	330c      	adds	r3, #12
 800519c:	6c7a      	ldr	r2, [r7, #68]	@ 0x44
 800519e:	61ba      	str	r2, [r7, #24]
 80051a0:	617b      	str	r3, [r7, #20]
   __ASM volatile ("strex %0, %2, %1" : "=&r" (result), "=Q" (*addr) : "r" (value) );
 80051a2:	6979      	ldr	r1, [r7, #20]
 80051a4:	69ba      	ldr	r2, [r7, #24]
 80051a6:	e841 2300 	strex	r3, r2, [r1]
 80051aa:	613b      	str	r3, [r7, #16]
   return(result);
 80051ac:	693b      	ldr	r3, [r7, #16]
 80051ae:	2b00      	cmp	r3, #0
 80051b0:	d1e5      	bne.n	800517e <UART_EndRxTransfer+0x78>
  }

  /* At end of Rx process, restore huart->RxState to Ready */
  huart->RxState = HAL_UART_STATE_READY;
 80051b2:	687b      	ldr	r3, [r7, #4]
 80051b4:	2220      	movs	r2, #32
 80051b6:	f883 2042 	strb.w	r2, [r3, #66]	@ 0x42
  huart->ReceptionType = HAL_UART_RECEPTION_STANDARD;
 80051ba:	687b      	ldr	r3, [r7, #4]
 80051bc:	2200      	movs	r2, #0
 80051be:	631a      	str	r2, [r3, #48]	@ 0x30
}
 80051c0:	bf00      	nop
 80051c2:	3754      	adds	r7, #84	@ 0x54
 80051c4:	46bd      	mov	sp, r7
 80051c6:	f85d 7b04 	ldr.w	r7, [sp], #4
 80051ca:	4770      	bx	lr

080051cc <UART_DMAAbortOnError>:
  * @param  hdma  Pointer to a DMA_HandleTypeDef structure that contains
  *               the configuration information for the specified DMA module.
  * @retval None
  */
static void UART_DMAAbortOnError(DMA_HandleTypeDef *hdma)
{
 80051cc:	b580      	push	{r7, lr}
 80051ce:	b084      	sub	sp, #16
 80051d0:	af00      	add	r7, sp, #0
 80051d2:	6078      	str	r0, [r7, #4]
  UART_HandleTypeDef *huart = (UART_HandleTypeDef *)((DMA_HandleTypeDef *)hdma)->Parent;
 80051d4:	687b      	ldr	r3, [r7, #4]
 80051d6:	6b9b      	ldr	r3, [r3, #56]	@ 0x38
 80051d8:	60fb      	str	r3, [r7, #12]
  huart->RxXferCount = 0x00U;
 80051da:	68fb      	ldr	r3, [r7, #12]
 80051dc:	2200      	movs	r2, #0
 80051de:	85da      	strh	r2, [r3, #46]	@ 0x2e
#if (USE_HAL_UART_REGISTER_CALLBACKS == 1)
  /*Call registered error callback*/
  huart->ErrorCallback(huart);
#else
  /*Call legacy weak error callback*/
  HAL_UART_ErrorCallback(huart);
 80051e0:	68f8      	ldr	r0, [r7, #12]
 80051e2:	f7fc fc1d 	bl	8001a20 <HAL_UART_ErrorCallback>
#endif /* USE_HAL_UART_REGISTER_CALLBACKS */
}
 80051e6:	bf00      	nop
 80051e8:	3710      	adds	r7, #16
 80051ea:	46bd      	mov	sp, r7
 80051ec:	bd80      	pop	{r7, pc}

080051ee <UART_Transmit_IT>:
  * @param  huart  Pointer to a UART_HandleTypeDef structure that contains
  *                the configuration information for the specified UART module.
  * @retval HAL status
  */
static HAL_StatusTypeDef UART_Transmit_IT(UART_HandleTypeDef *huart)
{
 80051ee:	b480      	push	{r7}
 80051f0:	b085      	sub	sp, #20
 80051f2:	af00      	add	r7, sp, #0
 80051f4:	6078      	str	r0, [r7, #4]
  const uint16_t *tmp;

  /* Check that a Tx process is ongoing */
  if (huart->gState == HAL_UART_STATE_BUSY_TX)
 80051f6:	687b      	ldr	r3, [r7, #4]
 80051f8:	f893 3041 	ldrb.w	r3, [r3, #65]	@ 0x41
 80051fc:	b2db      	uxtb	r3, r3
 80051fe:	2b21      	cmp	r3, #33	@ 0x21
 8005200:	d13e      	bne.n	8005280 <UART_Transmit_IT+0x92>
  {
    if ((huart->Init.WordLength == UART_WORDLENGTH_9B) && (huart->Init.Parity == UART_PARITY_NONE))
 8005202:	687b      	ldr	r3, [r7, #4]
 8005204:	689b      	ldr	r3, [r3, #8]
 8005206:	f5b3 5f80 	cmp.w	r3, #4096	@ 0x1000
 800520a:	d114      	bne.n	8005236 <UART_Transmit_IT+0x48>
 800520c:	687b      	ldr	r3, [r7, #4]
 800520e:	691b      	ldr	r3, [r3, #16]
 8005210:	2b00      	cmp	r3, #0
 8005212:	d110      	bne.n	8005236 <UART_Transmit_IT+0x48>
    {
      tmp = (const uint16_t *) huart->pTxBuffPtr;
 8005214:	687b      	ldr	r3, [r7, #4]
 8005216:	6a1b      	ldr	r3, [r3, #32]
 8005218:	60fb      	str	r3, [r7, #12]
      huart->Instance->DR = (uint16_t)(*tmp & (uint16_t)0x01FF);
 800521a:	68fb      	ldr	r3, [r7, #12]
 800521c:	881b      	ldrh	r3, [r3, #0]
 800521e:	461a      	mov	r2, r3
 8005220:	687b      	ldr	r3, [r7, #4]
 8005222:	681b      	ldr	r3, [r3, #0]
 8005224:	f3c2 0208 	ubfx	r2, r2, #0, #9
 8005228:	605a      	str	r2, [r3, #4]
      huart->pTxBuffPtr += 2U;
 800522a:	687b      	ldr	r3, [r7, #4]
 800522c:	6a1b      	ldr	r3, [r3, #32]
 800522e:	1c9a      	adds	r2, r3, #2
 8005230:	687b      	ldr	r3, [r7, #4]
 8005232:	621a      	str	r2, [r3, #32]
 8005234:	e008      	b.n	8005248 <UART_Transmit_IT+0x5a>
    }
    else
    {
      huart->Instance->DR = (uint8_t)(*huart->pTxBuffPtr++ & (uint8_t)0x00FF);
 8005236:	687b      	ldr	r3, [r7, #4]
 8005238:	6a1b      	ldr	r3, [r3, #32]
 800523a:	1c59      	adds	r1, r3, #1
 800523c:	687a      	ldr	r2, [r7, #4]
 800523e:	6211      	str	r1, [r2, #32]
 8005240:	781a      	ldrb	r2, [r3, #0]
 8005242:	687b      	ldr	r3, [r7, #4]
 8005244:	681b      	ldr	r3, [r3, #0]
 8005246:	605a      	str	r2, [r3, #4]
    }

    if (--huart->TxXferCount == 0U)
 8005248:	687b      	ldr	r3, [r7, #4]
 800524a:	8cdb      	ldrh	r3, [r3, #38]	@ 0x26
 800524c:	b29b      	uxth	r3, r3
 800524e:	3b01      	subs	r3, #1
 8005250:	b29b      	uxth	r3, r3
 8005252:	687a      	ldr	r2, [r7, #4]
 8005254:	4619      	mov	r1, r3
 8005256:	84d1      	strh	r1, [r2, #38]	@ 0x26
 8005258:	2b00      	cmp	r3, #0
 800525a:	d10f      	bne.n	800527c <UART_Transmit_IT+0x8e>
    {
      /* Disable the UART Transmit Data Register Empty Interrupt */
      __HAL_UART_DISABLE_IT(huart, UART_IT_TXE);
 800525c:	687b      	ldr	r3, [r7, #4]
 800525e:	681b      	ldr	r3, [r3, #0]
 8005260:	68da      	ldr	r2, [r3, #12]
 8005262:	687b      	ldr	r3, [r7, #4]
 8005264:	681b      	ldr	r3, [r3, #0]
 8005266:	f022 0280 	bic.w	r2, r2, #128	@ 0x80
 800526a:	60da      	str	r2, [r3, #12]

      /* Enable the UART Transmit Complete Interrupt */
      __HAL_UART_ENABLE_IT(huart, UART_IT_TC);
 800526c:	687b      	ldr	r3, [r7, #4]
 800526e:	681b      	ldr	r3, [r3, #0]
 8005270:	68da      	ldr	r2, [r3, #12]
 8005272:	687b      	ldr	r3, [r7, #4]
 8005274:	681b      	ldr	r3, [r3, #0]
 8005276:	f042 0240 	orr.w	r2, r2, #64	@ 0x40
 800527a:	60da      	str	r2, [r3, #12]
    }
    return HAL_OK;
 800527c:	2300      	movs	r3, #0
 800527e:	e000      	b.n	8005282 <UART_Transmit_IT+0x94>
  }
  else
  {
    return HAL_BUSY;
 8005280:	2302      	movs	r3, #2
  }
}
 8005282:	4618      	mov	r0, r3
 8005284:	3714      	adds	r7, #20
 8005286:	46bd      	mov	sp, r7
 8005288:	f85d 7b04 	ldr.w	r7, [sp], #4
 800528c:	4770      	bx	lr

0800528e <UART_EndTransmit_IT>:
  * @param  huart  Pointer to a UART_HandleTypeDef structure that contains
  *                the configuration information for the specified UART module.
  * @retval HAL status
  */
static HAL_StatusTypeDef UART_EndTransmit_IT(UART_HandleTypeDef *huart)
{
 800528e:	b580      	push	{r7, lr}
 8005290:	b082      	sub	sp, #8
 8005292:	af00      	add	r7, sp, #0
 8005294:	6078      	str	r0, [r7, #4]
  /* Disable the UART Transmit Complete Interrupt */
  __HAL_UART_DISABLE_IT(huart, UART_IT_TC);
 8005296:	687b      	ldr	r3, [r7, #4]
 8005298:	681b      	ldr	r3, [r3, #0]
 800529a:	68da      	ldr	r2, [r3, #12]
 800529c:	687b      	ldr	r3, [r7, #4]
 800529e:	681b      	ldr	r3, [r3, #0]
 80052a0:	f022 0240 	bic.w	r2, r2, #64	@ 0x40
 80052a4:	60da      	str	r2, [r3, #12]

  /* Tx process is ended, restore huart->gState to Ready */
  huart->gState = HAL_UART_STATE_READY;
 80052a6:	687b      	ldr	r3, [r7, #4]
 80052a8:	2220      	movs	r2, #32
 80052aa:	f883 2041 	strb.w	r2, [r3, #65]	@ 0x41
#if (USE_HAL_UART_REGISTER_CALLBACKS == 1)
  /*Call registered Tx complete callback*/
  huart->TxCpltCallback(huart);
#else
  /*Call legacy weak Tx complete callback*/
  HAL_UART_TxCpltCallback(huart);
 80052ae:	6878      	ldr	r0, [r7, #4]
 80052b0:	f7ff fe74 	bl	8004f9c <HAL_UART_TxCpltCallback>
#endif /* USE_HAL_UART_REGISTER_CALLBACKS */

  return HAL_OK;
 80052b4:	2300      	movs	r3, #0
}
 80052b6:	4618      	mov	r0, r3
 80052b8:	3708      	adds	r7, #8
 80052ba:	46bd      	mov	sp, r7
 80052bc:	bd80      	pop	{r7, pc}

080052be <UART_Receive_IT>:
  * @param  huart  Pointer to a UART_HandleTypeDef structure that contains
  *                the configuration information for the specified UART module.
  * @retval HAL status
  */
static HAL_StatusTypeDef UART_Receive_IT(UART_HandleTypeDef *huart)
{
 80052be:	b580      	push	{r7, lr}
 80052c0:	b08c      	sub	sp, #48	@ 0x30
 80052c2:	af00      	add	r7, sp, #0
 80052c4:	6078      	str	r0, [r7, #4]
  uint8_t  *pdata8bits = NULL;
 80052c6:	2300      	movs	r3, #0
 80052c8:	62fb      	str	r3, [r7, #44]	@ 0x2c
  uint16_t *pdata16bits = NULL;
 80052ca:	2300      	movs	r3, #0
 80052cc:	62bb      	str	r3, [r7, #40]	@ 0x28

  /* Check that a Rx process is ongoing */
  if (huart->RxState == HAL_UART_STATE_BUSY_RX)
 80052ce:	687b      	ldr	r3, [r7, #4]
 80052d0:	f893 3042 	ldrb.w	r3, [r3, #66]	@ 0x42
 80052d4:	b2db      	uxtb	r3, r3
 80052d6:	2b22      	cmp	r3, #34	@ 0x22
 80052d8:	f040 80aa 	bne.w	8005430 <UART_Receive_IT+0x172>
  {
    if ((huart->Init.WordLength == UART_WORDLENGTH_9B) && (huart->Init.Parity == UART_PARITY_NONE))
 80052dc:	687b      	ldr	r3, [r7, #4]
 80052de:	689b      	ldr	r3, [r3, #8]
 80052e0:	f5b3 5f80 	cmp.w	r3, #4096	@ 0x1000
 80052e4:	d115      	bne.n	8005312 <UART_Receive_IT+0x54>
 80052e6:	687b      	ldr	r3, [r7, #4]
 80052e8:	691b      	ldr	r3, [r3, #16]
 80052ea:	2b00      	cmp	r3, #0
 80052ec:	d111      	bne.n	8005312 <UART_Receive_IT+0x54>
    {
      /* Unused pdata8bits */
      UNUSED(pdata8bits);
      pdata16bits = (uint16_t *) huart->pRxBuffPtr;
 80052ee:	687b      	ldr	r3, [r7, #4]
 80052f0:	6a9b      	ldr	r3, [r3, #40]	@ 0x28
 80052f2:	62bb      	str	r3, [r7, #40]	@ 0x28
      *pdata16bits = (uint16_t)(huart->Instance->DR & (uint16_t)0x01FF);
 80052f4:	687b      	ldr	r3, [r7, #4]
 80052f6:	681b      	ldr	r3, [r3, #0]
 80052f8:	685b      	ldr	r3, [r3, #4]
 80052fa:	b29b      	uxth	r3, r3
 80052fc:	f3c3 0308 	ubfx	r3, r3, #0, #9
 8005300:	b29a      	uxth	r2, r3
 8005302:	6abb      	ldr	r3, [r7, #40]	@ 0x28
 8005304:	801a      	strh	r2, [r3, #0]
      huart->pRxBuffPtr += 2U;
 8005306:	687b      	ldr	r3, [r7, #4]
 8005308:	6a9b      	ldr	r3, [r3, #40]	@ 0x28
 800530a:	1c9a      	adds	r2, r3, #2
 800530c:	687b      	ldr	r3, [r7, #4]
 800530e:	629a      	str	r2, [r3, #40]	@ 0x28
 8005310:	e024      	b.n	800535c <UART_Receive_IT+0x9e>
    }
    else
    {
      pdata8bits = (uint8_t *) huart->pRxBuffPtr;
 8005312:	687b      	ldr	r3, [r7, #4]
 8005314:	6a9b      	ldr	r3, [r3, #40]	@ 0x28
 8005316:	62fb      	str	r3, [r7, #44]	@ 0x2c
      /* Unused pdata16bits */
      UNUSED(pdata16bits);

      if ((huart->Init.WordLength == UART_WORDLENGTH_9B) || ((huart->Init.WordLength == UART_WORDLENGTH_8B) && (huart->Init.Parity == UART_PARITY_NONE)))
 8005318:	687b      	ldr	r3, [r7, #4]
 800531a:	689b      	ldr	r3, [r3, #8]
 800531c:	f5b3 5f80 	cmp.w	r3, #4096	@ 0x1000
 8005320:	d007      	beq.n	8005332 <UART_Receive_IT+0x74>
 8005322:	687b      	ldr	r3, [r7, #4]
 8005324:	689b      	ldr	r3, [r3, #8]
 8005326:	2b00      	cmp	r3, #0
 8005328:	d10a      	bne.n	8005340 <UART_Receive_IT+0x82>
 800532a:	687b      	ldr	r3, [r7, #4]
 800532c:	691b      	ldr	r3, [r3, #16]
 800532e:	2b00      	cmp	r3, #0
 8005330:	d106      	bne.n	8005340 <UART_Receive_IT+0x82>
      {
        *pdata8bits = (uint8_t)(huart->Instance->DR & (uint8_t)0x00FF);
 8005332:	687b      	ldr	r3, [r7, #4]
 8005334:	681b      	ldr	r3, [r3, #0]
 8005336:	685b      	ldr	r3, [r3, #4]
 8005338:	b2da      	uxtb	r2, r3
 800533a:	6afb      	ldr	r3, [r7, #44]	@ 0x2c
 800533c:	701a      	strb	r2, [r3, #0]
 800533e:	e008      	b.n	8005352 <UART_Receive_IT+0x94>
      }
      else
      {
        *pdata8bits = (uint8_t)(huart->Instance->DR & (uint8_t)0x007F);
 8005340:	687b      	ldr	r3, [r7, #4]
 8005342:	681b      	ldr	r3, [r3, #0]
 8005344:	685b      	ldr	r3, [r3, #4]
 8005346:	b2db      	uxtb	r3, r3
 8005348:	f003 037f 	and.w	r3, r3, #127	@ 0x7f
 800534c:	b2da      	uxtb	r2, r3
 800534e:	6afb      	ldr	r3, [r7, #44]	@ 0x2c
 8005350:	701a      	strb	r2, [r3, #0]
      }
      huart->pRxBuffPtr += 1U;
 8005352:	687b      	ldr	r3, [r7, #4]
 8005354:	6a9b      	ldr	r3, [r3, #40]	@ 0x28
 8005356:	1c5a      	adds	r2, r3, #1
 8005358:	687b      	ldr	r3, [r7, #4]
 800535a:	629a      	str	r2, [r3, #40]	@ 0x28
    }

    if (--huart->RxXferCount == 0U)
 800535c:	687b      	ldr	r3, [r7, #4]
 800535e:	8ddb      	ldrh	r3, [r3, #46]	@ 0x2e
 8005360:	b29b      	uxth	r3, r3
 8005362:	3b01      	subs	r3, #1
 8005364:	b29b      	uxth	r3, r3
 8005366:	687a      	ldr	r2, [r7, #4]
 8005368:	4619      	mov	r1, r3
 800536a:	85d1      	strh	r1, [r2, #46]	@ 0x2e
 800536c:	2b00      	cmp	r3, #0
 800536e:	d15d      	bne.n	800542c <UART_Receive_IT+0x16e>
    {
      /* Disable the UART Data Register not empty Interrupt */
      __HAL_UART_DISABLE_IT(huart, UART_IT_RXNE);
 8005370:	687b      	ldr	r3, [r7, #4]
 8005372:	681b      	ldr	r3, [r3, #0]
 8005374:	68da      	ldr	r2, [r3, #12]
 8005376:	687b      	ldr	r3, [r7, #4]
 8005378:	681b      	ldr	r3, [r3, #0]
 800537a:	f022 0220 	bic.w	r2, r2, #32
 800537e:	60da      	str	r2, [r3, #12]

      /* Disable the UART Parity Error Interrupt */
      __HAL_UART_DISABLE_IT(huart, UART_IT_PE);
 8005380:	687b      	ldr	r3, [r7, #4]
 8005382:	681b      	ldr	r3, [r3, #0]
 8005384:	68da      	ldr	r2, [r3, #12]
 8005386:	687b      	ldr	r3, [r7, #4]
 8005388:	681b      	ldr	r3, [r3, #0]
 800538a:	f422 7280 	bic.w	r2, r2, #256	@ 0x100
 800538e:	60da      	str	r2, [r3, #12]

      /* Disable the UART Error Interrupt: (Frame error, noise error, overrun error) */
      __HAL_UART_DISABLE_IT(huart, UART_IT_ERR);
 8005390:	687b      	ldr	r3, [r7, #4]
 8005392:	681b      	ldr	r3, [r3, #0]
 8005394:	695a      	ldr	r2, [r3, #20]
 8005396:	687b      	ldr	r3, [r7, #4]
 8005398:	681b      	ldr	r3, [r3, #0]
 800539a:	f022 0201 	bic.w	r2, r2, #1
 800539e:	615a      	str	r2, [r3, #20]

      /* Rx process is completed, restore huart->RxState to Ready */
      huart->RxState = HAL_UART_STATE_READY;
 80053a0:	687b      	ldr	r3, [r7, #4]
 80053a2:	2220      	movs	r2, #32
 80053a4:	f883 2042 	strb.w	r2, [r3, #66]	@ 0x42

      /* Initialize type of RxEvent to Transfer Complete */
      huart->RxEventType = HAL_UART_RXEVENT_TC;
 80053a8:	687b      	ldr	r3, [r7, #4]
 80053aa:	2200      	movs	r2, #0
 80053ac:	635a      	str	r2, [r3, #52]	@ 0x34

      /* Check current reception Mode :
         If Reception till IDLE event has been selected : */
      if (huart->ReceptionType == HAL_UART_RECEPTION_TOIDLE)
 80053ae:	687b      	ldr	r3, [r7, #4]
 80053b0:	6b1b      	ldr	r3, [r3, #48]	@ 0x30
 80053b2:	2b01      	cmp	r3, #1
 80053b4:	d135      	bne.n	8005422 <UART_Receive_IT+0x164>
      {
        /* Set reception type to Standard */
        huart->ReceptionType = HAL_UART_RECEPTION_STANDARD;
 80053b6:	687b      	ldr	r3, [r7, #4]
 80053b8:	2200      	movs	r2, #0
 80053ba:	631a      	str	r2, [r3, #48]	@ 0x30

        /* Disable IDLE interrupt */
        ATOMIC_CLEAR_BIT(huart->Instance->CR1, USART_CR1_IDLEIE);
 80053bc:	687b      	ldr	r3, [r7, #4]
 80053be:	681b      	ldr	r3, [r3, #0]
 80053c0:	330c      	adds	r3, #12
 80053c2:	617b      	str	r3, [r7, #20]
   __ASM volatile ("ldrex %0, %1" : "=r" (result) : "Q" (*addr) );
 80053c4:	697b      	ldr	r3, [r7, #20]
 80053c6:	e853 3f00 	ldrex	r3, [r3]
 80053ca:	613b      	str	r3, [r7, #16]
   return(result);
 80053cc:	693b      	ldr	r3, [r7, #16]
 80053ce:	f023 0310 	bic.w	r3, r3, #16
 80053d2:	627b      	str	r3, [r7, #36]	@ 0x24
 80053d4:	687b      	ldr	r3, [r7, #4]
 80053d6:	681b      	ldr	r3, [r3, #0]
 80053d8:	330c      	adds	r3, #12
 80053da:	6a7a      	ldr	r2, [r7, #36]	@ 0x24
 80053dc:	623a      	str	r2, [r7, #32]
 80053de:	61fb      	str	r3, [r7, #28]
   __ASM volatile ("strex %0, %2, %1" : "=&r" (result), "=Q" (*addr) : "r" (value) );
 80053e0:	69f9      	ldr	r1, [r7, #28]
 80053e2:	6a3a      	ldr	r2, [r7, #32]
 80053e4:	e841 2300 	strex	r3, r2, [r1]
 80053e8:	61bb      	str	r3, [r7, #24]
   return(result);
 80053ea:	69bb      	ldr	r3, [r7, #24]
 80053ec:	2b00      	cmp	r3, #0
 80053ee:	d1e5      	bne.n	80053bc <UART_Receive_IT+0xfe>

        /* Check if IDLE flag is set */
        if (__HAL_UART_GET_FLAG(huart, UART_FLAG_IDLE))
 80053f0:	687b      	ldr	r3, [r7, #4]
 80053f2:	681b      	ldr	r3, [r3, #0]
 80053f4:	681b      	ldr	r3, [r3, #0]
 80053f6:	f003 0310 	and.w	r3, r3, #16
 80053fa:	2b10      	cmp	r3, #16
 80053fc:	d10a      	bne.n	8005414 <UART_Receive_IT+0x156>
        {
          /* Clear IDLE flag in ISR */
          __HAL_UART_CLEAR_IDLEFLAG(huart);
 80053fe:	2300      	movs	r3, #0
 8005400:	60fb      	str	r3, [r7, #12]
 8005402:	687b      	ldr	r3, [r7, #4]
 8005404:	681b      	ldr	r3, [r3, #0]
 8005406:	681b      	ldr	r3, [r3, #0]
 8005408:	60fb      	str	r3, [r7, #12]
 800540a:	687b      	ldr	r3, [r7, #4]
 800540c:	681b      	ldr	r3, [r3, #0]
 800540e:	685b      	ldr	r3, [r3, #4]
 8005410:	60fb      	str	r3, [r7, #12]
 8005412:	68fb      	ldr	r3, [r7, #12]
#if (USE_HAL_UART_REGISTER_CALLBACKS == 1)
        /*Call registered Rx Event callback*/
        huart->RxEventCallback(huart, huart->RxXferSize);
#else
        /*Call legacy weak Rx Event callback*/
        HAL_UARTEx_RxEventCallback(huart, huart->RxXferSize);
 8005414:	687b      	ldr	r3, [r7, #4]
 8005416:	8d9b      	ldrh	r3, [r3, #44]	@ 0x2c
 8005418:	4619      	mov	r1, r3
 800541a:	6878      	ldr	r0, [r7, #4]
 800541c:	f7ff fdc8 	bl	8004fb0 <HAL_UARTEx_RxEventCallback>
 8005420:	e002      	b.n	8005428 <UART_Receive_IT+0x16a>
#if (USE_HAL_UART_REGISTER_CALLBACKS == 1)
        /*Call registered Rx complete callback*/
        huart->RxCpltCallback(huart);
#else
        /*Call legacy weak Rx complete callback*/
        HAL_UART_RxCpltCallback(huart);
 8005422:	6878      	ldr	r0, [r7, #4]
 8005424:	f7fc fa68 	bl	80018f8 <HAL_UART_RxCpltCallback>
#endif /* USE_HAL_UART_REGISTER_CALLBACKS */
      }

      return HAL_OK;
 8005428:	2300      	movs	r3, #0
 800542a:	e002      	b.n	8005432 <UART_Receive_IT+0x174>
    }
    return HAL_OK;
 800542c:	2300      	movs	r3, #0
 800542e:	e000      	b.n	8005432 <UART_Receive_IT+0x174>
  }
  else
  {
    return HAL_BUSY;
 8005430:	2302      	movs	r3, #2
  }
}
 8005432:	4618      	mov	r0, r3
 8005434:	3730      	adds	r7, #48	@ 0x30
 8005436:	46bd      	mov	sp, r7
 8005438:	bd80      	pop	{r7, pc}
	...

0800543c <UART_SetConfig>:
  * @param  huart  Pointer to a UART_HandleTypeDef structure that contains
  *                the configuration information for the specified UART module.
  * @retval None
  */
static void UART_SetConfig(UART_HandleTypeDef *huart)
{
 800543c:	e92d 4fb0 	stmdb	sp!, {r4, r5, r7, r8, r9, sl, fp, lr}
 8005440:	b0c0      	sub	sp, #256	@ 0x100
 8005442:	af00      	add	r7, sp, #0
 8005444:	f8c7 00f4 	str.w	r0, [r7, #244]	@ 0xf4
  assert_param(IS_UART_MODE(huart->Init.Mode));

  /*-------------------------- USART CR2 Configuration -----------------------*/
  /* Configure the UART Stop Bits: Set STOP[13:12] bits
     according to huart->Init.StopBits value */
  MODIFY_REG(huart->Instance->CR2, USART_CR2_STOP, huart->Init.StopBits);
 8005448:	f8d7 30f4 	ldr.w	r3, [r7, #244]	@ 0xf4
 800544c:	681b      	ldr	r3, [r3, #0]
 800544e:	691b      	ldr	r3, [r3, #16]
 8005450:	f423 5040 	bic.w	r0, r3, #12288	@ 0x3000
 8005454:	f8d7 30f4 	ldr.w	r3, [r7, #244]	@ 0xf4
 8005458:	68d9      	ldr	r1, [r3, #12]
 800545a:	f8d7 30f4 	ldr.w	r3, [r7, #244]	@ 0xf4
 800545e:	681a      	ldr	r2, [r3, #0]
 8005460:	ea40 0301 	orr.w	r3, r0, r1
 8005464:	6113      	str	r3, [r2, #16]
     Set the M bits according to huart->Init.WordLength value
     Set PCE and PS bits according to huart->Init.Parity value
     Set TE and RE bits according to huart->Init.Mode value
     Set OVER8 bit according to huart->Init.OverSampling value */

  tmpreg = (uint32_t)huart->Init.WordLength | huart->Init.Parity | huart->Init.Mode | huart->Init.OverSampling;
 8005466:	f8d7 30f4 	ldr.w	r3, [r7, #244]	@ 0xf4
 800546a:	689a      	ldr	r2, [r3, #8]
 800546c:	f8d7 30f4 	ldr.w	r3, [r7, #244]	@ 0xf4
 8005470:	691b      	ldr	r3, [r3, #16]
 8005472:	431a      	orrs	r2, r3
 8005474:	f8d7 30f4 	ldr.w	r3, [r7, #244]	@ 0xf4
 8005478:	695b      	ldr	r3, [r3, #20]
 800547a:	431a      	orrs	r2, r3
 800547c:	f8d7 30f4 	ldr.w	r3, [r7, #244]	@ 0xf4
 8005480:	69db      	ldr	r3, [r3, #28]
 8005482:	4313      	orrs	r3, r2
 8005484:	f8c7 30f8 	str.w	r3, [r7, #248]	@ 0xf8
  MODIFY_REG(huart->Instance->CR1,
 8005488:	f8d7 30f4 	ldr.w	r3, [r7, #244]	@ 0xf4
 800548c:	681b      	ldr	r3, [r3, #0]
 800548e:	68db      	ldr	r3, [r3, #12]
 8005490:	f423 4116 	bic.w	r1, r3, #38400	@ 0x9600
 8005494:	f021 010c 	bic.w	r1, r1, #12
 8005498:	f8d7 30f4 	ldr.w	r3, [r7, #244]	@ 0xf4
 800549c:	681a      	ldr	r2, [r3, #0]
 800549e:	f8d7 30f8 	ldr.w	r3, [r7, #248]	@ 0xf8
 80054a2:	430b      	orrs	r3, r1
 80054a4:	60d3      	str	r3, [r2, #12]
             (uint32_t)(USART_CR1_M | USART_CR1_PCE | USART_CR1_PS | USART_CR1_TE | USART_CR1_RE | USART_CR1_OVER8),
             tmpreg);

  /*-------------------------- USART CR3 Configuration -----------------------*/
  /* Configure the UART HFC: Set CTSE and RTSE bits according to huart->Init.HwFlowCtl value */
  MODIFY_REG(huart->Instance->CR3, (USART_CR3_RTSE | USART_CR3_CTSE), huart->Init.HwFlowCtl);
 80054a6:	f8d7 30f4 	ldr.w	r3, [r7, #244]	@ 0xf4
 80054aa:	681b      	ldr	r3, [r3, #0]
 80054ac:	695b      	ldr	r3, [r3, #20]
 80054ae:	f423 7040 	bic.w	r0, r3, #768	@ 0x300
 80054b2:	f8d7 30f4 	ldr.w	r3, [r7, #244]	@ 0xf4
 80054b6:	6999      	ldr	r1, [r3, #24]
 80054b8:	f8d7 30f4 	ldr.w	r3, [r7, #244]	@ 0xf4
 80054bc:	681a      	ldr	r2, [r3, #0]
 80054be:	ea40 0301 	orr.w	r3, r0, r1
 80054c2:	6153      	str	r3, [r2, #20]
    if ((huart->Instance == USART1) || (huart->Instance == USART6) || (huart->Instance == UART9) || (huart->Instance == UART10))
    {
      pclk = HAL_RCC_GetPCLK2Freq();
    }
#elif defined(USART6)
    if ((huart->Instance == USART1) || (huart->Instance == USART6))
 80054c4:	f8d7 30f4 	ldr.w	r3, [r7, #244]	@ 0xf4
 80054c8:	681a      	ldr	r2, [r3, #0]
 80054ca:	4b8f      	ldr	r3, [pc, #572]	@ (8005708 <UART_SetConfig+0x2cc>)
 80054cc:	429a      	cmp	r2, r3
 80054ce:	d005      	beq.n	80054dc <UART_SetConfig+0xa0>
 80054d0:	f8d7 30f4 	ldr.w	r3, [r7, #244]	@ 0xf4
 80054d4:	681a      	ldr	r2, [r3, #0]
 80054d6:	4b8d      	ldr	r3, [pc, #564]	@ (800570c <UART_SetConfig+0x2d0>)
 80054d8:	429a      	cmp	r2, r3
 80054da:	d104      	bne.n	80054e6 <UART_SetConfig+0xaa>
    {
      pclk = HAL_RCC_GetPCLK2Freq();
 80054dc:	f7ff f9a0 	bl	8004820 <HAL_RCC_GetPCLK2Freq>
 80054e0:	f8c7 00fc 	str.w	r0, [r7, #252]	@ 0xfc
 80054e4:	e003      	b.n	80054ee <UART_SetConfig+0xb2>
      pclk = HAL_RCC_GetPCLK2Freq();
    }
#endif /* USART6 */
    else
    {
      pclk = HAL_RCC_GetPCLK1Freq();
 80054e6:	f7ff f987 	bl	80047f8 <HAL_RCC_GetPCLK1Freq>
 80054ea:	f8c7 00fc 	str.w	r0, [r7, #252]	@ 0xfc
    }
  /*-------------------------- USART BRR Configuration ---------------------*/
  if (huart->Init.OverSampling == UART_OVERSAMPLING_8)
 80054ee:	f8d7 30f4 	ldr.w	r3, [r7, #244]	@ 0xf4
 80054f2:	69db      	ldr	r3, [r3, #28]
 80054f4:	f5b3 4f00 	cmp.w	r3, #32768	@ 0x8000
 80054f8:	f040 810c 	bne.w	8005714 <UART_SetConfig+0x2d8>
  {
    huart->Instance->BRR = UART_BRR_SAMPLING8(pclk, huart->Init.BaudRate);
 80054fc:	f8d7 30fc 	ldr.w	r3, [r7, #252]	@ 0xfc
 8005500:	2200      	movs	r2, #0
 8005502:	f8c7 30e8 	str.w	r3, [r7, #232]	@ 0xe8
 8005506:	f8c7 20ec 	str.w	r2, [r7, #236]	@ 0xec
 800550a:	e9d7 453a 	ldrd	r4, r5, [r7, #232]	@ 0xe8
 800550e:	4622      	mov	r2, r4
 8005510:	462b      	mov	r3, r5
 8005512:	1891      	adds	r1, r2, r2
 8005514:	65b9      	str	r1, [r7, #88]	@ 0x58
 8005516:	415b      	adcs	r3, r3
 8005518:	65fb      	str	r3, [r7, #92]	@ 0x5c
 800551a:	e9d7 2316 	ldrd	r2, r3, [r7, #88]	@ 0x58
 800551e:	4621      	mov	r1, r4
 8005520:	eb12 0801 	adds.w	r8, r2, r1
 8005524:	4629      	mov	r1, r5
 8005526:	eb43 0901 	adc.w	r9, r3, r1
 800552a:	f04f 0200 	mov.w	r2, #0
 800552e:	f04f 0300 	mov.w	r3, #0
 8005532:	ea4f 03c9 	mov.w	r3, r9, lsl #3
 8005536:	ea43 7358 	orr.w	r3, r3, r8, lsr #29
 800553a:	ea4f 02c8 	mov.w	r2, r8, lsl #3
 800553e:	4690      	mov	r8, r2
 8005540:	4699      	mov	r9, r3
 8005542:	4623      	mov	r3, r4
 8005544:	eb18 0303 	adds.w	r3, r8, r3
 8005548:	f8c7 30e0 	str.w	r3, [r7, #224]	@ 0xe0
 800554c:	462b      	mov	r3, r5
 800554e:	eb49 0303 	adc.w	r3, r9, r3
 8005552:	f8c7 30e4 	str.w	r3, [r7, #228]	@ 0xe4
 8005556:	f8d7 30f4 	ldr.w	r3, [r7, #244]	@ 0xf4
 800555a:	685b      	ldr	r3, [r3, #4]
 800555c:	2200      	movs	r2, #0
 800555e:	f8c7 30d8 	str.w	r3, [r7, #216]	@ 0xd8
 8005562:	f8c7 20dc 	str.w	r2, [r7, #220]	@ 0xdc
 8005566:	e9d7 1236 	ldrd	r1, r2, [r7, #216]	@ 0xd8
 800556a:	460b      	mov	r3, r1
 800556c:	18db      	adds	r3, r3, r3
 800556e:	653b      	str	r3, [r7, #80]	@ 0x50
 8005570:	4613      	mov	r3, r2
 8005572:	eb42 0303 	adc.w	r3, r2, r3
 8005576:	657b      	str	r3, [r7, #84]	@ 0x54
 8005578:	e9d7 2314 	ldrd	r2, r3, [r7, #80]	@ 0x50
 800557c:	e9d7 0138 	ldrd	r0, r1, [r7, #224]	@ 0xe0
 8005580:	f7fb fb8a 	bl	8000c98 <__aeabi_uldivmod>
 8005584:	4602      	mov	r2, r0
 8005586:	460b      	mov	r3, r1
 8005588:	4b61      	ldr	r3, [pc, #388]	@ (8005710 <UART_SetConfig+0x2d4>)
 800558a:	fba3 2302 	umull	r2, r3, r3, r2
 800558e:	095b      	lsrs	r3, r3, #5
 8005590:	011c      	lsls	r4, r3, #4
 8005592:	f8d7 30fc 	ldr.w	r3, [r7, #252]	@ 0xfc
 8005596:	2200      	movs	r2, #0
 8005598:	f8c7 30d0 	str.w	r3, [r7, #208]	@ 0xd0
 800559c:	f8c7 20d4 	str.w	r2, [r7, #212]	@ 0xd4
 80055a0:	e9d7 8934 	ldrd	r8, r9, [r7, #208]	@ 0xd0
 80055a4:	4642      	mov	r2, r8
 80055a6:	464b      	mov	r3, r9
 80055a8:	1891      	adds	r1, r2, r2
 80055aa:	64b9      	str	r1, [r7, #72]	@ 0x48
 80055ac:	415b      	adcs	r3, r3
 80055ae:	64fb      	str	r3, [r7, #76]	@ 0x4c
 80055b0:	e9d7 2312 	ldrd	r2, r3, [r7, #72]	@ 0x48
 80055b4:	4641      	mov	r1, r8
 80055b6:	eb12 0a01 	adds.w	sl, r2, r1
 80055ba:	4649      	mov	r1, r9
 80055bc:	eb43 0b01 	adc.w	fp, r3, r1
 80055c0:	f04f 0200 	mov.w	r2, #0
 80055c4:	f04f 0300 	mov.w	r3, #0
 80055c8:	ea4f 03cb 	mov.w	r3, fp, lsl #3
 80055cc:	ea43 735a 	orr.w	r3, r3, sl, lsr #29
 80055d0:	ea4f 02ca 	mov.w	r2, sl, lsl #3
 80055d4:	4692      	mov	sl, r2
 80055d6:	469b      	mov	fp, r3
 80055d8:	4643      	mov	r3, r8
 80055da:	eb1a 0303 	adds.w	r3, sl, r3
 80055de:	f8c7 30c8 	str.w	r3, [r7, #200]	@ 0xc8
 80055e2:	464b      	mov	r3, r9
 80055e4:	eb4b 0303 	adc.w	r3, fp, r3
 80055e8:	f8c7 30cc 	str.w	r3, [r7, #204]	@ 0xcc
 80055ec:	f8d7 30f4 	ldr.w	r3, [r7, #244]	@ 0xf4
 80055f0:	685b      	ldr	r3, [r3, #4]
 80055f2:	2200      	movs	r2, #0
 80055f4:	f8c7 30c0 	str.w	r3, [r7, #192]	@ 0xc0
 80055f8:	f8c7 20c4 	str.w	r2, [r7, #196]	@ 0xc4
 80055fc:	e9d7 1230 	ldrd	r1, r2, [r7, #192]	@ 0xc0
 8005600:	460b      	mov	r3, r1
 8005602:	18db      	adds	r3, r3, r3
 8005604:	643b      	str	r3, [r7, #64]	@ 0x40
 8005606:	4613      	mov	r3, r2
 8005608:	eb42 0303 	adc.w	r3, r2, r3
 800560c:	647b      	str	r3, [r7, #68]	@ 0x44
 800560e:	e9d7 2310 	ldrd	r2, r3, [r7, #64]	@ 0x40
 8005612:	e9d7 0132 	ldrd	r0, r1, [r7, #200]	@ 0xc8
 8005616:	f7fb fb3f 	bl	8000c98 <__aeabi_uldivmod>
 800561a:	4602      	mov	r2, r0
 800561c:	460b      	mov	r3, r1
 800561e:	4611      	mov	r1, r2
 8005620:	4b3b      	ldr	r3, [pc, #236]	@ (8005710 <UART_SetConfig+0x2d4>)
 8005622:	fba3 2301 	umull	r2, r3, r3, r1
 8005626:	095b      	lsrs	r3, r3, #5
 8005628:	2264      	movs	r2, #100	@ 0x64
 800562a:	fb02 f303 	mul.w	r3, r2, r3
 800562e:	1acb      	subs	r3, r1, r3
 8005630:	00db      	lsls	r3, r3, #3
 8005632:	f103 0232 	add.w	r2, r3, #50	@ 0x32
 8005636:	4b36      	ldr	r3, [pc, #216]	@ (8005710 <UART_SetConfig+0x2d4>)
 8005638:	fba3 2302 	umull	r2, r3, r3, r2
 800563c:	095b      	lsrs	r3, r3, #5
 800563e:	005b      	lsls	r3, r3, #1
 8005640:	f403 73f8 	and.w	r3, r3, #496	@ 0x1f0
 8005644:	441c      	add	r4, r3
 8005646:	f8d7 30fc 	ldr.w	r3, [r7, #252]	@ 0xfc
 800564a:	2200      	movs	r2, #0
 800564c:	f8c7 30b8 	str.w	r3, [r7, #184]	@ 0xb8
 8005650:	f8c7 20bc 	str.w	r2, [r7, #188]	@ 0xbc
 8005654:	e9d7 892e 	ldrd	r8, r9, [r7, #184]	@ 0xb8
 8005658:	4642      	mov	r2, r8
 800565a:	464b      	mov	r3, r9
 800565c:	1891      	adds	r1, r2, r2
 800565e:	63b9      	str	r1, [r7, #56]	@ 0x38
 8005660:	415b      	adcs	r3, r3
 8005662:	63fb      	str	r3, [r7, #60]	@ 0x3c
 8005664:	e9d7 230e 	ldrd	r2, r3, [r7, #56]	@ 0x38
 8005668:	4641      	mov	r1, r8
 800566a:	1851      	adds	r1, r2, r1
 800566c:	6339      	str	r1, [r7, #48]	@ 0x30
 800566e:	4649      	mov	r1, r9
 8005670:	414b      	adcs	r3, r1
 8005672:	637b      	str	r3, [r7, #52]	@ 0x34
 8005674:	f04f 0200 	mov.w	r2, #0
 8005678:	f04f 0300 	mov.w	r3, #0
 800567c:	e9d7 ab0c 	ldrd	sl, fp, [r7, #48]	@ 0x30
 8005680:	4659      	mov	r1, fp
 8005682:	00cb      	lsls	r3, r1, #3
 8005684:	4651      	mov	r1, sl
 8005686:	ea43 7351 	orr.w	r3, r3, r1, lsr #29
 800568a:	4651      	mov	r1, sl
 800568c:	00ca      	lsls	r2, r1, #3
 800568e:	4610      	mov	r0, r2
 8005690:	4619      	mov	r1, r3
 8005692:	4603      	mov	r3, r0
 8005694:	4642      	mov	r2, r8
 8005696:	189b      	adds	r3, r3, r2
 8005698:	f8c7 30b0 	str.w	r3, [r7, #176]	@ 0xb0
 800569c:	464b      	mov	r3, r9
 800569e:	460a      	mov	r2, r1
 80056a0:	eb42 0303 	adc.w	r3, r2, r3
 80056a4:	f8c7 30b4 	str.w	r3, [r7, #180]	@ 0xb4
 80056a8:	f8d7 30f4 	ldr.w	r3, [r7, #244]	@ 0xf4
 80056ac:	685b      	ldr	r3, [r3, #4]
 80056ae:	2200      	movs	r2, #0
 80056b0:	f8c7 30a8 	str.w	r3, [r7, #168]	@ 0xa8
 80056b4:	f8c7 20ac 	str.w	r2, [r7, #172]	@ 0xac
 80056b8:	e9d7 122a 	ldrd	r1, r2, [r7, #168]	@ 0xa8
 80056bc:	460b      	mov	r3, r1
 80056be:	18db      	adds	r3, r3, r3
 80056c0:	62bb      	str	r3, [r7, #40]	@ 0x28
 80056c2:	4613      	mov	r3, r2
 80056c4:	eb42 0303 	adc.w	r3, r2, r3
 80056c8:	62fb      	str	r3, [r7, #44]	@ 0x2c
 80056ca:	e9d7 230a 	ldrd	r2, r3, [r7, #40]	@ 0x28
 80056ce:	e9d7 012c 	ldrd	r0, r1, [r7, #176]	@ 0xb0
 80056d2:	f7fb fae1 	bl	8000c98 <__aeabi_uldivmod>
 80056d6:	4602      	mov	r2, r0
 80056d8:	460b      	mov	r3, r1
 80056da:	4b0d      	ldr	r3, [pc, #52]	@ (8005710 <UART_SetConfig+0x2d4>)
 80056dc:	fba3 1302 	umull	r1, r3, r3, r2
 80056e0:	095b      	lsrs	r3, r3, #5
 80056e2:	2164      	movs	r1, #100	@ 0x64
 80056e4:	fb01 f303 	mul.w	r3, r1, r3
 80056e8:	1ad3      	subs	r3, r2, r3
 80056ea:	00db      	lsls	r3, r3, #3
 80056ec:	3332      	adds	r3, #50	@ 0x32
 80056ee:	4a08      	ldr	r2, [pc, #32]	@ (8005710 <UART_SetConfig+0x2d4>)
 80056f0:	fba2 2303 	umull	r2, r3, r2, r3
 80056f4:	095b      	lsrs	r3, r3, #5
 80056f6:	f003 0207 	and.w	r2, r3, #7
 80056fa:	f8d7 30f4 	ldr.w	r3, [r7, #244]	@ 0xf4
 80056fe:	681b      	ldr	r3, [r3, #0]
 8005700:	4422      	add	r2, r4
 8005702:	609a      	str	r2, [r3, #8]
  }
  else
  {
    huart->Instance->BRR = UART_BRR_SAMPLING16(pclk, huart->Init.BaudRate);
  }
}
 8005704:	e106      	b.n	8005914 <UART_SetConfig+0x4d8>
 8005706:	bf00      	nop
 8005708:	40011000 	.word	0x40011000
 800570c:	40011400 	.word	0x40011400
 8005710:	51eb851f 	.word	0x51eb851f
    huart->Instance->BRR = UART_BRR_SAMPLING16(pclk, huart->Init.BaudRate);
 8005714:	f8d7 30fc 	ldr.w	r3, [r7, #252]	@ 0xfc
 8005718:	2200      	movs	r2, #0
 800571a:	f8c7 30a0 	str.w	r3, [r7, #160]	@ 0xa0
 800571e:	f8c7 20a4 	str.w	r2, [r7, #164]	@ 0xa4
 8005722:	e9d7 8928 	ldrd	r8, r9, [r7, #160]	@ 0xa0
 8005726:	4642      	mov	r2, r8
 8005728:	464b      	mov	r3, r9
 800572a:	1891      	adds	r1, r2, r2
 800572c:	6239      	str	r1, [r7, #32]
 800572e:	415b      	adcs	r3, r3
 8005730:	627b      	str	r3, [r7, #36]	@ 0x24
 8005732:	e9d7 2308 	ldrd	r2, r3, [r7, #32]
 8005736:	4641      	mov	r1, r8
 8005738:	1854      	adds	r4, r2, r1
 800573a:	4649      	mov	r1, r9
 800573c:	eb43 0501 	adc.w	r5, r3, r1
 8005740:	f04f 0200 	mov.w	r2, #0
 8005744:	f04f 0300 	mov.w	r3, #0
 8005748:	00eb      	lsls	r3, r5, #3
 800574a:	ea43 7354 	orr.w	r3, r3, r4, lsr #29
 800574e:	00e2      	lsls	r2, r4, #3
 8005750:	4614      	mov	r4, r2
 8005752:	461d      	mov	r5, r3
 8005754:	4643      	mov	r3, r8
 8005756:	18e3      	adds	r3, r4, r3
 8005758:	f8c7 3098 	str.w	r3, [r7, #152]	@ 0x98
 800575c:	464b      	mov	r3, r9
 800575e:	eb45 0303 	adc.w	r3, r5, r3
 8005762:	f8c7 309c 	str.w	r3, [r7, #156]	@ 0x9c
 8005766:	f8d7 30f4 	ldr.w	r3, [r7, #244]	@ 0xf4
 800576a:	685b      	ldr	r3, [r3, #4]
 800576c:	2200      	movs	r2, #0
 800576e:	f8c7 3090 	str.w	r3, [r7, #144]	@ 0x90
 8005772:	f8c7 2094 	str.w	r2, [r7, #148]	@ 0x94
 8005776:	f04f 0200 	mov.w	r2, #0
 800577a:	f04f 0300 	mov.w	r3, #0
 800577e:	e9d7 4524 	ldrd	r4, r5, [r7, #144]	@ 0x90
 8005782:	4629      	mov	r1, r5
 8005784:	008b      	lsls	r3, r1, #2
 8005786:	4621      	mov	r1, r4
 8005788:	ea43 7391 	orr.w	r3, r3, r1, lsr #30
 800578c:	4621      	mov	r1, r4
 800578e:	008a      	lsls	r2, r1, #2
 8005790:	e9d7 0126 	ldrd	r0, r1, [r7, #152]	@ 0x98
 8005794:	f7fb fa80 	bl	8000c98 <__aeabi_uldivmod>
 8005798:	4602      	mov	r2, r0
 800579a:	460b      	mov	r3, r1
 800579c:	4b60      	ldr	r3, [pc, #384]	@ (8005920 <UART_SetConfig+0x4e4>)
 800579e:	fba3 2302 	umull	r2, r3, r3, r2
 80057a2:	095b      	lsrs	r3, r3, #5
 80057a4:	011c      	lsls	r4, r3, #4
 80057a6:	f8d7 30fc 	ldr.w	r3, [r7, #252]	@ 0xfc
 80057aa:	2200      	movs	r2, #0
 80057ac:	f8c7 3088 	str.w	r3, [r7, #136]	@ 0x88
 80057b0:	f8c7 208c 	str.w	r2, [r7, #140]	@ 0x8c
 80057b4:	e9d7 8922 	ldrd	r8, r9, [r7, #136]	@ 0x88
 80057b8:	4642      	mov	r2, r8
 80057ba:	464b      	mov	r3, r9
 80057bc:	1891      	adds	r1, r2, r2
 80057be:	61b9      	str	r1, [r7, #24]
 80057c0:	415b      	adcs	r3, r3
 80057c2:	61fb      	str	r3, [r7, #28]
 80057c4:	e9d7 2306 	ldrd	r2, r3, [r7, #24]
 80057c8:	4641      	mov	r1, r8
 80057ca:	1851      	adds	r1, r2, r1
 80057cc:	6139      	str	r1, [r7, #16]
 80057ce:	4649      	mov	r1, r9
 80057d0:	414b      	adcs	r3, r1
 80057d2:	617b      	str	r3, [r7, #20]
 80057d4:	f04f 0200 	mov.w	r2, #0
 80057d8:	f04f 0300 	mov.w	r3, #0
 80057dc:	e9d7 ab04 	ldrd	sl, fp, [r7, #16]
 80057e0:	4659      	mov	r1, fp
 80057e2:	00cb      	lsls	r3, r1, #3
 80057e4:	4651      	mov	r1, sl
 80057e6:	ea43 7351 	orr.w	r3, r3, r1, lsr #29
 80057ea:	4651      	mov	r1, sl
 80057ec:	00ca      	lsls	r2, r1, #3
 80057ee:	4610      	mov	r0, r2
 80057f0:	4619      	mov	r1, r3
 80057f2:	4603      	mov	r3, r0
 80057f4:	4642      	mov	r2, r8
 80057f6:	189b      	adds	r3, r3, r2
 80057f8:	f8c7 3080 	str.w	r3, [r7, #128]	@ 0x80
 80057fc:	464b      	mov	r3, r9
 80057fe:	460a      	mov	r2, r1
 8005800:	eb42 0303 	adc.w	r3, r2, r3
 8005804:	f8c7 3084 	str.w	r3, [r7, #132]	@ 0x84
 8005808:	f8d7 30f4 	ldr.w	r3, [r7, #244]	@ 0xf4
 800580c:	685b      	ldr	r3, [r3, #4]
 800580e:	2200      	movs	r2, #0
 8005810:	67bb      	str	r3, [r7, #120]	@ 0x78
 8005812:	67fa      	str	r2, [r7, #124]	@ 0x7c
 8005814:	f04f 0200 	mov.w	r2, #0
 8005818:	f04f 0300 	mov.w	r3, #0
 800581c:	e9d7 891e 	ldrd	r8, r9, [r7, #120]	@ 0x78
 8005820:	4649      	mov	r1, r9
 8005822:	008b      	lsls	r3, r1, #2
 8005824:	4641      	mov	r1, r8
 8005826:	ea43 7391 	orr.w	r3, r3, r1, lsr #30
 800582a:	4641      	mov	r1, r8
 800582c:	008a      	lsls	r2, r1, #2
 800582e:	e9d7 0120 	ldrd	r0, r1, [r7, #128]	@ 0x80
 8005832:	f7fb fa31 	bl	8000c98 <__aeabi_uldivmod>
 8005836:	4602      	mov	r2, r0
 8005838:	460b      	mov	r3, r1
 800583a:	4611      	mov	r1, r2
 800583c:	4b38      	ldr	r3, [pc, #224]	@ (8005920 <UART_SetConfig+0x4e4>)
 800583e:	fba3 2301 	umull	r2, r3, r3, r1
 8005842:	095b      	lsrs	r3, r3, #5
 8005844:	2264      	movs	r2, #100	@ 0x64
 8005846:	fb02 f303 	mul.w	r3, r2, r3
 800584a:	1acb      	subs	r3, r1, r3
 800584c:	011b      	lsls	r3, r3, #4
 800584e:	3332      	adds	r3, #50	@ 0x32
 8005850:	4a33      	ldr	r2, [pc, #204]	@ (8005920 <UART_SetConfig+0x4e4>)
 8005852:	fba2 2303 	umull	r2, r3, r2, r3
 8005856:	095b      	lsrs	r3, r3, #5
 8005858:	f003 03f0 	and.w	r3, r3, #240	@ 0xf0
 800585c:	441c      	add	r4, r3
 800585e:	f8d7 30fc 	ldr.w	r3, [r7, #252]	@ 0xfc
 8005862:	2200      	movs	r2, #0
 8005864:	673b      	str	r3, [r7, #112]	@ 0x70
 8005866:	677a      	str	r2, [r7, #116]	@ 0x74
 8005868:	e9d7 891c 	ldrd	r8, r9, [r7, #112]	@ 0x70
 800586c:	4642      	mov	r2, r8
 800586e:	464b      	mov	r3, r9
 8005870:	1891      	adds	r1, r2, r2
 8005872:	60b9      	str	r1, [r7, #8]
 8005874:	415b      	adcs	r3, r3
 8005876:	60fb      	str	r3, [r7, #12]
 8005878:	e9d7 2302 	ldrd	r2, r3, [r7, #8]
 800587c:	4641      	mov	r1, r8
 800587e:	1851      	adds	r1, r2, r1
 8005880:	6039      	str	r1, [r7, #0]
 8005882:	4649      	mov	r1, r9
 8005884:	414b      	adcs	r3, r1
 8005886:	607b      	str	r3, [r7, #4]
 8005888:	f04f 0200 	mov.w	r2, #0
 800588c:	f04f 0300 	mov.w	r3, #0
 8005890:	e9d7 ab00 	ldrd	sl, fp, [r7]
 8005894:	4659      	mov	r1, fp
 8005896:	00cb      	lsls	r3, r1, #3
 8005898:	4651      	mov	r1, sl
 800589a:	ea43 7351 	orr.w	r3, r3, r1, lsr #29
 800589e:	4651      	mov	r1, sl
 80058a0:	00ca      	lsls	r2, r1, #3
 80058a2:	4610      	mov	r0, r2
 80058a4:	4619      	mov	r1, r3
 80058a6:	4603      	mov	r3, r0
 80058a8:	4642      	mov	r2, r8
 80058aa:	189b      	adds	r3, r3, r2
 80058ac:	66bb      	str	r3, [r7, #104]	@ 0x68
 80058ae:	464b      	mov	r3, r9
 80058b0:	460a      	mov	r2, r1
 80058b2:	eb42 0303 	adc.w	r3, r2, r3
 80058b6:	66fb      	str	r3, [r7, #108]	@ 0x6c
 80058b8:	f8d7 30f4 	ldr.w	r3, [r7, #244]	@ 0xf4
 80058bc:	685b      	ldr	r3, [r3, #4]
 80058be:	2200      	movs	r2, #0
 80058c0:	663b      	str	r3, [r7, #96]	@ 0x60
 80058c2:	667a      	str	r2, [r7, #100]	@ 0x64
 80058c4:	f04f 0200 	mov.w	r2, #0
 80058c8:	f04f 0300 	mov.w	r3, #0
 80058cc:	e9d7 8918 	ldrd	r8, r9, [r7, #96]	@ 0x60
 80058d0:	4649      	mov	r1, r9
 80058d2:	008b      	lsls	r3, r1, #2
 80058d4:	4641      	mov	r1, r8
 80058d6:	ea43 7391 	orr.w	r3, r3, r1, lsr #30
 80058da:	4641      	mov	r1, r8
 80058dc:	008a      	lsls	r2, r1, #2
 80058de:	e9d7 011a 	ldrd	r0, r1, [r7, #104]	@ 0x68
 80058e2:	f7fb f9d9 	bl	8000c98 <__aeabi_uldivmod>
 80058e6:	4602      	mov	r2, r0
 80058e8:	460b      	mov	r3, r1
 80058ea:	4b0d      	ldr	r3, [pc, #52]	@ (8005920 <UART_SetConfig+0x4e4>)
 80058ec:	fba3 1302 	umull	r1, r3, r3, r2
 80058f0:	095b      	lsrs	r3, r3, #5
 80058f2:	2164      	movs	r1, #100	@ 0x64
 80058f4:	fb01 f303 	mul.w	r3, r1, r3
 80058f8:	1ad3      	subs	r3, r2, r3
 80058fa:	011b      	lsls	r3, r3, #4
 80058fc:	3332      	adds	r3, #50	@ 0x32
 80058fe:	4a08      	ldr	r2, [pc, #32]	@ (8005920 <UART_SetConfig+0x4e4>)
 8005900:	fba2 2303 	umull	r2, r3, r2, r3
 8005904:	095b      	lsrs	r3, r3, #5
 8005906:	f003 020f 	and.w	r2, r3, #15
 800590a:	f8d7 30f4 	ldr.w	r3, [r7, #244]	@ 0xf4
 800590e:	681b      	ldr	r3, [r3, #0]
 8005910:	4422      	add	r2, r4
 8005912:	609a      	str	r2, [r3, #8]
}
 8005914:	bf00      	nop
 8005916:	f507 7780 	add.w	r7, r7, #256	@ 0x100
 800591a:	46bd      	mov	sp, r7
 800591c:	e8bd 8fb0 	ldmia.w	sp!, {r4, r5, r7, r8, r9, sl, fp, pc}
 8005920:	51eb851f 	.word	0x51eb851f

08005924 <sqrtf>:
 8005924:	b508      	push	{r3, lr}
 8005926:	ed2d 8b02 	vpush	{d8}
 800592a:	eeb0 8a40 	vmov.f32	s16, s0
 800592e:	f000 f817 	bl	8005960 <__ieee754_sqrtf>
 8005932:	eeb4 8a48 	vcmp.f32	s16, s16
 8005936:	eef1 fa10 	vmrs	APSR_nzcv, fpscr
 800593a:	d60c      	bvs.n	8005956 <sqrtf+0x32>
 800593c:	eddf 8a07 	vldr	s17, [pc, #28]	@ 800595c <sqrtf+0x38>
 8005940:	eeb4 8ae8 	vcmpe.f32	s16, s17
 8005944:	eef1 fa10 	vmrs	APSR_nzcv, fpscr
 8005948:	d505      	bpl.n	8005956 <sqrtf+0x32>
 800594a:	f001 fd8d 	bl	8007468 <__errno>
 800594e:	ee88 0aa8 	vdiv.f32	s0, s17, s17
 8005952:	2321      	movs	r3, #33	@ 0x21
 8005954:	6003      	str	r3, [r0, #0]
 8005956:	ecbd 8b02 	vpop	{d8}
 800595a:	bd08      	pop	{r3, pc}
 800595c:	00000000 	.word	0x00000000

08005960 <__ieee754_sqrtf>:
 8005960:	eeb1 0ac0 	vsqrt.f32	s0, s0
 8005964:	4770      	bx	lr

08005966 <atof>:
 8005966:	2100      	movs	r1, #0
 8005968:	f000 be06 	b.w	8006578 <strtod>

0800596c <atoi>:
 800596c:	220a      	movs	r2, #10
 800596e:	2100      	movs	r1, #0
 8005970:	f000 be88 	b.w	8006684 <strtol>

08005974 <sulp>:
 8005974:	b570      	push	{r4, r5, r6, lr}
 8005976:	4604      	mov	r4, r0
 8005978:	460d      	mov	r5, r1
 800597a:	ec45 4b10 	vmov	d0, r4, r5
 800597e:	4616      	mov	r6, r2
 8005980:	f003 fbc6 	bl	8009110 <__ulp>
 8005984:	ec51 0b10 	vmov	r0, r1, d0
 8005988:	b17e      	cbz	r6, 80059aa <sulp+0x36>
 800598a:	f3c5 530a 	ubfx	r3, r5, #20, #11
 800598e:	f1c3 036b 	rsb	r3, r3, #107	@ 0x6b
 8005992:	2b00      	cmp	r3, #0
 8005994:	dd09      	ble.n	80059aa <sulp+0x36>
 8005996:	051b      	lsls	r3, r3, #20
 8005998:	f103 557f 	add.w	r5, r3, #1069547520	@ 0x3fc00000
 800599c:	2400      	movs	r4, #0
 800599e:	f505 1540 	add.w	r5, r5, #3145728	@ 0x300000
 80059a2:	4622      	mov	r2, r4
 80059a4:	462b      	mov	r3, r5
 80059a6:	f7fa fe2f 	bl	8000608 <__aeabi_dmul>
 80059aa:	ec41 0b10 	vmov	d0, r0, r1
 80059ae:	bd70      	pop	{r4, r5, r6, pc}

080059b0 <_strtod_l>:
 80059b0:	e92d 4ff0 	stmdb	sp!, {r4, r5, r6, r7, r8, r9, sl, fp, lr}
 80059b4:	b09f      	sub	sp, #124	@ 0x7c
 80059b6:	460c      	mov	r4, r1
 80059b8:	9217      	str	r2, [sp, #92]	@ 0x5c
 80059ba:	2200      	movs	r2, #0
 80059bc:	921a      	str	r2, [sp, #104]	@ 0x68
 80059be:	9005      	str	r0, [sp, #20]
 80059c0:	f04f 0a00 	mov.w	sl, #0
 80059c4:	f04f 0b00 	mov.w	fp, #0
 80059c8:	460a      	mov	r2, r1
 80059ca:	9219      	str	r2, [sp, #100]	@ 0x64
 80059cc:	7811      	ldrb	r1, [r2, #0]
 80059ce:	292b      	cmp	r1, #43	@ 0x2b
 80059d0:	d04a      	beq.n	8005a68 <_strtod_l+0xb8>
 80059d2:	d838      	bhi.n	8005a46 <_strtod_l+0x96>
 80059d4:	290d      	cmp	r1, #13
 80059d6:	d832      	bhi.n	8005a3e <_strtod_l+0x8e>
 80059d8:	2908      	cmp	r1, #8
 80059da:	d832      	bhi.n	8005a42 <_strtod_l+0x92>
 80059dc:	2900      	cmp	r1, #0
 80059de:	d03b      	beq.n	8005a58 <_strtod_l+0xa8>
 80059e0:	2200      	movs	r2, #0
 80059e2:	920e      	str	r2, [sp, #56]	@ 0x38
 80059e4:	9d19      	ldr	r5, [sp, #100]	@ 0x64
 80059e6:	782a      	ldrb	r2, [r5, #0]
 80059e8:	2a30      	cmp	r2, #48	@ 0x30
 80059ea:	f040 80b2 	bne.w	8005b52 <_strtod_l+0x1a2>
 80059ee:	786a      	ldrb	r2, [r5, #1]
 80059f0:	f002 02df 	and.w	r2, r2, #223	@ 0xdf
 80059f4:	2a58      	cmp	r2, #88	@ 0x58
 80059f6:	d16e      	bne.n	8005ad6 <_strtod_l+0x126>
 80059f8:	9302      	str	r3, [sp, #8]
 80059fa:	9b0e      	ldr	r3, [sp, #56]	@ 0x38
 80059fc:	9301      	str	r3, [sp, #4]
 80059fe:	ab1a      	add	r3, sp, #104	@ 0x68
 8005a00:	9300      	str	r3, [sp, #0]
 8005a02:	4a8f      	ldr	r2, [pc, #572]	@ (8005c40 <_strtod_l+0x290>)
 8005a04:	9805      	ldr	r0, [sp, #20]
 8005a06:	ab1b      	add	r3, sp, #108	@ 0x6c
 8005a08:	a919      	add	r1, sp, #100	@ 0x64
 8005a0a:	f002 fc7b 	bl	8008304 <__gethex>
 8005a0e:	f010 060f 	ands.w	r6, r0, #15
 8005a12:	4604      	mov	r4, r0
 8005a14:	d005      	beq.n	8005a22 <_strtod_l+0x72>
 8005a16:	2e06      	cmp	r6, #6
 8005a18:	d128      	bne.n	8005a6c <_strtod_l+0xbc>
 8005a1a:	3501      	adds	r5, #1
 8005a1c:	2300      	movs	r3, #0
 8005a1e:	9519      	str	r5, [sp, #100]	@ 0x64
 8005a20:	930e      	str	r3, [sp, #56]	@ 0x38
 8005a22:	9b17      	ldr	r3, [sp, #92]	@ 0x5c
 8005a24:	2b00      	cmp	r3, #0
 8005a26:	f040 858e 	bne.w	8006546 <_strtod_l+0xb96>
 8005a2a:	9b0e      	ldr	r3, [sp, #56]	@ 0x38
 8005a2c:	b1cb      	cbz	r3, 8005a62 <_strtod_l+0xb2>
 8005a2e:	4652      	mov	r2, sl
 8005a30:	f10b 4300 	add.w	r3, fp, #2147483648	@ 0x80000000
 8005a34:	ec43 2b10 	vmov	d0, r2, r3
 8005a38:	b01f      	add	sp, #124	@ 0x7c
 8005a3a:	e8bd 8ff0 	ldmia.w	sp!, {r4, r5, r6, r7, r8, r9, sl, fp, pc}
 8005a3e:	2920      	cmp	r1, #32
 8005a40:	d1ce      	bne.n	80059e0 <_strtod_l+0x30>
 8005a42:	3201      	adds	r2, #1
 8005a44:	e7c1      	b.n	80059ca <_strtod_l+0x1a>
 8005a46:	292d      	cmp	r1, #45	@ 0x2d
 8005a48:	d1ca      	bne.n	80059e0 <_strtod_l+0x30>
 8005a4a:	2101      	movs	r1, #1
 8005a4c:	910e      	str	r1, [sp, #56]	@ 0x38
 8005a4e:	1c51      	adds	r1, r2, #1
 8005a50:	9119      	str	r1, [sp, #100]	@ 0x64
 8005a52:	7852      	ldrb	r2, [r2, #1]
 8005a54:	2a00      	cmp	r2, #0
 8005a56:	d1c5      	bne.n	80059e4 <_strtod_l+0x34>
 8005a58:	9b17      	ldr	r3, [sp, #92]	@ 0x5c
 8005a5a:	9419      	str	r4, [sp, #100]	@ 0x64
 8005a5c:	2b00      	cmp	r3, #0
 8005a5e:	f040 8570 	bne.w	8006542 <_strtod_l+0xb92>
 8005a62:	4652      	mov	r2, sl
 8005a64:	465b      	mov	r3, fp
 8005a66:	e7e5      	b.n	8005a34 <_strtod_l+0x84>
 8005a68:	2100      	movs	r1, #0
 8005a6a:	e7ef      	b.n	8005a4c <_strtod_l+0x9c>
 8005a6c:	9a1a      	ldr	r2, [sp, #104]	@ 0x68
 8005a6e:	b13a      	cbz	r2, 8005a80 <_strtod_l+0xd0>
 8005a70:	2135      	movs	r1, #53	@ 0x35
 8005a72:	a81c      	add	r0, sp, #112	@ 0x70
 8005a74:	f003 fc46 	bl	8009304 <__copybits>
 8005a78:	991a      	ldr	r1, [sp, #104]	@ 0x68
 8005a7a:	9805      	ldr	r0, [sp, #20]
 8005a7c:	f003 f81c 	bl	8008ab8 <_Bfree>
 8005a80:	3e01      	subs	r6, #1
 8005a82:	9a1b      	ldr	r2, [sp, #108]	@ 0x6c
 8005a84:	2e04      	cmp	r6, #4
 8005a86:	d806      	bhi.n	8005a96 <_strtod_l+0xe6>
 8005a88:	e8df f006 	tbb	[pc, r6]
 8005a8c:	201d0314 	.word	0x201d0314
 8005a90:	14          	.byte	0x14
 8005a91:	00          	.byte	0x00
 8005a92:	e9dd ab1c 	ldrd	sl, fp, [sp, #112]	@ 0x70
 8005a96:	05e1      	lsls	r1, r4, #23
 8005a98:	bf48      	it	mi
 8005a9a:	f04b 4b00 	orrmi.w	fp, fp, #2147483648	@ 0x80000000
 8005a9e:	f02b 4300 	bic.w	r3, fp, #2147483648	@ 0x80000000
 8005aa2:	0d1b      	lsrs	r3, r3, #20
 8005aa4:	051b      	lsls	r3, r3, #20
 8005aa6:	2b00      	cmp	r3, #0
 8005aa8:	d1bb      	bne.n	8005a22 <_strtod_l+0x72>
 8005aaa:	f001 fcdd 	bl	8007468 <__errno>
 8005aae:	2322      	movs	r3, #34	@ 0x22
 8005ab0:	6003      	str	r3, [r0, #0]
 8005ab2:	e7b6      	b.n	8005a22 <_strtod_l+0x72>
 8005ab4:	e9dd a31c 	ldrd	sl, r3, [sp, #112]	@ 0x70
 8005ab8:	f202 4233 	addw	r2, r2, #1075	@ 0x433
 8005abc:	f423 1380 	bic.w	r3, r3, #1048576	@ 0x100000
 8005ac0:	ea43 5b02 	orr.w	fp, r3, r2, lsl #20
 8005ac4:	e7e7      	b.n	8005a96 <_strtod_l+0xe6>
 8005ac6:	f8df b180 	ldr.w	fp, [pc, #384]	@ 8005c48 <_strtod_l+0x298>
 8005aca:	e7e4      	b.n	8005a96 <_strtod_l+0xe6>
 8005acc:	f06f 4b00 	mvn.w	fp, #2147483648	@ 0x80000000
 8005ad0:	f04f 3aff 	mov.w	sl, #4294967295
 8005ad4:	e7df      	b.n	8005a96 <_strtod_l+0xe6>
 8005ad6:	9b19      	ldr	r3, [sp, #100]	@ 0x64
 8005ad8:	1c5a      	adds	r2, r3, #1
 8005ada:	9219      	str	r2, [sp, #100]	@ 0x64
 8005adc:	785b      	ldrb	r3, [r3, #1]
 8005ade:	2b30      	cmp	r3, #48	@ 0x30
 8005ae0:	d0f9      	beq.n	8005ad6 <_strtod_l+0x126>
 8005ae2:	2b00      	cmp	r3, #0
 8005ae4:	d09d      	beq.n	8005a22 <_strtod_l+0x72>
 8005ae6:	2301      	movs	r3, #1
 8005ae8:	2700      	movs	r7, #0
 8005aea:	9308      	str	r3, [sp, #32]
 8005aec:	9b19      	ldr	r3, [sp, #100]	@ 0x64
 8005aee:	930c      	str	r3, [sp, #48]	@ 0x30
 8005af0:	970b      	str	r7, [sp, #44]	@ 0x2c
 8005af2:	46b9      	mov	r9, r7
 8005af4:	220a      	movs	r2, #10
 8005af6:	9819      	ldr	r0, [sp, #100]	@ 0x64
 8005af8:	7805      	ldrb	r5, [r0, #0]
 8005afa:	f1a5 0330 	sub.w	r3, r5, #48	@ 0x30
 8005afe:	b2d9      	uxtb	r1, r3
 8005b00:	2909      	cmp	r1, #9
 8005b02:	d928      	bls.n	8005b56 <_strtod_l+0x1a6>
 8005b04:	494f      	ldr	r1, [pc, #316]	@ (8005c44 <_strtod_l+0x294>)
 8005b06:	2201      	movs	r2, #1
 8005b08:	f001 fc3b 	bl	8007382 <strncmp>
 8005b0c:	2800      	cmp	r0, #0
 8005b0e:	d032      	beq.n	8005b76 <_strtod_l+0x1c6>
 8005b10:	2000      	movs	r0, #0
 8005b12:	462a      	mov	r2, r5
 8005b14:	900a      	str	r0, [sp, #40]	@ 0x28
 8005b16:	464d      	mov	r5, r9
 8005b18:	4603      	mov	r3, r0
 8005b1a:	2a65      	cmp	r2, #101	@ 0x65
 8005b1c:	d001      	beq.n	8005b22 <_strtod_l+0x172>
 8005b1e:	2a45      	cmp	r2, #69	@ 0x45
 8005b20:	d114      	bne.n	8005b4c <_strtod_l+0x19c>
 8005b22:	b91d      	cbnz	r5, 8005b2c <_strtod_l+0x17c>
 8005b24:	9a08      	ldr	r2, [sp, #32]
 8005b26:	4302      	orrs	r2, r0
 8005b28:	d096      	beq.n	8005a58 <_strtod_l+0xa8>
 8005b2a:	2500      	movs	r5, #0
 8005b2c:	9c19      	ldr	r4, [sp, #100]	@ 0x64
 8005b2e:	1c62      	adds	r2, r4, #1
 8005b30:	9219      	str	r2, [sp, #100]	@ 0x64
 8005b32:	7862      	ldrb	r2, [r4, #1]
 8005b34:	2a2b      	cmp	r2, #43	@ 0x2b
 8005b36:	d07a      	beq.n	8005c2e <_strtod_l+0x27e>
 8005b38:	2a2d      	cmp	r2, #45	@ 0x2d
 8005b3a:	d07e      	beq.n	8005c3a <_strtod_l+0x28a>
 8005b3c:	f04f 0c00 	mov.w	ip, #0
 8005b40:	f1a2 0130 	sub.w	r1, r2, #48	@ 0x30
 8005b44:	2909      	cmp	r1, #9
 8005b46:	f240 8085 	bls.w	8005c54 <_strtod_l+0x2a4>
 8005b4a:	9419      	str	r4, [sp, #100]	@ 0x64
 8005b4c:	f04f 0800 	mov.w	r8, #0
 8005b50:	e0a5      	b.n	8005c9e <_strtod_l+0x2ee>
 8005b52:	2300      	movs	r3, #0
 8005b54:	e7c8      	b.n	8005ae8 <_strtod_l+0x138>
 8005b56:	f1b9 0f08 	cmp.w	r9, #8
 8005b5a:	bfd8      	it	le
 8005b5c:	990b      	ldrle	r1, [sp, #44]	@ 0x2c
 8005b5e:	f100 0001 	add.w	r0, r0, #1
 8005b62:	bfda      	itte	le
 8005b64:	fb02 3301 	mlale	r3, r2, r1, r3
 8005b68:	930b      	strle	r3, [sp, #44]	@ 0x2c
 8005b6a:	fb02 3707 	mlagt	r7, r2, r7, r3
 8005b6e:	f109 0901 	add.w	r9, r9, #1
 8005b72:	9019      	str	r0, [sp, #100]	@ 0x64
 8005b74:	e7bf      	b.n	8005af6 <_strtod_l+0x146>
 8005b76:	9b19      	ldr	r3, [sp, #100]	@ 0x64
 8005b78:	1c5a      	adds	r2, r3, #1
 8005b7a:	9219      	str	r2, [sp, #100]	@ 0x64
 8005b7c:	785a      	ldrb	r2, [r3, #1]
 8005b7e:	f1b9 0f00 	cmp.w	r9, #0
 8005b82:	d03b      	beq.n	8005bfc <_strtod_l+0x24c>
 8005b84:	900a      	str	r0, [sp, #40]	@ 0x28
 8005b86:	464d      	mov	r5, r9
 8005b88:	f1a2 0330 	sub.w	r3, r2, #48	@ 0x30
 8005b8c:	2b09      	cmp	r3, #9
 8005b8e:	d912      	bls.n	8005bb6 <_strtod_l+0x206>
 8005b90:	2301      	movs	r3, #1
 8005b92:	e7c2      	b.n	8005b1a <_strtod_l+0x16a>
 8005b94:	9b19      	ldr	r3, [sp, #100]	@ 0x64
 8005b96:	1c5a      	adds	r2, r3, #1
 8005b98:	9219      	str	r2, [sp, #100]	@ 0x64
 8005b9a:	785a      	ldrb	r2, [r3, #1]
 8005b9c:	3001      	adds	r0, #1
 8005b9e:	2a30      	cmp	r2, #48	@ 0x30
 8005ba0:	d0f8      	beq.n	8005b94 <_strtod_l+0x1e4>
 8005ba2:	f1a2 0331 	sub.w	r3, r2, #49	@ 0x31
 8005ba6:	2b08      	cmp	r3, #8
 8005ba8:	f200 84d2 	bhi.w	8006550 <_strtod_l+0xba0>
 8005bac:	9b19      	ldr	r3, [sp, #100]	@ 0x64
 8005bae:	900a      	str	r0, [sp, #40]	@ 0x28
 8005bb0:	2000      	movs	r0, #0
 8005bb2:	930c      	str	r3, [sp, #48]	@ 0x30
 8005bb4:	4605      	mov	r5, r0
 8005bb6:	3a30      	subs	r2, #48	@ 0x30
 8005bb8:	f100 0301 	add.w	r3, r0, #1
 8005bbc:	d018      	beq.n	8005bf0 <_strtod_l+0x240>
 8005bbe:	990a      	ldr	r1, [sp, #40]	@ 0x28
 8005bc0:	4419      	add	r1, r3
 8005bc2:	910a      	str	r1, [sp, #40]	@ 0x28
 8005bc4:	462e      	mov	r6, r5
 8005bc6:	f04f 0e0a 	mov.w	lr, #10
 8005bca:	1c71      	adds	r1, r6, #1
 8005bcc:	eba1 0c05 	sub.w	ip, r1, r5
 8005bd0:	4563      	cmp	r3, ip
 8005bd2:	dc15      	bgt.n	8005c00 <_strtod_l+0x250>
 8005bd4:	ea20 70e0 	bic.w	r0, r0, r0, asr #31
 8005bd8:	182b      	adds	r3, r5, r0
 8005bda:	2b08      	cmp	r3, #8
 8005bdc:	f105 0501 	add.w	r5, r5, #1
 8005be0:	4405      	add	r5, r0
 8005be2:	dc1a      	bgt.n	8005c1a <_strtod_l+0x26a>
 8005be4:	990b      	ldr	r1, [sp, #44]	@ 0x2c
 8005be6:	230a      	movs	r3, #10
 8005be8:	fb03 2301 	mla	r3, r3, r1, r2
 8005bec:	930b      	str	r3, [sp, #44]	@ 0x2c
 8005bee:	2300      	movs	r3, #0
 8005bf0:	9a19      	ldr	r2, [sp, #100]	@ 0x64
 8005bf2:	1c51      	adds	r1, r2, #1
 8005bf4:	9119      	str	r1, [sp, #100]	@ 0x64
 8005bf6:	7852      	ldrb	r2, [r2, #1]
 8005bf8:	4618      	mov	r0, r3
 8005bfa:	e7c5      	b.n	8005b88 <_strtod_l+0x1d8>
 8005bfc:	4648      	mov	r0, r9
 8005bfe:	e7ce      	b.n	8005b9e <_strtod_l+0x1ee>
 8005c00:	2e08      	cmp	r6, #8
 8005c02:	dc05      	bgt.n	8005c10 <_strtod_l+0x260>
 8005c04:	9e0b      	ldr	r6, [sp, #44]	@ 0x2c
 8005c06:	fb0e f606 	mul.w	r6, lr, r6
 8005c0a:	960b      	str	r6, [sp, #44]	@ 0x2c
 8005c0c:	460e      	mov	r6, r1
 8005c0e:	e7dc      	b.n	8005bca <_strtod_l+0x21a>
 8005c10:	2910      	cmp	r1, #16
 8005c12:	bfd8      	it	le
 8005c14:	fb0e f707 	mulle.w	r7, lr, r7
 8005c18:	e7f8      	b.n	8005c0c <_strtod_l+0x25c>
 8005c1a:	2b0f      	cmp	r3, #15
 8005c1c:	bfdc      	itt	le
 8005c1e:	230a      	movle	r3, #10
 8005c20:	fb03 2707 	mlale	r7, r3, r7, r2
 8005c24:	e7e3      	b.n	8005bee <_strtod_l+0x23e>
 8005c26:	2300      	movs	r3, #0
 8005c28:	930a      	str	r3, [sp, #40]	@ 0x28
 8005c2a:	2301      	movs	r3, #1
 8005c2c:	e77a      	b.n	8005b24 <_strtod_l+0x174>
 8005c2e:	f04f 0c00 	mov.w	ip, #0
 8005c32:	1ca2      	adds	r2, r4, #2
 8005c34:	9219      	str	r2, [sp, #100]	@ 0x64
 8005c36:	78a2      	ldrb	r2, [r4, #2]
 8005c38:	e782      	b.n	8005b40 <_strtod_l+0x190>
 8005c3a:	f04f 0c01 	mov.w	ip, #1
 8005c3e:	e7f8      	b.n	8005c32 <_strtod_l+0x282>
 8005c40:	08009c94 	.word	0x08009c94
 8005c44:	08009aac 	.word	0x08009aac
 8005c48:	7ff00000 	.word	0x7ff00000
 8005c4c:	9a19      	ldr	r2, [sp, #100]	@ 0x64
 8005c4e:	1c51      	adds	r1, r2, #1
 8005c50:	9119      	str	r1, [sp, #100]	@ 0x64
 8005c52:	7852      	ldrb	r2, [r2, #1]
 8005c54:	2a30      	cmp	r2, #48	@ 0x30
 8005c56:	d0f9      	beq.n	8005c4c <_strtod_l+0x29c>
 8005c58:	f1a2 0131 	sub.w	r1, r2, #49	@ 0x31
 8005c5c:	2908      	cmp	r1, #8
 8005c5e:	f63f af75 	bhi.w	8005b4c <_strtod_l+0x19c>
 8005c62:	3a30      	subs	r2, #48	@ 0x30
 8005c64:	9209      	str	r2, [sp, #36]	@ 0x24
 8005c66:	9a19      	ldr	r2, [sp, #100]	@ 0x64
 8005c68:	920f      	str	r2, [sp, #60]	@ 0x3c
 8005c6a:	f04f 080a 	mov.w	r8, #10
 8005c6e:	9a19      	ldr	r2, [sp, #100]	@ 0x64
 8005c70:	1c56      	adds	r6, r2, #1
 8005c72:	9619      	str	r6, [sp, #100]	@ 0x64
 8005c74:	7852      	ldrb	r2, [r2, #1]
 8005c76:	f1a2 0e30 	sub.w	lr, r2, #48	@ 0x30
 8005c7a:	f1be 0f09 	cmp.w	lr, #9
 8005c7e:	d939      	bls.n	8005cf4 <_strtod_l+0x344>
 8005c80:	990f      	ldr	r1, [sp, #60]	@ 0x3c
 8005c82:	1a76      	subs	r6, r6, r1
 8005c84:	2e08      	cmp	r6, #8
 8005c86:	f644 681f 	movw	r8, #19999	@ 0x4e1f
 8005c8a:	dc03      	bgt.n	8005c94 <_strtod_l+0x2e4>
 8005c8c:	9909      	ldr	r1, [sp, #36]	@ 0x24
 8005c8e:	4588      	cmp	r8, r1
 8005c90:	bfa8      	it	ge
 8005c92:	4688      	movge	r8, r1
 8005c94:	f1bc 0f00 	cmp.w	ip, #0
 8005c98:	d001      	beq.n	8005c9e <_strtod_l+0x2ee>
 8005c9a:	f1c8 0800 	rsb	r8, r8, #0
 8005c9e:	2d00      	cmp	r5, #0
 8005ca0:	d14e      	bne.n	8005d40 <_strtod_l+0x390>
 8005ca2:	9908      	ldr	r1, [sp, #32]
 8005ca4:	4308      	orrs	r0, r1
 8005ca6:	f47f aebc 	bne.w	8005a22 <_strtod_l+0x72>
 8005caa:	2b00      	cmp	r3, #0
 8005cac:	f47f aed4 	bne.w	8005a58 <_strtod_l+0xa8>
 8005cb0:	2a69      	cmp	r2, #105	@ 0x69
 8005cb2:	d028      	beq.n	8005d06 <_strtod_l+0x356>
 8005cb4:	dc25      	bgt.n	8005d02 <_strtod_l+0x352>
 8005cb6:	2a49      	cmp	r2, #73	@ 0x49
 8005cb8:	d025      	beq.n	8005d06 <_strtod_l+0x356>
 8005cba:	2a4e      	cmp	r2, #78	@ 0x4e
 8005cbc:	f47f aecc 	bne.w	8005a58 <_strtod_l+0xa8>
 8005cc0:	499a      	ldr	r1, [pc, #616]	@ (8005f2c <_strtod_l+0x57c>)
 8005cc2:	a819      	add	r0, sp, #100	@ 0x64
 8005cc4:	f002 fd40 	bl	8008748 <__match>
 8005cc8:	2800      	cmp	r0, #0
 8005cca:	f43f aec5 	beq.w	8005a58 <_strtod_l+0xa8>
 8005cce:	9b19      	ldr	r3, [sp, #100]	@ 0x64
 8005cd0:	781b      	ldrb	r3, [r3, #0]
 8005cd2:	2b28      	cmp	r3, #40	@ 0x28
 8005cd4:	d12e      	bne.n	8005d34 <_strtod_l+0x384>
 8005cd6:	4996      	ldr	r1, [pc, #600]	@ (8005f30 <_strtod_l+0x580>)
 8005cd8:	aa1c      	add	r2, sp, #112	@ 0x70
 8005cda:	a819      	add	r0, sp, #100	@ 0x64
 8005cdc:	f002 fd48 	bl	8008770 <__hexnan>
 8005ce0:	2805      	cmp	r0, #5
 8005ce2:	d127      	bne.n	8005d34 <_strtod_l+0x384>
 8005ce4:	9b1d      	ldr	r3, [sp, #116]	@ 0x74
 8005ce6:	f8dd a070 	ldr.w	sl, [sp, #112]	@ 0x70
 8005cea:	f043 4bff 	orr.w	fp, r3, #2139095040	@ 0x7f800000
 8005cee:	f44b 0be0 	orr.w	fp, fp, #7340032	@ 0x700000
 8005cf2:	e696      	b.n	8005a22 <_strtod_l+0x72>
 8005cf4:	9909      	ldr	r1, [sp, #36]	@ 0x24
 8005cf6:	fb08 2101 	mla	r1, r8, r1, r2
 8005cfa:	f1a1 0230 	sub.w	r2, r1, #48	@ 0x30
 8005cfe:	9209      	str	r2, [sp, #36]	@ 0x24
 8005d00:	e7b5      	b.n	8005c6e <_strtod_l+0x2be>
 8005d02:	2a6e      	cmp	r2, #110	@ 0x6e
 8005d04:	e7da      	b.n	8005cbc <_strtod_l+0x30c>
 8005d06:	498b      	ldr	r1, [pc, #556]	@ (8005f34 <_strtod_l+0x584>)
 8005d08:	a819      	add	r0, sp, #100	@ 0x64
 8005d0a:	f002 fd1d 	bl	8008748 <__match>
 8005d0e:	2800      	cmp	r0, #0
 8005d10:	f43f aea2 	beq.w	8005a58 <_strtod_l+0xa8>
 8005d14:	9b19      	ldr	r3, [sp, #100]	@ 0x64
 8005d16:	4988      	ldr	r1, [pc, #544]	@ (8005f38 <_strtod_l+0x588>)
 8005d18:	3b01      	subs	r3, #1
 8005d1a:	a819      	add	r0, sp, #100	@ 0x64
 8005d1c:	9319      	str	r3, [sp, #100]	@ 0x64
 8005d1e:	f002 fd13 	bl	8008748 <__match>
 8005d22:	b910      	cbnz	r0, 8005d2a <_strtod_l+0x37a>
 8005d24:	9b19      	ldr	r3, [sp, #100]	@ 0x64
 8005d26:	3301      	adds	r3, #1
 8005d28:	9319      	str	r3, [sp, #100]	@ 0x64
 8005d2a:	f8df b21c 	ldr.w	fp, [pc, #540]	@ 8005f48 <_strtod_l+0x598>
 8005d2e:	f04f 0a00 	mov.w	sl, #0
 8005d32:	e676      	b.n	8005a22 <_strtod_l+0x72>
 8005d34:	4881      	ldr	r0, [pc, #516]	@ (8005f3c <_strtod_l+0x58c>)
 8005d36:	f001 fbd3 	bl	80074e0 <nan>
 8005d3a:	ec5b ab10 	vmov	sl, fp, d0
 8005d3e:	e670      	b.n	8005a22 <_strtod_l+0x72>
 8005d40:	9b0a      	ldr	r3, [sp, #40]	@ 0x28
 8005d42:	980b      	ldr	r0, [sp, #44]	@ 0x2c
 8005d44:	eba8 0303 	sub.w	r3, r8, r3
 8005d48:	f1b9 0f00 	cmp.w	r9, #0
 8005d4c:	bf08      	it	eq
 8005d4e:	46a9      	moveq	r9, r5
 8005d50:	2d10      	cmp	r5, #16
 8005d52:	9309      	str	r3, [sp, #36]	@ 0x24
 8005d54:	462c      	mov	r4, r5
 8005d56:	bfa8      	it	ge
 8005d58:	2410      	movge	r4, #16
 8005d5a:	f7fa fbdb 	bl	8000514 <__aeabi_ui2d>
 8005d5e:	2d09      	cmp	r5, #9
 8005d60:	4682      	mov	sl, r0
 8005d62:	468b      	mov	fp, r1
 8005d64:	dc13      	bgt.n	8005d8e <_strtod_l+0x3de>
 8005d66:	9b09      	ldr	r3, [sp, #36]	@ 0x24
 8005d68:	2b00      	cmp	r3, #0
 8005d6a:	f43f ae5a 	beq.w	8005a22 <_strtod_l+0x72>
 8005d6e:	9b09      	ldr	r3, [sp, #36]	@ 0x24
 8005d70:	dd78      	ble.n	8005e64 <_strtod_l+0x4b4>
 8005d72:	2b16      	cmp	r3, #22
 8005d74:	dc5f      	bgt.n	8005e36 <_strtod_l+0x486>
 8005d76:	4972      	ldr	r1, [pc, #456]	@ (8005f40 <_strtod_l+0x590>)
 8005d78:	eb01 01c3 	add.w	r1, r1, r3, lsl #3
 8005d7c:	e9d1 0100 	ldrd	r0, r1, [r1]
 8005d80:	4652      	mov	r2, sl
 8005d82:	465b      	mov	r3, fp
 8005d84:	f7fa fc40 	bl	8000608 <__aeabi_dmul>
 8005d88:	4682      	mov	sl, r0
 8005d8a:	468b      	mov	fp, r1
 8005d8c:	e649      	b.n	8005a22 <_strtod_l+0x72>
 8005d8e:	4b6c      	ldr	r3, [pc, #432]	@ (8005f40 <_strtod_l+0x590>)
 8005d90:	eb03 03c4 	add.w	r3, r3, r4, lsl #3
 8005d94:	e953 2312 	ldrd	r2, r3, [r3, #-72]	@ 0x48
 8005d98:	f7fa fc36 	bl	8000608 <__aeabi_dmul>
 8005d9c:	4682      	mov	sl, r0
 8005d9e:	4638      	mov	r0, r7
 8005da0:	468b      	mov	fp, r1
 8005da2:	f7fa fbb7 	bl	8000514 <__aeabi_ui2d>
 8005da6:	4602      	mov	r2, r0
 8005da8:	460b      	mov	r3, r1
 8005daa:	4650      	mov	r0, sl
 8005dac:	4659      	mov	r1, fp
 8005dae:	f7fa fa75 	bl	800029c <__adddf3>
 8005db2:	2d0f      	cmp	r5, #15
 8005db4:	4682      	mov	sl, r0
 8005db6:	468b      	mov	fp, r1
 8005db8:	ddd5      	ble.n	8005d66 <_strtod_l+0x3b6>
 8005dba:	9b09      	ldr	r3, [sp, #36]	@ 0x24
 8005dbc:	1b2c      	subs	r4, r5, r4
 8005dbe:	441c      	add	r4, r3
 8005dc0:	2c00      	cmp	r4, #0
 8005dc2:	f340 8093 	ble.w	8005eec <_strtod_l+0x53c>
 8005dc6:	f014 030f 	ands.w	r3, r4, #15
 8005dca:	d00a      	beq.n	8005de2 <_strtod_l+0x432>
 8005dcc:	495c      	ldr	r1, [pc, #368]	@ (8005f40 <_strtod_l+0x590>)
 8005dce:	eb01 01c3 	add.w	r1, r1, r3, lsl #3
 8005dd2:	4652      	mov	r2, sl
 8005dd4:	465b      	mov	r3, fp
 8005dd6:	e9d1 0100 	ldrd	r0, r1, [r1]
 8005dda:	f7fa fc15 	bl	8000608 <__aeabi_dmul>
 8005dde:	4682      	mov	sl, r0
 8005de0:	468b      	mov	fp, r1
 8005de2:	f034 040f 	bics.w	r4, r4, #15
 8005de6:	d073      	beq.n	8005ed0 <_strtod_l+0x520>
 8005de8:	f5b4 7f9a 	cmp.w	r4, #308	@ 0x134
 8005dec:	dd49      	ble.n	8005e82 <_strtod_l+0x4d2>
 8005dee:	2400      	movs	r4, #0
 8005df0:	46a0      	mov	r8, r4
 8005df2:	940b      	str	r4, [sp, #44]	@ 0x2c
 8005df4:	46a1      	mov	r9, r4
 8005df6:	9a05      	ldr	r2, [sp, #20]
 8005df8:	f8df b14c 	ldr.w	fp, [pc, #332]	@ 8005f48 <_strtod_l+0x598>
 8005dfc:	2322      	movs	r3, #34	@ 0x22
 8005dfe:	6013      	str	r3, [r2, #0]
 8005e00:	f04f 0a00 	mov.w	sl, #0
 8005e04:	9b0b      	ldr	r3, [sp, #44]	@ 0x2c
 8005e06:	2b00      	cmp	r3, #0
 8005e08:	f43f ae0b 	beq.w	8005a22 <_strtod_l+0x72>
 8005e0c:	991a      	ldr	r1, [sp, #104]	@ 0x68
 8005e0e:	9805      	ldr	r0, [sp, #20]
 8005e10:	f002 fe52 	bl	8008ab8 <_Bfree>
 8005e14:	9805      	ldr	r0, [sp, #20]
 8005e16:	4649      	mov	r1, r9
 8005e18:	f002 fe4e 	bl	8008ab8 <_Bfree>
 8005e1c:	9805      	ldr	r0, [sp, #20]
 8005e1e:	4641      	mov	r1, r8
 8005e20:	f002 fe4a 	bl	8008ab8 <_Bfree>
 8005e24:	990b      	ldr	r1, [sp, #44]	@ 0x2c
 8005e26:	9805      	ldr	r0, [sp, #20]
 8005e28:	f002 fe46 	bl	8008ab8 <_Bfree>
 8005e2c:	9805      	ldr	r0, [sp, #20]
 8005e2e:	4621      	mov	r1, r4
 8005e30:	f002 fe42 	bl	8008ab8 <_Bfree>
 8005e34:	e5f5      	b.n	8005a22 <_strtod_l+0x72>
 8005e36:	9a09      	ldr	r2, [sp, #36]	@ 0x24
 8005e38:	f1c5 0325 	rsb	r3, r5, #37	@ 0x25
 8005e3c:	4293      	cmp	r3, r2
 8005e3e:	dbbc      	blt.n	8005dba <_strtod_l+0x40a>
 8005e40:	4c3f      	ldr	r4, [pc, #252]	@ (8005f40 <_strtod_l+0x590>)
 8005e42:	f1c5 050f 	rsb	r5, r5, #15
 8005e46:	eb04 01c5 	add.w	r1, r4, r5, lsl #3
 8005e4a:	4652      	mov	r2, sl
 8005e4c:	465b      	mov	r3, fp
 8005e4e:	e9d1 0100 	ldrd	r0, r1, [r1]
 8005e52:	f7fa fbd9 	bl	8000608 <__aeabi_dmul>
 8005e56:	9b09      	ldr	r3, [sp, #36]	@ 0x24
 8005e58:	1b5d      	subs	r5, r3, r5
 8005e5a:	eb04 04c5 	add.w	r4, r4, r5, lsl #3
 8005e5e:	e9d4 2300 	ldrd	r2, r3, [r4]
 8005e62:	e78f      	b.n	8005d84 <_strtod_l+0x3d4>
 8005e64:	3316      	adds	r3, #22
 8005e66:	dba8      	blt.n	8005dba <_strtod_l+0x40a>
 8005e68:	9b0a      	ldr	r3, [sp, #40]	@ 0x28
 8005e6a:	eba3 0808 	sub.w	r8, r3, r8
 8005e6e:	4b34      	ldr	r3, [pc, #208]	@ (8005f40 <_strtod_l+0x590>)
 8005e70:	eb03 08c8 	add.w	r8, r3, r8, lsl #3
 8005e74:	e9d8 2300 	ldrd	r2, r3, [r8]
 8005e78:	4650      	mov	r0, sl
 8005e7a:	4659      	mov	r1, fp
 8005e7c:	f7fa fcee 	bl	800085c <__aeabi_ddiv>
 8005e80:	e782      	b.n	8005d88 <_strtod_l+0x3d8>
 8005e82:	2300      	movs	r3, #0
 8005e84:	4f2f      	ldr	r7, [pc, #188]	@ (8005f44 <_strtod_l+0x594>)
 8005e86:	1124      	asrs	r4, r4, #4
 8005e88:	4650      	mov	r0, sl
 8005e8a:	4659      	mov	r1, fp
 8005e8c:	461e      	mov	r6, r3
 8005e8e:	2c01      	cmp	r4, #1
 8005e90:	dc21      	bgt.n	8005ed6 <_strtod_l+0x526>
 8005e92:	b10b      	cbz	r3, 8005e98 <_strtod_l+0x4e8>
 8005e94:	4682      	mov	sl, r0
 8005e96:	468b      	mov	fp, r1
 8005e98:	492a      	ldr	r1, [pc, #168]	@ (8005f44 <_strtod_l+0x594>)
 8005e9a:	f1ab 7b54 	sub.w	fp, fp, #55574528	@ 0x3500000
 8005e9e:	eb01 01c6 	add.w	r1, r1, r6, lsl #3
 8005ea2:	4652      	mov	r2, sl
 8005ea4:	465b      	mov	r3, fp
 8005ea6:	e9d1 0100 	ldrd	r0, r1, [r1]
 8005eaa:	f7fa fbad 	bl	8000608 <__aeabi_dmul>
 8005eae:	4b26      	ldr	r3, [pc, #152]	@ (8005f48 <_strtod_l+0x598>)
 8005eb0:	460a      	mov	r2, r1
 8005eb2:	400b      	ands	r3, r1
 8005eb4:	4925      	ldr	r1, [pc, #148]	@ (8005f4c <_strtod_l+0x59c>)
 8005eb6:	428b      	cmp	r3, r1
 8005eb8:	4682      	mov	sl, r0
 8005eba:	d898      	bhi.n	8005dee <_strtod_l+0x43e>
 8005ebc:	f5a1 1180 	sub.w	r1, r1, #1048576	@ 0x100000
 8005ec0:	428b      	cmp	r3, r1
 8005ec2:	bf86      	itte	hi
 8005ec4:	f8df b088 	ldrhi.w	fp, [pc, #136]	@ 8005f50 <_strtod_l+0x5a0>
 8005ec8:	f04f 3aff 	movhi.w	sl, #4294967295
 8005ecc:	f102 7b54 	addls.w	fp, r2, #55574528	@ 0x3500000
 8005ed0:	2300      	movs	r3, #0
 8005ed2:	9308      	str	r3, [sp, #32]
 8005ed4:	e076      	b.n	8005fc4 <_strtod_l+0x614>
 8005ed6:	07e2      	lsls	r2, r4, #31
 8005ed8:	d504      	bpl.n	8005ee4 <_strtod_l+0x534>
 8005eda:	e9d7 2300 	ldrd	r2, r3, [r7]
 8005ede:	f7fa fb93 	bl	8000608 <__aeabi_dmul>
 8005ee2:	2301      	movs	r3, #1
 8005ee4:	3601      	adds	r6, #1
 8005ee6:	1064      	asrs	r4, r4, #1
 8005ee8:	3708      	adds	r7, #8
 8005eea:	e7d0      	b.n	8005e8e <_strtod_l+0x4de>
 8005eec:	d0f0      	beq.n	8005ed0 <_strtod_l+0x520>
 8005eee:	4264      	negs	r4, r4
 8005ef0:	f014 020f 	ands.w	r2, r4, #15
 8005ef4:	d00a      	beq.n	8005f0c <_strtod_l+0x55c>
 8005ef6:	4b12      	ldr	r3, [pc, #72]	@ (8005f40 <_strtod_l+0x590>)
 8005ef8:	eb03 03c2 	add.w	r3, r3, r2, lsl #3
 8005efc:	4650      	mov	r0, sl
 8005efe:	4659      	mov	r1, fp
 8005f00:	e9d3 2300 	ldrd	r2, r3, [r3]
 8005f04:	f7fa fcaa 	bl	800085c <__aeabi_ddiv>
 8005f08:	4682      	mov	sl, r0
 8005f0a:	468b      	mov	fp, r1
 8005f0c:	1124      	asrs	r4, r4, #4
 8005f0e:	d0df      	beq.n	8005ed0 <_strtod_l+0x520>
 8005f10:	2c1f      	cmp	r4, #31
 8005f12:	dd1f      	ble.n	8005f54 <_strtod_l+0x5a4>
 8005f14:	2400      	movs	r4, #0
 8005f16:	46a0      	mov	r8, r4
 8005f18:	940b      	str	r4, [sp, #44]	@ 0x2c
 8005f1a:	46a1      	mov	r9, r4
 8005f1c:	9a05      	ldr	r2, [sp, #20]
 8005f1e:	2322      	movs	r3, #34	@ 0x22
 8005f20:	f04f 0a00 	mov.w	sl, #0
 8005f24:	f04f 0b00 	mov.w	fp, #0
 8005f28:	6013      	str	r3, [r2, #0]
 8005f2a:	e76b      	b.n	8005e04 <_strtod_l+0x454>
 8005f2c:	08009abb 	.word	0x08009abb
 8005f30:	08009c80 	.word	0x08009c80
 8005f34:	08009ab3 	.word	0x08009ab3
 8005f38:	08009aed 	.word	0x08009aed
 8005f3c:	08009c7c 	.word	0x08009c7c
 8005f40:	08009e08 	.word	0x08009e08
 8005f44:	08009de0 	.word	0x08009de0
 8005f48:	7ff00000 	.word	0x7ff00000
 8005f4c:	7ca00000 	.word	0x7ca00000
 8005f50:	7fefffff 	.word	0x7fefffff
 8005f54:	f014 0310 	ands.w	r3, r4, #16
 8005f58:	bf18      	it	ne
 8005f5a:	236a      	movne	r3, #106	@ 0x6a
 8005f5c:	4ea9      	ldr	r6, [pc, #676]	@ (8006204 <_strtod_l+0x854>)
 8005f5e:	9308      	str	r3, [sp, #32]
 8005f60:	4650      	mov	r0, sl
 8005f62:	4659      	mov	r1, fp
 8005f64:	2300      	movs	r3, #0
 8005f66:	07e7      	lsls	r7, r4, #31
 8005f68:	d504      	bpl.n	8005f74 <_strtod_l+0x5c4>
 8005f6a:	e9d6 2300 	ldrd	r2, r3, [r6]
 8005f6e:	f7fa fb4b 	bl	8000608 <__aeabi_dmul>
 8005f72:	2301      	movs	r3, #1
 8005f74:	1064      	asrs	r4, r4, #1
 8005f76:	f106 0608 	add.w	r6, r6, #8
 8005f7a:	d1f4      	bne.n	8005f66 <_strtod_l+0x5b6>
 8005f7c:	b10b      	cbz	r3, 8005f82 <_strtod_l+0x5d2>
 8005f7e:	4682      	mov	sl, r0
 8005f80:	468b      	mov	fp, r1
 8005f82:	9b08      	ldr	r3, [sp, #32]
 8005f84:	b1b3      	cbz	r3, 8005fb4 <_strtod_l+0x604>
 8005f86:	f3cb 520a 	ubfx	r2, fp, #20, #11
 8005f8a:	f1c2 036b 	rsb	r3, r2, #107	@ 0x6b
 8005f8e:	2b00      	cmp	r3, #0
 8005f90:	4659      	mov	r1, fp
 8005f92:	dd0f      	ble.n	8005fb4 <_strtod_l+0x604>
 8005f94:	2b1f      	cmp	r3, #31
 8005f96:	dd56      	ble.n	8006046 <_strtod_l+0x696>
 8005f98:	2b34      	cmp	r3, #52	@ 0x34
 8005f9a:	bfde      	ittt	le
 8005f9c:	f04f 33ff 	movle.w	r3, #4294967295
 8005fa0:	f1c2 024b 	rsble	r2, r2, #75	@ 0x4b
 8005fa4:	4093      	lslle	r3, r2
 8005fa6:	f04f 0a00 	mov.w	sl, #0
 8005faa:	bfcc      	ite	gt
 8005fac:	f04f 7b5c 	movgt.w	fp, #57671680	@ 0x3700000
 8005fb0:	ea03 0b01 	andle.w	fp, r3, r1
 8005fb4:	2200      	movs	r2, #0
 8005fb6:	2300      	movs	r3, #0
 8005fb8:	4650      	mov	r0, sl
 8005fba:	4659      	mov	r1, fp
 8005fbc:	f7fa fd8c 	bl	8000ad8 <__aeabi_dcmpeq>
 8005fc0:	2800      	cmp	r0, #0
 8005fc2:	d1a7      	bne.n	8005f14 <_strtod_l+0x564>
 8005fc4:	9b0b      	ldr	r3, [sp, #44]	@ 0x2c
 8005fc6:	9300      	str	r3, [sp, #0]
 8005fc8:	990c      	ldr	r1, [sp, #48]	@ 0x30
 8005fca:	9805      	ldr	r0, [sp, #20]
 8005fcc:	462b      	mov	r3, r5
 8005fce:	464a      	mov	r2, r9
 8005fd0:	f002 fdda 	bl	8008b88 <__s2b>
 8005fd4:	900b      	str	r0, [sp, #44]	@ 0x2c
 8005fd6:	2800      	cmp	r0, #0
 8005fd8:	f43f af09 	beq.w	8005dee <_strtod_l+0x43e>
 8005fdc:	9a09      	ldr	r2, [sp, #36]	@ 0x24
 8005fde:	9b0a      	ldr	r3, [sp, #40]	@ 0x28
 8005fe0:	2a00      	cmp	r2, #0
 8005fe2:	eba3 0308 	sub.w	r3, r3, r8
 8005fe6:	bfa8      	it	ge
 8005fe8:	2300      	movge	r3, #0
 8005fea:	9312      	str	r3, [sp, #72]	@ 0x48
 8005fec:	2400      	movs	r4, #0
 8005fee:	ea22 73e2 	bic.w	r3, r2, r2, asr #31
 8005ff2:	9316      	str	r3, [sp, #88]	@ 0x58
 8005ff4:	46a0      	mov	r8, r4
 8005ff6:	9b0b      	ldr	r3, [sp, #44]	@ 0x2c
 8005ff8:	9805      	ldr	r0, [sp, #20]
 8005ffa:	6859      	ldr	r1, [r3, #4]
 8005ffc:	f002 fd1c 	bl	8008a38 <_Balloc>
 8006000:	4681      	mov	r9, r0
 8006002:	2800      	cmp	r0, #0
 8006004:	f43f aef7 	beq.w	8005df6 <_strtod_l+0x446>
 8006008:	9b0b      	ldr	r3, [sp, #44]	@ 0x2c
 800600a:	691a      	ldr	r2, [r3, #16]
 800600c:	3202      	adds	r2, #2
 800600e:	f103 010c 	add.w	r1, r3, #12
 8006012:	0092      	lsls	r2, r2, #2
 8006014:	300c      	adds	r0, #12
 8006016:	f001 fa54 	bl	80074c2 <memcpy>
 800601a:	ec4b ab10 	vmov	d0, sl, fp
 800601e:	9805      	ldr	r0, [sp, #20]
 8006020:	aa1c      	add	r2, sp, #112	@ 0x70
 8006022:	a91b      	add	r1, sp, #108	@ 0x6c
 8006024:	e9cd ab0c 	strd	sl, fp, [sp, #48]	@ 0x30
 8006028:	f003 f8e2 	bl	80091f0 <__d2b>
 800602c:	901a      	str	r0, [sp, #104]	@ 0x68
 800602e:	2800      	cmp	r0, #0
 8006030:	f43f aee1 	beq.w	8005df6 <_strtod_l+0x446>
 8006034:	9805      	ldr	r0, [sp, #20]
 8006036:	2101      	movs	r1, #1
 8006038:	f002 fe3c 	bl	8008cb4 <__i2b>
 800603c:	4680      	mov	r8, r0
 800603e:	b948      	cbnz	r0, 8006054 <_strtod_l+0x6a4>
 8006040:	f04f 0800 	mov.w	r8, #0
 8006044:	e6d7      	b.n	8005df6 <_strtod_l+0x446>
 8006046:	f04f 32ff 	mov.w	r2, #4294967295
 800604a:	fa02 f303 	lsl.w	r3, r2, r3
 800604e:	ea03 0a0a 	and.w	sl, r3, sl
 8006052:	e7af      	b.n	8005fb4 <_strtod_l+0x604>
 8006054:	9d1b      	ldr	r5, [sp, #108]	@ 0x6c
 8006056:	9a1c      	ldr	r2, [sp, #112]	@ 0x70
 8006058:	2d00      	cmp	r5, #0
 800605a:	bfab      	itete	ge
 800605c:	9b12      	ldrge	r3, [sp, #72]	@ 0x48
 800605e:	9b16      	ldrlt	r3, [sp, #88]	@ 0x58
 8006060:	9e16      	ldrge	r6, [sp, #88]	@ 0x58
 8006062:	9f12      	ldrlt	r7, [sp, #72]	@ 0x48
 8006064:	bfac      	ite	ge
 8006066:	18ef      	addge	r7, r5, r3
 8006068:	1b5e      	sublt	r6, r3, r5
 800606a:	9b08      	ldr	r3, [sp, #32]
 800606c:	1aed      	subs	r5, r5, r3
 800606e:	4415      	add	r5, r2
 8006070:	4b65      	ldr	r3, [pc, #404]	@ (8006208 <_strtod_l+0x858>)
 8006072:	3d01      	subs	r5, #1
 8006074:	429d      	cmp	r5, r3
 8006076:	f1c2 0236 	rsb	r2, r2, #54	@ 0x36
 800607a:	da50      	bge.n	800611e <_strtod_l+0x76e>
 800607c:	1b5b      	subs	r3, r3, r5
 800607e:	2b1f      	cmp	r3, #31
 8006080:	eba2 0203 	sub.w	r2, r2, r3
 8006084:	f04f 0101 	mov.w	r1, #1
 8006088:	dc3d      	bgt.n	8006106 <_strtod_l+0x756>
 800608a:	fa01 f303 	lsl.w	r3, r1, r3
 800608e:	9313      	str	r3, [sp, #76]	@ 0x4c
 8006090:	2300      	movs	r3, #0
 8006092:	9310      	str	r3, [sp, #64]	@ 0x40
 8006094:	18bd      	adds	r5, r7, r2
 8006096:	9b08      	ldr	r3, [sp, #32]
 8006098:	42af      	cmp	r7, r5
 800609a:	4416      	add	r6, r2
 800609c:	441e      	add	r6, r3
 800609e:	463b      	mov	r3, r7
 80060a0:	bfa8      	it	ge
 80060a2:	462b      	movge	r3, r5
 80060a4:	42b3      	cmp	r3, r6
 80060a6:	bfa8      	it	ge
 80060a8:	4633      	movge	r3, r6
 80060aa:	2b00      	cmp	r3, #0
 80060ac:	bfc2      	ittt	gt
 80060ae:	1aed      	subgt	r5, r5, r3
 80060b0:	1af6      	subgt	r6, r6, r3
 80060b2:	1aff      	subgt	r7, r7, r3
 80060b4:	9b12      	ldr	r3, [sp, #72]	@ 0x48
 80060b6:	2b00      	cmp	r3, #0
 80060b8:	dd16      	ble.n	80060e8 <_strtod_l+0x738>
 80060ba:	4641      	mov	r1, r8
 80060bc:	9805      	ldr	r0, [sp, #20]
 80060be:	461a      	mov	r2, r3
 80060c0:	f002 feb0 	bl	8008e24 <__pow5mult>
 80060c4:	4680      	mov	r8, r0
 80060c6:	2800      	cmp	r0, #0
 80060c8:	d0ba      	beq.n	8006040 <_strtod_l+0x690>
 80060ca:	4601      	mov	r1, r0
 80060cc:	9a1a      	ldr	r2, [sp, #104]	@ 0x68
 80060ce:	9805      	ldr	r0, [sp, #20]
 80060d0:	f002 fe06 	bl	8008ce0 <__multiply>
 80060d4:	900a      	str	r0, [sp, #40]	@ 0x28
 80060d6:	2800      	cmp	r0, #0
 80060d8:	f43f ae8d 	beq.w	8005df6 <_strtod_l+0x446>
 80060dc:	991a      	ldr	r1, [sp, #104]	@ 0x68
 80060de:	9805      	ldr	r0, [sp, #20]
 80060e0:	f002 fcea 	bl	8008ab8 <_Bfree>
 80060e4:	9b0a      	ldr	r3, [sp, #40]	@ 0x28
 80060e6:	931a      	str	r3, [sp, #104]	@ 0x68
 80060e8:	2d00      	cmp	r5, #0
 80060ea:	dc1d      	bgt.n	8006128 <_strtod_l+0x778>
 80060ec:	9b09      	ldr	r3, [sp, #36]	@ 0x24
 80060ee:	2b00      	cmp	r3, #0
 80060f0:	dd23      	ble.n	800613a <_strtod_l+0x78a>
 80060f2:	4649      	mov	r1, r9
 80060f4:	9a16      	ldr	r2, [sp, #88]	@ 0x58
 80060f6:	9805      	ldr	r0, [sp, #20]
 80060f8:	f002 fe94 	bl	8008e24 <__pow5mult>
 80060fc:	4681      	mov	r9, r0
 80060fe:	b9e0      	cbnz	r0, 800613a <_strtod_l+0x78a>
 8006100:	f04f 0900 	mov.w	r9, #0
 8006104:	e677      	b.n	8005df6 <_strtod_l+0x446>
 8006106:	f1c5 457f 	rsb	r5, r5, #4278190080	@ 0xff000000
 800610a:	f505 057f 	add.w	r5, r5, #16711680	@ 0xff0000
 800610e:	f505 457b 	add.w	r5, r5, #64256	@ 0xfb00
 8006112:	35e2      	adds	r5, #226	@ 0xe2
 8006114:	fa01 f305 	lsl.w	r3, r1, r5
 8006118:	9310      	str	r3, [sp, #64]	@ 0x40
 800611a:	9113      	str	r1, [sp, #76]	@ 0x4c
 800611c:	e7ba      	b.n	8006094 <_strtod_l+0x6e4>
 800611e:	2300      	movs	r3, #0
 8006120:	9310      	str	r3, [sp, #64]	@ 0x40
 8006122:	2301      	movs	r3, #1
 8006124:	9313      	str	r3, [sp, #76]	@ 0x4c
 8006126:	e7b5      	b.n	8006094 <_strtod_l+0x6e4>
 8006128:	991a      	ldr	r1, [sp, #104]	@ 0x68
 800612a:	9805      	ldr	r0, [sp, #20]
 800612c:	462a      	mov	r2, r5
 800612e:	f002 fed3 	bl	8008ed8 <__lshift>
 8006132:	901a      	str	r0, [sp, #104]	@ 0x68
 8006134:	2800      	cmp	r0, #0
 8006136:	d1d9      	bne.n	80060ec <_strtod_l+0x73c>
 8006138:	e65d      	b.n	8005df6 <_strtod_l+0x446>
 800613a:	2e00      	cmp	r6, #0
 800613c:	dd07      	ble.n	800614e <_strtod_l+0x79e>
 800613e:	4649      	mov	r1, r9
 8006140:	9805      	ldr	r0, [sp, #20]
 8006142:	4632      	mov	r2, r6
 8006144:	f002 fec8 	bl	8008ed8 <__lshift>
 8006148:	4681      	mov	r9, r0
 800614a:	2800      	cmp	r0, #0
 800614c:	d0d8      	beq.n	8006100 <_strtod_l+0x750>
 800614e:	2f00      	cmp	r7, #0
 8006150:	dd08      	ble.n	8006164 <_strtod_l+0x7b4>
 8006152:	4641      	mov	r1, r8
 8006154:	9805      	ldr	r0, [sp, #20]
 8006156:	463a      	mov	r2, r7
 8006158:	f002 febe 	bl	8008ed8 <__lshift>
 800615c:	4680      	mov	r8, r0
 800615e:	2800      	cmp	r0, #0
 8006160:	f43f ae49 	beq.w	8005df6 <_strtod_l+0x446>
 8006164:	991a      	ldr	r1, [sp, #104]	@ 0x68
 8006166:	9805      	ldr	r0, [sp, #20]
 8006168:	464a      	mov	r2, r9
 800616a:	f002 ff3d 	bl	8008fe8 <__mdiff>
 800616e:	4604      	mov	r4, r0
 8006170:	2800      	cmp	r0, #0
 8006172:	f43f ae40 	beq.w	8005df6 <_strtod_l+0x446>
 8006176:	68c3      	ldr	r3, [r0, #12]
 8006178:	930f      	str	r3, [sp, #60]	@ 0x3c
 800617a:	2300      	movs	r3, #0
 800617c:	60c3      	str	r3, [r0, #12]
 800617e:	4641      	mov	r1, r8
 8006180:	f002 ff16 	bl	8008fb0 <__mcmp>
 8006184:	2800      	cmp	r0, #0
 8006186:	da45      	bge.n	8006214 <_strtod_l+0x864>
 8006188:	9b0f      	ldr	r3, [sp, #60]	@ 0x3c
 800618a:	ea53 030a 	orrs.w	r3, r3, sl
 800618e:	d16b      	bne.n	8006268 <_strtod_l+0x8b8>
 8006190:	f3cb 0313 	ubfx	r3, fp, #0, #20
 8006194:	2b00      	cmp	r3, #0
 8006196:	d167      	bne.n	8006268 <_strtod_l+0x8b8>
 8006198:	f02b 4300 	bic.w	r3, fp, #2147483648	@ 0x80000000
 800619c:	0d1b      	lsrs	r3, r3, #20
 800619e:	051b      	lsls	r3, r3, #20
 80061a0:	f1b3 6fd6 	cmp.w	r3, #112197632	@ 0x6b00000
 80061a4:	d960      	bls.n	8006268 <_strtod_l+0x8b8>
 80061a6:	6963      	ldr	r3, [r4, #20]
 80061a8:	b913      	cbnz	r3, 80061b0 <_strtod_l+0x800>
 80061aa:	6923      	ldr	r3, [r4, #16]
 80061ac:	2b01      	cmp	r3, #1
 80061ae:	dd5b      	ble.n	8006268 <_strtod_l+0x8b8>
 80061b0:	4621      	mov	r1, r4
 80061b2:	2201      	movs	r2, #1
 80061b4:	9805      	ldr	r0, [sp, #20]
 80061b6:	f002 fe8f 	bl	8008ed8 <__lshift>
 80061ba:	4641      	mov	r1, r8
 80061bc:	4604      	mov	r4, r0
 80061be:	f002 fef7 	bl	8008fb0 <__mcmp>
 80061c2:	2800      	cmp	r0, #0
 80061c4:	dd50      	ble.n	8006268 <_strtod_l+0x8b8>
 80061c6:	f02b 4300 	bic.w	r3, fp, #2147483648	@ 0x80000000
 80061ca:	9a08      	ldr	r2, [sp, #32]
 80061cc:	0d1b      	lsrs	r3, r3, #20
 80061ce:	051b      	lsls	r3, r3, #20
 80061d0:	2a00      	cmp	r2, #0
 80061d2:	d06a      	beq.n	80062aa <_strtod_l+0x8fa>
 80061d4:	f1b3 6fd6 	cmp.w	r3, #112197632	@ 0x6b00000
 80061d8:	d867      	bhi.n	80062aa <_strtod_l+0x8fa>
 80061da:	f1b3 7f5c 	cmp.w	r3, #57671680	@ 0x3700000
 80061de:	f67f ae9d 	bls.w	8005f1c <_strtod_l+0x56c>
 80061e2:	4b0a      	ldr	r3, [pc, #40]	@ (800620c <_strtod_l+0x85c>)
 80061e4:	4650      	mov	r0, sl
 80061e6:	4659      	mov	r1, fp
 80061e8:	2200      	movs	r2, #0
 80061ea:	f7fa fa0d 	bl	8000608 <__aeabi_dmul>
 80061ee:	4b08      	ldr	r3, [pc, #32]	@ (8006210 <_strtod_l+0x860>)
 80061f0:	400b      	ands	r3, r1
 80061f2:	4682      	mov	sl, r0
 80061f4:	468b      	mov	fp, r1
 80061f6:	2b00      	cmp	r3, #0
 80061f8:	f47f ae08 	bne.w	8005e0c <_strtod_l+0x45c>
 80061fc:	9a05      	ldr	r2, [sp, #20]
 80061fe:	2322      	movs	r3, #34	@ 0x22
 8006200:	6013      	str	r3, [r2, #0]
 8006202:	e603      	b.n	8005e0c <_strtod_l+0x45c>
 8006204:	08009ca8 	.word	0x08009ca8
 8006208:	fffffc02 	.word	0xfffffc02
 800620c:	39500000 	.word	0x39500000
 8006210:	7ff00000 	.word	0x7ff00000
 8006214:	f8cd b028 	str.w	fp, [sp, #40]	@ 0x28
 8006218:	d165      	bne.n	80062e6 <_strtod_l+0x936>
 800621a:	9a0f      	ldr	r2, [sp, #60]	@ 0x3c
 800621c:	f3cb 0313 	ubfx	r3, fp, #0, #20
 8006220:	b35a      	cbz	r2, 800627a <_strtod_l+0x8ca>
 8006222:	4a9f      	ldr	r2, [pc, #636]	@ (80064a0 <_strtod_l+0xaf0>)
 8006224:	4293      	cmp	r3, r2
 8006226:	d12b      	bne.n	8006280 <_strtod_l+0x8d0>
 8006228:	9b08      	ldr	r3, [sp, #32]
 800622a:	4651      	mov	r1, sl
 800622c:	b303      	cbz	r3, 8006270 <_strtod_l+0x8c0>
 800622e:	4b9d      	ldr	r3, [pc, #628]	@ (80064a4 <_strtod_l+0xaf4>)
 8006230:	465a      	mov	r2, fp
 8006232:	4013      	ands	r3, r2
 8006234:	f1b3 6fd4 	cmp.w	r3, #111149056	@ 0x6a00000
 8006238:	f04f 32ff 	mov.w	r2, #4294967295
 800623c:	d81b      	bhi.n	8006276 <_strtod_l+0x8c6>
 800623e:	0d1b      	lsrs	r3, r3, #20
 8006240:	f1c3 036b 	rsb	r3, r3, #107	@ 0x6b
 8006244:	fa02 f303 	lsl.w	r3, r2, r3
 8006248:	4299      	cmp	r1, r3
 800624a:	d119      	bne.n	8006280 <_strtod_l+0x8d0>
 800624c:	4b96      	ldr	r3, [pc, #600]	@ (80064a8 <_strtod_l+0xaf8>)
 800624e:	9a0a      	ldr	r2, [sp, #40]	@ 0x28
 8006250:	429a      	cmp	r2, r3
 8006252:	d102      	bne.n	800625a <_strtod_l+0x8aa>
 8006254:	3101      	adds	r1, #1
 8006256:	f43f adce 	beq.w	8005df6 <_strtod_l+0x446>
 800625a:	4b92      	ldr	r3, [pc, #584]	@ (80064a4 <_strtod_l+0xaf4>)
 800625c:	9a0a      	ldr	r2, [sp, #40]	@ 0x28
 800625e:	401a      	ands	r2, r3
 8006260:	f502 1b80 	add.w	fp, r2, #1048576	@ 0x100000
 8006264:	f04f 0a00 	mov.w	sl, #0
 8006268:	9b08      	ldr	r3, [sp, #32]
 800626a:	2b00      	cmp	r3, #0
 800626c:	d1b9      	bne.n	80061e2 <_strtod_l+0x832>
 800626e:	e5cd      	b.n	8005e0c <_strtod_l+0x45c>
 8006270:	f04f 33ff 	mov.w	r3, #4294967295
 8006274:	e7e8      	b.n	8006248 <_strtod_l+0x898>
 8006276:	4613      	mov	r3, r2
 8006278:	e7e6      	b.n	8006248 <_strtod_l+0x898>
 800627a:	ea53 030a 	orrs.w	r3, r3, sl
 800627e:	d0a2      	beq.n	80061c6 <_strtod_l+0x816>
 8006280:	9b10      	ldr	r3, [sp, #64]	@ 0x40
 8006282:	b1db      	cbz	r3, 80062bc <_strtod_l+0x90c>
 8006284:	9a0a      	ldr	r2, [sp, #40]	@ 0x28
 8006286:	4213      	tst	r3, r2
 8006288:	d0ee      	beq.n	8006268 <_strtod_l+0x8b8>
 800628a:	9b0f      	ldr	r3, [sp, #60]	@ 0x3c
 800628c:	9a08      	ldr	r2, [sp, #32]
 800628e:	4650      	mov	r0, sl
 8006290:	4659      	mov	r1, fp
 8006292:	b1bb      	cbz	r3, 80062c4 <_strtod_l+0x914>
 8006294:	f7ff fb6e 	bl	8005974 <sulp>
 8006298:	e9dd 010c 	ldrd	r0, r1, [sp, #48]	@ 0x30
 800629c:	ec53 2b10 	vmov	r2, r3, d0
 80062a0:	f7f9 fffc 	bl	800029c <__adddf3>
 80062a4:	4682      	mov	sl, r0
 80062a6:	468b      	mov	fp, r1
 80062a8:	e7de      	b.n	8006268 <_strtod_l+0x8b8>
 80062aa:	f5a3 1380 	sub.w	r3, r3, #1048576	@ 0x100000
 80062ae:	ea6f 5b13 	mvn.w	fp, r3, lsr #20
 80062b2:	ea6f 5b0b 	mvn.w	fp, fp, lsl #20
 80062b6:	f04f 3aff 	mov.w	sl, #4294967295
 80062ba:	e7d5      	b.n	8006268 <_strtod_l+0x8b8>
 80062bc:	9b13      	ldr	r3, [sp, #76]	@ 0x4c
 80062be:	ea13 0f0a 	tst.w	r3, sl
 80062c2:	e7e1      	b.n	8006288 <_strtod_l+0x8d8>
 80062c4:	f7ff fb56 	bl	8005974 <sulp>
 80062c8:	e9dd 010c 	ldrd	r0, r1, [sp, #48]	@ 0x30
 80062cc:	ec53 2b10 	vmov	r2, r3, d0
 80062d0:	f7f9 ffe2 	bl	8000298 <__aeabi_dsub>
 80062d4:	2200      	movs	r2, #0
 80062d6:	2300      	movs	r3, #0
 80062d8:	4682      	mov	sl, r0
 80062da:	468b      	mov	fp, r1
 80062dc:	f7fa fbfc 	bl	8000ad8 <__aeabi_dcmpeq>
 80062e0:	2800      	cmp	r0, #0
 80062e2:	d0c1      	beq.n	8006268 <_strtod_l+0x8b8>
 80062e4:	e61a      	b.n	8005f1c <_strtod_l+0x56c>
 80062e6:	4641      	mov	r1, r8
 80062e8:	4620      	mov	r0, r4
 80062ea:	f002 ffd9 	bl	80092a0 <__ratio>
 80062ee:	ec57 6b10 	vmov	r6, r7, d0
 80062f2:	2200      	movs	r2, #0
 80062f4:	f04f 4380 	mov.w	r3, #1073741824	@ 0x40000000
 80062f8:	4630      	mov	r0, r6
 80062fa:	4639      	mov	r1, r7
 80062fc:	f7fa fc00 	bl	8000b00 <__aeabi_dcmple>
 8006300:	2800      	cmp	r0, #0
 8006302:	d06f      	beq.n	80063e4 <_strtod_l+0xa34>
 8006304:	9b0f      	ldr	r3, [sp, #60]	@ 0x3c
 8006306:	2b00      	cmp	r3, #0
 8006308:	d17a      	bne.n	8006400 <_strtod_l+0xa50>
 800630a:	f1ba 0f00 	cmp.w	sl, #0
 800630e:	d158      	bne.n	80063c2 <_strtod_l+0xa12>
 8006310:	9b0a      	ldr	r3, [sp, #40]	@ 0x28
 8006312:	f3c3 0313 	ubfx	r3, r3, #0, #20
 8006316:	2b00      	cmp	r3, #0
 8006318:	d15a      	bne.n	80063d0 <_strtod_l+0xa20>
 800631a:	4b64      	ldr	r3, [pc, #400]	@ (80064ac <_strtod_l+0xafc>)
 800631c:	2200      	movs	r2, #0
 800631e:	4630      	mov	r0, r6
 8006320:	4639      	mov	r1, r7
 8006322:	f7fa fbe3 	bl	8000aec <__aeabi_dcmplt>
 8006326:	2800      	cmp	r0, #0
 8006328:	d159      	bne.n	80063de <_strtod_l+0xa2e>
 800632a:	4630      	mov	r0, r6
 800632c:	4639      	mov	r1, r7
 800632e:	4b60      	ldr	r3, [pc, #384]	@ (80064b0 <_strtod_l+0xb00>)
 8006330:	2200      	movs	r2, #0
 8006332:	f7fa f969 	bl	8000608 <__aeabi_dmul>
 8006336:	4606      	mov	r6, r0
 8006338:	460f      	mov	r7, r1
 800633a:	f107 4300 	add.w	r3, r7, #2147483648	@ 0x80000000
 800633e:	9606      	str	r6, [sp, #24]
 8006340:	9307      	str	r3, [sp, #28]
 8006342:	e9dd 2306 	ldrd	r2, r3, [sp, #24]
 8006346:	4d57      	ldr	r5, [pc, #348]	@ (80064a4 <_strtod_l+0xaf4>)
 8006348:	e9cd 2310 	strd	r2, r3, [sp, #64]	@ 0x40
 800634c:	9b0a      	ldr	r3, [sp, #40]	@ 0x28
 800634e:	401d      	ands	r5, r3
 8006350:	4b58      	ldr	r3, [pc, #352]	@ (80064b4 <_strtod_l+0xb04>)
 8006352:	429d      	cmp	r5, r3
 8006354:	f040 80b2 	bne.w	80064bc <_strtod_l+0xb0c>
 8006358:	9b0a      	ldr	r3, [sp, #40]	@ 0x28
 800635a:	f1a3 7b54 	sub.w	fp, r3, #55574528	@ 0x3500000
 800635e:	ec4b ab10 	vmov	d0, sl, fp
 8006362:	f002 fed5 	bl	8009110 <__ulp>
 8006366:	e9dd 2306 	ldrd	r2, r3, [sp, #24]
 800636a:	ec51 0b10 	vmov	r0, r1, d0
 800636e:	f7fa f94b 	bl	8000608 <__aeabi_dmul>
 8006372:	4652      	mov	r2, sl
 8006374:	465b      	mov	r3, fp
 8006376:	f7f9 ff91 	bl	800029c <__adddf3>
 800637a:	460b      	mov	r3, r1
 800637c:	4949      	ldr	r1, [pc, #292]	@ (80064a4 <_strtod_l+0xaf4>)
 800637e:	4a4e      	ldr	r2, [pc, #312]	@ (80064b8 <_strtod_l+0xb08>)
 8006380:	4019      	ands	r1, r3
 8006382:	4291      	cmp	r1, r2
 8006384:	4682      	mov	sl, r0
 8006386:	d942      	bls.n	800640e <_strtod_l+0xa5e>
 8006388:	9a0d      	ldr	r2, [sp, #52]	@ 0x34
 800638a:	4b47      	ldr	r3, [pc, #284]	@ (80064a8 <_strtod_l+0xaf8>)
 800638c:	429a      	cmp	r2, r3
 800638e:	d103      	bne.n	8006398 <_strtod_l+0x9e8>
 8006390:	9b0c      	ldr	r3, [sp, #48]	@ 0x30
 8006392:	3301      	adds	r3, #1
 8006394:	f43f ad2f 	beq.w	8005df6 <_strtod_l+0x446>
 8006398:	f8df b10c 	ldr.w	fp, [pc, #268]	@ 80064a8 <_strtod_l+0xaf8>
 800639c:	f04f 3aff 	mov.w	sl, #4294967295
 80063a0:	991a      	ldr	r1, [sp, #104]	@ 0x68
 80063a2:	9805      	ldr	r0, [sp, #20]
 80063a4:	f002 fb88 	bl	8008ab8 <_Bfree>
 80063a8:	9805      	ldr	r0, [sp, #20]
 80063aa:	4649      	mov	r1, r9
 80063ac:	f002 fb84 	bl	8008ab8 <_Bfree>
 80063b0:	9805      	ldr	r0, [sp, #20]
 80063b2:	4641      	mov	r1, r8
 80063b4:	f002 fb80 	bl	8008ab8 <_Bfree>
 80063b8:	9805      	ldr	r0, [sp, #20]
 80063ba:	4621      	mov	r1, r4
 80063bc:	f002 fb7c 	bl	8008ab8 <_Bfree>
 80063c0:	e619      	b.n	8005ff6 <_strtod_l+0x646>
 80063c2:	f1ba 0f01 	cmp.w	sl, #1
 80063c6:	d103      	bne.n	80063d0 <_strtod_l+0xa20>
 80063c8:	9b0a      	ldr	r3, [sp, #40]	@ 0x28
 80063ca:	2b00      	cmp	r3, #0
 80063cc:	f43f ada6 	beq.w	8005f1c <_strtod_l+0x56c>
 80063d0:	ed9f 7b2b 	vldr	d7, [pc, #172]	@ 8006480 <_strtod_l+0xad0>
 80063d4:	4f35      	ldr	r7, [pc, #212]	@ (80064ac <_strtod_l+0xafc>)
 80063d6:	ed8d 7b06 	vstr	d7, [sp, #24]
 80063da:	2600      	movs	r6, #0
 80063dc:	e7b1      	b.n	8006342 <_strtod_l+0x992>
 80063de:	4f34      	ldr	r7, [pc, #208]	@ (80064b0 <_strtod_l+0xb00>)
 80063e0:	2600      	movs	r6, #0
 80063e2:	e7aa      	b.n	800633a <_strtod_l+0x98a>
 80063e4:	4b32      	ldr	r3, [pc, #200]	@ (80064b0 <_strtod_l+0xb00>)
 80063e6:	4630      	mov	r0, r6
 80063e8:	4639      	mov	r1, r7
 80063ea:	2200      	movs	r2, #0
 80063ec:	f7fa f90c 	bl	8000608 <__aeabi_dmul>
 80063f0:	9b0f      	ldr	r3, [sp, #60]	@ 0x3c
 80063f2:	4606      	mov	r6, r0
 80063f4:	460f      	mov	r7, r1
 80063f6:	2b00      	cmp	r3, #0
 80063f8:	d09f      	beq.n	800633a <_strtod_l+0x98a>
 80063fa:	e9cd 6706 	strd	r6, r7, [sp, #24]
 80063fe:	e7a0      	b.n	8006342 <_strtod_l+0x992>
 8006400:	ed9f 7b21 	vldr	d7, [pc, #132]	@ 8006488 <_strtod_l+0xad8>
 8006404:	ed8d 7b06 	vstr	d7, [sp, #24]
 8006408:	ec57 6b17 	vmov	r6, r7, d7
 800640c:	e799      	b.n	8006342 <_strtod_l+0x992>
 800640e:	f103 7b54 	add.w	fp, r3, #55574528	@ 0x3500000
 8006412:	9b08      	ldr	r3, [sp, #32]
 8006414:	f8cd b028 	str.w	fp, [sp, #40]	@ 0x28
 8006418:	2b00      	cmp	r3, #0
 800641a:	d1c1      	bne.n	80063a0 <_strtod_l+0x9f0>
 800641c:	f02b 4300 	bic.w	r3, fp, #2147483648	@ 0x80000000
 8006420:	0d1b      	lsrs	r3, r3, #20
 8006422:	051b      	lsls	r3, r3, #20
 8006424:	429d      	cmp	r5, r3
 8006426:	d1bb      	bne.n	80063a0 <_strtod_l+0x9f0>
 8006428:	4630      	mov	r0, r6
 800642a:	4639      	mov	r1, r7
 800642c:	f7fa fc4c 	bl	8000cc8 <__aeabi_d2lz>
 8006430:	f7fa f8bc 	bl	80005ac <__aeabi_l2d>
 8006434:	4602      	mov	r2, r0
 8006436:	460b      	mov	r3, r1
 8006438:	4630      	mov	r0, r6
 800643a:	4639      	mov	r1, r7
 800643c:	f7f9 ff2c 	bl	8000298 <__aeabi_dsub>
 8006440:	460b      	mov	r3, r1
 8006442:	4602      	mov	r2, r0
 8006444:	e9cd 230c 	strd	r2, r3, [sp, #48]	@ 0x30
 8006448:	f3cb 0613 	ubfx	r6, fp, #0, #20
 800644c:	9b0f      	ldr	r3, [sp, #60]	@ 0x3c
 800644e:	ea46 060a 	orr.w	r6, r6, sl
 8006452:	431e      	orrs	r6, r3
 8006454:	d06f      	beq.n	8006536 <_strtod_l+0xb86>
 8006456:	a30e      	add	r3, pc, #56	@ (adr r3, 8006490 <_strtod_l+0xae0>)
 8006458:	e9d3 2300 	ldrd	r2, r3, [r3]
 800645c:	f7fa fb46 	bl	8000aec <__aeabi_dcmplt>
 8006460:	2800      	cmp	r0, #0
 8006462:	f47f acd3 	bne.w	8005e0c <_strtod_l+0x45c>
 8006466:	a30c      	add	r3, pc, #48	@ (adr r3, 8006498 <_strtod_l+0xae8>)
 8006468:	e9d3 2300 	ldrd	r2, r3, [r3]
 800646c:	e9dd 010c 	ldrd	r0, r1, [sp, #48]	@ 0x30
 8006470:	f7fa fb5a 	bl	8000b28 <__aeabi_dcmpgt>
 8006474:	2800      	cmp	r0, #0
 8006476:	d093      	beq.n	80063a0 <_strtod_l+0x9f0>
 8006478:	e4c8      	b.n	8005e0c <_strtod_l+0x45c>
 800647a:	bf00      	nop
 800647c:	f3af 8000 	nop.w
 8006480:	00000000 	.word	0x00000000
 8006484:	bff00000 	.word	0xbff00000
 8006488:	00000000 	.word	0x00000000
 800648c:	3ff00000 	.word	0x3ff00000
 8006490:	94a03595 	.word	0x94a03595
 8006494:	3fdfffff 	.word	0x3fdfffff
 8006498:	35afe535 	.word	0x35afe535
 800649c:	3fe00000 	.word	0x3fe00000
 80064a0:	000fffff 	.word	0x000fffff
 80064a4:	7ff00000 	.word	0x7ff00000
 80064a8:	7fefffff 	.word	0x7fefffff
 80064ac:	3ff00000 	.word	0x3ff00000
 80064b0:	3fe00000 	.word	0x3fe00000
 80064b4:	7fe00000 	.word	0x7fe00000
 80064b8:	7c9fffff 	.word	0x7c9fffff
 80064bc:	9b08      	ldr	r3, [sp, #32]
 80064be:	b323      	cbz	r3, 800650a <_strtod_l+0xb5a>
 80064c0:	f1b5 6fd4 	cmp.w	r5, #111149056	@ 0x6a00000
 80064c4:	d821      	bhi.n	800650a <_strtod_l+0xb5a>
 80064c6:	a328      	add	r3, pc, #160	@ (adr r3, 8006568 <_strtod_l+0xbb8>)
 80064c8:	e9d3 2300 	ldrd	r2, r3, [r3]
 80064cc:	4630      	mov	r0, r6
 80064ce:	4639      	mov	r1, r7
 80064d0:	f7fa fb16 	bl	8000b00 <__aeabi_dcmple>
 80064d4:	b1a0      	cbz	r0, 8006500 <_strtod_l+0xb50>
 80064d6:	4639      	mov	r1, r7
 80064d8:	4630      	mov	r0, r6
 80064da:	f7fa fb6d 	bl	8000bb8 <__aeabi_d2uiz>
 80064de:	2801      	cmp	r0, #1
 80064e0:	bf38      	it	cc
 80064e2:	2001      	movcc	r0, #1
 80064e4:	f7fa f816 	bl	8000514 <__aeabi_ui2d>
 80064e8:	9b0f      	ldr	r3, [sp, #60]	@ 0x3c
 80064ea:	4606      	mov	r6, r0
 80064ec:	460f      	mov	r7, r1
 80064ee:	b9fb      	cbnz	r3, 8006530 <_strtod_l+0xb80>
 80064f0:	f101 4300 	add.w	r3, r1, #2147483648	@ 0x80000000
 80064f4:	9014      	str	r0, [sp, #80]	@ 0x50
 80064f6:	9315      	str	r3, [sp, #84]	@ 0x54
 80064f8:	e9dd 2314 	ldrd	r2, r3, [sp, #80]	@ 0x50
 80064fc:	e9cd 2310 	strd	r2, r3, [sp, #64]	@ 0x40
 8006500:	9b11      	ldr	r3, [sp, #68]	@ 0x44
 8006502:	f103 63d6 	add.w	r3, r3, #112197632	@ 0x6b00000
 8006506:	1b5b      	subs	r3, r3, r5
 8006508:	9311      	str	r3, [sp, #68]	@ 0x44
 800650a:	ed9d 0b0c 	vldr	d0, [sp, #48]	@ 0x30
 800650e:	e9dd ab10 	ldrd	sl, fp, [sp, #64]	@ 0x40
 8006512:	f002 fdfd 	bl	8009110 <__ulp>
 8006516:	4650      	mov	r0, sl
 8006518:	ec53 2b10 	vmov	r2, r3, d0
 800651c:	4659      	mov	r1, fp
 800651e:	f7fa f873 	bl	8000608 <__aeabi_dmul>
 8006522:	e9dd 230c 	ldrd	r2, r3, [sp, #48]	@ 0x30
 8006526:	f7f9 feb9 	bl	800029c <__adddf3>
 800652a:	4682      	mov	sl, r0
 800652c:	468b      	mov	fp, r1
 800652e:	e770      	b.n	8006412 <_strtod_l+0xa62>
 8006530:	e9cd 6714 	strd	r6, r7, [sp, #80]	@ 0x50
 8006534:	e7e0      	b.n	80064f8 <_strtod_l+0xb48>
 8006536:	a30e      	add	r3, pc, #56	@ (adr r3, 8006570 <_strtod_l+0xbc0>)
 8006538:	e9d3 2300 	ldrd	r2, r3, [r3]
 800653c:	f7fa fad6 	bl	8000aec <__aeabi_dcmplt>
 8006540:	e798      	b.n	8006474 <_strtod_l+0xac4>
 8006542:	2300      	movs	r3, #0
 8006544:	930e      	str	r3, [sp, #56]	@ 0x38
 8006546:	9a17      	ldr	r2, [sp, #92]	@ 0x5c
 8006548:	9b19      	ldr	r3, [sp, #100]	@ 0x64
 800654a:	6013      	str	r3, [r2, #0]
 800654c:	f7ff ba6d 	b.w	8005a2a <_strtod_l+0x7a>
 8006550:	2a65      	cmp	r2, #101	@ 0x65
 8006552:	f43f ab68 	beq.w	8005c26 <_strtod_l+0x276>
 8006556:	2a45      	cmp	r2, #69	@ 0x45
 8006558:	f43f ab65 	beq.w	8005c26 <_strtod_l+0x276>
 800655c:	2301      	movs	r3, #1
 800655e:	f7ff bba0 	b.w	8005ca2 <_strtod_l+0x2f2>
 8006562:	bf00      	nop
 8006564:	f3af 8000 	nop.w
 8006568:	ffc00000 	.word	0xffc00000
 800656c:	41dfffff 	.word	0x41dfffff
 8006570:	94a03595 	.word	0x94a03595
 8006574:	3fcfffff 	.word	0x3fcfffff

08006578 <strtod>:
 8006578:	460a      	mov	r2, r1
 800657a:	4601      	mov	r1, r0
 800657c:	4802      	ldr	r0, [pc, #8]	@ (8006588 <strtod+0x10>)
 800657e:	4b03      	ldr	r3, [pc, #12]	@ (800658c <strtod+0x14>)
 8006580:	6800      	ldr	r0, [r0, #0]
 8006582:	f7ff ba15 	b.w	80059b0 <_strtod_l>
 8006586:	bf00      	nop
 8006588:	20000188 	.word	0x20000188
 800658c:	2000001c 	.word	0x2000001c

08006590 <_strtol_l.isra.0>:
 8006590:	2b24      	cmp	r3, #36	@ 0x24
 8006592:	e92d 47f0 	stmdb	sp!, {r4, r5, r6, r7, r8, r9, sl, lr}
 8006596:	4686      	mov	lr, r0
 8006598:	4690      	mov	r8, r2
 800659a:	d801      	bhi.n	80065a0 <_strtol_l.isra.0+0x10>
 800659c:	2b01      	cmp	r3, #1
 800659e:	d106      	bne.n	80065ae <_strtol_l.isra.0+0x1e>
 80065a0:	f000 ff62 	bl	8007468 <__errno>
 80065a4:	2316      	movs	r3, #22
 80065a6:	6003      	str	r3, [r0, #0]
 80065a8:	2000      	movs	r0, #0
 80065aa:	e8bd 87f0 	ldmia.w	sp!, {r4, r5, r6, r7, r8, r9, sl, pc}
 80065ae:	4834      	ldr	r0, [pc, #208]	@ (8006680 <_strtol_l.isra.0+0xf0>)
 80065b0:	460d      	mov	r5, r1
 80065b2:	462a      	mov	r2, r5
 80065b4:	f815 4b01 	ldrb.w	r4, [r5], #1
 80065b8:	5d06      	ldrb	r6, [r0, r4]
 80065ba:	f016 0608 	ands.w	r6, r6, #8
 80065be:	d1f8      	bne.n	80065b2 <_strtol_l.isra.0+0x22>
 80065c0:	2c2d      	cmp	r4, #45	@ 0x2d
 80065c2:	d110      	bne.n	80065e6 <_strtol_l.isra.0+0x56>
 80065c4:	782c      	ldrb	r4, [r5, #0]
 80065c6:	2601      	movs	r6, #1
 80065c8:	1c95      	adds	r5, r2, #2
 80065ca:	f033 0210 	bics.w	r2, r3, #16
 80065ce:	d115      	bne.n	80065fc <_strtol_l.isra.0+0x6c>
 80065d0:	2c30      	cmp	r4, #48	@ 0x30
 80065d2:	d10d      	bne.n	80065f0 <_strtol_l.isra.0+0x60>
 80065d4:	782a      	ldrb	r2, [r5, #0]
 80065d6:	f002 02df 	and.w	r2, r2, #223	@ 0xdf
 80065da:	2a58      	cmp	r2, #88	@ 0x58
 80065dc:	d108      	bne.n	80065f0 <_strtol_l.isra.0+0x60>
 80065de:	786c      	ldrb	r4, [r5, #1]
 80065e0:	3502      	adds	r5, #2
 80065e2:	2310      	movs	r3, #16
 80065e4:	e00a      	b.n	80065fc <_strtol_l.isra.0+0x6c>
 80065e6:	2c2b      	cmp	r4, #43	@ 0x2b
 80065e8:	bf04      	itt	eq
 80065ea:	782c      	ldrbeq	r4, [r5, #0]
 80065ec:	1c95      	addeq	r5, r2, #2
 80065ee:	e7ec      	b.n	80065ca <_strtol_l.isra.0+0x3a>
 80065f0:	2b00      	cmp	r3, #0
 80065f2:	d1f6      	bne.n	80065e2 <_strtol_l.isra.0+0x52>
 80065f4:	2c30      	cmp	r4, #48	@ 0x30
 80065f6:	bf14      	ite	ne
 80065f8:	230a      	movne	r3, #10
 80065fa:	2308      	moveq	r3, #8
 80065fc:	f106 4c00 	add.w	ip, r6, #2147483648	@ 0x80000000
 8006600:	f10c 3cff 	add.w	ip, ip, #4294967295
 8006604:	2200      	movs	r2, #0
 8006606:	fbbc f9f3 	udiv	r9, ip, r3
 800660a:	4610      	mov	r0, r2
 800660c:	fb03 ca19 	mls	sl, r3, r9, ip
 8006610:	f1a4 0730 	sub.w	r7, r4, #48	@ 0x30
 8006614:	2f09      	cmp	r7, #9
 8006616:	d80f      	bhi.n	8006638 <_strtol_l.isra.0+0xa8>
 8006618:	463c      	mov	r4, r7
 800661a:	42a3      	cmp	r3, r4
 800661c:	dd1b      	ble.n	8006656 <_strtol_l.isra.0+0xc6>
 800661e:	1c57      	adds	r7, r2, #1
 8006620:	d007      	beq.n	8006632 <_strtol_l.isra.0+0xa2>
 8006622:	4581      	cmp	r9, r0
 8006624:	d314      	bcc.n	8006650 <_strtol_l.isra.0+0xc0>
 8006626:	d101      	bne.n	800662c <_strtol_l.isra.0+0x9c>
 8006628:	45a2      	cmp	sl, r4
 800662a:	db11      	blt.n	8006650 <_strtol_l.isra.0+0xc0>
 800662c:	fb00 4003 	mla	r0, r0, r3, r4
 8006630:	2201      	movs	r2, #1
 8006632:	f815 4b01 	ldrb.w	r4, [r5], #1
 8006636:	e7eb      	b.n	8006610 <_strtol_l.isra.0+0x80>
 8006638:	f1a4 0741 	sub.w	r7, r4, #65	@ 0x41
 800663c:	2f19      	cmp	r7, #25
 800663e:	d801      	bhi.n	8006644 <_strtol_l.isra.0+0xb4>
 8006640:	3c37      	subs	r4, #55	@ 0x37
 8006642:	e7ea      	b.n	800661a <_strtol_l.isra.0+0x8a>
 8006644:	f1a4 0761 	sub.w	r7, r4, #97	@ 0x61
 8006648:	2f19      	cmp	r7, #25
 800664a:	d804      	bhi.n	8006656 <_strtol_l.isra.0+0xc6>
 800664c:	3c57      	subs	r4, #87	@ 0x57
 800664e:	e7e4      	b.n	800661a <_strtol_l.isra.0+0x8a>
 8006650:	f04f 32ff 	mov.w	r2, #4294967295
 8006654:	e7ed      	b.n	8006632 <_strtol_l.isra.0+0xa2>
 8006656:	1c53      	adds	r3, r2, #1
 8006658:	d108      	bne.n	800666c <_strtol_l.isra.0+0xdc>
 800665a:	2322      	movs	r3, #34	@ 0x22
 800665c:	f8ce 3000 	str.w	r3, [lr]
 8006660:	4660      	mov	r0, ip
 8006662:	f1b8 0f00 	cmp.w	r8, #0
 8006666:	d0a0      	beq.n	80065aa <_strtol_l.isra.0+0x1a>
 8006668:	1e69      	subs	r1, r5, #1
 800666a:	e006      	b.n	800667a <_strtol_l.isra.0+0xea>
 800666c:	b106      	cbz	r6, 8006670 <_strtol_l.isra.0+0xe0>
 800666e:	4240      	negs	r0, r0
 8006670:	f1b8 0f00 	cmp.w	r8, #0
 8006674:	d099      	beq.n	80065aa <_strtol_l.isra.0+0x1a>
 8006676:	2a00      	cmp	r2, #0
 8006678:	d1f6      	bne.n	8006668 <_strtol_l.isra.0+0xd8>
 800667a:	f8c8 1000 	str.w	r1, [r8]
 800667e:	e794      	b.n	80065aa <_strtol_l.isra.0+0x1a>
 8006680:	08009cd1 	.word	0x08009cd1

08006684 <strtol>:
 8006684:	4613      	mov	r3, r2
 8006686:	460a      	mov	r2, r1
 8006688:	4601      	mov	r1, r0
 800668a:	4802      	ldr	r0, [pc, #8]	@ (8006694 <strtol+0x10>)
 800668c:	6800      	ldr	r0, [r0, #0]
 800668e:	f7ff bf7f 	b.w	8006590 <_strtol_l.isra.0>
 8006692:	bf00      	nop
 8006694:	20000188 	.word	0x20000188

08006698 <__cvt>:
 8006698:	e92d 47ff 	stmdb	sp!, {r0, r1, r2, r3, r4, r5, r6, r7, r8, r9, sl, lr}
 800669c:	ec57 6b10 	vmov	r6, r7, d0
 80066a0:	2f00      	cmp	r7, #0
 80066a2:	460c      	mov	r4, r1
 80066a4:	4619      	mov	r1, r3
 80066a6:	463b      	mov	r3, r7
 80066a8:	bfbb      	ittet	lt
 80066aa:	f107 4300 	addlt.w	r3, r7, #2147483648	@ 0x80000000
 80066ae:	461f      	movlt	r7, r3
 80066b0:	2300      	movge	r3, #0
 80066b2:	232d      	movlt	r3, #45	@ 0x2d
 80066b4:	700b      	strb	r3, [r1, #0]
 80066b6:	9b0d      	ldr	r3, [sp, #52]	@ 0x34
 80066b8:	f8dd a030 	ldr.w	sl, [sp, #48]	@ 0x30
 80066bc:	4691      	mov	r9, r2
 80066be:	f023 0820 	bic.w	r8, r3, #32
 80066c2:	bfbc      	itt	lt
 80066c4:	4632      	movlt	r2, r6
 80066c6:	4616      	movlt	r6, r2
 80066c8:	f1b8 0f46 	cmp.w	r8, #70	@ 0x46
 80066cc:	d005      	beq.n	80066da <__cvt+0x42>
 80066ce:	f1b8 0f45 	cmp.w	r8, #69	@ 0x45
 80066d2:	d100      	bne.n	80066d6 <__cvt+0x3e>
 80066d4:	3401      	adds	r4, #1
 80066d6:	2102      	movs	r1, #2
 80066d8:	e000      	b.n	80066dc <__cvt+0x44>
 80066da:	2103      	movs	r1, #3
 80066dc:	ab03      	add	r3, sp, #12
 80066de:	9301      	str	r3, [sp, #4]
 80066e0:	ab02      	add	r3, sp, #8
 80066e2:	9300      	str	r3, [sp, #0]
 80066e4:	ec47 6b10 	vmov	d0, r6, r7
 80066e8:	4653      	mov	r3, sl
 80066ea:	4622      	mov	r2, r4
 80066ec:	f000 ff88 	bl	8007600 <_dtoa_r>
 80066f0:	f1b8 0f47 	cmp.w	r8, #71	@ 0x47
 80066f4:	4605      	mov	r5, r0
 80066f6:	d119      	bne.n	800672c <__cvt+0x94>
 80066f8:	f019 0f01 	tst.w	r9, #1
 80066fc:	d00e      	beq.n	800671c <__cvt+0x84>
 80066fe:	eb00 0904 	add.w	r9, r0, r4
 8006702:	2200      	movs	r2, #0
 8006704:	2300      	movs	r3, #0
 8006706:	4630      	mov	r0, r6
 8006708:	4639      	mov	r1, r7
 800670a:	f7fa f9e5 	bl	8000ad8 <__aeabi_dcmpeq>
 800670e:	b108      	cbz	r0, 8006714 <__cvt+0x7c>
 8006710:	f8cd 900c 	str.w	r9, [sp, #12]
 8006714:	2230      	movs	r2, #48	@ 0x30
 8006716:	9b03      	ldr	r3, [sp, #12]
 8006718:	454b      	cmp	r3, r9
 800671a:	d31e      	bcc.n	800675a <__cvt+0xc2>
 800671c:	9b03      	ldr	r3, [sp, #12]
 800671e:	9a0e      	ldr	r2, [sp, #56]	@ 0x38
 8006720:	1b5b      	subs	r3, r3, r5
 8006722:	4628      	mov	r0, r5
 8006724:	6013      	str	r3, [r2, #0]
 8006726:	b004      	add	sp, #16
 8006728:	e8bd 87f0 	ldmia.w	sp!, {r4, r5, r6, r7, r8, r9, sl, pc}
 800672c:	f1b8 0f46 	cmp.w	r8, #70	@ 0x46
 8006730:	eb00 0904 	add.w	r9, r0, r4
 8006734:	d1e5      	bne.n	8006702 <__cvt+0x6a>
 8006736:	7803      	ldrb	r3, [r0, #0]
 8006738:	2b30      	cmp	r3, #48	@ 0x30
 800673a:	d10a      	bne.n	8006752 <__cvt+0xba>
 800673c:	2200      	movs	r2, #0
 800673e:	2300      	movs	r3, #0
 8006740:	4630      	mov	r0, r6
 8006742:	4639      	mov	r1, r7
 8006744:	f7fa f9c8 	bl	8000ad8 <__aeabi_dcmpeq>
 8006748:	b918      	cbnz	r0, 8006752 <__cvt+0xba>
 800674a:	f1c4 0401 	rsb	r4, r4, #1
 800674e:	f8ca 4000 	str.w	r4, [sl]
 8006752:	f8da 3000 	ldr.w	r3, [sl]
 8006756:	4499      	add	r9, r3
 8006758:	e7d3      	b.n	8006702 <__cvt+0x6a>
 800675a:	1c59      	adds	r1, r3, #1
 800675c:	9103      	str	r1, [sp, #12]
 800675e:	701a      	strb	r2, [r3, #0]
 8006760:	e7d9      	b.n	8006716 <__cvt+0x7e>

08006762 <__exponent>:
 8006762:	b5f7      	push	{r0, r1, r2, r4, r5, r6, r7, lr}
 8006764:	2900      	cmp	r1, #0
 8006766:	bfba      	itte	lt
 8006768:	4249      	neglt	r1, r1
 800676a:	232d      	movlt	r3, #45	@ 0x2d
 800676c:	232b      	movge	r3, #43	@ 0x2b
 800676e:	2909      	cmp	r1, #9
 8006770:	7002      	strb	r2, [r0, #0]
 8006772:	7043      	strb	r3, [r0, #1]
 8006774:	dd29      	ble.n	80067ca <__exponent+0x68>
 8006776:	f10d 0307 	add.w	r3, sp, #7
 800677a:	461d      	mov	r5, r3
 800677c:	270a      	movs	r7, #10
 800677e:	461a      	mov	r2, r3
 8006780:	fbb1 f6f7 	udiv	r6, r1, r7
 8006784:	fb07 1416 	mls	r4, r7, r6, r1
 8006788:	3430      	adds	r4, #48	@ 0x30
 800678a:	f802 4c01 	strb.w	r4, [r2, #-1]
 800678e:	460c      	mov	r4, r1
 8006790:	2c63      	cmp	r4, #99	@ 0x63
 8006792:	f103 33ff 	add.w	r3, r3, #4294967295
 8006796:	4631      	mov	r1, r6
 8006798:	dcf1      	bgt.n	800677e <__exponent+0x1c>
 800679a:	3130      	adds	r1, #48	@ 0x30
 800679c:	1e94      	subs	r4, r2, #2
 800679e:	f803 1c01 	strb.w	r1, [r3, #-1]
 80067a2:	1c41      	adds	r1, r0, #1
 80067a4:	4623      	mov	r3, r4
 80067a6:	42ab      	cmp	r3, r5
 80067a8:	d30a      	bcc.n	80067c0 <__exponent+0x5e>
 80067aa:	f10d 0309 	add.w	r3, sp, #9
 80067ae:	1a9b      	subs	r3, r3, r2
 80067b0:	42ac      	cmp	r4, r5
 80067b2:	bf88      	it	hi
 80067b4:	2300      	movhi	r3, #0
 80067b6:	3302      	adds	r3, #2
 80067b8:	4403      	add	r3, r0
 80067ba:	1a18      	subs	r0, r3, r0
 80067bc:	b003      	add	sp, #12
 80067be:	bdf0      	pop	{r4, r5, r6, r7, pc}
 80067c0:	f813 6b01 	ldrb.w	r6, [r3], #1
 80067c4:	f801 6f01 	strb.w	r6, [r1, #1]!
 80067c8:	e7ed      	b.n	80067a6 <__exponent+0x44>
 80067ca:	2330      	movs	r3, #48	@ 0x30
 80067cc:	3130      	adds	r1, #48	@ 0x30
 80067ce:	7083      	strb	r3, [r0, #2]
 80067d0:	70c1      	strb	r1, [r0, #3]
 80067d2:	1d03      	adds	r3, r0, #4
 80067d4:	e7f1      	b.n	80067ba <__exponent+0x58>
	...

080067d8 <_printf_float>:
 80067d8:	e92d 4ff0 	stmdb	sp!, {r4, r5, r6, r7, r8, r9, sl, fp, lr}
 80067dc:	b08d      	sub	sp, #52	@ 0x34
 80067de:	460c      	mov	r4, r1
 80067e0:	f8dd 8058 	ldr.w	r8, [sp, #88]	@ 0x58
 80067e4:	4616      	mov	r6, r2
 80067e6:	461f      	mov	r7, r3
 80067e8:	4605      	mov	r5, r0
 80067ea:	f000 fdf3 	bl	80073d4 <_localeconv_r>
 80067ee:	6803      	ldr	r3, [r0, #0]
 80067f0:	9304      	str	r3, [sp, #16]
 80067f2:	4618      	mov	r0, r3
 80067f4:	f7f9 fd44 	bl	8000280 <strlen>
 80067f8:	2300      	movs	r3, #0
 80067fa:	930a      	str	r3, [sp, #40]	@ 0x28
 80067fc:	f8d8 3000 	ldr.w	r3, [r8]
 8006800:	9005      	str	r0, [sp, #20]
 8006802:	3307      	adds	r3, #7
 8006804:	f023 0307 	bic.w	r3, r3, #7
 8006808:	f103 0208 	add.w	r2, r3, #8
 800680c:	f894 a018 	ldrb.w	sl, [r4, #24]
 8006810:	f8d4 b000 	ldr.w	fp, [r4]
 8006814:	f8c8 2000 	str.w	r2, [r8]
 8006818:	e9d3 8900 	ldrd	r8, r9, [r3]
 800681c:	f029 4300 	bic.w	r3, r9, #2147483648	@ 0x80000000
 8006820:	9307      	str	r3, [sp, #28]
 8006822:	f8cd 8018 	str.w	r8, [sp, #24]
 8006826:	e9c4 8912 	strd	r8, r9, [r4, #72]	@ 0x48
 800682a:	e9dd 0106 	ldrd	r0, r1, [sp, #24]
 800682e:	4b9c      	ldr	r3, [pc, #624]	@ (8006aa0 <_printf_float+0x2c8>)
 8006830:	f04f 32ff 	mov.w	r2, #4294967295
 8006834:	f7fa f982 	bl	8000b3c <__aeabi_dcmpun>
 8006838:	bb70      	cbnz	r0, 8006898 <_printf_float+0xc0>
 800683a:	e9dd 0106 	ldrd	r0, r1, [sp, #24]
 800683e:	4b98      	ldr	r3, [pc, #608]	@ (8006aa0 <_printf_float+0x2c8>)
 8006840:	f04f 32ff 	mov.w	r2, #4294967295
 8006844:	f7fa f95c 	bl	8000b00 <__aeabi_dcmple>
 8006848:	bb30      	cbnz	r0, 8006898 <_printf_float+0xc0>
 800684a:	2200      	movs	r2, #0
 800684c:	2300      	movs	r3, #0
 800684e:	4640      	mov	r0, r8
 8006850:	4649      	mov	r1, r9
 8006852:	f7fa f94b 	bl	8000aec <__aeabi_dcmplt>
 8006856:	b110      	cbz	r0, 800685e <_printf_float+0x86>
 8006858:	232d      	movs	r3, #45	@ 0x2d
 800685a:	f884 3043 	strb.w	r3, [r4, #67]	@ 0x43
 800685e:	4a91      	ldr	r2, [pc, #580]	@ (8006aa4 <_printf_float+0x2cc>)
 8006860:	4b91      	ldr	r3, [pc, #580]	@ (8006aa8 <_printf_float+0x2d0>)
 8006862:	f1ba 0f47 	cmp.w	sl, #71	@ 0x47
 8006866:	bf8c      	ite	hi
 8006868:	4690      	movhi	r8, r2
 800686a:	4698      	movls	r8, r3
 800686c:	2303      	movs	r3, #3
 800686e:	6123      	str	r3, [r4, #16]
 8006870:	f02b 0304 	bic.w	r3, fp, #4
 8006874:	6023      	str	r3, [r4, #0]
 8006876:	f04f 0900 	mov.w	r9, #0
 800687a:	9700      	str	r7, [sp, #0]
 800687c:	4633      	mov	r3, r6
 800687e:	aa0b      	add	r2, sp, #44	@ 0x2c
 8006880:	4621      	mov	r1, r4
 8006882:	4628      	mov	r0, r5
 8006884:	f000 f9d2 	bl	8006c2c <_printf_common>
 8006888:	3001      	adds	r0, #1
 800688a:	f040 808d 	bne.w	80069a8 <_printf_float+0x1d0>
 800688e:	f04f 30ff 	mov.w	r0, #4294967295
 8006892:	b00d      	add	sp, #52	@ 0x34
 8006894:	e8bd 8ff0 	ldmia.w	sp!, {r4, r5, r6, r7, r8, r9, sl, fp, pc}
 8006898:	4642      	mov	r2, r8
 800689a:	464b      	mov	r3, r9
 800689c:	4640      	mov	r0, r8
 800689e:	4649      	mov	r1, r9
 80068a0:	f7fa f94c 	bl	8000b3c <__aeabi_dcmpun>
 80068a4:	b140      	cbz	r0, 80068b8 <_printf_float+0xe0>
 80068a6:	464b      	mov	r3, r9
 80068a8:	2b00      	cmp	r3, #0
 80068aa:	bfbc      	itt	lt
 80068ac:	232d      	movlt	r3, #45	@ 0x2d
 80068ae:	f884 3043 	strblt.w	r3, [r4, #67]	@ 0x43
 80068b2:	4a7e      	ldr	r2, [pc, #504]	@ (8006aac <_printf_float+0x2d4>)
 80068b4:	4b7e      	ldr	r3, [pc, #504]	@ (8006ab0 <_printf_float+0x2d8>)
 80068b6:	e7d4      	b.n	8006862 <_printf_float+0x8a>
 80068b8:	6863      	ldr	r3, [r4, #4]
 80068ba:	f00a 02df 	and.w	r2, sl, #223	@ 0xdf
 80068be:	9206      	str	r2, [sp, #24]
 80068c0:	1c5a      	adds	r2, r3, #1
 80068c2:	d13b      	bne.n	800693c <_printf_float+0x164>
 80068c4:	2306      	movs	r3, #6
 80068c6:	6063      	str	r3, [r4, #4]
 80068c8:	f44b 6280 	orr.w	r2, fp, #1024	@ 0x400
 80068cc:	2300      	movs	r3, #0
 80068ce:	6022      	str	r2, [r4, #0]
 80068d0:	9303      	str	r3, [sp, #12]
 80068d2:	ab0a      	add	r3, sp, #40	@ 0x28
 80068d4:	e9cd a301 	strd	sl, r3, [sp, #4]
 80068d8:	ab09      	add	r3, sp, #36	@ 0x24
 80068da:	9300      	str	r3, [sp, #0]
 80068dc:	6861      	ldr	r1, [r4, #4]
 80068de:	ec49 8b10 	vmov	d0, r8, r9
 80068e2:	f10d 0323 	add.w	r3, sp, #35	@ 0x23
 80068e6:	4628      	mov	r0, r5
 80068e8:	f7ff fed6 	bl	8006698 <__cvt>
 80068ec:	9b06      	ldr	r3, [sp, #24]
 80068ee:	9909      	ldr	r1, [sp, #36]	@ 0x24
 80068f0:	2b47      	cmp	r3, #71	@ 0x47
 80068f2:	4680      	mov	r8, r0
 80068f4:	d129      	bne.n	800694a <_printf_float+0x172>
 80068f6:	1cc8      	adds	r0, r1, #3
 80068f8:	db02      	blt.n	8006900 <_printf_float+0x128>
 80068fa:	6863      	ldr	r3, [r4, #4]
 80068fc:	4299      	cmp	r1, r3
 80068fe:	dd41      	ble.n	8006984 <_printf_float+0x1ac>
 8006900:	f1aa 0a02 	sub.w	sl, sl, #2
 8006904:	fa5f fa8a 	uxtb.w	sl, sl
 8006908:	3901      	subs	r1, #1
 800690a:	4652      	mov	r2, sl
 800690c:	f104 0050 	add.w	r0, r4, #80	@ 0x50
 8006910:	9109      	str	r1, [sp, #36]	@ 0x24
 8006912:	f7ff ff26 	bl	8006762 <__exponent>
 8006916:	9a0a      	ldr	r2, [sp, #40]	@ 0x28
 8006918:	1813      	adds	r3, r2, r0
 800691a:	2a01      	cmp	r2, #1
 800691c:	4681      	mov	r9, r0
 800691e:	6123      	str	r3, [r4, #16]
 8006920:	dc02      	bgt.n	8006928 <_printf_float+0x150>
 8006922:	6822      	ldr	r2, [r4, #0]
 8006924:	07d2      	lsls	r2, r2, #31
 8006926:	d501      	bpl.n	800692c <_printf_float+0x154>
 8006928:	3301      	adds	r3, #1
 800692a:	6123      	str	r3, [r4, #16]
 800692c:	f89d 3023 	ldrb.w	r3, [sp, #35]	@ 0x23
 8006930:	2b00      	cmp	r3, #0
 8006932:	d0a2      	beq.n	800687a <_printf_float+0xa2>
 8006934:	232d      	movs	r3, #45	@ 0x2d
 8006936:	f884 3043 	strb.w	r3, [r4, #67]	@ 0x43
 800693a:	e79e      	b.n	800687a <_printf_float+0xa2>
 800693c:	9a06      	ldr	r2, [sp, #24]
 800693e:	2a47      	cmp	r2, #71	@ 0x47
 8006940:	d1c2      	bne.n	80068c8 <_printf_float+0xf0>
 8006942:	2b00      	cmp	r3, #0
 8006944:	d1c0      	bne.n	80068c8 <_printf_float+0xf0>
 8006946:	2301      	movs	r3, #1
 8006948:	e7bd      	b.n	80068c6 <_printf_float+0xee>
 800694a:	f1ba 0f65 	cmp.w	sl, #101	@ 0x65
 800694e:	d9db      	bls.n	8006908 <_printf_float+0x130>
 8006950:	f1ba 0f66 	cmp.w	sl, #102	@ 0x66
 8006954:	d118      	bne.n	8006988 <_printf_float+0x1b0>
 8006956:	2900      	cmp	r1, #0
 8006958:	6863      	ldr	r3, [r4, #4]
 800695a:	dd0b      	ble.n	8006974 <_printf_float+0x19c>
 800695c:	6121      	str	r1, [r4, #16]
 800695e:	b913      	cbnz	r3, 8006966 <_printf_float+0x18e>
 8006960:	6822      	ldr	r2, [r4, #0]
 8006962:	07d0      	lsls	r0, r2, #31
 8006964:	d502      	bpl.n	800696c <_printf_float+0x194>
 8006966:	3301      	adds	r3, #1
 8006968:	440b      	add	r3, r1
 800696a:	6123      	str	r3, [r4, #16]
 800696c:	65a1      	str	r1, [r4, #88]	@ 0x58
 800696e:	f04f 0900 	mov.w	r9, #0
 8006972:	e7db      	b.n	800692c <_printf_float+0x154>
 8006974:	b913      	cbnz	r3, 800697c <_printf_float+0x1a4>
 8006976:	6822      	ldr	r2, [r4, #0]
 8006978:	07d2      	lsls	r2, r2, #31
 800697a:	d501      	bpl.n	8006980 <_printf_float+0x1a8>
 800697c:	3302      	adds	r3, #2
 800697e:	e7f4      	b.n	800696a <_printf_float+0x192>
 8006980:	2301      	movs	r3, #1
 8006982:	e7f2      	b.n	800696a <_printf_float+0x192>
 8006984:	f04f 0a67 	mov.w	sl, #103	@ 0x67
 8006988:	9b0a      	ldr	r3, [sp, #40]	@ 0x28
 800698a:	4299      	cmp	r1, r3
 800698c:	db05      	blt.n	800699a <_printf_float+0x1c2>
 800698e:	6823      	ldr	r3, [r4, #0]
 8006990:	6121      	str	r1, [r4, #16]
 8006992:	07d8      	lsls	r0, r3, #31
 8006994:	d5ea      	bpl.n	800696c <_printf_float+0x194>
 8006996:	1c4b      	adds	r3, r1, #1
 8006998:	e7e7      	b.n	800696a <_printf_float+0x192>
 800699a:	2900      	cmp	r1, #0
 800699c:	bfd4      	ite	le
 800699e:	f1c1 0202 	rsble	r2, r1, #2
 80069a2:	2201      	movgt	r2, #1
 80069a4:	4413      	add	r3, r2
 80069a6:	e7e0      	b.n	800696a <_printf_float+0x192>
 80069a8:	6823      	ldr	r3, [r4, #0]
 80069aa:	055a      	lsls	r2, r3, #21
 80069ac:	d407      	bmi.n	80069be <_printf_float+0x1e6>
 80069ae:	6923      	ldr	r3, [r4, #16]
 80069b0:	4642      	mov	r2, r8
 80069b2:	4631      	mov	r1, r6
 80069b4:	4628      	mov	r0, r5
 80069b6:	47b8      	blx	r7
 80069b8:	3001      	adds	r0, #1
 80069ba:	d12b      	bne.n	8006a14 <_printf_float+0x23c>
 80069bc:	e767      	b.n	800688e <_printf_float+0xb6>
 80069be:	f1ba 0f65 	cmp.w	sl, #101	@ 0x65
 80069c2:	f240 80dd 	bls.w	8006b80 <_printf_float+0x3a8>
 80069c6:	e9d4 0112 	ldrd	r0, r1, [r4, #72]	@ 0x48
 80069ca:	2200      	movs	r2, #0
 80069cc:	2300      	movs	r3, #0
 80069ce:	f7fa f883 	bl	8000ad8 <__aeabi_dcmpeq>
 80069d2:	2800      	cmp	r0, #0
 80069d4:	d033      	beq.n	8006a3e <_printf_float+0x266>
 80069d6:	4a37      	ldr	r2, [pc, #220]	@ (8006ab4 <_printf_float+0x2dc>)
 80069d8:	2301      	movs	r3, #1
 80069da:	4631      	mov	r1, r6
 80069dc:	4628      	mov	r0, r5
 80069de:	47b8      	blx	r7
 80069e0:	3001      	adds	r0, #1
 80069e2:	f43f af54 	beq.w	800688e <_printf_float+0xb6>
 80069e6:	e9dd 3809 	ldrd	r3, r8, [sp, #36]	@ 0x24
 80069ea:	4543      	cmp	r3, r8
 80069ec:	db02      	blt.n	80069f4 <_printf_float+0x21c>
 80069ee:	6823      	ldr	r3, [r4, #0]
 80069f0:	07d8      	lsls	r0, r3, #31
 80069f2:	d50f      	bpl.n	8006a14 <_printf_float+0x23c>
 80069f4:	e9dd 2304 	ldrd	r2, r3, [sp, #16]
 80069f8:	4631      	mov	r1, r6
 80069fa:	4628      	mov	r0, r5
 80069fc:	47b8      	blx	r7
 80069fe:	3001      	adds	r0, #1
 8006a00:	f43f af45 	beq.w	800688e <_printf_float+0xb6>
 8006a04:	f04f 0900 	mov.w	r9, #0
 8006a08:	f108 38ff 	add.w	r8, r8, #4294967295
 8006a0c:	f104 0a1a 	add.w	sl, r4, #26
 8006a10:	45c8      	cmp	r8, r9
 8006a12:	dc09      	bgt.n	8006a28 <_printf_float+0x250>
 8006a14:	6823      	ldr	r3, [r4, #0]
 8006a16:	079b      	lsls	r3, r3, #30
 8006a18:	f100 8103 	bmi.w	8006c22 <_printf_float+0x44a>
 8006a1c:	68e0      	ldr	r0, [r4, #12]
 8006a1e:	9b0b      	ldr	r3, [sp, #44]	@ 0x2c
 8006a20:	4298      	cmp	r0, r3
 8006a22:	bfb8      	it	lt
 8006a24:	4618      	movlt	r0, r3
 8006a26:	e734      	b.n	8006892 <_printf_float+0xba>
 8006a28:	2301      	movs	r3, #1
 8006a2a:	4652      	mov	r2, sl
 8006a2c:	4631      	mov	r1, r6
 8006a2e:	4628      	mov	r0, r5
 8006a30:	47b8      	blx	r7
 8006a32:	3001      	adds	r0, #1
 8006a34:	f43f af2b 	beq.w	800688e <_printf_float+0xb6>
 8006a38:	f109 0901 	add.w	r9, r9, #1
 8006a3c:	e7e8      	b.n	8006a10 <_printf_float+0x238>
 8006a3e:	9b09      	ldr	r3, [sp, #36]	@ 0x24
 8006a40:	2b00      	cmp	r3, #0
 8006a42:	dc39      	bgt.n	8006ab8 <_printf_float+0x2e0>
 8006a44:	4a1b      	ldr	r2, [pc, #108]	@ (8006ab4 <_printf_float+0x2dc>)
 8006a46:	2301      	movs	r3, #1
 8006a48:	4631      	mov	r1, r6
 8006a4a:	4628      	mov	r0, r5
 8006a4c:	47b8      	blx	r7
 8006a4e:	3001      	adds	r0, #1
 8006a50:	f43f af1d 	beq.w	800688e <_printf_float+0xb6>
 8006a54:	e9dd 3909 	ldrd	r3, r9, [sp, #36]	@ 0x24
 8006a58:	ea59 0303 	orrs.w	r3, r9, r3
 8006a5c:	d102      	bne.n	8006a64 <_printf_float+0x28c>
 8006a5e:	6823      	ldr	r3, [r4, #0]
 8006a60:	07d9      	lsls	r1, r3, #31
 8006a62:	d5d7      	bpl.n	8006a14 <_printf_float+0x23c>
 8006a64:	e9dd 2304 	ldrd	r2, r3, [sp, #16]
 8006a68:	4631      	mov	r1, r6
 8006a6a:	4628      	mov	r0, r5
 8006a6c:	47b8      	blx	r7
 8006a6e:	3001      	adds	r0, #1
 8006a70:	f43f af0d 	beq.w	800688e <_printf_float+0xb6>
 8006a74:	f04f 0a00 	mov.w	sl, #0
 8006a78:	f104 0b1a 	add.w	fp, r4, #26
 8006a7c:	9b09      	ldr	r3, [sp, #36]	@ 0x24
 8006a7e:	425b      	negs	r3, r3
 8006a80:	4553      	cmp	r3, sl
 8006a82:	dc01      	bgt.n	8006a88 <_printf_float+0x2b0>
 8006a84:	464b      	mov	r3, r9
 8006a86:	e793      	b.n	80069b0 <_printf_float+0x1d8>
 8006a88:	2301      	movs	r3, #1
 8006a8a:	465a      	mov	r2, fp
 8006a8c:	4631      	mov	r1, r6
 8006a8e:	4628      	mov	r0, r5
 8006a90:	47b8      	blx	r7
 8006a92:	3001      	adds	r0, #1
 8006a94:	f43f aefb 	beq.w	800688e <_printf_float+0xb6>
 8006a98:	f10a 0a01 	add.w	sl, sl, #1
 8006a9c:	e7ee      	b.n	8006a7c <_printf_float+0x2a4>
 8006a9e:	bf00      	nop
 8006aa0:	7fefffff 	.word	0x7fefffff
 8006aa4:	08009ab2 	.word	0x08009ab2
 8006aa8:	08009aae 	.word	0x08009aae
 8006aac:	08009aba 	.word	0x08009aba
 8006ab0:	08009ab6 	.word	0x08009ab6
 8006ab4:	08009abe 	.word	0x08009abe
 8006ab8:	6da3      	ldr	r3, [r4, #88]	@ 0x58
 8006aba:	f8dd a028 	ldr.w	sl, [sp, #40]	@ 0x28
 8006abe:	4553      	cmp	r3, sl
 8006ac0:	bfa8      	it	ge
 8006ac2:	4653      	movge	r3, sl
 8006ac4:	2b00      	cmp	r3, #0
 8006ac6:	4699      	mov	r9, r3
 8006ac8:	dc36      	bgt.n	8006b38 <_printf_float+0x360>
 8006aca:	f04f 0b00 	mov.w	fp, #0
 8006ace:	ea29 79e9 	bic.w	r9, r9, r9, asr #31
 8006ad2:	f104 021a 	add.w	r2, r4, #26
 8006ad6:	6da3      	ldr	r3, [r4, #88]	@ 0x58
 8006ad8:	9306      	str	r3, [sp, #24]
 8006ada:	eba3 0309 	sub.w	r3, r3, r9
 8006ade:	455b      	cmp	r3, fp
 8006ae0:	dc31      	bgt.n	8006b46 <_printf_float+0x36e>
 8006ae2:	9b09      	ldr	r3, [sp, #36]	@ 0x24
 8006ae4:	459a      	cmp	sl, r3
 8006ae6:	dc3a      	bgt.n	8006b5e <_printf_float+0x386>
 8006ae8:	6823      	ldr	r3, [r4, #0]
 8006aea:	07da      	lsls	r2, r3, #31
 8006aec:	d437      	bmi.n	8006b5e <_printf_float+0x386>
 8006aee:	9b09      	ldr	r3, [sp, #36]	@ 0x24
 8006af0:	ebaa 0903 	sub.w	r9, sl, r3
 8006af4:	9b06      	ldr	r3, [sp, #24]
 8006af6:	ebaa 0303 	sub.w	r3, sl, r3
 8006afa:	4599      	cmp	r9, r3
 8006afc:	bfa8      	it	ge
 8006afe:	4699      	movge	r9, r3
 8006b00:	f1b9 0f00 	cmp.w	r9, #0
 8006b04:	dc33      	bgt.n	8006b6e <_printf_float+0x396>
 8006b06:	f04f 0800 	mov.w	r8, #0
 8006b0a:	ea29 79e9 	bic.w	r9, r9, r9, asr #31
 8006b0e:	f104 0b1a 	add.w	fp, r4, #26
 8006b12:	9b09      	ldr	r3, [sp, #36]	@ 0x24
 8006b14:	ebaa 0303 	sub.w	r3, sl, r3
 8006b18:	eba3 0309 	sub.w	r3, r3, r9
 8006b1c:	4543      	cmp	r3, r8
 8006b1e:	f77f af79 	ble.w	8006a14 <_printf_float+0x23c>
 8006b22:	2301      	movs	r3, #1
 8006b24:	465a      	mov	r2, fp
 8006b26:	4631      	mov	r1, r6
 8006b28:	4628      	mov	r0, r5
 8006b2a:	47b8      	blx	r7
 8006b2c:	3001      	adds	r0, #1
 8006b2e:	f43f aeae 	beq.w	800688e <_printf_float+0xb6>
 8006b32:	f108 0801 	add.w	r8, r8, #1
 8006b36:	e7ec      	b.n	8006b12 <_printf_float+0x33a>
 8006b38:	4642      	mov	r2, r8
 8006b3a:	4631      	mov	r1, r6
 8006b3c:	4628      	mov	r0, r5
 8006b3e:	47b8      	blx	r7
 8006b40:	3001      	adds	r0, #1
 8006b42:	d1c2      	bne.n	8006aca <_printf_float+0x2f2>
 8006b44:	e6a3      	b.n	800688e <_printf_float+0xb6>
 8006b46:	2301      	movs	r3, #1
 8006b48:	4631      	mov	r1, r6
 8006b4a:	4628      	mov	r0, r5
 8006b4c:	9206      	str	r2, [sp, #24]
 8006b4e:	47b8      	blx	r7
 8006b50:	3001      	adds	r0, #1
 8006b52:	f43f ae9c 	beq.w	800688e <_printf_float+0xb6>
 8006b56:	9a06      	ldr	r2, [sp, #24]
 8006b58:	f10b 0b01 	add.w	fp, fp, #1
 8006b5c:	e7bb      	b.n	8006ad6 <_printf_float+0x2fe>
 8006b5e:	e9dd 2304 	ldrd	r2, r3, [sp, #16]
 8006b62:	4631      	mov	r1, r6
 8006b64:	4628      	mov	r0, r5
 8006b66:	47b8      	blx	r7
 8006b68:	3001      	adds	r0, #1
 8006b6a:	d1c0      	bne.n	8006aee <_printf_float+0x316>
 8006b6c:	e68f      	b.n	800688e <_printf_float+0xb6>
 8006b6e:	9a06      	ldr	r2, [sp, #24]
 8006b70:	464b      	mov	r3, r9
 8006b72:	4442      	add	r2, r8
 8006b74:	4631      	mov	r1, r6
 8006b76:	4628      	mov	r0, r5
 8006b78:	47b8      	blx	r7
 8006b7a:	3001      	adds	r0, #1
 8006b7c:	d1c3      	bne.n	8006b06 <_printf_float+0x32e>
 8006b7e:	e686      	b.n	800688e <_printf_float+0xb6>
 8006b80:	f8dd a028 	ldr.w	sl, [sp, #40]	@ 0x28
 8006b84:	f1ba 0f01 	cmp.w	sl, #1
 8006b88:	dc01      	bgt.n	8006b8e <_printf_float+0x3b6>
 8006b8a:	07db      	lsls	r3, r3, #31
 8006b8c:	d536      	bpl.n	8006bfc <_printf_float+0x424>
 8006b8e:	2301      	movs	r3, #1
 8006b90:	4642      	mov	r2, r8
 8006b92:	4631      	mov	r1, r6
 8006b94:	4628      	mov	r0, r5
 8006b96:	47b8      	blx	r7
 8006b98:	3001      	adds	r0, #1
 8006b9a:	f43f ae78 	beq.w	800688e <_printf_float+0xb6>
 8006b9e:	e9dd 2304 	ldrd	r2, r3, [sp, #16]
 8006ba2:	4631      	mov	r1, r6
 8006ba4:	4628      	mov	r0, r5
 8006ba6:	47b8      	blx	r7
 8006ba8:	3001      	adds	r0, #1
 8006baa:	f43f ae70 	beq.w	800688e <_printf_float+0xb6>
 8006bae:	e9d4 0112 	ldrd	r0, r1, [r4, #72]	@ 0x48
 8006bb2:	2200      	movs	r2, #0
 8006bb4:	2300      	movs	r3, #0
 8006bb6:	f10a 3aff 	add.w	sl, sl, #4294967295
 8006bba:	f7f9 ff8d 	bl	8000ad8 <__aeabi_dcmpeq>
 8006bbe:	b9c0      	cbnz	r0, 8006bf2 <_printf_float+0x41a>
 8006bc0:	4653      	mov	r3, sl
 8006bc2:	f108 0201 	add.w	r2, r8, #1
 8006bc6:	4631      	mov	r1, r6
 8006bc8:	4628      	mov	r0, r5
 8006bca:	47b8      	blx	r7
 8006bcc:	3001      	adds	r0, #1
 8006bce:	d10c      	bne.n	8006bea <_printf_float+0x412>
 8006bd0:	e65d      	b.n	800688e <_printf_float+0xb6>
 8006bd2:	2301      	movs	r3, #1
 8006bd4:	465a      	mov	r2, fp
 8006bd6:	4631      	mov	r1, r6
 8006bd8:	4628      	mov	r0, r5
 8006bda:	47b8      	blx	r7
 8006bdc:	3001      	adds	r0, #1
 8006bde:	f43f ae56 	beq.w	800688e <_printf_float+0xb6>
 8006be2:	f108 0801 	add.w	r8, r8, #1
 8006be6:	45d0      	cmp	r8, sl
 8006be8:	dbf3      	blt.n	8006bd2 <_printf_float+0x3fa>
 8006bea:	464b      	mov	r3, r9
 8006bec:	f104 0250 	add.w	r2, r4, #80	@ 0x50
 8006bf0:	e6df      	b.n	80069b2 <_printf_float+0x1da>
 8006bf2:	f04f 0800 	mov.w	r8, #0
 8006bf6:	f104 0b1a 	add.w	fp, r4, #26
 8006bfa:	e7f4      	b.n	8006be6 <_printf_float+0x40e>
 8006bfc:	2301      	movs	r3, #1
 8006bfe:	4642      	mov	r2, r8
 8006c00:	e7e1      	b.n	8006bc6 <_printf_float+0x3ee>
 8006c02:	2301      	movs	r3, #1
 8006c04:	464a      	mov	r2, r9
 8006c06:	4631      	mov	r1, r6
 8006c08:	4628      	mov	r0, r5
 8006c0a:	47b8      	blx	r7
 8006c0c:	3001      	adds	r0, #1
 8006c0e:	f43f ae3e 	beq.w	800688e <_printf_float+0xb6>
 8006c12:	f108 0801 	add.w	r8, r8, #1
 8006c16:	68e3      	ldr	r3, [r4, #12]
 8006c18:	990b      	ldr	r1, [sp, #44]	@ 0x2c
 8006c1a:	1a5b      	subs	r3, r3, r1
 8006c1c:	4543      	cmp	r3, r8
 8006c1e:	dcf0      	bgt.n	8006c02 <_printf_float+0x42a>
 8006c20:	e6fc      	b.n	8006a1c <_printf_float+0x244>
 8006c22:	f04f 0800 	mov.w	r8, #0
 8006c26:	f104 0919 	add.w	r9, r4, #25
 8006c2a:	e7f4      	b.n	8006c16 <_printf_float+0x43e>

08006c2c <_printf_common>:
 8006c2c:	e92d 47f0 	stmdb	sp!, {r4, r5, r6, r7, r8, r9, sl, lr}
 8006c30:	4616      	mov	r6, r2
 8006c32:	4698      	mov	r8, r3
 8006c34:	688a      	ldr	r2, [r1, #8]
 8006c36:	690b      	ldr	r3, [r1, #16]
 8006c38:	f8dd 9020 	ldr.w	r9, [sp, #32]
 8006c3c:	4293      	cmp	r3, r2
 8006c3e:	bfb8      	it	lt
 8006c40:	4613      	movlt	r3, r2
 8006c42:	6033      	str	r3, [r6, #0]
 8006c44:	f891 2043 	ldrb.w	r2, [r1, #67]	@ 0x43
 8006c48:	4607      	mov	r7, r0
 8006c4a:	460c      	mov	r4, r1
 8006c4c:	b10a      	cbz	r2, 8006c52 <_printf_common+0x26>
 8006c4e:	3301      	adds	r3, #1
 8006c50:	6033      	str	r3, [r6, #0]
 8006c52:	6823      	ldr	r3, [r4, #0]
 8006c54:	0699      	lsls	r1, r3, #26
 8006c56:	bf42      	ittt	mi
 8006c58:	6833      	ldrmi	r3, [r6, #0]
 8006c5a:	3302      	addmi	r3, #2
 8006c5c:	6033      	strmi	r3, [r6, #0]
 8006c5e:	6825      	ldr	r5, [r4, #0]
 8006c60:	f015 0506 	ands.w	r5, r5, #6
 8006c64:	d106      	bne.n	8006c74 <_printf_common+0x48>
 8006c66:	f104 0a19 	add.w	sl, r4, #25
 8006c6a:	68e3      	ldr	r3, [r4, #12]
 8006c6c:	6832      	ldr	r2, [r6, #0]
 8006c6e:	1a9b      	subs	r3, r3, r2
 8006c70:	42ab      	cmp	r3, r5
 8006c72:	dc26      	bgt.n	8006cc2 <_printf_common+0x96>
 8006c74:	f894 3043 	ldrb.w	r3, [r4, #67]	@ 0x43
 8006c78:	6822      	ldr	r2, [r4, #0]
 8006c7a:	3b00      	subs	r3, #0
 8006c7c:	bf18      	it	ne
 8006c7e:	2301      	movne	r3, #1
 8006c80:	0692      	lsls	r2, r2, #26
 8006c82:	d42b      	bmi.n	8006cdc <_printf_common+0xb0>
 8006c84:	f104 0243 	add.w	r2, r4, #67	@ 0x43
 8006c88:	4641      	mov	r1, r8
 8006c8a:	4638      	mov	r0, r7
 8006c8c:	47c8      	blx	r9
 8006c8e:	3001      	adds	r0, #1
 8006c90:	d01e      	beq.n	8006cd0 <_printf_common+0xa4>
 8006c92:	6823      	ldr	r3, [r4, #0]
 8006c94:	6922      	ldr	r2, [r4, #16]
 8006c96:	f003 0306 	and.w	r3, r3, #6
 8006c9a:	2b04      	cmp	r3, #4
 8006c9c:	bf02      	ittt	eq
 8006c9e:	68e5      	ldreq	r5, [r4, #12]
 8006ca0:	6833      	ldreq	r3, [r6, #0]
 8006ca2:	1aed      	subeq	r5, r5, r3
 8006ca4:	68a3      	ldr	r3, [r4, #8]
 8006ca6:	bf0c      	ite	eq
 8006ca8:	ea25 75e5 	biceq.w	r5, r5, r5, asr #31
 8006cac:	2500      	movne	r5, #0
 8006cae:	4293      	cmp	r3, r2
 8006cb0:	bfc4      	itt	gt
 8006cb2:	1a9b      	subgt	r3, r3, r2
 8006cb4:	18ed      	addgt	r5, r5, r3
 8006cb6:	2600      	movs	r6, #0
 8006cb8:	341a      	adds	r4, #26
 8006cba:	42b5      	cmp	r5, r6
 8006cbc:	d11a      	bne.n	8006cf4 <_printf_common+0xc8>
 8006cbe:	2000      	movs	r0, #0
 8006cc0:	e008      	b.n	8006cd4 <_printf_common+0xa8>
 8006cc2:	2301      	movs	r3, #1
 8006cc4:	4652      	mov	r2, sl
 8006cc6:	4641      	mov	r1, r8
 8006cc8:	4638      	mov	r0, r7
 8006cca:	47c8      	blx	r9
 8006ccc:	3001      	adds	r0, #1
 8006cce:	d103      	bne.n	8006cd8 <_printf_common+0xac>
 8006cd0:	f04f 30ff 	mov.w	r0, #4294967295
 8006cd4:	e8bd 87f0 	ldmia.w	sp!, {r4, r5, r6, r7, r8, r9, sl, pc}
 8006cd8:	3501      	adds	r5, #1
 8006cda:	e7c6      	b.n	8006c6a <_printf_common+0x3e>
 8006cdc:	18e1      	adds	r1, r4, r3
 8006cde:	1c5a      	adds	r2, r3, #1
 8006ce0:	2030      	movs	r0, #48	@ 0x30
 8006ce2:	f881 0043 	strb.w	r0, [r1, #67]	@ 0x43
 8006ce6:	4422      	add	r2, r4
 8006ce8:	f894 1045 	ldrb.w	r1, [r4, #69]	@ 0x45
 8006cec:	f882 1043 	strb.w	r1, [r2, #67]	@ 0x43
 8006cf0:	3302      	adds	r3, #2
 8006cf2:	e7c7      	b.n	8006c84 <_printf_common+0x58>
 8006cf4:	2301      	movs	r3, #1
 8006cf6:	4622      	mov	r2, r4
 8006cf8:	4641      	mov	r1, r8
 8006cfa:	4638      	mov	r0, r7
 8006cfc:	47c8      	blx	r9
 8006cfe:	3001      	adds	r0, #1
 8006d00:	d0e6      	beq.n	8006cd0 <_printf_common+0xa4>
 8006d02:	3601      	adds	r6, #1
 8006d04:	e7d9      	b.n	8006cba <_printf_common+0x8e>
	...

08006d08 <_printf_i>:
 8006d08:	e92d 47ff 	stmdb	sp!, {r0, r1, r2, r3, r4, r5, r6, r7, r8, r9, sl, lr}
 8006d0c:	7e0f      	ldrb	r7, [r1, #24]
 8006d0e:	9e0c      	ldr	r6, [sp, #48]	@ 0x30
 8006d10:	2f78      	cmp	r7, #120	@ 0x78
 8006d12:	4691      	mov	r9, r2
 8006d14:	4680      	mov	r8, r0
 8006d16:	460c      	mov	r4, r1
 8006d18:	469a      	mov	sl, r3
 8006d1a:	f101 0243 	add.w	r2, r1, #67	@ 0x43
 8006d1e:	d807      	bhi.n	8006d30 <_printf_i+0x28>
 8006d20:	2f62      	cmp	r7, #98	@ 0x62
 8006d22:	d80a      	bhi.n	8006d3a <_printf_i+0x32>
 8006d24:	2f00      	cmp	r7, #0
 8006d26:	f000 80d1 	beq.w	8006ecc <_printf_i+0x1c4>
 8006d2a:	2f58      	cmp	r7, #88	@ 0x58
 8006d2c:	f000 80b8 	beq.w	8006ea0 <_printf_i+0x198>
 8006d30:	f104 0642 	add.w	r6, r4, #66	@ 0x42
 8006d34:	f884 7042 	strb.w	r7, [r4, #66]	@ 0x42
 8006d38:	e03a      	b.n	8006db0 <_printf_i+0xa8>
 8006d3a:	f1a7 0363 	sub.w	r3, r7, #99	@ 0x63
 8006d3e:	2b15      	cmp	r3, #21
 8006d40:	d8f6      	bhi.n	8006d30 <_printf_i+0x28>
 8006d42:	a101      	add	r1, pc, #4	@ (adr r1, 8006d48 <_printf_i+0x40>)
 8006d44:	f851 f023 	ldr.w	pc, [r1, r3, lsl #2]
 8006d48:	08006da1 	.word	0x08006da1
 8006d4c:	08006db5 	.word	0x08006db5
 8006d50:	08006d31 	.word	0x08006d31
 8006d54:	08006d31 	.word	0x08006d31
 8006d58:	08006d31 	.word	0x08006d31
 8006d5c:	08006d31 	.word	0x08006d31
 8006d60:	08006db5 	.word	0x08006db5
 8006d64:	08006d31 	.word	0x08006d31
 8006d68:	08006d31 	.word	0x08006d31
 8006d6c:	08006d31 	.word	0x08006d31
 8006d70:	08006d31 	.word	0x08006d31
 8006d74:	08006eb3 	.word	0x08006eb3
 8006d78:	08006ddf 	.word	0x08006ddf
 8006d7c:	08006e6d 	.word	0x08006e6d
 8006d80:	08006d31 	.word	0x08006d31
 8006d84:	08006d31 	.word	0x08006d31
 8006d88:	08006ed5 	.word	0x08006ed5
 8006d8c:	08006d31 	.word	0x08006d31
 8006d90:	08006ddf 	.word	0x08006ddf
 8006d94:	08006d31 	.word	0x08006d31
 8006d98:	08006d31 	.word	0x08006d31
 8006d9c:	08006e75 	.word	0x08006e75
 8006da0:	6833      	ldr	r3, [r6, #0]
 8006da2:	1d1a      	adds	r2, r3, #4
 8006da4:	681b      	ldr	r3, [r3, #0]
 8006da6:	6032      	str	r2, [r6, #0]
 8006da8:	f104 0642 	add.w	r6, r4, #66	@ 0x42
 8006dac:	f884 3042 	strb.w	r3, [r4, #66]	@ 0x42
 8006db0:	2301      	movs	r3, #1
 8006db2:	e09c      	b.n	8006eee <_printf_i+0x1e6>
 8006db4:	6833      	ldr	r3, [r6, #0]
 8006db6:	6820      	ldr	r0, [r4, #0]
 8006db8:	1d19      	adds	r1, r3, #4
 8006dba:	6031      	str	r1, [r6, #0]
 8006dbc:	0606      	lsls	r6, r0, #24
 8006dbe:	d501      	bpl.n	8006dc4 <_printf_i+0xbc>
 8006dc0:	681d      	ldr	r5, [r3, #0]
 8006dc2:	e003      	b.n	8006dcc <_printf_i+0xc4>
 8006dc4:	0645      	lsls	r5, r0, #25
 8006dc6:	d5fb      	bpl.n	8006dc0 <_printf_i+0xb8>
 8006dc8:	f9b3 5000 	ldrsh.w	r5, [r3]
 8006dcc:	2d00      	cmp	r5, #0
 8006dce:	da03      	bge.n	8006dd8 <_printf_i+0xd0>
 8006dd0:	232d      	movs	r3, #45	@ 0x2d
 8006dd2:	426d      	negs	r5, r5
 8006dd4:	f884 3043 	strb.w	r3, [r4, #67]	@ 0x43
 8006dd8:	4858      	ldr	r0, [pc, #352]	@ (8006f3c <_printf_i+0x234>)
 8006dda:	230a      	movs	r3, #10
 8006ddc:	e011      	b.n	8006e02 <_printf_i+0xfa>
 8006dde:	6821      	ldr	r1, [r4, #0]
 8006de0:	6833      	ldr	r3, [r6, #0]
 8006de2:	0608      	lsls	r0, r1, #24
 8006de4:	f853 5b04 	ldr.w	r5, [r3], #4
 8006de8:	d402      	bmi.n	8006df0 <_printf_i+0xe8>
 8006dea:	0649      	lsls	r1, r1, #25
 8006dec:	bf48      	it	mi
 8006dee:	b2ad      	uxthmi	r5, r5
 8006df0:	2f6f      	cmp	r7, #111	@ 0x6f
 8006df2:	4852      	ldr	r0, [pc, #328]	@ (8006f3c <_printf_i+0x234>)
 8006df4:	6033      	str	r3, [r6, #0]
 8006df6:	bf14      	ite	ne
 8006df8:	230a      	movne	r3, #10
 8006dfa:	2308      	moveq	r3, #8
 8006dfc:	2100      	movs	r1, #0
 8006dfe:	f884 1043 	strb.w	r1, [r4, #67]	@ 0x43
 8006e02:	6866      	ldr	r6, [r4, #4]
 8006e04:	60a6      	str	r6, [r4, #8]
 8006e06:	2e00      	cmp	r6, #0
 8006e08:	db05      	blt.n	8006e16 <_printf_i+0x10e>
 8006e0a:	6821      	ldr	r1, [r4, #0]
 8006e0c:	432e      	orrs	r6, r5
 8006e0e:	f021 0104 	bic.w	r1, r1, #4
 8006e12:	6021      	str	r1, [r4, #0]
 8006e14:	d04b      	beq.n	8006eae <_printf_i+0x1a6>
 8006e16:	4616      	mov	r6, r2
 8006e18:	fbb5 f1f3 	udiv	r1, r5, r3
 8006e1c:	fb03 5711 	mls	r7, r3, r1, r5
 8006e20:	5dc7      	ldrb	r7, [r0, r7]
 8006e22:	f806 7d01 	strb.w	r7, [r6, #-1]!
 8006e26:	462f      	mov	r7, r5
 8006e28:	42bb      	cmp	r3, r7
 8006e2a:	460d      	mov	r5, r1
 8006e2c:	d9f4      	bls.n	8006e18 <_printf_i+0x110>
 8006e2e:	2b08      	cmp	r3, #8
 8006e30:	d10b      	bne.n	8006e4a <_printf_i+0x142>
 8006e32:	6823      	ldr	r3, [r4, #0]
 8006e34:	07df      	lsls	r7, r3, #31
 8006e36:	d508      	bpl.n	8006e4a <_printf_i+0x142>
 8006e38:	6923      	ldr	r3, [r4, #16]
 8006e3a:	6861      	ldr	r1, [r4, #4]
 8006e3c:	4299      	cmp	r1, r3
 8006e3e:	bfde      	ittt	le
 8006e40:	2330      	movle	r3, #48	@ 0x30
 8006e42:	f806 3c01 	strble.w	r3, [r6, #-1]
 8006e46:	f106 36ff 	addle.w	r6, r6, #4294967295
 8006e4a:	1b92      	subs	r2, r2, r6
 8006e4c:	6122      	str	r2, [r4, #16]
 8006e4e:	f8cd a000 	str.w	sl, [sp]
 8006e52:	464b      	mov	r3, r9
 8006e54:	aa03      	add	r2, sp, #12
 8006e56:	4621      	mov	r1, r4
 8006e58:	4640      	mov	r0, r8
 8006e5a:	f7ff fee7 	bl	8006c2c <_printf_common>
 8006e5e:	3001      	adds	r0, #1
 8006e60:	d14a      	bne.n	8006ef8 <_printf_i+0x1f0>
 8006e62:	f04f 30ff 	mov.w	r0, #4294967295
 8006e66:	b004      	add	sp, #16
 8006e68:	e8bd 87f0 	ldmia.w	sp!, {r4, r5, r6, r7, r8, r9, sl, pc}
 8006e6c:	6823      	ldr	r3, [r4, #0]
 8006e6e:	f043 0320 	orr.w	r3, r3, #32
 8006e72:	6023      	str	r3, [r4, #0]
 8006e74:	4832      	ldr	r0, [pc, #200]	@ (8006f40 <_printf_i+0x238>)
 8006e76:	2778      	movs	r7, #120	@ 0x78
 8006e78:	f884 7045 	strb.w	r7, [r4, #69]	@ 0x45
 8006e7c:	6823      	ldr	r3, [r4, #0]
 8006e7e:	6831      	ldr	r1, [r6, #0]
 8006e80:	061f      	lsls	r7, r3, #24
 8006e82:	f851 5b04 	ldr.w	r5, [r1], #4
 8006e86:	d402      	bmi.n	8006e8e <_printf_i+0x186>
 8006e88:	065f      	lsls	r7, r3, #25
 8006e8a:	bf48      	it	mi
 8006e8c:	b2ad      	uxthmi	r5, r5
 8006e8e:	6031      	str	r1, [r6, #0]
 8006e90:	07d9      	lsls	r1, r3, #31
 8006e92:	bf44      	itt	mi
 8006e94:	f043 0320 	orrmi.w	r3, r3, #32
 8006e98:	6023      	strmi	r3, [r4, #0]
 8006e9a:	b11d      	cbz	r5, 8006ea4 <_printf_i+0x19c>
 8006e9c:	2310      	movs	r3, #16
 8006e9e:	e7ad      	b.n	8006dfc <_printf_i+0xf4>
 8006ea0:	4826      	ldr	r0, [pc, #152]	@ (8006f3c <_printf_i+0x234>)
 8006ea2:	e7e9      	b.n	8006e78 <_printf_i+0x170>
 8006ea4:	6823      	ldr	r3, [r4, #0]
 8006ea6:	f023 0320 	bic.w	r3, r3, #32
 8006eaa:	6023      	str	r3, [r4, #0]
 8006eac:	e7f6      	b.n	8006e9c <_printf_i+0x194>
 8006eae:	4616      	mov	r6, r2
 8006eb0:	e7bd      	b.n	8006e2e <_printf_i+0x126>
 8006eb2:	6833      	ldr	r3, [r6, #0]
 8006eb4:	6825      	ldr	r5, [r4, #0]
 8006eb6:	6961      	ldr	r1, [r4, #20]
 8006eb8:	1d18      	adds	r0, r3, #4
 8006eba:	6030      	str	r0, [r6, #0]
 8006ebc:	062e      	lsls	r6, r5, #24
 8006ebe:	681b      	ldr	r3, [r3, #0]
 8006ec0:	d501      	bpl.n	8006ec6 <_printf_i+0x1be>
 8006ec2:	6019      	str	r1, [r3, #0]
 8006ec4:	e002      	b.n	8006ecc <_printf_i+0x1c4>
 8006ec6:	0668      	lsls	r0, r5, #25
 8006ec8:	d5fb      	bpl.n	8006ec2 <_printf_i+0x1ba>
 8006eca:	8019      	strh	r1, [r3, #0]
 8006ecc:	2300      	movs	r3, #0
 8006ece:	6123      	str	r3, [r4, #16]
 8006ed0:	4616      	mov	r6, r2
 8006ed2:	e7bc      	b.n	8006e4e <_printf_i+0x146>
 8006ed4:	6833      	ldr	r3, [r6, #0]
 8006ed6:	1d1a      	adds	r2, r3, #4
 8006ed8:	6032      	str	r2, [r6, #0]
 8006eda:	681e      	ldr	r6, [r3, #0]
 8006edc:	6862      	ldr	r2, [r4, #4]
 8006ede:	2100      	movs	r1, #0
 8006ee0:	4630      	mov	r0, r6
 8006ee2:	f7f9 f97d 	bl	80001e0 <memchr>
 8006ee6:	b108      	cbz	r0, 8006eec <_printf_i+0x1e4>
 8006ee8:	1b80      	subs	r0, r0, r6
 8006eea:	6060      	str	r0, [r4, #4]
 8006eec:	6863      	ldr	r3, [r4, #4]
 8006eee:	6123      	str	r3, [r4, #16]
 8006ef0:	2300      	movs	r3, #0
 8006ef2:	f884 3043 	strb.w	r3, [r4, #67]	@ 0x43
 8006ef6:	e7aa      	b.n	8006e4e <_printf_i+0x146>
 8006ef8:	6923      	ldr	r3, [r4, #16]
 8006efa:	4632      	mov	r2, r6
 8006efc:	4649      	mov	r1, r9
 8006efe:	4640      	mov	r0, r8
 8006f00:	47d0      	blx	sl
 8006f02:	3001      	adds	r0, #1
 8006f04:	d0ad      	beq.n	8006e62 <_printf_i+0x15a>
 8006f06:	6823      	ldr	r3, [r4, #0]
 8006f08:	079b      	lsls	r3, r3, #30
 8006f0a:	d413      	bmi.n	8006f34 <_printf_i+0x22c>
 8006f0c:	68e0      	ldr	r0, [r4, #12]
 8006f0e:	9b03      	ldr	r3, [sp, #12]
 8006f10:	4298      	cmp	r0, r3
 8006f12:	bfb8      	it	lt
 8006f14:	4618      	movlt	r0, r3
 8006f16:	e7a6      	b.n	8006e66 <_printf_i+0x15e>
 8006f18:	2301      	movs	r3, #1
 8006f1a:	4632      	mov	r2, r6
 8006f1c:	4649      	mov	r1, r9
 8006f1e:	4640      	mov	r0, r8
 8006f20:	47d0      	blx	sl
 8006f22:	3001      	adds	r0, #1
 8006f24:	d09d      	beq.n	8006e62 <_printf_i+0x15a>
 8006f26:	3501      	adds	r5, #1
 8006f28:	68e3      	ldr	r3, [r4, #12]
 8006f2a:	9903      	ldr	r1, [sp, #12]
 8006f2c:	1a5b      	subs	r3, r3, r1
 8006f2e:	42ab      	cmp	r3, r5
 8006f30:	dcf2      	bgt.n	8006f18 <_printf_i+0x210>
 8006f32:	e7eb      	b.n	8006f0c <_printf_i+0x204>
 8006f34:	2500      	movs	r5, #0
 8006f36:	f104 0619 	add.w	r6, r4, #25
 8006f3a:	e7f5      	b.n	8006f28 <_printf_i+0x220>
 8006f3c:	08009ac0 	.word	0x08009ac0
 8006f40:	08009ad1 	.word	0x08009ad1

08006f44 <std>:
 8006f44:	2300      	movs	r3, #0
 8006f46:	b510      	push	{r4, lr}
 8006f48:	4604      	mov	r4, r0
 8006f4a:	e9c0 3300 	strd	r3, r3, [r0]
 8006f4e:	e9c0 3304 	strd	r3, r3, [r0, #16]
 8006f52:	6083      	str	r3, [r0, #8]
 8006f54:	8181      	strh	r1, [r0, #12]
 8006f56:	6643      	str	r3, [r0, #100]	@ 0x64
 8006f58:	81c2      	strh	r2, [r0, #14]
 8006f5a:	6183      	str	r3, [r0, #24]
 8006f5c:	4619      	mov	r1, r3
 8006f5e:	2208      	movs	r2, #8
 8006f60:	305c      	adds	r0, #92	@ 0x5c
 8006f62:	f000 f9f9 	bl	8007358 <memset>
 8006f66:	4b0d      	ldr	r3, [pc, #52]	@ (8006f9c <std+0x58>)
 8006f68:	6263      	str	r3, [r4, #36]	@ 0x24
 8006f6a:	4b0d      	ldr	r3, [pc, #52]	@ (8006fa0 <std+0x5c>)
 8006f6c:	62a3      	str	r3, [r4, #40]	@ 0x28
 8006f6e:	4b0d      	ldr	r3, [pc, #52]	@ (8006fa4 <std+0x60>)
 8006f70:	62e3      	str	r3, [r4, #44]	@ 0x2c
 8006f72:	4b0d      	ldr	r3, [pc, #52]	@ (8006fa8 <std+0x64>)
 8006f74:	6323      	str	r3, [r4, #48]	@ 0x30
 8006f76:	4b0d      	ldr	r3, [pc, #52]	@ (8006fac <std+0x68>)
 8006f78:	6224      	str	r4, [r4, #32]
 8006f7a:	429c      	cmp	r4, r3
 8006f7c:	d006      	beq.n	8006f8c <std+0x48>
 8006f7e:	f103 0268 	add.w	r2, r3, #104	@ 0x68
 8006f82:	4294      	cmp	r4, r2
 8006f84:	d002      	beq.n	8006f8c <std+0x48>
 8006f86:	33d0      	adds	r3, #208	@ 0xd0
 8006f88:	429c      	cmp	r4, r3
 8006f8a:	d105      	bne.n	8006f98 <std+0x54>
 8006f8c:	f104 0058 	add.w	r0, r4, #88	@ 0x58
 8006f90:	e8bd 4010 	ldmia.w	sp!, {r4, lr}
 8006f94:	f000 ba92 	b.w	80074bc <__retarget_lock_init_recursive>
 8006f98:	bd10      	pop	{r4, pc}
 8006f9a:	bf00      	nop
 8006f9c:	080071a9 	.word	0x080071a9
 8006fa0:	080071cb 	.word	0x080071cb
 8006fa4:	08007203 	.word	0x08007203
 8006fa8:	08007227 	.word	0x08007227
 8006fac:	2000039c 	.word	0x2000039c

08006fb0 <stdio_exit_handler>:
 8006fb0:	4a02      	ldr	r2, [pc, #8]	@ (8006fbc <stdio_exit_handler+0xc>)
 8006fb2:	4903      	ldr	r1, [pc, #12]	@ (8006fc0 <stdio_exit_handler+0x10>)
 8006fb4:	4803      	ldr	r0, [pc, #12]	@ (8006fc4 <stdio_exit_handler+0x14>)
 8006fb6:	f000 b869 	b.w	800708c <_fwalk_sglue>
 8006fba:	bf00      	nop
 8006fbc:	20000010 	.word	0x20000010
 8006fc0:	08009731 	.word	0x08009731
 8006fc4:	2000018c 	.word	0x2000018c

08006fc8 <cleanup_stdio>:
 8006fc8:	6841      	ldr	r1, [r0, #4]
 8006fca:	4b0c      	ldr	r3, [pc, #48]	@ (8006ffc <cleanup_stdio+0x34>)
 8006fcc:	4299      	cmp	r1, r3
 8006fce:	b510      	push	{r4, lr}
 8006fd0:	4604      	mov	r4, r0
 8006fd2:	d001      	beq.n	8006fd8 <cleanup_stdio+0x10>
 8006fd4:	f002 fbac 	bl	8009730 <_fflush_r>
 8006fd8:	68a1      	ldr	r1, [r4, #8]
 8006fda:	4b09      	ldr	r3, [pc, #36]	@ (8007000 <cleanup_stdio+0x38>)
 8006fdc:	4299      	cmp	r1, r3
 8006fde:	d002      	beq.n	8006fe6 <cleanup_stdio+0x1e>
 8006fe0:	4620      	mov	r0, r4
 8006fe2:	f002 fba5 	bl	8009730 <_fflush_r>
 8006fe6:	68e1      	ldr	r1, [r4, #12]
 8006fe8:	4b06      	ldr	r3, [pc, #24]	@ (8007004 <cleanup_stdio+0x3c>)
 8006fea:	4299      	cmp	r1, r3
 8006fec:	d004      	beq.n	8006ff8 <cleanup_stdio+0x30>
 8006fee:	4620      	mov	r0, r4
 8006ff0:	e8bd 4010 	ldmia.w	sp!, {r4, lr}
 8006ff4:	f002 bb9c 	b.w	8009730 <_fflush_r>
 8006ff8:	bd10      	pop	{r4, pc}
 8006ffa:	bf00      	nop
 8006ffc:	2000039c 	.word	0x2000039c
 8007000:	20000404 	.word	0x20000404
 8007004:	2000046c 	.word	0x2000046c

08007008 <global_stdio_init.part.0>:
 8007008:	b510      	push	{r4, lr}
 800700a:	4b0b      	ldr	r3, [pc, #44]	@ (8007038 <global_stdio_init.part.0+0x30>)
 800700c:	4c0b      	ldr	r4, [pc, #44]	@ (800703c <global_stdio_init.part.0+0x34>)
 800700e:	4a0c      	ldr	r2, [pc, #48]	@ (8007040 <global_stdio_init.part.0+0x38>)
 8007010:	601a      	str	r2, [r3, #0]
 8007012:	4620      	mov	r0, r4
 8007014:	2200      	movs	r2, #0
 8007016:	2104      	movs	r1, #4
 8007018:	f7ff ff94 	bl	8006f44 <std>
 800701c:	f104 0068 	add.w	r0, r4, #104	@ 0x68
 8007020:	2201      	movs	r2, #1
 8007022:	2109      	movs	r1, #9
 8007024:	f7ff ff8e 	bl	8006f44 <std>
 8007028:	f104 00d0 	add.w	r0, r4, #208	@ 0xd0
 800702c:	2202      	movs	r2, #2
 800702e:	e8bd 4010 	ldmia.w	sp!, {r4, lr}
 8007032:	2112      	movs	r1, #18
 8007034:	f7ff bf86 	b.w	8006f44 <std>
 8007038:	200004d4 	.word	0x200004d4
 800703c:	2000039c 	.word	0x2000039c
 8007040:	08006fb1 	.word	0x08006fb1

08007044 <__sfp_lock_acquire>:
 8007044:	4801      	ldr	r0, [pc, #4]	@ (800704c <__sfp_lock_acquire+0x8>)
 8007046:	f000 ba3a 	b.w	80074be <__retarget_lock_acquire_recursive>
 800704a:	bf00      	nop
 800704c:	200004dd 	.word	0x200004dd

08007050 <__sfp_lock_release>:
 8007050:	4801      	ldr	r0, [pc, #4]	@ (8007058 <__sfp_lock_release+0x8>)
 8007052:	f000 ba35 	b.w	80074c0 <__retarget_lock_release_recursive>
 8007056:	bf00      	nop
 8007058:	200004dd 	.word	0x200004dd

0800705c <__sinit>:
 800705c:	b510      	push	{r4, lr}
 800705e:	4604      	mov	r4, r0
 8007060:	f7ff fff0 	bl	8007044 <__sfp_lock_acquire>
 8007064:	6a23      	ldr	r3, [r4, #32]
 8007066:	b11b      	cbz	r3, 8007070 <__sinit+0x14>
 8007068:	e8bd 4010 	ldmia.w	sp!, {r4, lr}
 800706c:	f7ff bff0 	b.w	8007050 <__sfp_lock_release>
 8007070:	4b04      	ldr	r3, [pc, #16]	@ (8007084 <__sinit+0x28>)
 8007072:	6223      	str	r3, [r4, #32]
 8007074:	4b04      	ldr	r3, [pc, #16]	@ (8007088 <__sinit+0x2c>)
 8007076:	681b      	ldr	r3, [r3, #0]
 8007078:	2b00      	cmp	r3, #0
 800707a:	d1f5      	bne.n	8007068 <__sinit+0xc>
 800707c:	f7ff ffc4 	bl	8007008 <global_stdio_init.part.0>
 8007080:	e7f2      	b.n	8007068 <__sinit+0xc>
 8007082:	bf00      	nop
 8007084:	08006fc9 	.word	0x08006fc9
 8007088:	200004d4 	.word	0x200004d4

0800708c <_fwalk_sglue>:
 800708c:	e92d 43f8 	stmdb	sp!, {r3, r4, r5, r6, r7, r8, r9, lr}
 8007090:	4607      	mov	r7, r0
 8007092:	4688      	mov	r8, r1
 8007094:	4614      	mov	r4, r2
 8007096:	2600      	movs	r6, #0
 8007098:	e9d4 9501 	ldrd	r9, r5, [r4, #4]
 800709c:	f1b9 0901 	subs.w	r9, r9, #1
 80070a0:	d505      	bpl.n	80070ae <_fwalk_sglue+0x22>
 80070a2:	6824      	ldr	r4, [r4, #0]
 80070a4:	2c00      	cmp	r4, #0
 80070a6:	d1f7      	bne.n	8007098 <_fwalk_sglue+0xc>
 80070a8:	4630      	mov	r0, r6
 80070aa:	e8bd 83f8 	ldmia.w	sp!, {r3, r4, r5, r6, r7, r8, r9, pc}
 80070ae:	89ab      	ldrh	r3, [r5, #12]
 80070b0:	2b01      	cmp	r3, #1
 80070b2:	d907      	bls.n	80070c4 <_fwalk_sglue+0x38>
 80070b4:	f9b5 300e 	ldrsh.w	r3, [r5, #14]
 80070b8:	3301      	adds	r3, #1
 80070ba:	d003      	beq.n	80070c4 <_fwalk_sglue+0x38>
 80070bc:	4629      	mov	r1, r5
 80070be:	4638      	mov	r0, r7
 80070c0:	47c0      	blx	r8
 80070c2:	4306      	orrs	r6, r0
 80070c4:	3568      	adds	r5, #104	@ 0x68
 80070c6:	e7e9      	b.n	800709c <_fwalk_sglue+0x10>

080070c8 <iprintf>:
 80070c8:	b40f      	push	{r0, r1, r2, r3}
 80070ca:	b507      	push	{r0, r1, r2, lr}
 80070cc:	4906      	ldr	r1, [pc, #24]	@ (80070e8 <iprintf+0x20>)
 80070ce:	ab04      	add	r3, sp, #16
 80070d0:	6808      	ldr	r0, [r1, #0]
 80070d2:	f853 2b04 	ldr.w	r2, [r3], #4
 80070d6:	6881      	ldr	r1, [r0, #8]
 80070d8:	9301      	str	r3, [sp, #4]
 80070da:	f002 f98d 	bl	80093f8 <_vfiprintf_r>
 80070de:	b003      	add	sp, #12
 80070e0:	f85d eb04 	ldr.w	lr, [sp], #4
 80070e4:	b004      	add	sp, #16
 80070e6:	4770      	bx	lr
 80070e8:	20000188 	.word	0x20000188

080070ec <_puts_r>:
 80070ec:	6a03      	ldr	r3, [r0, #32]
 80070ee:	b570      	push	{r4, r5, r6, lr}
 80070f0:	6884      	ldr	r4, [r0, #8]
 80070f2:	4605      	mov	r5, r0
 80070f4:	460e      	mov	r6, r1
 80070f6:	b90b      	cbnz	r3, 80070fc <_puts_r+0x10>
 80070f8:	f7ff ffb0 	bl	800705c <__sinit>
 80070fc:	6e63      	ldr	r3, [r4, #100]	@ 0x64
 80070fe:	07db      	lsls	r3, r3, #31
 8007100:	d405      	bmi.n	800710e <_puts_r+0x22>
 8007102:	89a3      	ldrh	r3, [r4, #12]
 8007104:	0598      	lsls	r0, r3, #22
 8007106:	d402      	bmi.n	800710e <_puts_r+0x22>
 8007108:	6da0      	ldr	r0, [r4, #88]	@ 0x58
 800710a:	f000 f9d8 	bl	80074be <__retarget_lock_acquire_recursive>
 800710e:	89a3      	ldrh	r3, [r4, #12]
 8007110:	0719      	lsls	r1, r3, #28
 8007112:	d502      	bpl.n	800711a <_puts_r+0x2e>
 8007114:	6923      	ldr	r3, [r4, #16]
 8007116:	2b00      	cmp	r3, #0
 8007118:	d135      	bne.n	8007186 <_puts_r+0x9a>
 800711a:	4621      	mov	r1, r4
 800711c:	4628      	mov	r0, r5
 800711e:	f000 f8c5 	bl	80072ac <__swsetup_r>
 8007122:	b380      	cbz	r0, 8007186 <_puts_r+0x9a>
 8007124:	f04f 35ff 	mov.w	r5, #4294967295
 8007128:	6e63      	ldr	r3, [r4, #100]	@ 0x64
 800712a:	07da      	lsls	r2, r3, #31
 800712c:	d405      	bmi.n	800713a <_puts_r+0x4e>
 800712e:	89a3      	ldrh	r3, [r4, #12]
 8007130:	059b      	lsls	r3, r3, #22
 8007132:	d402      	bmi.n	800713a <_puts_r+0x4e>
 8007134:	6da0      	ldr	r0, [r4, #88]	@ 0x58
 8007136:	f000 f9c3 	bl	80074c0 <__retarget_lock_release_recursive>
 800713a:	4628      	mov	r0, r5
 800713c:	bd70      	pop	{r4, r5, r6, pc}
 800713e:	2b00      	cmp	r3, #0
 8007140:	da04      	bge.n	800714c <_puts_r+0x60>
 8007142:	69a2      	ldr	r2, [r4, #24]
 8007144:	429a      	cmp	r2, r3
 8007146:	dc17      	bgt.n	8007178 <_puts_r+0x8c>
 8007148:	290a      	cmp	r1, #10
 800714a:	d015      	beq.n	8007178 <_puts_r+0x8c>
 800714c:	6823      	ldr	r3, [r4, #0]
 800714e:	1c5a      	adds	r2, r3, #1
 8007150:	6022      	str	r2, [r4, #0]
 8007152:	7019      	strb	r1, [r3, #0]
 8007154:	68a3      	ldr	r3, [r4, #8]
 8007156:	f816 1f01 	ldrb.w	r1, [r6, #1]!
 800715a:	3b01      	subs	r3, #1
 800715c:	60a3      	str	r3, [r4, #8]
 800715e:	2900      	cmp	r1, #0
 8007160:	d1ed      	bne.n	800713e <_puts_r+0x52>
 8007162:	2b00      	cmp	r3, #0
 8007164:	da11      	bge.n	800718a <_puts_r+0x9e>
 8007166:	4622      	mov	r2, r4
 8007168:	210a      	movs	r1, #10
 800716a:	4628      	mov	r0, r5
 800716c:	f000 f85f 	bl	800722e <__swbuf_r>
 8007170:	3001      	adds	r0, #1
 8007172:	d0d7      	beq.n	8007124 <_puts_r+0x38>
 8007174:	250a      	movs	r5, #10
 8007176:	e7d7      	b.n	8007128 <_puts_r+0x3c>
 8007178:	4622      	mov	r2, r4
 800717a:	4628      	mov	r0, r5
 800717c:	f000 f857 	bl	800722e <__swbuf_r>
 8007180:	3001      	adds	r0, #1
 8007182:	d1e7      	bne.n	8007154 <_puts_r+0x68>
 8007184:	e7ce      	b.n	8007124 <_puts_r+0x38>
 8007186:	3e01      	subs	r6, #1
 8007188:	e7e4      	b.n	8007154 <_puts_r+0x68>
 800718a:	6823      	ldr	r3, [r4, #0]
 800718c:	1c5a      	adds	r2, r3, #1
 800718e:	6022      	str	r2, [r4, #0]
 8007190:	220a      	movs	r2, #10
 8007192:	701a      	strb	r2, [r3, #0]
 8007194:	e7ee      	b.n	8007174 <_puts_r+0x88>
	...

08007198 <puts>:
 8007198:	4b02      	ldr	r3, [pc, #8]	@ (80071a4 <puts+0xc>)
 800719a:	4601      	mov	r1, r0
 800719c:	6818      	ldr	r0, [r3, #0]
 800719e:	f7ff bfa5 	b.w	80070ec <_puts_r>
 80071a2:	bf00      	nop
 80071a4:	20000188 	.word	0x20000188

080071a8 <__sread>:
 80071a8:	b510      	push	{r4, lr}
 80071aa:	460c      	mov	r4, r1
 80071ac:	f9b1 100e 	ldrsh.w	r1, [r1, #14]
 80071b0:	f000 f936 	bl	8007420 <_read_r>
 80071b4:	2800      	cmp	r0, #0
 80071b6:	bfab      	itete	ge
 80071b8:	6d63      	ldrge	r3, [r4, #84]	@ 0x54
 80071ba:	89a3      	ldrhlt	r3, [r4, #12]
 80071bc:	181b      	addge	r3, r3, r0
 80071be:	f423 5380 	biclt.w	r3, r3, #4096	@ 0x1000
 80071c2:	bfac      	ite	ge
 80071c4:	6563      	strge	r3, [r4, #84]	@ 0x54
 80071c6:	81a3      	strhlt	r3, [r4, #12]
 80071c8:	bd10      	pop	{r4, pc}

080071ca <__swrite>:
 80071ca:	e92d 41f0 	stmdb	sp!, {r4, r5, r6, r7, r8, lr}
 80071ce:	461f      	mov	r7, r3
 80071d0:	898b      	ldrh	r3, [r1, #12]
 80071d2:	05db      	lsls	r3, r3, #23
 80071d4:	4605      	mov	r5, r0
 80071d6:	460c      	mov	r4, r1
 80071d8:	4616      	mov	r6, r2
 80071da:	d505      	bpl.n	80071e8 <__swrite+0x1e>
 80071dc:	f9b1 100e 	ldrsh.w	r1, [r1, #14]
 80071e0:	2302      	movs	r3, #2
 80071e2:	2200      	movs	r2, #0
 80071e4:	f000 f90a 	bl	80073fc <_lseek_r>
 80071e8:	89a3      	ldrh	r3, [r4, #12]
 80071ea:	f9b4 100e 	ldrsh.w	r1, [r4, #14]
 80071ee:	f423 5380 	bic.w	r3, r3, #4096	@ 0x1000
 80071f2:	81a3      	strh	r3, [r4, #12]
 80071f4:	4632      	mov	r2, r6
 80071f6:	463b      	mov	r3, r7
 80071f8:	4628      	mov	r0, r5
 80071fa:	e8bd 41f0 	ldmia.w	sp!, {r4, r5, r6, r7, r8, lr}
 80071fe:	f000 b921 	b.w	8007444 <_write_r>

08007202 <__sseek>:
 8007202:	b510      	push	{r4, lr}
 8007204:	460c      	mov	r4, r1
 8007206:	f9b1 100e 	ldrsh.w	r1, [r1, #14]
 800720a:	f000 f8f7 	bl	80073fc <_lseek_r>
 800720e:	1c43      	adds	r3, r0, #1
 8007210:	89a3      	ldrh	r3, [r4, #12]
 8007212:	bf15      	itete	ne
 8007214:	6560      	strne	r0, [r4, #84]	@ 0x54
 8007216:	f423 5380 	biceq.w	r3, r3, #4096	@ 0x1000
 800721a:	f443 5380 	orrne.w	r3, r3, #4096	@ 0x1000
 800721e:	81a3      	strheq	r3, [r4, #12]
 8007220:	bf18      	it	ne
 8007222:	81a3      	strhne	r3, [r4, #12]
 8007224:	bd10      	pop	{r4, pc}

08007226 <__sclose>:
 8007226:	f9b1 100e 	ldrsh.w	r1, [r1, #14]
 800722a:	f000 b8d7 	b.w	80073dc <_close_r>

0800722e <__swbuf_r>:
 800722e:	b5f8      	push	{r3, r4, r5, r6, r7, lr}
 8007230:	460e      	mov	r6, r1
 8007232:	4614      	mov	r4, r2
 8007234:	4605      	mov	r5, r0
 8007236:	b118      	cbz	r0, 8007240 <__swbuf_r+0x12>
 8007238:	6a03      	ldr	r3, [r0, #32]
 800723a:	b90b      	cbnz	r3, 8007240 <__swbuf_r+0x12>
 800723c:	f7ff ff0e 	bl	800705c <__sinit>
 8007240:	69a3      	ldr	r3, [r4, #24]
 8007242:	60a3      	str	r3, [r4, #8]
 8007244:	89a3      	ldrh	r3, [r4, #12]
 8007246:	071a      	lsls	r2, r3, #28
 8007248:	d501      	bpl.n	800724e <__swbuf_r+0x20>
 800724a:	6923      	ldr	r3, [r4, #16]
 800724c:	b943      	cbnz	r3, 8007260 <__swbuf_r+0x32>
 800724e:	4621      	mov	r1, r4
 8007250:	4628      	mov	r0, r5
 8007252:	f000 f82b 	bl	80072ac <__swsetup_r>
 8007256:	b118      	cbz	r0, 8007260 <__swbuf_r+0x32>
 8007258:	f04f 37ff 	mov.w	r7, #4294967295
 800725c:	4638      	mov	r0, r7
 800725e:	bdf8      	pop	{r3, r4, r5, r6, r7, pc}
 8007260:	6823      	ldr	r3, [r4, #0]
 8007262:	6922      	ldr	r2, [r4, #16]
 8007264:	1a98      	subs	r0, r3, r2
 8007266:	6963      	ldr	r3, [r4, #20]
 8007268:	b2f6      	uxtb	r6, r6
 800726a:	4283      	cmp	r3, r0
 800726c:	4637      	mov	r7, r6
 800726e:	dc05      	bgt.n	800727c <__swbuf_r+0x4e>
 8007270:	4621      	mov	r1, r4
 8007272:	4628      	mov	r0, r5
 8007274:	f002 fa5c 	bl	8009730 <_fflush_r>
 8007278:	2800      	cmp	r0, #0
 800727a:	d1ed      	bne.n	8007258 <__swbuf_r+0x2a>
 800727c:	68a3      	ldr	r3, [r4, #8]
 800727e:	3b01      	subs	r3, #1
 8007280:	60a3      	str	r3, [r4, #8]
 8007282:	6823      	ldr	r3, [r4, #0]
 8007284:	1c5a      	adds	r2, r3, #1
 8007286:	6022      	str	r2, [r4, #0]
 8007288:	701e      	strb	r6, [r3, #0]
 800728a:	6962      	ldr	r2, [r4, #20]
 800728c:	1c43      	adds	r3, r0, #1
 800728e:	429a      	cmp	r2, r3
 8007290:	d004      	beq.n	800729c <__swbuf_r+0x6e>
 8007292:	89a3      	ldrh	r3, [r4, #12]
 8007294:	07db      	lsls	r3, r3, #31
 8007296:	d5e1      	bpl.n	800725c <__swbuf_r+0x2e>
 8007298:	2e0a      	cmp	r6, #10
 800729a:	d1df      	bne.n	800725c <__swbuf_r+0x2e>
 800729c:	4621      	mov	r1, r4
 800729e:	4628      	mov	r0, r5
 80072a0:	f002 fa46 	bl	8009730 <_fflush_r>
 80072a4:	2800      	cmp	r0, #0
 80072a6:	d0d9      	beq.n	800725c <__swbuf_r+0x2e>
 80072a8:	e7d6      	b.n	8007258 <__swbuf_r+0x2a>
	...

080072ac <__swsetup_r>:
 80072ac:	b538      	push	{r3, r4, r5, lr}
 80072ae:	4b29      	ldr	r3, [pc, #164]	@ (8007354 <__swsetup_r+0xa8>)
 80072b0:	4605      	mov	r5, r0
 80072b2:	6818      	ldr	r0, [r3, #0]
 80072b4:	460c      	mov	r4, r1
 80072b6:	b118      	cbz	r0, 80072c0 <__swsetup_r+0x14>
 80072b8:	6a03      	ldr	r3, [r0, #32]
 80072ba:	b90b      	cbnz	r3, 80072c0 <__swsetup_r+0x14>
 80072bc:	f7ff fece 	bl	800705c <__sinit>
 80072c0:	f9b4 300c 	ldrsh.w	r3, [r4, #12]
 80072c4:	0719      	lsls	r1, r3, #28
 80072c6:	d422      	bmi.n	800730e <__swsetup_r+0x62>
 80072c8:	06da      	lsls	r2, r3, #27
 80072ca:	d407      	bmi.n	80072dc <__swsetup_r+0x30>
 80072cc:	2209      	movs	r2, #9
 80072ce:	602a      	str	r2, [r5, #0]
 80072d0:	f043 0340 	orr.w	r3, r3, #64	@ 0x40
 80072d4:	81a3      	strh	r3, [r4, #12]
 80072d6:	f04f 30ff 	mov.w	r0, #4294967295
 80072da:	e033      	b.n	8007344 <__swsetup_r+0x98>
 80072dc:	0758      	lsls	r0, r3, #29
 80072de:	d512      	bpl.n	8007306 <__swsetup_r+0x5a>
 80072e0:	6b61      	ldr	r1, [r4, #52]	@ 0x34
 80072e2:	b141      	cbz	r1, 80072f6 <__swsetup_r+0x4a>
 80072e4:	f104 0344 	add.w	r3, r4, #68	@ 0x44
 80072e8:	4299      	cmp	r1, r3
 80072ea:	d002      	beq.n	80072f2 <__swsetup_r+0x46>
 80072ec:	4628      	mov	r0, r5
 80072ee:	f000 ff57 	bl	80081a0 <_free_r>
 80072f2:	2300      	movs	r3, #0
 80072f4:	6363      	str	r3, [r4, #52]	@ 0x34
 80072f6:	89a3      	ldrh	r3, [r4, #12]
 80072f8:	f023 0324 	bic.w	r3, r3, #36	@ 0x24
 80072fc:	81a3      	strh	r3, [r4, #12]
 80072fe:	2300      	movs	r3, #0
 8007300:	6063      	str	r3, [r4, #4]
 8007302:	6923      	ldr	r3, [r4, #16]
 8007304:	6023      	str	r3, [r4, #0]
 8007306:	89a3      	ldrh	r3, [r4, #12]
 8007308:	f043 0308 	orr.w	r3, r3, #8
 800730c:	81a3      	strh	r3, [r4, #12]
 800730e:	6923      	ldr	r3, [r4, #16]
 8007310:	b94b      	cbnz	r3, 8007326 <__swsetup_r+0x7a>
 8007312:	89a3      	ldrh	r3, [r4, #12]
 8007314:	f403 7320 	and.w	r3, r3, #640	@ 0x280
 8007318:	f5b3 7f00 	cmp.w	r3, #512	@ 0x200
 800731c:	d003      	beq.n	8007326 <__swsetup_r+0x7a>
 800731e:	4621      	mov	r1, r4
 8007320:	4628      	mov	r0, r5
 8007322:	f002 fa53 	bl	80097cc <__smakebuf_r>
 8007326:	f9b4 300c 	ldrsh.w	r3, [r4, #12]
 800732a:	f013 0201 	ands.w	r2, r3, #1
 800732e:	d00a      	beq.n	8007346 <__swsetup_r+0x9a>
 8007330:	2200      	movs	r2, #0
 8007332:	60a2      	str	r2, [r4, #8]
 8007334:	6962      	ldr	r2, [r4, #20]
 8007336:	4252      	negs	r2, r2
 8007338:	61a2      	str	r2, [r4, #24]
 800733a:	6922      	ldr	r2, [r4, #16]
 800733c:	b942      	cbnz	r2, 8007350 <__swsetup_r+0xa4>
 800733e:	f013 0080 	ands.w	r0, r3, #128	@ 0x80
 8007342:	d1c5      	bne.n	80072d0 <__swsetup_r+0x24>
 8007344:	bd38      	pop	{r3, r4, r5, pc}
 8007346:	0799      	lsls	r1, r3, #30
 8007348:	bf58      	it	pl
 800734a:	6962      	ldrpl	r2, [r4, #20]
 800734c:	60a2      	str	r2, [r4, #8]
 800734e:	e7f4      	b.n	800733a <__swsetup_r+0x8e>
 8007350:	2000      	movs	r0, #0
 8007352:	e7f7      	b.n	8007344 <__swsetup_r+0x98>
 8007354:	20000188 	.word	0x20000188

08007358 <memset>:
 8007358:	4402      	add	r2, r0
 800735a:	4603      	mov	r3, r0
 800735c:	4293      	cmp	r3, r2
 800735e:	d100      	bne.n	8007362 <memset+0xa>
 8007360:	4770      	bx	lr
 8007362:	f803 1b01 	strb.w	r1, [r3], #1
 8007366:	e7f9      	b.n	800735c <memset+0x4>

08007368 <strchr>:
 8007368:	b2c9      	uxtb	r1, r1
 800736a:	4603      	mov	r3, r0
 800736c:	4618      	mov	r0, r3
 800736e:	f813 2b01 	ldrb.w	r2, [r3], #1
 8007372:	b112      	cbz	r2, 800737a <strchr+0x12>
 8007374:	428a      	cmp	r2, r1
 8007376:	d1f9      	bne.n	800736c <strchr+0x4>
 8007378:	4770      	bx	lr
 800737a:	2900      	cmp	r1, #0
 800737c:	bf18      	it	ne
 800737e:	2000      	movne	r0, #0
 8007380:	4770      	bx	lr

08007382 <strncmp>:
 8007382:	b510      	push	{r4, lr}
 8007384:	b16a      	cbz	r2, 80073a2 <strncmp+0x20>
 8007386:	3901      	subs	r1, #1
 8007388:	1884      	adds	r4, r0, r2
 800738a:	f810 2b01 	ldrb.w	r2, [r0], #1
 800738e:	f811 3f01 	ldrb.w	r3, [r1, #1]!
 8007392:	429a      	cmp	r2, r3
 8007394:	d103      	bne.n	800739e <strncmp+0x1c>
 8007396:	42a0      	cmp	r0, r4
 8007398:	d001      	beq.n	800739e <strncmp+0x1c>
 800739a:	2a00      	cmp	r2, #0
 800739c:	d1f5      	bne.n	800738a <strncmp+0x8>
 800739e:	1ad0      	subs	r0, r2, r3
 80073a0:	bd10      	pop	{r4, pc}
 80073a2:	4610      	mov	r0, r2
 80073a4:	e7fc      	b.n	80073a0 <strncmp+0x1e>

080073a6 <strstr>:
 80073a6:	780a      	ldrb	r2, [r1, #0]
 80073a8:	b570      	push	{r4, r5, r6, lr}
 80073aa:	b96a      	cbnz	r2, 80073c8 <strstr+0x22>
 80073ac:	bd70      	pop	{r4, r5, r6, pc}
 80073ae:	429a      	cmp	r2, r3
 80073b0:	d109      	bne.n	80073c6 <strstr+0x20>
 80073b2:	460c      	mov	r4, r1
 80073b4:	4605      	mov	r5, r0
 80073b6:	f814 3f01 	ldrb.w	r3, [r4, #1]!
 80073ba:	2b00      	cmp	r3, #0
 80073bc:	d0f6      	beq.n	80073ac <strstr+0x6>
 80073be:	f815 6f01 	ldrb.w	r6, [r5, #1]!
 80073c2:	429e      	cmp	r6, r3
 80073c4:	d0f7      	beq.n	80073b6 <strstr+0x10>
 80073c6:	3001      	adds	r0, #1
 80073c8:	7803      	ldrb	r3, [r0, #0]
 80073ca:	2b00      	cmp	r3, #0
 80073cc:	d1ef      	bne.n	80073ae <strstr+0x8>
 80073ce:	4618      	mov	r0, r3
 80073d0:	e7ec      	b.n	80073ac <strstr+0x6>
	...

080073d4 <_localeconv_r>:
 80073d4:	4800      	ldr	r0, [pc, #0]	@ (80073d8 <_localeconv_r+0x4>)
 80073d6:	4770      	bx	lr
 80073d8:	2000010c 	.word	0x2000010c

080073dc <_close_r>:
 80073dc:	b538      	push	{r3, r4, r5, lr}
 80073de:	4d06      	ldr	r5, [pc, #24]	@ (80073f8 <_close_r+0x1c>)
 80073e0:	2300      	movs	r3, #0
 80073e2:	4604      	mov	r4, r0
 80073e4:	4608      	mov	r0, r1
 80073e6:	602b      	str	r3, [r5, #0]
 80073e8:	f7fb f91a 	bl	8002620 <_close>
 80073ec:	1c43      	adds	r3, r0, #1
 80073ee:	d102      	bne.n	80073f6 <_close_r+0x1a>
 80073f0:	682b      	ldr	r3, [r5, #0]
 80073f2:	b103      	cbz	r3, 80073f6 <_close_r+0x1a>
 80073f4:	6023      	str	r3, [r4, #0]
 80073f6:	bd38      	pop	{r3, r4, r5, pc}
 80073f8:	200004d8 	.word	0x200004d8

080073fc <_lseek_r>:
 80073fc:	b538      	push	{r3, r4, r5, lr}
 80073fe:	4d07      	ldr	r5, [pc, #28]	@ (800741c <_lseek_r+0x20>)
 8007400:	4604      	mov	r4, r0
 8007402:	4608      	mov	r0, r1
 8007404:	4611      	mov	r1, r2
 8007406:	2200      	movs	r2, #0
 8007408:	602a      	str	r2, [r5, #0]
 800740a:	461a      	mov	r2, r3
 800740c:	f7fb f92f 	bl	800266e <_lseek>
 8007410:	1c43      	adds	r3, r0, #1
 8007412:	d102      	bne.n	800741a <_lseek_r+0x1e>
 8007414:	682b      	ldr	r3, [r5, #0]
 8007416:	b103      	cbz	r3, 800741a <_lseek_r+0x1e>
 8007418:	6023      	str	r3, [r4, #0]
 800741a:	bd38      	pop	{r3, r4, r5, pc}
 800741c:	200004d8 	.word	0x200004d8

08007420 <_read_r>:
 8007420:	b538      	push	{r3, r4, r5, lr}
 8007422:	4d07      	ldr	r5, [pc, #28]	@ (8007440 <_read_r+0x20>)
 8007424:	4604      	mov	r4, r0
 8007426:	4608      	mov	r0, r1
 8007428:	4611      	mov	r1, r2
 800742a:	2200      	movs	r2, #0
 800742c:	602a      	str	r2, [r5, #0]
 800742e:	461a      	mov	r2, r3
 8007430:	f7fb f8d9 	bl	80025e6 <_read>
 8007434:	1c43      	adds	r3, r0, #1
 8007436:	d102      	bne.n	800743e <_read_r+0x1e>
 8007438:	682b      	ldr	r3, [r5, #0]
 800743a:	b103      	cbz	r3, 800743e <_read_r+0x1e>
 800743c:	6023      	str	r3, [r4, #0]
 800743e:	bd38      	pop	{r3, r4, r5, pc}
 8007440:	200004d8 	.word	0x200004d8

08007444 <_write_r>:
 8007444:	b538      	push	{r3, r4, r5, lr}
 8007446:	4d07      	ldr	r5, [pc, #28]	@ (8007464 <_write_r+0x20>)
 8007448:	4604      	mov	r4, r0
 800744a:	4608      	mov	r0, r1
 800744c:	4611      	mov	r1, r2
 800744e:	2200      	movs	r2, #0
 8007450:	602a      	str	r2, [r5, #0]
 8007452:	461a      	mov	r2, r3
 8007454:	f7fa fb18 	bl	8001a88 <_write>
 8007458:	1c43      	adds	r3, r0, #1
 800745a:	d102      	bne.n	8007462 <_write_r+0x1e>
 800745c:	682b      	ldr	r3, [r5, #0]
 800745e:	b103      	cbz	r3, 8007462 <_write_r+0x1e>
 8007460:	6023      	str	r3, [r4, #0]
 8007462:	bd38      	pop	{r3, r4, r5, pc}
 8007464:	200004d8 	.word	0x200004d8

08007468 <__errno>:
 8007468:	4b01      	ldr	r3, [pc, #4]	@ (8007470 <__errno+0x8>)
 800746a:	6818      	ldr	r0, [r3, #0]
 800746c:	4770      	bx	lr
 800746e:	bf00      	nop
 8007470:	20000188 	.word	0x20000188

08007474 <__libc_init_array>:
 8007474:	b570      	push	{r4, r5, r6, lr}
 8007476:	4d0d      	ldr	r5, [pc, #52]	@ (80074ac <__libc_init_array+0x38>)
 8007478:	4c0d      	ldr	r4, [pc, #52]	@ (80074b0 <__libc_init_array+0x3c>)
 800747a:	1b64      	subs	r4, r4, r5
 800747c:	10a4      	asrs	r4, r4, #2
 800747e:	2600      	movs	r6, #0
 8007480:	42a6      	cmp	r6, r4
 8007482:	d109      	bne.n	8007498 <__libc_init_array+0x24>
 8007484:	4d0b      	ldr	r5, [pc, #44]	@ (80074b4 <__libc_init_array+0x40>)
 8007486:	4c0c      	ldr	r4, [pc, #48]	@ (80074b8 <__libc_init_array+0x44>)
 8007488:	f002 fa9e 	bl	80099c8 <_init>
 800748c:	1b64      	subs	r4, r4, r5
 800748e:	10a4      	asrs	r4, r4, #2
 8007490:	2600      	movs	r6, #0
 8007492:	42a6      	cmp	r6, r4
 8007494:	d105      	bne.n	80074a2 <__libc_init_array+0x2e>
 8007496:	bd70      	pop	{r4, r5, r6, pc}
 8007498:	f855 3b04 	ldr.w	r3, [r5], #4
 800749c:	4798      	blx	r3
 800749e:	3601      	adds	r6, #1
 80074a0:	e7ee      	b.n	8007480 <__libc_init_array+0xc>
 80074a2:	f855 3b04 	ldr.w	r3, [r5], #4
 80074a6:	4798      	blx	r3
 80074a8:	3601      	adds	r6, #1
 80074aa:	e7f2      	b.n	8007492 <__libc_init_array+0x1e>
 80074ac:	08009ed8 	.word	0x08009ed8
 80074b0:	08009ed8 	.word	0x08009ed8
 80074b4:	08009ed8 	.word	0x08009ed8
 80074b8:	08009edc 	.word	0x08009edc

080074bc <__retarget_lock_init_recursive>:
 80074bc:	4770      	bx	lr

080074be <__retarget_lock_acquire_recursive>:
 80074be:	4770      	bx	lr

080074c0 <__retarget_lock_release_recursive>:
 80074c0:	4770      	bx	lr

080074c2 <memcpy>:
 80074c2:	440a      	add	r2, r1
 80074c4:	4291      	cmp	r1, r2
 80074c6:	f100 33ff 	add.w	r3, r0, #4294967295
 80074ca:	d100      	bne.n	80074ce <memcpy+0xc>
 80074cc:	4770      	bx	lr
 80074ce:	b510      	push	{r4, lr}
 80074d0:	f811 4b01 	ldrb.w	r4, [r1], #1
 80074d4:	f803 4f01 	strb.w	r4, [r3, #1]!
 80074d8:	4291      	cmp	r1, r2
 80074da:	d1f9      	bne.n	80074d0 <memcpy+0xe>
 80074dc:	bd10      	pop	{r4, pc}
	...

080074e0 <nan>:
 80074e0:	ed9f 0b01 	vldr	d0, [pc, #4]	@ 80074e8 <nan+0x8>
 80074e4:	4770      	bx	lr
 80074e6:	bf00      	nop
 80074e8:	00000000 	.word	0x00000000
 80074ec:	7ff80000 	.word	0x7ff80000

080074f0 <quorem>:
 80074f0:	e92d 4ff7 	stmdb	sp!, {r0, r1, r2, r4, r5, r6, r7, r8, r9, sl, fp, lr}
 80074f4:	6903      	ldr	r3, [r0, #16]
 80074f6:	690c      	ldr	r4, [r1, #16]
 80074f8:	42a3      	cmp	r3, r4
 80074fa:	4607      	mov	r7, r0
 80074fc:	db7e      	blt.n	80075fc <quorem+0x10c>
 80074fe:	3c01      	subs	r4, #1
 8007500:	f101 0814 	add.w	r8, r1, #20
 8007504:	00a3      	lsls	r3, r4, #2
 8007506:	f100 0514 	add.w	r5, r0, #20
 800750a:	9300      	str	r3, [sp, #0]
 800750c:	eb05 0384 	add.w	r3, r5, r4, lsl #2
 8007510:	9301      	str	r3, [sp, #4]
 8007512:	f858 3024 	ldr.w	r3, [r8, r4, lsl #2]
 8007516:	f855 2024 	ldr.w	r2, [r5, r4, lsl #2]
 800751a:	3301      	adds	r3, #1
 800751c:	429a      	cmp	r2, r3
 800751e:	eb08 0984 	add.w	r9, r8, r4, lsl #2
 8007522:	fbb2 f6f3 	udiv	r6, r2, r3
 8007526:	d32e      	bcc.n	8007586 <quorem+0x96>
 8007528:	f04f 0a00 	mov.w	sl, #0
 800752c:	46c4      	mov	ip, r8
 800752e:	46ae      	mov	lr, r5
 8007530:	46d3      	mov	fp, sl
 8007532:	f85c 3b04 	ldr.w	r3, [ip], #4
 8007536:	b298      	uxth	r0, r3
 8007538:	fb06 a000 	mla	r0, r6, r0, sl
 800753c:	0c02      	lsrs	r2, r0, #16
 800753e:	0c1b      	lsrs	r3, r3, #16
 8007540:	fb06 2303 	mla	r3, r6, r3, r2
 8007544:	f8de 2000 	ldr.w	r2, [lr]
 8007548:	b280      	uxth	r0, r0
 800754a:	b292      	uxth	r2, r2
 800754c:	1a12      	subs	r2, r2, r0
 800754e:	445a      	add	r2, fp
 8007550:	f8de 0000 	ldr.w	r0, [lr]
 8007554:	ea4f 4a13 	mov.w	sl, r3, lsr #16
 8007558:	b29b      	uxth	r3, r3
 800755a:	ebc3 4322 	rsb	r3, r3, r2, asr #16
 800755e:	eb03 4310 	add.w	r3, r3, r0, lsr #16
 8007562:	b292      	uxth	r2, r2
 8007564:	ea42 4203 	orr.w	r2, r2, r3, lsl #16
 8007568:	45e1      	cmp	r9, ip
 800756a:	f84e 2b04 	str.w	r2, [lr], #4
 800756e:	ea4f 4b23 	mov.w	fp, r3, asr #16
 8007572:	d2de      	bcs.n	8007532 <quorem+0x42>
 8007574:	9b00      	ldr	r3, [sp, #0]
 8007576:	58eb      	ldr	r3, [r5, r3]
 8007578:	b92b      	cbnz	r3, 8007586 <quorem+0x96>
 800757a:	9b01      	ldr	r3, [sp, #4]
 800757c:	3b04      	subs	r3, #4
 800757e:	429d      	cmp	r5, r3
 8007580:	461a      	mov	r2, r3
 8007582:	d32f      	bcc.n	80075e4 <quorem+0xf4>
 8007584:	613c      	str	r4, [r7, #16]
 8007586:	4638      	mov	r0, r7
 8007588:	f001 fd12 	bl	8008fb0 <__mcmp>
 800758c:	2800      	cmp	r0, #0
 800758e:	db25      	blt.n	80075dc <quorem+0xec>
 8007590:	4629      	mov	r1, r5
 8007592:	2000      	movs	r0, #0
 8007594:	f858 2b04 	ldr.w	r2, [r8], #4
 8007598:	f8d1 c000 	ldr.w	ip, [r1]
 800759c:	fa1f fe82 	uxth.w	lr, r2
 80075a0:	fa1f f38c 	uxth.w	r3, ip
 80075a4:	eba3 030e 	sub.w	r3, r3, lr
 80075a8:	4403      	add	r3, r0
 80075aa:	0c12      	lsrs	r2, r2, #16
 80075ac:	ebc2 4223 	rsb	r2, r2, r3, asr #16
 80075b0:	eb02 421c 	add.w	r2, r2, ip, lsr #16
 80075b4:	b29b      	uxth	r3, r3
 80075b6:	ea43 4302 	orr.w	r3, r3, r2, lsl #16
 80075ba:	45c1      	cmp	r9, r8
 80075bc:	f841 3b04 	str.w	r3, [r1], #4
 80075c0:	ea4f 4022 	mov.w	r0, r2, asr #16
 80075c4:	d2e6      	bcs.n	8007594 <quorem+0xa4>
 80075c6:	f855 2024 	ldr.w	r2, [r5, r4, lsl #2]
 80075ca:	eb05 0384 	add.w	r3, r5, r4, lsl #2
 80075ce:	b922      	cbnz	r2, 80075da <quorem+0xea>
 80075d0:	3b04      	subs	r3, #4
 80075d2:	429d      	cmp	r5, r3
 80075d4:	461a      	mov	r2, r3
 80075d6:	d30b      	bcc.n	80075f0 <quorem+0x100>
 80075d8:	613c      	str	r4, [r7, #16]
 80075da:	3601      	adds	r6, #1
 80075dc:	4630      	mov	r0, r6
 80075de:	b003      	add	sp, #12
 80075e0:	e8bd 8ff0 	ldmia.w	sp!, {r4, r5, r6, r7, r8, r9, sl, fp, pc}
 80075e4:	6812      	ldr	r2, [r2, #0]
 80075e6:	3b04      	subs	r3, #4
 80075e8:	2a00      	cmp	r2, #0
 80075ea:	d1cb      	bne.n	8007584 <quorem+0x94>
 80075ec:	3c01      	subs	r4, #1
 80075ee:	e7c6      	b.n	800757e <quorem+0x8e>
 80075f0:	6812      	ldr	r2, [r2, #0]
 80075f2:	3b04      	subs	r3, #4
 80075f4:	2a00      	cmp	r2, #0
 80075f6:	d1ef      	bne.n	80075d8 <quorem+0xe8>
 80075f8:	3c01      	subs	r4, #1
 80075fa:	e7ea      	b.n	80075d2 <quorem+0xe2>
 80075fc:	2000      	movs	r0, #0
 80075fe:	e7ee      	b.n	80075de <quorem+0xee>

08007600 <_dtoa_r>:
 8007600:	e92d 4ff0 	stmdb	sp!, {r4, r5, r6, r7, r8, r9, sl, fp, lr}
 8007604:	69c7      	ldr	r7, [r0, #28]
 8007606:	b097      	sub	sp, #92	@ 0x5c
 8007608:	ed8d 0b04 	vstr	d0, [sp, #16]
 800760c:	ec55 4b10 	vmov	r4, r5, d0
 8007610:	9e20      	ldr	r6, [sp, #128]	@ 0x80
 8007612:	9107      	str	r1, [sp, #28]
 8007614:	4681      	mov	r9, r0
 8007616:	920c      	str	r2, [sp, #48]	@ 0x30
 8007618:	9311      	str	r3, [sp, #68]	@ 0x44
 800761a:	b97f      	cbnz	r7, 800763c <_dtoa_r+0x3c>
 800761c:	2010      	movs	r0, #16
 800761e:	f001 f943 	bl	80088a8 <malloc>
 8007622:	4602      	mov	r2, r0
 8007624:	f8c9 001c 	str.w	r0, [r9, #28]
 8007628:	b920      	cbnz	r0, 8007634 <_dtoa_r+0x34>
 800762a:	4ba9      	ldr	r3, [pc, #676]	@ (80078d0 <_dtoa_r+0x2d0>)
 800762c:	21ef      	movs	r1, #239	@ 0xef
 800762e:	48a9      	ldr	r0, [pc, #676]	@ (80078d4 <_dtoa_r+0x2d4>)
 8007630:	f002 f93a 	bl	80098a8 <__assert_func>
 8007634:	e9c0 7701 	strd	r7, r7, [r0, #4]
 8007638:	6007      	str	r7, [r0, #0]
 800763a:	60c7      	str	r7, [r0, #12]
 800763c:	f8d9 301c 	ldr.w	r3, [r9, #28]
 8007640:	6819      	ldr	r1, [r3, #0]
 8007642:	b159      	cbz	r1, 800765c <_dtoa_r+0x5c>
 8007644:	685a      	ldr	r2, [r3, #4]
 8007646:	604a      	str	r2, [r1, #4]
 8007648:	2301      	movs	r3, #1
 800764a:	4093      	lsls	r3, r2
 800764c:	608b      	str	r3, [r1, #8]
 800764e:	4648      	mov	r0, r9
 8007650:	f001 fa32 	bl	8008ab8 <_Bfree>
 8007654:	f8d9 301c 	ldr.w	r3, [r9, #28]
 8007658:	2200      	movs	r2, #0
 800765a:	601a      	str	r2, [r3, #0]
 800765c:	1e2b      	subs	r3, r5, #0
 800765e:	bfb9      	ittee	lt
 8007660:	f023 4300 	biclt.w	r3, r3, #2147483648	@ 0x80000000
 8007664:	9305      	strlt	r3, [sp, #20]
 8007666:	2300      	movge	r3, #0
 8007668:	6033      	strge	r3, [r6, #0]
 800766a:	9f05      	ldr	r7, [sp, #20]
 800766c:	4b9a      	ldr	r3, [pc, #616]	@ (80078d8 <_dtoa_r+0x2d8>)
 800766e:	bfbc      	itt	lt
 8007670:	2201      	movlt	r2, #1
 8007672:	6032      	strlt	r2, [r6, #0]
 8007674:	43bb      	bics	r3, r7
 8007676:	d112      	bne.n	800769e <_dtoa_r+0x9e>
 8007678:	9a11      	ldr	r2, [sp, #68]	@ 0x44
 800767a:	f242 730f 	movw	r3, #9999	@ 0x270f
 800767e:	6013      	str	r3, [r2, #0]
 8007680:	f3c7 0313 	ubfx	r3, r7, #0, #20
 8007684:	4323      	orrs	r3, r4
 8007686:	f000 855a 	beq.w	800813e <_dtoa_r+0xb3e>
 800768a:	9b21      	ldr	r3, [sp, #132]	@ 0x84
 800768c:	f8df a25c 	ldr.w	sl, [pc, #604]	@ 80078ec <_dtoa_r+0x2ec>
 8007690:	2b00      	cmp	r3, #0
 8007692:	f000 855c 	beq.w	800814e <_dtoa_r+0xb4e>
 8007696:	f10a 0303 	add.w	r3, sl, #3
 800769a:	f000 bd56 	b.w	800814a <_dtoa_r+0xb4a>
 800769e:	ed9d 7b04 	vldr	d7, [sp, #16]
 80076a2:	2200      	movs	r2, #0
 80076a4:	ec51 0b17 	vmov	r0, r1, d7
 80076a8:	2300      	movs	r3, #0
 80076aa:	ed8d 7b0a 	vstr	d7, [sp, #40]	@ 0x28
 80076ae:	f7f9 fa13 	bl	8000ad8 <__aeabi_dcmpeq>
 80076b2:	4680      	mov	r8, r0
 80076b4:	b158      	cbz	r0, 80076ce <_dtoa_r+0xce>
 80076b6:	9a11      	ldr	r2, [sp, #68]	@ 0x44
 80076b8:	2301      	movs	r3, #1
 80076ba:	6013      	str	r3, [r2, #0]
 80076bc:	9b21      	ldr	r3, [sp, #132]	@ 0x84
 80076be:	b113      	cbz	r3, 80076c6 <_dtoa_r+0xc6>
 80076c0:	9a21      	ldr	r2, [sp, #132]	@ 0x84
 80076c2:	4b86      	ldr	r3, [pc, #536]	@ (80078dc <_dtoa_r+0x2dc>)
 80076c4:	6013      	str	r3, [r2, #0]
 80076c6:	f8df a228 	ldr.w	sl, [pc, #552]	@ 80078f0 <_dtoa_r+0x2f0>
 80076ca:	f000 bd40 	b.w	800814e <_dtoa_r+0xb4e>
 80076ce:	ed9d 0b0a 	vldr	d0, [sp, #40]	@ 0x28
 80076d2:	aa14      	add	r2, sp, #80	@ 0x50
 80076d4:	a915      	add	r1, sp, #84	@ 0x54
 80076d6:	4648      	mov	r0, r9
 80076d8:	f001 fd8a 	bl	80091f0 <__d2b>
 80076dc:	f3c7 560a 	ubfx	r6, r7, #20, #11
 80076e0:	9002      	str	r0, [sp, #8]
 80076e2:	2e00      	cmp	r6, #0
 80076e4:	d078      	beq.n	80077d8 <_dtoa_r+0x1d8>
 80076e6:	9b0b      	ldr	r3, [sp, #44]	@ 0x2c
 80076e8:	f8cd 8048 	str.w	r8, [sp, #72]	@ 0x48
 80076ec:	f3c3 0313 	ubfx	r3, r3, #0, #20
 80076f0:	e9dd 010a 	ldrd	r0, r1, [sp, #40]	@ 0x28
 80076f4:	f043 537f 	orr.w	r3, r3, #1069547520	@ 0x3fc00000
 80076f8:	f443 1340 	orr.w	r3, r3, #3145728	@ 0x300000
 80076fc:	f2a6 36ff 	subw	r6, r6, #1023	@ 0x3ff
 8007700:	4619      	mov	r1, r3
 8007702:	2200      	movs	r2, #0
 8007704:	4b76      	ldr	r3, [pc, #472]	@ (80078e0 <_dtoa_r+0x2e0>)
 8007706:	f7f8 fdc7 	bl	8000298 <__aeabi_dsub>
 800770a:	a36b      	add	r3, pc, #428	@ (adr r3, 80078b8 <_dtoa_r+0x2b8>)
 800770c:	e9d3 2300 	ldrd	r2, r3, [r3]
 8007710:	f7f8 ff7a 	bl	8000608 <__aeabi_dmul>
 8007714:	a36a      	add	r3, pc, #424	@ (adr r3, 80078c0 <_dtoa_r+0x2c0>)
 8007716:	e9d3 2300 	ldrd	r2, r3, [r3]
 800771a:	f7f8 fdbf 	bl	800029c <__adddf3>
 800771e:	4604      	mov	r4, r0
 8007720:	4630      	mov	r0, r6
 8007722:	460d      	mov	r5, r1
 8007724:	f7f8 ff06 	bl	8000534 <__aeabi_i2d>
 8007728:	a367      	add	r3, pc, #412	@ (adr r3, 80078c8 <_dtoa_r+0x2c8>)
 800772a:	e9d3 2300 	ldrd	r2, r3, [r3]
 800772e:	f7f8 ff6b 	bl	8000608 <__aeabi_dmul>
 8007732:	4602      	mov	r2, r0
 8007734:	460b      	mov	r3, r1
 8007736:	4620      	mov	r0, r4
 8007738:	4629      	mov	r1, r5
 800773a:	f7f8 fdaf 	bl	800029c <__adddf3>
 800773e:	4604      	mov	r4, r0
 8007740:	460d      	mov	r5, r1
 8007742:	f7f9 fa11 	bl	8000b68 <__aeabi_d2iz>
 8007746:	2200      	movs	r2, #0
 8007748:	4607      	mov	r7, r0
 800774a:	2300      	movs	r3, #0
 800774c:	4620      	mov	r0, r4
 800774e:	4629      	mov	r1, r5
 8007750:	f7f9 f9cc 	bl	8000aec <__aeabi_dcmplt>
 8007754:	b140      	cbz	r0, 8007768 <_dtoa_r+0x168>
 8007756:	4638      	mov	r0, r7
 8007758:	f7f8 feec 	bl	8000534 <__aeabi_i2d>
 800775c:	4622      	mov	r2, r4
 800775e:	462b      	mov	r3, r5
 8007760:	f7f9 f9ba 	bl	8000ad8 <__aeabi_dcmpeq>
 8007764:	b900      	cbnz	r0, 8007768 <_dtoa_r+0x168>
 8007766:	3f01      	subs	r7, #1
 8007768:	2f16      	cmp	r7, #22
 800776a:	d852      	bhi.n	8007812 <_dtoa_r+0x212>
 800776c:	4b5d      	ldr	r3, [pc, #372]	@ (80078e4 <_dtoa_r+0x2e4>)
 800776e:	eb03 03c7 	add.w	r3, r3, r7, lsl #3
 8007772:	e9d3 2300 	ldrd	r2, r3, [r3]
 8007776:	e9dd 010a 	ldrd	r0, r1, [sp, #40]	@ 0x28
 800777a:	f7f9 f9b7 	bl	8000aec <__aeabi_dcmplt>
 800777e:	2800      	cmp	r0, #0
 8007780:	d049      	beq.n	8007816 <_dtoa_r+0x216>
 8007782:	3f01      	subs	r7, #1
 8007784:	2300      	movs	r3, #0
 8007786:	9310      	str	r3, [sp, #64]	@ 0x40
 8007788:	9b14      	ldr	r3, [sp, #80]	@ 0x50
 800778a:	1b9b      	subs	r3, r3, r6
 800778c:	1e5a      	subs	r2, r3, #1
 800778e:	bf45      	ittet	mi
 8007790:	f1c3 0301 	rsbmi	r3, r3, #1
 8007794:	9300      	strmi	r3, [sp, #0]
 8007796:	2300      	movpl	r3, #0
 8007798:	2300      	movmi	r3, #0
 800779a:	9206      	str	r2, [sp, #24]
 800779c:	bf54      	ite	pl
 800779e:	9300      	strpl	r3, [sp, #0]
 80077a0:	9306      	strmi	r3, [sp, #24]
 80077a2:	2f00      	cmp	r7, #0
 80077a4:	db39      	blt.n	800781a <_dtoa_r+0x21a>
 80077a6:	9b06      	ldr	r3, [sp, #24]
 80077a8:	970d      	str	r7, [sp, #52]	@ 0x34
 80077aa:	443b      	add	r3, r7
 80077ac:	9306      	str	r3, [sp, #24]
 80077ae:	2300      	movs	r3, #0
 80077b0:	9308      	str	r3, [sp, #32]
 80077b2:	9b07      	ldr	r3, [sp, #28]
 80077b4:	2b09      	cmp	r3, #9
 80077b6:	d863      	bhi.n	8007880 <_dtoa_r+0x280>
 80077b8:	2b05      	cmp	r3, #5
 80077ba:	bfc4      	itt	gt
 80077bc:	3b04      	subgt	r3, #4
 80077be:	9307      	strgt	r3, [sp, #28]
 80077c0:	9b07      	ldr	r3, [sp, #28]
 80077c2:	f1a3 0302 	sub.w	r3, r3, #2
 80077c6:	bfcc      	ite	gt
 80077c8:	2400      	movgt	r4, #0
 80077ca:	2401      	movle	r4, #1
 80077cc:	2b03      	cmp	r3, #3
 80077ce:	d863      	bhi.n	8007898 <_dtoa_r+0x298>
 80077d0:	e8df f003 	tbb	[pc, r3]
 80077d4:	2b375452 	.word	0x2b375452
 80077d8:	e9dd 6314 	ldrd	r6, r3, [sp, #80]	@ 0x50
 80077dc:	441e      	add	r6, r3
 80077de:	f206 4332 	addw	r3, r6, #1074	@ 0x432
 80077e2:	2b20      	cmp	r3, #32
 80077e4:	bfc1      	itttt	gt
 80077e6:	f1c3 0340 	rsbgt	r3, r3, #64	@ 0x40
 80077ea:	409f      	lslgt	r7, r3
 80077ec:	f206 4312 	addwgt	r3, r6, #1042	@ 0x412
 80077f0:	fa24 f303 	lsrgt.w	r3, r4, r3
 80077f4:	bfd6      	itet	le
 80077f6:	f1c3 0320 	rsble	r3, r3, #32
 80077fa:	ea47 0003 	orrgt.w	r0, r7, r3
 80077fe:	fa04 f003 	lslle.w	r0, r4, r3
 8007802:	f7f8 fe87 	bl	8000514 <__aeabi_ui2d>
 8007806:	2201      	movs	r2, #1
 8007808:	f1a1 73f8 	sub.w	r3, r1, #32505856	@ 0x1f00000
 800780c:	3e01      	subs	r6, #1
 800780e:	9212      	str	r2, [sp, #72]	@ 0x48
 8007810:	e776      	b.n	8007700 <_dtoa_r+0x100>
 8007812:	2301      	movs	r3, #1
 8007814:	e7b7      	b.n	8007786 <_dtoa_r+0x186>
 8007816:	9010      	str	r0, [sp, #64]	@ 0x40
 8007818:	e7b6      	b.n	8007788 <_dtoa_r+0x188>
 800781a:	9b00      	ldr	r3, [sp, #0]
 800781c:	1bdb      	subs	r3, r3, r7
 800781e:	9300      	str	r3, [sp, #0]
 8007820:	427b      	negs	r3, r7
 8007822:	9308      	str	r3, [sp, #32]
 8007824:	2300      	movs	r3, #0
 8007826:	930d      	str	r3, [sp, #52]	@ 0x34
 8007828:	e7c3      	b.n	80077b2 <_dtoa_r+0x1b2>
 800782a:	2301      	movs	r3, #1
 800782c:	9309      	str	r3, [sp, #36]	@ 0x24
 800782e:	9b0c      	ldr	r3, [sp, #48]	@ 0x30
 8007830:	eb07 0b03 	add.w	fp, r7, r3
 8007834:	f10b 0301 	add.w	r3, fp, #1
 8007838:	2b01      	cmp	r3, #1
 800783a:	9303      	str	r3, [sp, #12]
 800783c:	bfb8      	it	lt
 800783e:	2301      	movlt	r3, #1
 8007840:	e006      	b.n	8007850 <_dtoa_r+0x250>
 8007842:	2301      	movs	r3, #1
 8007844:	9309      	str	r3, [sp, #36]	@ 0x24
 8007846:	9b0c      	ldr	r3, [sp, #48]	@ 0x30
 8007848:	2b00      	cmp	r3, #0
 800784a:	dd28      	ble.n	800789e <_dtoa_r+0x29e>
 800784c:	469b      	mov	fp, r3
 800784e:	9303      	str	r3, [sp, #12]
 8007850:	f8d9 001c 	ldr.w	r0, [r9, #28]
 8007854:	2100      	movs	r1, #0
 8007856:	2204      	movs	r2, #4
 8007858:	f102 0514 	add.w	r5, r2, #20
 800785c:	429d      	cmp	r5, r3
 800785e:	d926      	bls.n	80078ae <_dtoa_r+0x2ae>
 8007860:	6041      	str	r1, [r0, #4]
 8007862:	4648      	mov	r0, r9
 8007864:	f001 f8e8 	bl	8008a38 <_Balloc>
 8007868:	4682      	mov	sl, r0
 800786a:	2800      	cmp	r0, #0
 800786c:	d142      	bne.n	80078f4 <_dtoa_r+0x2f4>
 800786e:	4b1e      	ldr	r3, [pc, #120]	@ (80078e8 <_dtoa_r+0x2e8>)
 8007870:	4602      	mov	r2, r0
 8007872:	f240 11af 	movw	r1, #431	@ 0x1af
 8007876:	e6da      	b.n	800762e <_dtoa_r+0x2e>
 8007878:	2300      	movs	r3, #0
 800787a:	e7e3      	b.n	8007844 <_dtoa_r+0x244>
 800787c:	2300      	movs	r3, #0
 800787e:	e7d5      	b.n	800782c <_dtoa_r+0x22c>
 8007880:	2401      	movs	r4, #1
 8007882:	2300      	movs	r3, #0
 8007884:	9307      	str	r3, [sp, #28]
 8007886:	9409      	str	r4, [sp, #36]	@ 0x24
 8007888:	f04f 3bff 	mov.w	fp, #4294967295
 800788c:	2200      	movs	r2, #0
 800788e:	f8cd b00c 	str.w	fp, [sp, #12]
 8007892:	2312      	movs	r3, #18
 8007894:	920c      	str	r2, [sp, #48]	@ 0x30
 8007896:	e7db      	b.n	8007850 <_dtoa_r+0x250>
 8007898:	2301      	movs	r3, #1
 800789a:	9309      	str	r3, [sp, #36]	@ 0x24
 800789c:	e7f4      	b.n	8007888 <_dtoa_r+0x288>
 800789e:	f04f 0b01 	mov.w	fp, #1
 80078a2:	f8cd b00c 	str.w	fp, [sp, #12]
 80078a6:	465b      	mov	r3, fp
 80078a8:	f8cd b030 	str.w	fp, [sp, #48]	@ 0x30
 80078ac:	e7d0      	b.n	8007850 <_dtoa_r+0x250>
 80078ae:	3101      	adds	r1, #1
 80078b0:	0052      	lsls	r2, r2, #1
 80078b2:	e7d1      	b.n	8007858 <_dtoa_r+0x258>
 80078b4:	f3af 8000 	nop.w
 80078b8:	636f4361 	.word	0x636f4361
 80078bc:	3fd287a7 	.word	0x3fd287a7
 80078c0:	8b60c8b3 	.word	0x8b60c8b3
 80078c4:	3fc68a28 	.word	0x3fc68a28
 80078c8:	509f79fb 	.word	0x509f79fb
 80078cc:	3fd34413 	.word	0x3fd34413
 80078d0:	08009af7 	.word	0x08009af7
 80078d4:	08009b0e 	.word	0x08009b0e
 80078d8:	7ff00000 	.word	0x7ff00000
 80078dc:	08009abf 	.word	0x08009abf
 80078e0:	3ff80000 	.word	0x3ff80000
 80078e4:	08009e08 	.word	0x08009e08
 80078e8:	08009b66 	.word	0x08009b66
 80078ec:	08009af3 	.word	0x08009af3
 80078f0:	08009abe 	.word	0x08009abe
 80078f4:	f8d9 301c 	ldr.w	r3, [r9, #28]
 80078f8:	6018      	str	r0, [r3, #0]
 80078fa:	9b03      	ldr	r3, [sp, #12]
 80078fc:	2b0e      	cmp	r3, #14
 80078fe:	f200 80a1 	bhi.w	8007a44 <_dtoa_r+0x444>
 8007902:	2c00      	cmp	r4, #0
 8007904:	f000 809e 	beq.w	8007a44 <_dtoa_r+0x444>
 8007908:	2f00      	cmp	r7, #0
 800790a:	dd33      	ble.n	8007974 <_dtoa_r+0x374>
 800790c:	4b9c      	ldr	r3, [pc, #624]	@ (8007b80 <_dtoa_r+0x580>)
 800790e:	f007 020f 	and.w	r2, r7, #15
 8007912:	eb03 03c2 	add.w	r3, r3, r2, lsl #3
 8007916:	ed93 7b00 	vldr	d7, [r3]
 800791a:	05f8      	lsls	r0, r7, #23
 800791c:	ed8d 7b0e 	vstr	d7, [sp, #56]	@ 0x38
 8007920:	ea4f 1427 	mov.w	r4, r7, asr #4
 8007924:	d516      	bpl.n	8007954 <_dtoa_r+0x354>
 8007926:	4b97      	ldr	r3, [pc, #604]	@ (8007b84 <_dtoa_r+0x584>)
 8007928:	e9dd 010a 	ldrd	r0, r1, [sp, #40]	@ 0x28
 800792c:	e9d3 2308 	ldrd	r2, r3, [r3, #32]
 8007930:	f7f8 ff94 	bl	800085c <__aeabi_ddiv>
 8007934:	e9cd 0104 	strd	r0, r1, [sp, #16]
 8007938:	f004 040f 	and.w	r4, r4, #15
 800793c:	2603      	movs	r6, #3
 800793e:	4d91      	ldr	r5, [pc, #580]	@ (8007b84 <_dtoa_r+0x584>)
 8007940:	b954      	cbnz	r4, 8007958 <_dtoa_r+0x358>
 8007942:	e9dd 230e 	ldrd	r2, r3, [sp, #56]	@ 0x38
 8007946:	e9dd 0104 	ldrd	r0, r1, [sp, #16]
 800794a:	f7f8 ff87 	bl	800085c <__aeabi_ddiv>
 800794e:	e9cd 0104 	strd	r0, r1, [sp, #16]
 8007952:	e028      	b.n	80079a6 <_dtoa_r+0x3a6>
 8007954:	2602      	movs	r6, #2
 8007956:	e7f2      	b.n	800793e <_dtoa_r+0x33e>
 8007958:	07e1      	lsls	r1, r4, #31
 800795a:	d508      	bpl.n	800796e <_dtoa_r+0x36e>
 800795c:	e9dd 010e 	ldrd	r0, r1, [sp, #56]	@ 0x38
 8007960:	e9d5 2300 	ldrd	r2, r3, [r5]
 8007964:	f7f8 fe50 	bl	8000608 <__aeabi_dmul>
 8007968:	e9cd 010e 	strd	r0, r1, [sp, #56]	@ 0x38
 800796c:	3601      	adds	r6, #1
 800796e:	1064      	asrs	r4, r4, #1
 8007970:	3508      	adds	r5, #8
 8007972:	e7e5      	b.n	8007940 <_dtoa_r+0x340>
 8007974:	f000 80af 	beq.w	8007ad6 <_dtoa_r+0x4d6>
 8007978:	427c      	negs	r4, r7
 800797a:	4b81      	ldr	r3, [pc, #516]	@ (8007b80 <_dtoa_r+0x580>)
 800797c:	4d81      	ldr	r5, [pc, #516]	@ (8007b84 <_dtoa_r+0x584>)
 800797e:	f004 020f 	and.w	r2, r4, #15
 8007982:	eb03 03c2 	add.w	r3, r3, r2, lsl #3
 8007986:	e9d3 2300 	ldrd	r2, r3, [r3]
 800798a:	e9dd 010a 	ldrd	r0, r1, [sp, #40]	@ 0x28
 800798e:	f7f8 fe3b 	bl	8000608 <__aeabi_dmul>
 8007992:	e9cd 0104 	strd	r0, r1, [sp, #16]
 8007996:	1124      	asrs	r4, r4, #4
 8007998:	2300      	movs	r3, #0
 800799a:	2602      	movs	r6, #2
 800799c:	2c00      	cmp	r4, #0
 800799e:	f040 808f 	bne.w	8007ac0 <_dtoa_r+0x4c0>
 80079a2:	2b00      	cmp	r3, #0
 80079a4:	d1d3      	bne.n	800794e <_dtoa_r+0x34e>
 80079a6:	9b10      	ldr	r3, [sp, #64]	@ 0x40
 80079a8:	e9dd 4504 	ldrd	r4, r5, [sp, #16]
 80079ac:	2b00      	cmp	r3, #0
 80079ae:	f000 8094 	beq.w	8007ada <_dtoa_r+0x4da>
 80079b2:	4b75      	ldr	r3, [pc, #468]	@ (8007b88 <_dtoa_r+0x588>)
 80079b4:	2200      	movs	r2, #0
 80079b6:	4620      	mov	r0, r4
 80079b8:	4629      	mov	r1, r5
 80079ba:	f7f9 f897 	bl	8000aec <__aeabi_dcmplt>
 80079be:	2800      	cmp	r0, #0
 80079c0:	f000 808b 	beq.w	8007ada <_dtoa_r+0x4da>
 80079c4:	9b03      	ldr	r3, [sp, #12]
 80079c6:	2b00      	cmp	r3, #0
 80079c8:	f000 8087 	beq.w	8007ada <_dtoa_r+0x4da>
 80079cc:	f1bb 0f00 	cmp.w	fp, #0
 80079d0:	dd34      	ble.n	8007a3c <_dtoa_r+0x43c>
 80079d2:	4620      	mov	r0, r4
 80079d4:	4b6d      	ldr	r3, [pc, #436]	@ (8007b8c <_dtoa_r+0x58c>)
 80079d6:	2200      	movs	r2, #0
 80079d8:	4629      	mov	r1, r5
 80079da:	f7f8 fe15 	bl	8000608 <__aeabi_dmul>
 80079de:	e9cd 0104 	strd	r0, r1, [sp, #16]
 80079e2:	f107 38ff 	add.w	r8, r7, #4294967295
 80079e6:	3601      	adds	r6, #1
 80079e8:	465c      	mov	r4, fp
 80079ea:	4630      	mov	r0, r6
 80079ec:	f7f8 fda2 	bl	8000534 <__aeabi_i2d>
 80079f0:	e9dd 2304 	ldrd	r2, r3, [sp, #16]
 80079f4:	f7f8 fe08 	bl	8000608 <__aeabi_dmul>
 80079f8:	4b65      	ldr	r3, [pc, #404]	@ (8007b90 <_dtoa_r+0x590>)
 80079fa:	2200      	movs	r2, #0
 80079fc:	f7f8 fc4e 	bl	800029c <__adddf3>
 8007a00:	4605      	mov	r5, r0
 8007a02:	f1a1 7650 	sub.w	r6, r1, #54525952	@ 0x3400000
 8007a06:	2c00      	cmp	r4, #0
 8007a08:	d16a      	bne.n	8007ae0 <_dtoa_r+0x4e0>
 8007a0a:	e9dd 0104 	ldrd	r0, r1, [sp, #16]
 8007a0e:	4b61      	ldr	r3, [pc, #388]	@ (8007b94 <_dtoa_r+0x594>)
 8007a10:	2200      	movs	r2, #0
 8007a12:	f7f8 fc41 	bl	8000298 <__aeabi_dsub>
 8007a16:	4602      	mov	r2, r0
 8007a18:	460b      	mov	r3, r1
 8007a1a:	e9cd 2304 	strd	r2, r3, [sp, #16]
 8007a1e:	462a      	mov	r2, r5
 8007a20:	4633      	mov	r3, r6
 8007a22:	f7f9 f881 	bl	8000b28 <__aeabi_dcmpgt>
 8007a26:	2800      	cmp	r0, #0
 8007a28:	f040 8298 	bne.w	8007f5c <_dtoa_r+0x95c>
 8007a2c:	e9dd 0104 	ldrd	r0, r1, [sp, #16]
 8007a30:	462a      	mov	r2, r5
 8007a32:	f106 4300 	add.w	r3, r6, #2147483648	@ 0x80000000
 8007a36:	f7f9 f859 	bl	8000aec <__aeabi_dcmplt>
 8007a3a:	bb38      	cbnz	r0, 8007a8c <_dtoa_r+0x48c>
 8007a3c:	e9dd 340a 	ldrd	r3, r4, [sp, #40]	@ 0x28
 8007a40:	e9cd 3404 	strd	r3, r4, [sp, #16]
 8007a44:	9b15      	ldr	r3, [sp, #84]	@ 0x54
 8007a46:	2b00      	cmp	r3, #0
 8007a48:	f2c0 8157 	blt.w	8007cfa <_dtoa_r+0x6fa>
 8007a4c:	2f0e      	cmp	r7, #14
 8007a4e:	f300 8154 	bgt.w	8007cfa <_dtoa_r+0x6fa>
 8007a52:	4b4b      	ldr	r3, [pc, #300]	@ (8007b80 <_dtoa_r+0x580>)
 8007a54:	eb03 03c7 	add.w	r3, r3, r7, lsl #3
 8007a58:	ed93 7b00 	vldr	d7, [r3]
 8007a5c:	9b0c      	ldr	r3, [sp, #48]	@ 0x30
 8007a5e:	2b00      	cmp	r3, #0
 8007a60:	ed8d 7b00 	vstr	d7, [sp]
 8007a64:	f280 80e5 	bge.w	8007c32 <_dtoa_r+0x632>
 8007a68:	9b03      	ldr	r3, [sp, #12]
 8007a6a:	2b00      	cmp	r3, #0
 8007a6c:	f300 80e1 	bgt.w	8007c32 <_dtoa_r+0x632>
 8007a70:	d10c      	bne.n	8007a8c <_dtoa_r+0x48c>
 8007a72:	4b48      	ldr	r3, [pc, #288]	@ (8007b94 <_dtoa_r+0x594>)
 8007a74:	2200      	movs	r2, #0
 8007a76:	ec51 0b17 	vmov	r0, r1, d7
 8007a7a:	f7f8 fdc5 	bl	8000608 <__aeabi_dmul>
 8007a7e:	e9dd 2304 	ldrd	r2, r3, [sp, #16]
 8007a82:	f7f9 f847 	bl	8000b14 <__aeabi_dcmpge>
 8007a86:	2800      	cmp	r0, #0
 8007a88:	f000 8266 	beq.w	8007f58 <_dtoa_r+0x958>
 8007a8c:	2400      	movs	r4, #0
 8007a8e:	4625      	mov	r5, r4
 8007a90:	9b0c      	ldr	r3, [sp, #48]	@ 0x30
 8007a92:	4656      	mov	r6, sl
 8007a94:	ea6f 0803 	mvn.w	r8, r3
 8007a98:	2700      	movs	r7, #0
 8007a9a:	4621      	mov	r1, r4
 8007a9c:	4648      	mov	r0, r9
 8007a9e:	f001 f80b 	bl	8008ab8 <_Bfree>
 8007aa2:	2d00      	cmp	r5, #0
 8007aa4:	f000 80bd 	beq.w	8007c22 <_dtoa_r+0x622>
 8007aa8:	b12f      	cbz	r7, 8007ab6 <_dtoa_r+0x4b6>
 8007aaa:	42af      	cmp	r7, r5
 8007aac:	d003      	beq.n	8007ab6 <_dtoa_r+0x4b6>
 8007aae:	4639      	mov	r1, r7
 8007ab0:	4648      	mov	r0, r9
 8007ab2:	f001 f801 	bl	8008ab8 <_Bfree>
 8007ab6:	4629      	mov	r1, r5
 8007ab8:	4648      	mov	r0, r9
 8007aba:	f000 fffd 	bl	8008ab8 <_Bfree>
 8007abe:	e0b0      	b.n	8007c22 <_dtoa_r+0x622>
 8007ac0:	07e2      	lsls	r2, r4, #31
 8007ac2:	d505      	bpl.n	8007ad0 <_dtoa_r+0x4d0>
 8007ac4:	e9d5 2300 	ldrd	r2, r3, [r5]
 8007ac8:	f7f8 fd9e 	bl	8000608 <__aeabi_dmul>
 8007acc:	3601      	adds	r6, #1
 8007ace:	2301      	movs	r3, #1
 8007ad0:	1064      	asrs	r4, r4, #1
 8007ad2:	3508      	adds	r5, #8
 8007ad4:	e762      	b.n	800799c <_dtoa_r+0x39c>
 8007ad6:	2602      	movs	r6, #2
 8007ad8:	e765      	b.n	80079a6 <_dtoa_r+0x3a6>
 8007ada:	9c03      	ldr	r4, [sp, #12]
 8007adc:	46b8      	mov	r8, r7
 8007ade:	e784      	b.n	80079ea <_dtoa_r+0x3ea>
 8007ae0:	4b27      	ldr	r3, [pc, #156]	@ (8007b80 <_dtoa_r+0x580>)
 8007ae2:	9909      	ldr	r1, [sp, #36]	@ 0x24
 8007ae4:	eb03 03c4 	add.w	r3, r3, r4, lsl #3
 8007ae8:	e953 2302 	ldrd	r2, r3, [r3, #-8]
 8007aec:	4454      	add	r4, sl
 8007aee:	2900      	cmp	r1, #0
 8007af0:	d054      	beq.n	8007b9c <_dtoa_r+0x59c>
 8007af2:	4929      	ldr	r1, [pc, #164]	@ (8007b98 <_dtoa_r+0x598>)
 8007af4:	2000      	movs	r0, #0
 8007af6:	f7f8 feb1 	bl	800085c <__aeabi_ddiv>
 8007afa:	4633      	mov	r3, r6
 8007afc:	462a      	mov	r2, r5
 8007afe:	f7f8 fbcb 	bl	8000298 <__aeabi_dsub>
 8007b02:	e9cd 010e 	strd	r0, r1, [sp, #56]	@ 0x38
 8007b06:	4656      	mov	r6, sl
 8007b08:	e9dd 0104 	ldrd	r0, r1, [sp, #16]
 8007b0c:	f7f9 f82c 	bl	8000b68 <__aeabi_d2iz>
 8007b10:	4605      	mov	r5, r0
 8007b12:	f7f8 fd0f 	bl	8000534 <__aeabi_i2d>
 8007b16:	4602      	mov	r2, r0
 8007b18:	460b      	mov	r3, r1
 8007b1a:	e9dd 0104 	ldrd	r0, r1, [sp, #16]
 8007b1e:	f7f8 fbbb 	bl	8000298 <__aeabi_dsub>
 8007b22:	3530      	adds	r5, #48	@ 0x30
 8007b24:	4602      	mov	r2, r0
 8007b26:	460b      	mov	r3, r1
 8007b28:	e9cd 2304 	strd	r2, r3, [sp, #16]
 8007b2c:	f806 5b01 	strb.w	r5, [r6], #1
 8007b30:	e9dd 230e 	ldrd	r2, r3, [sp, #56]	@ 0x38
 8007b34:	f7f8 ffda 	bl	8000aec <__aeabi_dcmplt>
 8007b38:	2800      	cmp	r0, #0
 8007b3a:	d172      	bne.n	8007c22 <_dtoa_r+0x622>
 8007b3c:	e9dd 2304 	ldrd	r2, r3, [sp, #16]
 8007b40:	4911      	ldr	r1, [pc, #68]	@ (8007b88 <_dtoa_r+0x588>)
 8007b42:	2000      	movs	r0, #0
 8007b44:	f7f8 fba8 	bl	8000298 <__aeabi_dsub>
 8007b48:	e9dd 230e 	ldrd	r2, r3, [sp, #56]	@ 0x38
 8007b4c:	f7f8 ffce 	bl	8000aec <__aeabi_dcmplt>
 8007b50:	2800      	cmp	r0, #0
 8007b52:	f040 80b4 	bne.w	8007cbe <_dtoa_r+0x6be>
 8007b56:	42a6      	cmp	r6, r4
 8007b58:	f43f af70 	beq.w	8007a3c <_dtoa_r+0x43c>
 8007b5c:	e9dd 010e 	ldrd	r0, r1, [sp, #56]	@ 0x38
 8007b60:	4b0a      	ldr	r3, [pc, #40]	@ (8007b8c <_dtoa_r+0x58c>)
 8007b62:	2200      	movs	r2, #0
 8007b64:	f7f8 fd50 	bl	8000608 <__aeabi_dmul>
 8007b68:	4b08      	ldr	r3, [pc, #32]	@ (8007b8c <_dtoa_r+0x58c>)
 8007b6a:	e9cd 010e 	strd	r0, r1, [sp, #56]	@ 0x38
 8007b6e:	2200      	movs	r2, #0
 8007b70:	e9dd 0104 	ldrd	r0, r1, [sp, #16]
 8007b74:	f7f8 fd48 	bl	8000608 <__aeabi_dmul>
 8007b78:	e9cd 0104 	strd	r0, r1, [sp, #16]
 8007b7c:	e7c4      	b.n	8007b08 <_dtoa_r+0x508>
 8007b7e:	bf00      	nop
 8007b80:	08009e08 	.word	0x08009e08
 8007b84:	08009de0 	.word	0x08009de0
 8007b88:	3ff00000 	.word	0x3ff00000
 8007b8c:	40240000 	.word	0x40240000
 8007b90:	401c0000 	.word	0x401c0000
 8007b94:	40140000 	.word	0x40140000
 8007b98:	3fe00000 	.word	0x3fe00000
 8007b9c:	4631      	mov	r1, r6
 8007b9e:	4628      	mov	r0, r5
 8007ba0:	f7f8 fd32 	bl	8000608 <__aeabi_dmul>
 8007ba4:	e9cd 010e 	strd	r0, r1, [sp, #56]	@ 0x38
 8007ba8:	9413      	str	r4, [sp, #76]	@ 0x4c
 8007baa:	4656      	mov	r6, sl
 8007bac:	e9dd 0104 	ldrd	r0, r1, [sp, #16]
 8007bb0:	f7f8 ffda 	bl	8000b68 <__aeabi_d2iz>
 8007bb4:	4605      	mov	r5, r0
 8007bb6:	f7f8 fcbd 	bl	8000534 <__aeabi_i2d>
 8007bba:	4602      	mov	r2, r0
 8007bbc:	460b      	mov	r3, r1
 8007bbe:	e9dd 0104 	ldrd	r0, r1, [sp, #16]
 8007bc2:	f7f8 fb69 	bl	8000298 <__aeabi_dsub>
 8007bc6:	3530      	adds	r5, #48	@ 0x30
 8007bc8:	f806 5b01 	strb.w	r5, [r6], #1
 8007bcc:	4602      	mov	r2, r0
 8007bce:	460b      	mov	r3, r1
 8007bd0:	42a6      	cmp	r6, r4
 8007bd2:	e9cd 2304 	strd	r2, r3, [sp, #16]
 8007bd6:	f04f 0200 	mov.w	r2, #0
 8007bda:	d124      	bne.n	8007c26 <_dtoa_r+0x626>
 8007bdc:	4baf      	ldr	r3, [pc, #700]	@ (8007e9c <_dtoa_r+0x89c>)
 8007bde:	e9dd 010e 	ldrd	r0, r1, [sp, #56]	@ 0x38
 8007be2:	f7f8 fb5b 	bl	800029c <__adddf3>
 8007be6:	4602      	mov	r2, r0
 8007be8:	460b      	mov	r3, r1
 8007bea:	e9dd 0104 	ldrd	r0, r1, [sp, #16]
 8007bee:	f7f8 ff9b 	bl	8000b28 <__aeabi_dcmpgt>
 8007bf2:	2800      	cmp	r0, #0
 8007bf4:	d163      	bne.n	8007cbe <_dtoa_r+0x6be>
 8007bf6:	e9dd 230e 	ldrd	r2, r3, [sp, #56]	@ 0x38
 8007bfa:	49a8      	ldr	r1, [pc, #672]	@ (8007e9c <_dtoa_r+0x89c>)
 8007bfc:	2000      	movs	r0, #0
 8007bfe:	f7f8 fb4b 	bl	8000298 <__aeabi_dsub>
 8007c02:	4602      	mov	r2, r0
 8007c04:	460b      	mov	r3, r1
 8007c06:	e9dd 0104 	ldrd	r0, r1, [sp, #16]
 8007c0a:	f7f8 ff6f 	bl	8000aec <__aeabi_dcmplt>
 8007c0e:	2800      	cmp	r0, #0
 8007c10:	f43f af14 	beq.w	8007a3c <_dtoa_r+0x43c>
 8007c14:	9e13      	ldr	r6, [sp, #76]	@ 0x4c
 8007c16:	1e73      	subs	r3, r6, #1
 8007c18:	9313      	str	r3, [sp, #76]	@ 0x4c
 8007c1a:	f816 3c01 	ldrb.w	r3, [r6, #-1]
 8007c1e:	2b30      	cmp	r3, #48	@ 0x30
 8007c20:	d0f8      	beq.n	8007c14 <_dtoa_r+0x614>
 8007c22:	4647      	mov	r7, r8
 8007c24:	e03b      	b.n	8007c9e <_dtoa_r+0x69e>
 8007c26:	4b9e      	ldr	r3, [pc, #632]	@ (8007ea0 <_dtoa_r+0x8a0>)
 8007c28:	f7f8 fcee 	bl	8000608 <__aeabi_dmul>
 8007c2c:	e9cd 0104 	strd	r0, r1, [sp, #16]
 8007c30:	e7bc      	b.n	8007bac <_dtoa_r+0x5ac>
 8007c32:	e9dd 4504 	ldrd	r4, r5, [sp, #16]
 8007c36:	4656      	mov	r6, sl
 8007c38:	e9dd 2300 	ldrd	r2, r3, [sp]
 8007c3c:	4620      	mov	r0, r4
 8007c3e:	4629      	mov	r1, r5
 8007c40:	f7f8 fe0c 	bl	800085c <__aeabi_ddiv>
 8007c44:	f7f8 ff90 	bl	8000b68 <__aeabi_d2iz>
 8007c48:	4680      	mov	r8, r0
 8007c4a:	f7f8 fc73 	bl	8000534 <__aeabi_i2d>
 8007c4e:	e9dd 2300 	ldrd	r2, r3, [sp]
 8007c52:	f7f8 fcd9 	bl	8000608 <__aeabi_dmul>
 8007c56:	4602      	mov	r2, r0
 8007c58:	460b      	mov	r3, r1
 8007c5a:	4620      	mov	r0, r4
 8007c5c:	4629      	mov	r1, r5
 8007c5e:	f108 0430 	add.w	r4, r8, #48	@ 0x30
 8007c62:	f7f8 fb19 	bl	8000298 <__aeabi_dsub>
 8007c66:	f806 4b01 	strb.w	r4, [r6], #1
 8007c6a:	9d03      	ldr	r5, [sp, #12]
 8007c6c:	eba6 040a 	sub.w	r4, r6, sl
 8007c70:	42a5      	cmp	r5, r4
 8007c72:	4602      	mov	r2, r0
 8007c74:	460b      	mov	r3, r1
 8007c76:	d133      	bne.n	8007ce0 <_dtoa_r+0x6e0>
 8007c78:	f7f8 fb10 	bl	800029c <__adddf3>
 8007c7c:	e9dd 2300 	ldrd	r2, r3, [sp]
 8007c80:	4604      	mov	r4, r0
 8007c82:	460d      	mov	r5, r1
 8007c84:	f7f8 ff50 	bl	8000b28 <__aeabi_dcmpgt>
 8007c88:	b9c0      	cbnz	r0, 8007cbc <_dtoa_r+0x6bc>
 8007c8a:	e9dd 2300 	ldrd	r2, r3, [sp]
 8007c8e:	4620      	mov	r0, r4
 8007c90:	4629      	mov	r1, r5
 8007c92:	f7f8 ff21 	bl	8000ad8 <__aeabi_dcmpeq>
 8007c96:	b110      	cbz	r0, 8007c9e <_dtoa_r+0x69e>
 8007c98:	f018 0f01 	tst.w	r8, #1
 8007c9c:	d10e      	bne.n	8007cbc <_dtoa_r+0x6bc>
 8007c9e:	9902      	ldr	r1, [sp, #8]
 8007ca0:	4648      	mov	r0, r9
 8007ca2:	f000 ff09 	bl	8008ab8 <_Bfree>
 8007ca6:	2300      	movs	r3, #0
 8007ca8:	7033      	strb	r3, [r6, #0]
 8007caa:	9b11      	ldr	r3, [sp, #68]	@ 0x44
 8007cac:	3701      	adds	r7, #1
 8007cae:	601f      	str	r7, [r3, #0]
 8007cb0:	9b21      	ldr	r3, [sp, #132]	@ 0x84
 8007cb2:	2b00      	cmp	r3, #0
 8007cb4:	f000 824b 	beq.w	800814e <_dtoa_r+0xb4e>
 8007cb8:	601e      	str	r6, [r3, #0]
 8007cba:	e248      	b.n	800814e <_dtoa_r+0xb4e>
 8007cbc:	46b8      	mov	r8, r7
 8007cbe:	4633      	mov	r3, r6
 8007cc0:	461e      	mov	r6, r3
 8007cc2:	f813 2d01 	ldrb.w	r2, [r3, #-1]!
 8007cc6:	2a39      	cmp	r2, #57	@ 0x39
 8007cc8:	d106      	bne.n	8007cd8 <_dtoa_r+0x6d8>
 8007cca:	459a      	cmp	sl, r3
 8007ccc:	d1f8      	bne.n	8007cc0 <_dtoa_r+0x6c0>
 8007cce:	2230      	movs	r2, #48	@ 0x30
 8007cd0:	f108 0801 	add.w	r8, r8, #1
 8007cd4:	f88a 2000 	strb.w	r2, [sl]
 8007cd8:	781a      	ldrb	r2, [r3, #0]
 8007cda:	3201      	adds	r2, #1
 8007cdc:	701a      	strb	r2, [r3, #0]
 8007cde:	e7a0      	b.n	8007c22 <_dtoa_r+0x622>
 8007ce0:	4b6f      	ldr	r3, [pc, #444]	@ (8007ea0 <_dtoa_r+0x8a0>)
 8007ce2:	2200      	movs	r2, #0
 8007ce4:	f7f8 fc90 	bl	8000608 <__aeabi_dmul>
 8007ce8:	2200      	movs	r2, #0
 8007cea:	2300      	movs	r3, #0
 8007cec:	4604      	mov	r4, r0
 8007cee:	460d      	mov	r5, r1
 8007cf0:	f7f8 fef2 	bl	8000ad8 <__aeabi_dcmpeq>
 8007cf4:	2800      	cmp	r0, #0
 8007cf6:	d09f      	beq.n	8007c38 <_dtoa_r+0x638>
 8007cf8:	e7d1      	b.n	8007c9e <_dtoa_r+0x69e>
 8007cfa:	9a09      	ldr	r2, [sp, #36]	@ 0x24
 8007cfc:	2a00      	cmp	r2, #0
 8007cfe:	f000 80ea 	beq.w	8007ed6 <_dtoa_r+0x8d6>
 8007d02:	9a07      	ldr	r2, [sp, #28]
 8007d04:	2a01      	cmp	r2, #1
 8007d06:	f300 80cd 	bgt.w	8007ea4 <_dtoa_r+0x8a4>
 8007d0a:	9a12      	ldr	r2, [sp, #72]	@ 0x48
 8007d0c:	2a00      	cmp	r2, #0
 8007d0e:	f000 80c1 	beq.w	8007e94 <_dtoa_r+0x894>
 8007d12:	f203 4333 	addw	r3, r3, #1075	@ 0x433
 8007d16:	9c08      	ldr	r4, [sp, #32]
 8007d18:	9e00      	ldr	r6, [sp, #0]
 8007d1a:	9a00      	ldr	r2, [sp, #0]
 8007d1c:	441a      	add	r2, r3
 8007d1e:	9200      	str	r2, [sp, #0]
 8007d20:	9a06      	ldr	r2, [sp, #24]
 8007d22:	2101      	movs	r1, #1
 8007d24:	441a      	add	r2, r3
 8007d26:	4648      	mov	r0, r9
 8007d28:	9206      	str	r2, [sp, #24]
 8007d2a:	f000 ffc3 	bl	8008cb4 <__i2b>
 8007d2e:	4605      	mov	r5, r0
 8007d30:	b166      	cbz	r6, 8007d4c <_dtoa_r+0x74c>
 8007d32:	9b06      	ldr	r3, [sp, #24]
 8007d34:	2b00      	cmp	r3, #0
 8007d36:	dd09      	ble.n	8007d4c <_dtoa_r+0x74c>
 8007d38:	42b3      	cmp	r3, r6
 8007d3a:	9a00      	ldr	r2, [sp, #0]
 8007d3c:	bfa8      	it	ge
 8007d3e:	4633      	movge	r3, r6
 8007d40:	1ad2      	subs	r2, r2, r3
 8007d42:	9200      	str	r2, [sp, #0]
 8007d44:	9a06      	ldr	r2, [sp, #24]
 8007d46:	1af6      	subs	r6, r6, r3
 8007d48:	1ad3      	subs	r3, r2, r3
 8007d4a:	9306      	str	r3, [sp, #24]
 8007d4c:	9b08      	ldr	r3, [sp, #32]
 8007d4e:	b30b      	cbz	r3, 8007d94 <_dtoa_r+0x794>
 8007d50:	9b09      	ldr	r3, [sp, #36]	@ 0x24
 8007d52:	2b00      	cmp	r3, #0
 8007d54:	f000 80c6 	beq.w	8007ee4 <_dtoa_r+0x8e4>
 8007d58:	2c00      	cmp	r4, #0
 8007d5a:	f000 80c0 	beq.w	8007ede <_dtoa_r+0x8de>
 8007d5e:	4629      	mov	r1, r5
 8007d60:	4622      	mov	r2, r4
 8007d62:	4648      	mov	r0, r9
 8007d64:	f001 f85e 	bl	8008e24 <__pow5mult>
 8007d68:	9a02      	ldr	r2, [sp, #8]
 8007d6a:	4601      	mov	r1, r0
 8007d6c:	4605      	mov	r5, r0
 8007d6e:	4648      	mov	r0, r9
 8007d70:	f000 ffb6 	bl	8008ce0 <__multiply>
 8007d74:	9902      	ldr	r1, [sp, #8]
 8007d76:	4680      	mov	r8, r0
 8007d78:	4648      	mov	r0, r9
 8007d7a:	f000 fe9d 	bl	8008ab8 <_Bfree>
 8007d7e:	9b08      	ldr	r3, [sp, #32]
 8007d80:	1b1b      	subs	r3, r3, r4
 8007d82:	9308      	str	r3, [sp, #32]
 8007d84:	f000 80b1 	beq.w	8007eea <_dtoa_r+0x8ea>
 8007d88:	9a08      	ldr	r2, [sp, #32]
 8007d8a:	4641      	mov	r1, r8
 8007d8c:	4648      	mov	r0, r9
 8007d8e:	f001 f849 	bl	8008e24 <__pow5mult>
 8007d92:	9002      	str	r0, [sp, #8]
 8007d94:	2101      	movs	r1, #1
 8007d96:	4648      	mov	r0, r9
 8007d98:	f000 ff8c 	bl	8008cb4 <__i2b>
 8007d9c:	9b0d      	ldr	r3, [sp, #52]	@ 0x34
 8007d9e:	4604      	mov	r4, r0
 8007da0:	2b00      	cmp	r3, #0
 8007da2:	f000 81d8 	beq.w	8008156 <_dtoa_r+0xb56>
 8007da6:	461a      	mov	r2, r3
 8007da8:	4601      	mov	r1, r0
 8007daa:	4648      	mov	r0, r9
 8007dac:	f001 f83a 	bl	8008e24 <__pow5mult>
 8007db0:	9b07      	ldr	r3, [sp, #28]
 8007db2:	2b01      	cmp	r3, #1
 8007db4:	4604      	mov	r4, r0
 8007db6:	f300 809f 	bgt.w	8007ef8 <_dtoa_r+0x8f8>
 8007dba:	9b04      	ldr	r3, [sp, #16]
 8007dbc:	2b00      	cmp	r3, #0
 8007dbe:	f040 8097 	bne.w	8007ef0 <_dtoa_r+0x8f0>
 8007dc2:	9b05      	ldr	r3, [sp, #20]
 8007dc4:	f3c3 0313 	ubfx	r3, r3, #0, #20
 8007dc8:	2b00      	cmp	r3, #0
 8007dca:	f040 8093 	bne.w	8007ef4 <_dtoa_r+0x8f4>
 8007dce:	9b05      	ldr	r3, [sp, #20]
 8007dd0:	f023 4300 	bic.w	r3, r3, #2147483648	@ 0x80000000
 8007dd4:	0d1b      	lsrs	r3, r3, #20
 8007dd6:	051b      	lsls	r3, r3, #20
 8007dd8:	b133      	cbz	r3, 8007de8 <_dtoa_r+0x7e8>
 8007dda:	9b00      	ldr	r3, [sp, #0]
 8007ddc:	3301      	adds	r3, #1
 8007dde:	9300      	str	r3, [sp, #0]
 8007de0:	9b06      	ldr	r3, [sp, #24]
 8007de2:	3301      	adds	r3, #1
 8007de4:	9306      	str	r3, [sp, #24]
 8007de6:	2301      	movs	r3, #1
 8007de8:	9308      	str	r3, [sp, #32]
 8007dea:	9b0d      	ldr	r3, [sp, #52]	@ 0x34
 8007dec:	2b00      	cmp	r3, #0
 8007dee:	f000 81b8 	beq.w	8008162 <_dtoa_r+0xb62>
 8007df2:	6923      	ldr	r3, [r4, #16]
 8007df4:	eb04 0383 	add.w	r3, r4, r3, lsl #2
 8007df8:	6918      	ldr	r0, [r3, #16]
 8007dfa:	f000 ff0f 	bl	8008c1c <__hi0bits>
 8007dfe:	f1c0 0020 	rsb	r0, r0, #32
 8007e02:	9b06      	ldr	r3, [sp, #24]
 8007e04:	4418      	add	r0, r3
 8007e06:	f010 001f 	ands.w	r0, r0, #31
 8007e0a:	f000 8082 	beq.w	8007f12 <_dtoa_r+0x912>
 8007e0e:	f1c0 0320 	rsb	r3, r0, #32
 8007e12:	2b04      	cmp	r3, #4
 8007e14:	dd73      	ble.n	8007efe <_dtoa_r+0x8fe>
 8007e16:	9b00      	ldr	r3, [sp, #0]
 8007e18:	f1c0 001c 	rsb	r0, r0, #28
 8007e1c:	4403      	add	r3, r0
 8007e1e:	9300      	str	r3, [sp, #0]
 8007e20:	9b06      	ldr	r3, [sp, #24]
 8007e22:	4403      	add	r3, r0
 8007e24:	4406      	add	r6, r0
 8007e26:	9306      	str	r3, [sp, #24]
 8007e28:	9b00      	ldr	r3, [sp, #0]
 8007e2a:	2b00      	cmp	r3, #0
 8007e2c:	dd05      	ble.n	8007e3a <_dtoa_r+0x83a>
 8007e2e:	9902      	ldr	r1, [sp, #8]
 8007e30:	461a      	mov	r2, r3
 8007e32:	4648      	mov	r0, r9
 8007e34:	f001 f850 	bl	8008ed8 <__lshift>
 8007e38:	9002      	str	r0, [sp, #8]
 8007e3a:	9b06      	ldr	r3, [sp, #24]
 8007e3c:	2b00      	cmp	r3, #0
 8007e3e:	dd05      	ble.n	8007e4c <_dtoa_r+0x84c>
 8007e40:	4621      	mov	r1, r4
 8007e42:	461a      	mov	r2, r3
 8007e44:	4648      	mov	r0, r9
 8007e46:	f001 f847 	bl	8008ed8 <__lshift>
 8007e4a:	4604      	mov	r4, r0
 8007e4c:	9b10      	ldr	r3, [sp, #64]	@ 0x40
 8007e4e:	2b00      	cmp	r3, #0
 8007e50:	d061      	beq.n	8007f16 <_dtoa_r+0x916>
 8007e52:	9802      	ldr	r0, [sp, #8]
 8007e54:	4621      	mov	r1, r4
 8007e56:	f001 f8ab 	bl	8008fb0 <__mcmp>
 8007e5a:	2800      	cmp	r0, #0
 8007e5c:	da5b      	bge.n	8007f16 <_dtoa_r+0x916>
 8007e5e:	2300      	movs	r3, #0
 8007e60:	9902      	ldr	r1, [sp, #8]
 8007e62:	220a      	movs	r2, #10
 8007e64:	4648      	mov	r0, r9
 8007e66:	f000 fe49 	bl	8008afc <__multadd>
 8007e6a:	9b09      	ldr	r3, [sp, #36]	@ 0x24
 8007e6c:	9002      	str	r0, [sp, #8]
 8007e6e:	f107 38ff 	add.w	r8, r7, #4294967295
 8007e72:	2b00      	cmp	r3, #0
 8007e74:	f000 8177 	beq.w	8008166 <_dtoa_r+0xb66>
 8007e78:	4629      	mov	r1, r5
 8007e7a:	2300      	movs	r3, #0
 8007e7c:	220a      	movs	r2, #10
 8007e7e:	4648      	mov	r0, r9
 8007e80:	f000 fe3c 	bl	8008afc <__multadd>
 8007e84:	f1bb 0f00 	cmp.w	fp, #0
 8007e88:	4605      	mov	r5, r0
 8007e8a:	dc6f      	bgt.n	8007f6c <_dtoa_r+0x96c>
 8007e8c:	9b07      	ldr	r3, [sp, #28]
 8007e8e:	2b02      	cmp	r3, #2
 8007e90:	dc49      	bgt.n	8007f26 <_dtoa_r+0x926>
 8007e92:	e06b      	b.n	8007f6c <_dtoa_r+0x96c>
 8007e94:	9b14      	ldr	r3, [sp, #80]	@ 0x50
 8007e96:	f1c3 0336 	rsb	r3, r3, #54	@ 0x36
 8007e9a:	e73c      	b.n	8007d16 <_dtoa_r+0x716>
 8007e9c:	3fe00000 	.word	0x3fe00000
 8007ea0:	40240000 	.word	0x40240000
 8007ea4:	9b03      	ldr	r3, [sp, #12]
 8007ea6:	1e5c      	subs	r4, r3, #1
 8007ea8:	9b08      	ldr	r3, [sp, #32]
 8007eaa:	42a3      	cmp	r3, r4
 8007eac:	db09      	blt.n	8007ec2 <_dtoa_r+0x8c2>
 8007eae:	1b1c      	subs	r4, r3, r4
 8007eb0:	9b03      	ldr	r3, [sp, #12]
 8007eb2:	2b00      	cmp	r3, #0
 8007eb4:	f6bf af30 	bge.w	8007d18 <_dtoa_r+0x718>
 8007eb8:	9b00      	ldr	r3, [sp, #0]
 8007eba:	9a03      	ldr	r2, [sp, #12]
 8007ebc:	1a9e      	subs	r6, r3, r2
 8007ebe:	2300      	movs	r3, #0
 8007ec0:	e72b      	b.n	8007d1a <_dtoa_r+0x71a>
 8007ec2:	9b08      	ldr	r3, [sp, #32]
 8007ec4:	9a0d      	ldr	r2, [sp, #52]	@ 0x34
 8007ec6:	9408      	str	r4, [sp, #32]
 8007ec8:	1ae3      	subs	r3, r4, r3
 8007eca:	441a      	add	r2, r3
 8007ecc:	9e00      	ldr	r6, [sp, #0]
 8007ece:	9b03      	ldr	r3, [sp, #12]
 8007ed0:	920d      	str	r2, [sp, #52]	@ 0x34
 8007ed2:	2400      	movs	r4, #0
 8007ed4:	e721      	b.n	8007d1a <_dtoa_r+0x71a>
 8007ed6:	9c08      	ldr	r4, [sp, #32]
 8007ed8:	9e00      	ldr	r6, [sp, #0]
 8007eda:	9d09      	ldr	r5, [sp, #36]	@ 0x24
 8007edc:	e728      	b.n	8007d30 <_dtoa_r+0x730>
 8007ede:	f8dd 8008 	ldr.w	r8, [sp, #8]
 8007ee2:	e751      	b.n	8007d88 <_dtoa_r+0x788>
 8007ee4:	9a08      	ldr	r2, [sp, #32]
 8007ee6:	9902      	ldr	r1, [sp, #8]
 8007ee8:	e750      	b.n	8007d8c <_dtoa_r+0x78c>
 8007eea:	f8cd 8008 	str.w	r8, [sp, #8]
 8007eee:	e751      	b.n	8007d94 <_dtoa_r+0x794>
 8007ef0:	2300      	movs	r3, #0
 8007ef2:	e779      	b.n	8007de8 <_dtoa_r+0x7e8>
 8007ef4:	9b04      	ldr	r3, [sp, #16]
 8007ef6:	e777      	b.n	8007de8 <_dtoa_r+0x7e8>
 8007ef8:	2300      	movs	r3, #0
 8007efa:	9308      	str	r3, [sp, #32]
 8007efc:	e779      	b.n	8007df2 <_dtoa_r+0x7f2>
 8007efe:	d093      	beq.n	8007e28 <_dtoa_r+0x828>
 8007f00:	9a00      	ldr	r2, [sp, #0]
 8007f02:	331c      	adds	r3, #28
 8007f04:	441a      	add	r2, r3
 8007f06:	9200      	str	r2, [sp, #0]
 8007f08:	9a06      	ldr	r2, [sp, #24]
 8007f0a:	441a      	add	r2, r3
 8007f0c:	441e      	add	r6, r3
 8007f0e:	9206      	str	r2, [sp, #24]
 8007f10:	e78a      	b.n	8007e28 <_dtoa_r+0x828>
 8007f12:	4603      	mov	r3, r0
 8007f14:	e7f4      	b.n	8007f00 <_dtoa_r+0x900>
 8007f16:	9b03      	ldr	r3, [sp, #12]
 8007f18:	2b00      	cmp	r3, #0
 8007f1a:	46b8      	mov	r8, r7
 8007f1c:	dc20      	bgt.n	8007f60 <_dtoa_r+0x960>
 8007f1e:	469b      	mov	fp, r3
 8007f20:	9b07      	ldr	r3, [sp, #28]
 8007f22:	2b02      	cmp	r3, #2
 8007f24:	dd1e      	ble.n	8007f64 <_dtoa_r+0x964>
 8007f26:	f1bb 0f00 	cmp.w	fp, #0
 8007f2a:	f47f adb1 	bne.w	8007a90 <_dtoa_r+0x490>
 8007f2e:	4621      	mov	r1, r4
 8007f30:	465b      	mov	r3, fp
 8007f32:	2205      	movs	r2, #5
 8007f34:	4648      	mov	r0, r9
 8007f36:	f000 fde1 	bl	8008afc <__multadd>
 8007f3a:	4601      	mov	r1, r0
 8007f3c:	4604      	mov	r4, r0
 8007f3e:	9802      	ldr	r0, [sp, #8]
 8007f40:	f001 f836 	bl	8008fb0 <__mcmp>
 8007f44:	2800      	cmp	r0, #0
 8007f46:	f77f ada3 	ble.w	8007a90 <_dtoa_r+0x490>
 8007f4a:	4656      	mov	r6, sl
 8007f4c:	2331      	movs	r3, #49	@ 0x31
 8007f4e:	f806 3b01 	strb.w	r3, [r6], #1
 8007f52:	f108 0801 	add.w	r8, r8, #1
 8007f56:	e59f      	b.n	8007a98 <_dtoa_r+0x498>
 8007f58:	9c03      	ldr	r4, [sp, #12]
 8007f5a:	46b8      	mov	r8, r7
 8007f5c:	4625      	mov	r5, r4
 8007f5e:	e7f4      	b.n	8007f4a <_dtoa_r+0x94a>
 8007f60:	f8dd b00c 	ldr.w	fp, [sp, #12]
 8007f64:	9b09      	ldr	r3, [sp, #36]	@ 0x24
 8007f66:	2b00      	cmp	r3, #0
 8007f68:	f000 8101 	beq.w	800816e <_dtoa_r+0xb6e>
 8007f6c:	2e00      	cmp	r6, #0
 8007f6e:	dd05      	ble.n	8007f7c <_dtoa_r+0x97c>
 8007f70:	4629      	mov	r1, r5
 8007f72:	4632      	mov	r2, r6
 8007f74:	4648      	mov	r0, r9
 8007f76:	f000 ffaf 	bl	8008ed8 <__lshift>
 8007f7a:	4605      	mov	r5, r0
 8007f7c:	9b08      	ldr	r3, [sp, #32]
 8007f7e:	2b00      	cmp	r3, #0
 8007f80:	d05c      	beq.n	800803c <_dtoa_r+0xa3c>
 8007f82:	6869      	ldr	r1, [r5, #4]
 8007f84:	4648      	mov	r0, r9
 8007f86:	f000 fd57 	bl	8008a38 <_Balloc>
 8007f8a:	4606      	mov	r6, r0
 8007f8c:	b928      	cbnz	r0, 8007f9a <_dtoa_r+0x99a>
 8007f8e:	4b82      	ldr	r3, [pc, #520]	@ (8008198 <_dtoa_r+0xb98>)
 8007f90:	4602      	mov	r2, r0
 8007f92:	f240 21ef 	movw	r1, #751	@ 0x2ef
 8007f96:	f7ff bb4a 	b.w	800762e <_dtoa_r+0x2e>
 8007f9a:	692a      	ldr	r2, [r5, #16]
 8007f9c:	3202      	adds	r2, #2
 8007f9e:	0092      	lsls	r2, r2, #2
 8007fa0:	f105 010c 	add.w	r1, r5, #12
 8007fa4:	300c      	adds	r0, #12
 8007fa6:	f7ff fa8c 	bl	80074c2 <memcpy>
 8007faa:	2201      	movs	r2, #1
 8007fac:	4631      	mov	r1, r6
 8007fae:	4648      	mov	r0, r9
 8007fb0:	f000 ff92 	bl	8008ed8 <__lshift>
 8007fb4:	f10a 0301 	add.w	r3, sl, #1
 8007fb8:	9300      	str	r3, [sp, #0]
 8007fba:	eb0a 030b 	add.w	r3, sl, fp
 8007fbe:	9308      	str	r3, [sp, #32]
 8007fc0:	9b04      	ldr	r3, [sp, #16]
 8007fc2:	f003 0301 	and.w	r3, r3, #1
 8007fc6:	462f      	mov	r7, r5
 8007fc8:	9306      	str	r3, [sp, #24]
 8007fca:	4605      	mov	r5, r0
 8007fcc:	9b00      	ldr	r3, [sp, #0]
 8007fce:	9802      	ldr	r0, [sp, #8]
 8007fd0:	4621      	mov	r1, r4
 8007fd2:	f103 3bff 	add.w	fp, r3, #4294967295
 8007fd6:	f7ff fa8b 	bl	80074f0 <quorem>
 8007fda:	4603      	mov	r3, r0
 8007fdc:	3330      	adds	r3, #48	@ 0x30
 8007fde:	9003      	str	r0, [sp, #12]
 8007fe0:	4639      	mov	r1, r7
 8007fe2:	9802      	ldr	r0, [sp, #8]
 8007fe4:	9309      	str	r3, [sp, #36]	@ 0x24
 8007fe6:	f000 ffe3 	bl	8008fb0 <__mcmp>
 8007fea:	462a      	mov	r2, r5
 8007fec:	9004      	str	r0, [sp, #16]
 8007fee:	4621      	mov	r1, r4
 8007ff0:	4648      	mov	r0, r9
 8007ff2:	f000 fff9 	bl	8008fe8 <__mdiff>
 8007ff6:	68c2      	ldr	r2, [r0, #12]
 8007ff8:	9b09      	ldr	r3, [sp, #36]	@ 0x24
 8007ffa:	4606      	mov	r6, r0
 8007ffc:	bb02      	cbnz	r2, 8008040 <_dtoa_r+0xa40>
 8007ffe:	4601      	mov	r1, r0
 8008000:	9802      	ldr	r0, [sp, #8]
 8008002:	f000 ffd5 	bl	8008fb0 <__mcmp>
 8008006:	9b09      	ldr	r3, [sp, #36]	@ 0x24
 8008008:	4602      	mov	r2, r0
 800800a:	4631      	mov	r1, r6
 800800c:	4648      	mov	r0, r9
 800800e:	920c      	str	r2, [sp, #48]	@ 0x30
 8008010:	9309      	str	r3, [sp, #36]	@ 0x24
 8008012:	f000 fd51 	bl	8008ab8 <_Bfree>
 8008016:	9b07      	ldr	r3, [sp, #28]
 8008018:	9a0c      	ldr	r2, [sp, #48]	@ 0x30
 800801a:	9e00      	ldr	r6, [sp, #0]
 800801c:	ea42 0103 	orr.w	r1, r2, r3
 8008020:	9b06      	ldr	r3, [sp, #24]
 8008022:	4319      	orrs	r1, r3
 8008024:	9b09      	ldr	r3, [sp, #36]	@ 0x24
 8008026:	d10d      	bne.n	8008044 <_dtoa_r+0xa44>
 8008028:	2b39      	cmp	r3, #57	@ 0x39
 800802a:	d027      	beq.n	800807c <_dtoa_r+0xa7c>
 800802c:	9a04      	ldr	r2, [sp, #16]
 800802e:	2a00      	cmp	r2, #0
 8008030:	dd01      	ble.n	8008036 <_dtoa_r+0xa36>
 8008032:	9b03      	ldr	r3, [sp, #12]
 8008034:	3331      	adds	r3, #49	@ 0x31
 8008036:	f88b 3000 	strb.w	r3, [fp]
 800803a:	e52e      	b.n	8007a9a <_dtoa_r+0x49a>
 800803c:	4628      	mov	r0, r5
 800803e:	e7b9      	b.n	8007fb4 <_dtoa_r+0x9b4>
 8008040:	2201      	movs	r2, #1
 8008042:	e7e2      	b.n	800800a <_dtoa_r+0xa0a>
 8008044:	9904      	ldr	r1, [sp, #16]
 8008046:	2900      	cmp	r1, #0
 8008048:	db04      	blt.n	8008054 <_dtoa_r+0xa54>
 800804a:	9807      	ldr	r0, [sp, #28]
 800804c:	4301      	orrs	r1, r0
 800804e:	9806      	ldr	r0, [sp, #24]
 8008050:	4301      	orrs	r1, r0
 8008052:	d120      	bne.n	8008096 <_dtoa_r+0xa96>
 8008054:	2a00      	cmp	r2, #0
 8008056:	ddee      	ble.n	8008036 <_dtoa_r+0xa36>
 8008058:	9902      	ldr	r1, [sp, #8]
 800805a:	9300      	str	r3, [sp, #0]
 800805c:	2201      	movs	r2, #1
 800805e:	4648      	mov	r0, r9
 8008060:	f000 ff3a 	bl	8008ed8 <__lshift>
 8008064:	4621      	mov	r1, r4
 8008066:	9002      	str	r0, [sp, #8]
 8008068:	f000 ffa2 	bl	8008fb0 <__mcmp>
 800806c:	2800      	cmp	r0, #0
 800806e:	9b00      	ldr	r3, [sp, #0]
 8008070:	dc02      	bgt.n	8008078 <_dtoa_r+0xa78>
 8008072:	d1e0      	bne.n	8008036 <_dtoa_r+0xa36>
 8008074:	07da      	lsls	r2, r3, #31
 8008076:	d5de      	bpl.n	8008036 <_dtoa_r+0xa36>
 8008078:	2b39      	cmp	r3, #57	@ 0x39
 800807a:	d1da      	bne.n	8008032 <_dtoa_r+0xa32>
 800807c:	2339      	movs	r3, #57	@ 0x39
 800807e:	f88b 3000 	strb.w	r3, [fp]
 8008082:	4633      	mov	r3, r6
 8008084:	461e      	mov	r6, r3
 8008086:	3b01      	subs	r3, #1
 8008088:	f816 2c01 	ldrb.w	r2, [r6, #-1]
 800808c:	2a39      	cmp	r2, #57	@ 0x39
 800808e:	d04e      	beq.n	800812e <_dtoa_r+0xb2e>
 8008090:	3201      	adds	r2, #1
 8008092:	701a      	strb	r2, [r3, #0]
 8008094:	e501      	b.n	8007a9a <_dtoa_r+0x49a>
 8008096:	2a00      	cmp	r2, #0
 8008098:	dd03      	ble.n	80080a2 <_dtoa_r+0xaa2>
 800809a:	2b39      	cmp	r3, #57	@ 0x39
 800809c:	d0ee      	beq.n	800807c <_dtoa_r+0xa7c>
 800809e:	3301      	adds	r3, #1
 80080a0:	e7c9      	b.n	8008036 <_dtoa_r+0xa36>
 80080a2:	9a00      	ldr	r2, [sp, #0]
 80080a4:	9908      	ldr	r1, [sp, #32]
 80080a6:	f802 3c01 	strb.w	r3, [r2, #-1]
 80080aa:	428a      	cmp	r2, r1
 80080ac:	d028      	beq.n	8008100 <_dtoa_r+0xb00>
 80080ae:	9902      	ldr	r1, [sp, #8]
 80080b0:	2300      	movs	r3, #0
 80080b2:	220a      	movs	r2, #10
 80080b4:	4648      	mov	r0, r9
 80080b6:	f000 fd21 	bl	8008afc <__multadd>
 80080ba:	42af      	cmp	r7, r5
 80080bc:	9002      	str	r0, [sp, #8]
 80080be:	f04f 0300 	mov.w	r3, #0
 80080c2:	f04f 020a 	mov.w	r2, #10
 80080c6:	4639      	mov	r1, r7
 80080c8:	4648      	mov	r0, r9
 80080ca:	d107      	bne.n	80080dc <_dtoa_r+0xadc>
 80080cc:	f000 fd16 	bl	8008afc <__multadd>
 80080d0:	4607      	mov	r7, r0
 80080d2:	4605      	mov	r5, r0
 80080d4:	9b00      	ldr	r3, [sp, #0]
 80080d6:	3301      	adds	r3, #1
 80080d8:	9300      	str	r3, [sp, #0]
 80080da:	e777      	b.n	8007fcc <_dtoa_r+0x9cc>
 80080dc:	f000 fd0e 	bl	8008afc <__multadd>
 80080e0:	4629      	mov	r1, r5
 80080e2:	4607      	mov	r7, r0
 80080e4:	2300      	movs	r3, #0
 80080e6:	220a      	movs	r2, #10
 80080e8:	4648      	mov	r0, r9
 80080ea:	f000 fd07 	bl	8008afc <__multadd>
 80080ee:	4605      	mov	r5, r0
 80080f0:	e7f0      	b.n	80080d4 <_dtoa_r+0xad4>
 80080f2:	f1bb 0f00 	cmp.w	fp, #0
 80080f6:	bfcc      	ite	gt
 80080f8:	465e      	movgt	r6, fp
 80080fa:	2601      	movle	r6, #1
 80080fc:	4456      	add	r6, sl
 80080fe:	2700      	movs	r7, #0
 8008100:	9902      	ldr	r1, [sp, #8]
 8008102:	9300      	str	r3, [sp, #0]
 8008104:	2201      	movs	r2, #1
 8008106:	4648      	mov	r0, r9
 8008108:	f000 fee6 	bl	8008ed8 <__lshift>
 800810c:	4621      	mov	r1, r4
 800810e:	9002      	str	r0, [sp, #8]
 8008110:	f000 ff4e 	bl	8008fb0 <__mcmp>
 8008114:	2800      	cmp	r0, #0
 8008116:	dcb4      	bgt.n	8008082 <_dtoa_r+0xa82>
 8008118:	d102      	bne.n	8008120 <_dtoa_r+0xb20>
 800811a:	9b00      	ldr	r3, [sp, #0]
 800811c:	07db      	lsls	r3, r3, #31
 800811e:	d4b0      	bmi.n	8008082 <_dtoa_r+0xa82>
 8008120:	4633      	mov	r3, r6
 8008122:	461e      	mov	r6, r3
 8008124:	f813 2d01 	ldrb.w	r2, [r3, #-1]!
 8008128:	2a30      	cmp	r2, #48	@ 0x30
 800812a:	d0fa      	beq.n	8008122 <_dtoa_r+0xb22>
 800812c:	e4b5      	b.n	8007a9a <_dtoa_r+0x49a>
 800812e:	459a      	cmp	sl, r3
 8008130:	d1a8      	bne.n	8008084 <_dtoa_r+0xa84>
 8008132:	2331      	movs	r3, #49	@ 0x31
 8008134:	f108 0801 	add.w	r8, r8, #1
 8008138:	f88a 3000 	strb.w	r3, [sl]
 800813c:	e4ad      	b.n	8007a9a <_dtoa_r+0x49a>
 800813e:	9b21      	ldr	r3, [sp, #132]	@ 0x84
 8008140:	f8df a058 	ldr.w	sl, [pc, #88]	@ 800819c <_dtoa_r+0xb9c>
 8008144:	b11b      	cbz	r3, 800814e <_dtoa_r+0xb4e>
 8008146:	f10a 0308 	add.w	r3, sl, #8
 800814a:	9a21      	ldr	r2, [sp, #132]	@ 0x84
 800814c:	6013      	str	r3, [r2, #0]
 800814e:	4650      	mov	r0, sl
 8008150:	b017      	add	sp, #92	@ 0x5c
 8008152:	e8bd 8ff0 	ldmia.w	sp!, {r4, r5, r6, r7, r8, r9, sl, fp, pc}
 8008156:	9b07      	ldr	r3, [sp, #28]
 8008158:	2b01      	cmp	r3, #1
 800815a:	f77f ae2e 	ble.w	8007dba <_dtoa_r+0x7ba>
 800815e:	9b0d      	ldr	r3, [sp, #52]	@ 0x34
 8008160:	9308      	str	r3, [sp, #32]
 8008162:	2001      	movs	r0, #1
 8008164:	e64d      	b.n	8007e02 <_dtoa_r+0x802>
 8008166:	f1bb 0f00 	cmp.w	fp, #0
 800816a:	f77f aed9 	ble.w	8007f20 <_dtoa_r+0x920>
 800816e:	4656      	mov	r6, sl
 8008170:	9802      	ldr	r0, [sp, #8]
 8008172:	4621      	mov	r1, r4
 8008174:	f7ff f9bc 	bl	80074f0 <quorem>
 8008178:	f100 0330 	add.w	r3, r0, #48	@ 0x30
 800817c:	f806 3b01 	strb.w	r3, [r6], #1
 8008180:	eba6 020a 	sub.w	r2, r6, sl
 8008184:	4593      	cmp	fp, r2
 8008186:	ddb4      	ble.n	80080f2 <_dtoa_r+0xaf2>
 8008188:	9902      	ldr	r1, [sp, #8]
 800818a:	2300      	movs	r3, #0
 800818c:	220a      	movs	r2, #10
 800818e:	4648      	mov	r0, r9
 8008190:	f000 fcb4 	bl	8008afc <__multadd>
 8008194:	9002      	str	r0, [sp, #8]
 8008196:	e7eb      	b.n	8008170 <_dtoa_r+0xb70>
 8008198:	08009b66 	.word	0x08009b66
 800819c:	08009aea 	.word	0x08009aea

080081a0 <_free_r>:
 80081a0:	b538      	push	{r3, r4, r5, lr}
 80081a2:	4605      	mov	r5, r0
 80081a4:	2900      	cmp	r1, #0
 80081a6:	d041      	beq.n	800822c <_free_r+0x8c>
 80081a8:	f851 3c04 	ldr.w	r3, [r1, #-4]
 80081ac:	1f0c      	subs	r4, r1, #4
 80081ae:	2b00      	cmp	r3, #0
 80081b0:	bfb8      	it	lt
 80081b2:	18e4      	addlt	r4, r4, r3
 80081b4:	f000 fc34 	bl	8008a20 <__malloc_lock>
 80081b8:	4a1d      	ldr	r2, [pc, #116]	@ (8008230 <_free_r+0x90>)
 80081ba:	6813      	ldr	r3, [r2, #0]
 80081bc:	b933      	cbnz	r3, 80081cc <_free_r+0x2c>
 80081be:	6063      	str	r3, [r4, #4]
 80081c0:	6014      	str	r4, [r2, #0]
 80081c2:	4628      	mov	r0, r5
 80081c4:	e8bd 4038 	ldmia.w	sp!, {r3, r4, r5, lr}
 80081c8:	f000 bc30 	b.w	8008a2c <__malloc_unlock>
 80081cc:	42a3      	cmp	r3, r4
 80081ce:	d908      	bls.n	80081e2 <_free_r+0x42>
 80081d0:	6820      	ldr	r0, [r4, #0]
 80081d2:	1821      	adds	r1, r4, r0
 80081d4:	428b      	cmp	r3, r1
 80081d6:	bf01      	itttt	eq
 80081d8:	6819      	ldreq	r1, [r3, #0]
 80081da:	685b      	ldreq	r3, [r3, #4]
 80081dc:	1809      	addeq	r1, r1, r0
 80081de:	6021      	streq	r1, [r4, #0]
 80081e0:	e7ed      	b.n	80081be <_free_r+0x1e>
 80081e2:	461a      	mov	r2, r3
 80081e4:	685b      	ldr	r3, [r3, #4]
 80081e6:	b10b      	cbz	r3, 80081ec <_free_r+0x4c>
 80081e8:	42a3      	cmp	r3, r4
 80081ea:	d9fa      	bls.n	80081e2 <_free_r+0x42>
 80081ec:	6811      	ldr	r1, [r2, #0]
 80081ee:	1850      	adds	r0, r2, r1
 80081f0:	42a0      	cmp	r0, r4
 80081f2:	d10b      	bne.n	800820c <_free_r+0x6c>
 80081f4:	6820      	ldr	r0, [r4, #0]
 80081f6:	4401      	add	r1, r0
 80081f8:	1850      	adds	r0, r2, r1
 80081fa:	4283      	cmp	r3, r0
 80081fc:	6011      	str	r1, [r2, #0]
 80081fe:	d1e0      	bne.n	80081c2 <_free_r+0x22>
 8008200:	6818      	ldr	r0, [r3, #0]
 8008202:	685b      	ldr	r3, [r3, #4]
 8008204:	6053      	str	r3, [r2, #4]
 8008206:	4408      	add	r0, r1
 8008208:	6010      	str	r0, [r2, #0]
 800820a:	e7da      	b.n	80081c2 <_free_r+0x22>
 800820c:	d902      	bls.n	8008214 <_free_r+0x74>
 800820e:	230c      	movs	r3, #12
 8008210:	602b      	str	r3, [r5, #0]
 8008212:	e7d6      	b.n	80081c2 <_free_r+0x22>
 8008214:	6820      	ldr	r0, [r4, #0]
 8008216:	1821      	adds	r1, r4, r0
 8008218:	428b      	cmp	r3, r1
 800821a:	bf04      	itt	eq
 800821c:	6819      	ldreq	r1, [r3, #0]
 800821e:	685b      	ldreq	r3, [r3, #4]
 8008220:	6063      	str	r3, [r4, #4]
 8008222:	bf04      	itt	eq
 8008224:	1809      	addeq	r1, r1, r0
 8008226:	6021      	streq	r1, [r4, #0]
 8008228:	6054      	str	r4, [r2, #4]
 800822a:	e7ca      	b.n	80081c2 <_free_r+0x22>
 800822c:	bd38      	pop	{r3, r4, r5, pc}
 800822e:	bf00      	nop
 8008230:	200004e4 	.word	0x200004e4

08008234 <rshift>:
 8008234:	6903      	ldr	r3, [r0, #16]
 8008236:	ebb3 1f61 	cmp.w	r3, r1, asr #5
 800823a:	e92d 43f0 	stmdb	sp!, {r4, r5, r6, r7, r8, r9, lr}
 800823e:	ea4f 1261 	mov.w	r2, r1, asr #5
 8008242:	f100 0414 	add.w	r4, r0, #20
 8008246:	dd45      	ble.n	80082d4 <rshift+0xa0>
 8008248:	f011 011f 	ands.w	r1, r1, #31
 800824c:	eb04 0683 	add.w	r6, r4, r3, lsl #2
 8008250:	eb04 0582 	add.w	r5, r4, r2, lsl #2
 8008254:	d10c      	bne.n	8008270 <rshift+0x3c>
 8008256:	f100 0710 	add.w	r7, r0, #16
 800825a:	4629      	mov	r1, r5
 800825c:	42b1      	cmp	r1, r6
 800825e:	d334      	bcc.n	80082ca <rshift+0x96>
 8008260:	1a9b      	subs	r3, r3, r2
 8008262:	009b      	lsls	r3, r3, #2
 8008264:	1eea      	subs	r2, r5, #3
 8008266:	4296      	cmp	r6, r2
 8008268:	bf38      	it	cc
 800826a:	2300      	movcc	r3, #0
 800826c:	4423      	add	r3, r4
 800826e:	e015      	b.n	800829c <rshift+0x68>
 8008270:	f854 7022 	ldr.w	r7, [r4, r2, lsl #2]
 8008274:	f1c1 0820 	rsb	r8, r1, #32
 8008278:	40cf      	lsrs	r7, r1
 800827a:	f105 0e04 	add.w	lr, r5, #4
 800827e:	46a1      	mov	r9, r4
 8008280:	4576      	cmp	r6, lr
 8008282:	46f4      	mov	ip, lr
 8008284:	d815      	bhi.n	80082b2 <rshift+0x7e>
 8008286:	1a9a      	subs	r2, r3, r2
 8008288:	0092      	lsls	r2, r2, #2
 800828a:	3a04      	subs	r2, #4
 800828c:	3501      	adds	r5, #1
 800828e:	42ae      	cmp	r6, r5
 8008290:	bf38      	it	cc
 8008292:	2200      	movcc	r2, #0
 8008294:	18a3      	adds	r3, r4, r2
 8008296:	50a7      	str	r7, [r4, r2]
 8008298:	b107      	cbz	r7, 800829c <rshift+0x68>
 800829a:	3304      	adds	r3, #4
 800829c:	1b1a      	subs	r2, r3, r4
 800829e:	42a3      	cmp	r3, r4
 80082a0:	ea4f 02a2 	mov.w	r2, r2, asr #2
 80082a4:	bf08      	it	eq
 80082a6:	2300      	moveq	r3, #0
 80082a8:	6102      	str	r2, [r0, #16]
 80082aa:	bf08      	it	eq
 80082ac:	6143      	streq	r3, [r0, #20]
 80082ae:	e8bd 83f0 	ldmia.w	sp!, {r4, r5, r6, r7, r8, r9, pc}
 80082b2:	f8dc c000 	ldr.w	ip, [ip]
 80082b6:	fa0c fc08 	lsl.w	ip, ip, r8
 80082ba:	ea4c 0707 	orr.w	r7, ip, r7
 80082be:	f849 7b04 	str.w	r7, [r9], #4
 80082c2:	f85e 7b04 	ldr.w	r7, [lr], #4
 80082c6:	40cf      	lsrs	r7, r1
 80082c8:	e7da      	b.n	8008280 <rshift+0x4c>
 80082ca:	f851 cb04 	ldr.w	ip, [r1], #4
 80082ce:	f847 cf04 	str.w	ip, [r7, #4]!
 80082d2:	e7c3      	b.n	800825c <rshift+0x28>
 80082d4:	4623      	mov	r3, r4
 80082d6:	e7e1      	b.n	800829c <rshift+0x68>

080082d8 <__hexdig_fun>:
 80082d8:	f1a0 0330 	sub.w	r3, r0, #48	@ 0x30
 80082dc:	2b09      	cmp	r3, #9
 80082de:	d802      	bhi.n	80082e6 <__hexdig_fun+0xe>
 80082e0:	3820      	subs	r0, #32
 80082e2:	b2c0      	uxtb	r0, r0
 80082e4:	4770      	bx	lr
 80082e6:	f1a0 0361 	sub.w	r3, r0, #97	@ 0x61
 80082ea:	2b05      	cmp	r3, #5
 80082ec:	d801      	bhi.n	80082f2 <__hexdig_fun+0x1a>
 80082ee:	3847      	subs	r0, #71	@ 0x47
 80082f0:	e7f7      	b.n	80082e2 <__hexdig_fun+0xa>
 80082f2:	f1a0 0341 	sub.w	r3, r0, #65	@ 0x41
 80082f6:	2b05      	cmp	r3, #5
 80082f8:	d801      	bhi.n	80082fe <__hexdig_fun+0x26>
 80082fa:	3827      	subs	r0, #39	@ 0x27
 80082fc:	e7f1      	b.n	80082e2 <__hexdig_fun+0xa>
 80082fe:	2000      	movs	r0, #0
 8008300:	4770      	bx	lr
	...

08008304 <__gethex>:
 8008304:	e92d 4ff0 	stmdb	sp!, {r4, r5, r6, r7, r8, r9, sl, fp, lr}
 8008308:	b085      	sub	sp, #20
 800830a:	468a      	mov	sl, r1
 800830c:	9302      	str	r3, [sp, #8]
 800830e:	680b      	ldr	r3, [r1, #0]
 8008310:	9001      	str	r0, [sp, #4]
 8008312:	4690      	mov	r8, r2
 8008314:	1c9c      	adds	r4, r3, #2
 8008316:	46a1      	mov	r9, r4
 8008318:	f814 0b01 	ldrb.w	r0, [r4], #1
 800831c:	2830      	cmp	r0, #48	@ 0x30
 800831e:	d0fa      	beq.n	8008316 <__gethex+0x12>
 8008320:	eba9 0303 	sub.w	r3, r9, r3
 8008324:	f1a3 0b02 	sub.w	fp, r3, #2
 8008328:	f7ff ffd6 	bl	80082d8 <__hexdig_fun>
 800832c:	4605      	mov	r5, r0
 800832e:	2800      	cmp	r0, #0
 8008330:	d168      	bne.n	8008404 <__gethex+0x100>
 8008332:	49a0      	ldr	r1, [pc, #640]	@ (80085b4 <__gethex+0x2b0>)
 8008334:	2201      	movs	r2, #1
 8008336:	4648      	mov	r0, r9
 8008338:	f7ff f823 	bl	8007382 <strncmp>
 800833c:	4607      	mov	r7, r0
 800833e:	2800      	cmp	r0, #0
 8008340:	d167      	bne.n	8008412 <__gethex+0x10e>
 8008342:	f899 0001 	ldrb.w	r0, [r9, #1]
 8008346:	4626      	mov	r6, r4
 8008348:	f7ff ffc6 	bl	80082d8 <__hexdig_fun>
 800834c:	2800      	cmp	r0, #0
 800834e:	d062      	beq.n	8008416 <__gethex+0x112>
 8008350:	4623      	mov	r3, r4
 8008352:	7818      	ldrb	r0, [r3, #0]
 8008354:	2830      	cmp	r0, #48	@ 0x30
 8008356:	4699      	mov	r9, r3
 8008358:	f103 0301 	add.w	r3, r3, #1
 800835c:	d0f9      	beq.n	8008352 <__gethex+0x4e>
 800835e:	f7ff ffbb 	bl	80082d8 <__hexdig_fun>
 8008362:	fab0 f580 	clz	r5, r0
 8008366:	096d      	lsrs	r5, r5, #5
 8008368:	f04f 0b01 	mov.w	fp, #1
 800836c:	464a      	mov	r2, r9
 800836e:	4616      	mov	r6, r2
 8008370:	3201      	adds	r2, #1
 8008372:	7830      	ldrb	r0, [r6, #0]
 8008374:	f7ff ffb0 	bl	80082d8 <__hexdig_fun>
 8008378:	2800      	cmp	r0, #0
 800837a:	d1f8      	bne.n	800836e <__gethex+0x6a>
 800837c:	498d      	ldr	r1, [pc, #564]	@ (80085b4 <__gethex+0x2b0>)
 800837e:	2201      	movs	r2, #1
 8008380:	4630      	mov	r0, r6
 8008382:	f7fe fffe 	bl	8007382 <strncmp>
 8008386:	2800      	cmp	r0, #0
 8008388:	d13f      	bne.n	800840a <__gethex+0x106>
 800838a:	b944      	cbnz	r4, 800839e <__gethex+0x9a>
 800838c:	1c74      	adds	r4, r6, #1
 800838e:	4622      	mov	r2, r4
 8008390:	4616      	mov	r6, r2
 8008392:	3201      	adds	r2, #1
 8008394:	7830      	ldrb	r0, [r6, #0]
 8008396:	f7ff ff9f 	bl	80082d8 <__hexdig_fun>
 800839a:	2800      	cmp	r0, #0
 800839c:	d1f8      	bne.n	8008390 <__gethex+0x8c>
 800839e:	1ba4      	subs	r4, r4, r6
 80083a0:	00a7      	lsls	r7, r4, #2
 80083a2:	7833      	ldrb	r3, [r6, #0]
 80083a4:	f003 03df 	and.w	r3, r3, #223	@ 0xdf
 80083a8:	2b50      	cmp	r3, #80	@ 0x50
 80083aa:	d13e      	bne.n	800842a <__gethex+0x126>
 80083ac:	7873      	ldrb	r3, [r6, #1]
 80083ae:	2b2b      	cmp	r3, #43	@ 0x2b
 80083b0:	d033      	beq.n	800841a <__gethex+0x116>
 80083b2:	2b2d      	cmp	r3, #45	@ 0x2d
 80083b4:	d034      	beq.n	8008420 <__gethex+0x11c>
 80083b6:	1c71      	adds	r1, r6, #1
 80083b8:	2400      	movs	r4, #0
 80083ba:	7808      	ldrb	r0, [r1, #0]
 80083bc:	f7ff ff8c 	bl	80082d8 <__hexdig_fun>
 80083c0:	1e43      	subs	r3, r0, #1
 80083c2:	b2db      	uxtb	r3, r3
 80083c4:	2b18      	cmp	r3, #24
 80083c6:	d830      	bhi.n	800842a <__gethex+0x126>
 80083c8:	f1a0 0210 	sub.w	r2, r0, #16
 80083cc:	f811 0f01 	ldrb.w	r0, [r1, #1]!
 80083d0:	f7ff ff82 	bl	80082d8 <__hexdig_fun>
 80083d4:	f100 3cff 	add.w	ip, r0, #4294967295
 80083d8:	fa5f fc8c 	uxtb.w	ip, ip
 80083dc:	f1bc 0f18 	cmp.w	ip, #24
 80083e0:	f04f 030a 	mov.w	r3, #10
 80083e4:	d91e      	bls.n	8008424 <__gethex+0x120>
 80083e6:	b104      	cbz	r4, 80083ea <__gethex+0xe6>
 80083e8:	4252      	negs	r2, r2
 80083ea:	4417      	add	r7, r2
 80083ec:	f8ca 1000 	str.w	r1, [sl]
 80083f0:	b1ed      	cbz	r5, 800842e <__gethex+0x12a>
 80083f2:	f1bb 0f00 	cmp.w	fp, #0
 80083f6:	bf0c      	ite	eq
 80083f8:	2506      	moveq	r5, #6
 80083fa:	2500      	movne	r5, #0
 80083fc:	4628      	mov	r0, r5
 80083fe:	b005      	add	sp, #20
 8008400:	e8bd 8ff0 	ldmia.w	sp!, {r4, r5, r6, r7, r8, r9, sl, fp, pc}
 8008404:	2500      	movs	r5, #0
 8008406:	462c      	mov	r4, r5
 8008408:	e7b0      	b.n	800836c <__gethex+0x68>
 800840a:	2c00      	cmp	r4, #0
 800840c:	d1c7      	bne.n	800839e <__gethex+0x9a>
 800840e:	4627      	mov	r7, r4
 8008410:	e7c7      	b.n	80083a2 <__gethex+0x9e>
 8008412:	464e      	mov	r6, r9
 8008414:	462f      	mov	r7, r5
 8008416:	2501      	movs	r5, #1
 8008418:	e7c3      	b.n	80083a2 <__gethex+0x9e>
 800841a:	2400      	movs	r4, #0
 800841c:	1cb1      	adds	r1, r6, #2
 800841e:	e7cc      	b.n	80083ba <__gethex+0xb6>
 8008420:	2401      	movs	r4, #1
 8008422:	e7fb      	b.n	800841c <__gethex+0x118>
 8008424:	fb03 0002 	mla	r0, r3, r2, r0
 8008428:	e7ce      	b.n	80083c8 <__gethex+0xc4>
 800842a:	4631      	mov	r1, r6
 800842c:	e7de      	b.n	80083ec <__gethex+0xe8>
 800842e:	eba6 0309 	sub.w	r3, r6, r9
 8008432:	3b01      	subs	r3, #1
 8008434:	4629      	mov	r1, r5
 8008436:	2b07      	cmp	r3, #7
 8008438:	dc0a      	bgt.n	8008450 <__gethex+0x14c>
 800843a:	9801      	ldr	r0, [sp, #4]
 800843c:	f000 fafc 	bl	8008a38 <_Balloc>
 8008440:	4604      	mov	r4, r0
 8008442:	b940      	cbnz	r0, 8008456 <__gethex+0x152>
 8008444:	4b5c      	ldr	r3, [pc, #368]	@ (80085b8 <__gethex+0x2b4>)
 8008446:	4602      	mov	r2, r0
 8008448:	21e4      	movs	r1, #228	@ 0xe4
 800844a:	485c      	ldr	r0, [pc, #368]	@ (80085bc <__gethex+0x2b8>)
 800844c:	f001 fa2c 	bl	80098a8 <__assert_func>
 8008450:	3101      	adds	r1, #1
 8008452:	105b      	asrs	r3, r3, #1
 8008454:	e7ef      	b.n	8008436 <__gethex+0x132>
 8008456:	f100 0a14 	add.w	sl, r0, #20
 800845a:	2300      	movs	r3, #0
 800845c:	4655      	mov	r5, sl
 800845e:	469b      	mov	fp, r3
 8008460:	45b1      	cmp	r9, r6
 8008462:	d337      	bcc.n	80084d4 <__gethex+0x1d0>
 8008464:	f845 bb04 	str.w	fp, [r5], #4
 8008468:	eba5 050a 	sub.w	r5, r5, sl
 800846c:	10ad      	asrs	r5, r5, #2
 800846e:	6125      	str	r5, [r4, #16]
 8008470:	4658      	mov	r0, fp
 8008472:	f000 fbd3 	bl	8008c1c <__hi0bits>
 8008476:	016d      	lsls	r5, r5, #5
 8008478:	f8d8 6000 	ldr.w	r6, [r8]
 800847c:	1a2d      	subs	r5, r5, r0
 800847e:	42b5      	cmp	r5, r6
 8008480:	dd54      	ble.n	800852c <__gethex+0x228>
 8008482:	1bad      	subs	r5, r5, r6
 8008484:	4629      	mov	r1, r5
 8008486:	4620      	mov	r0, r4
 8008488:	f000 ff5f 	bl	800934a <__any_on>
 800848c:	4681      	mov	r9, r0
 800848e:	b178      	cbz	r0, 80084b0 <__gethex+0x1ac>
 8008490:	1e6b      	subs	r3, r5, #1
 8008492:	1159      	asrs	r1, r3, #5
 8008494:	f003 021f 	and.w	r2, r3, #31
 8008498:	f85a 1021 	ldr.w	r1, [sl, r1, lsl #2]
 800849c:	f04f 0901 	mov.w	r9, #1
 80084a0:	fa09 f202 	lsl.w	r2, r9, r2
 80084a4:	420a      	tst	r2, r1
 80084a6:	d003      	beq.n	80084b0 <__gethex+0x1ac>
 80084a8:	454b      	cmp	r3, r9
 80084aa:	dc36      	bgt.n	800851a <__gethex+0x216>
 80084ac:	f04f 0902 	mov.w	r9, #2
 80084b0:	4629      	mov	r1, r5
 80084b2:	4620      	mov	r0, r4
 80084b4:	f7ff febe 	bl	8008234 <rshift>
 80084b8:	442f      	add	r7, r5
 80084ba:	f8d8 3008 	ldr.w	r3, [r8, #8]
 80084be:	42bb      	cmp	r3, r7
 80084c0:	da42      	bge.n	8008548 <__gethex+0x244>
 80084c2:	9801      	ldr	r0, [sp, #4]
 80084c4:	4621      	mov	r1, r4
 80084c6:	f000 faf7 	bl	8008ab8 <_Bfree>
 80084ca:	9a0e      	ldr	r2, [sp, #56]	@ 0x38
 80084cc:	2300      	movs	r3, #0
 80084ce:	6013      	str	r3, [r2, #0]
 80084d0:	25a3      	movs	r5, #163	@ 0xa3
 80084d2:	e793      	b.n	80083fc <__gethex+0xf8>
 80084d4:	f816 2d01 	ldrb.w	r2, [r6, #-1]!
 80084d8:	2a2e      	cmp	r2, #46	@ 0x2e
 80084da:	d012      	beq.n	8008502 <__gethex+0x1fe>
 80084dc:	2b20      	cmp	r3, #32
 80084de:	d104      	bne.n	80084ea <__gethex+0x1e6>
 80084e0:	f845 bb04 	str.w	fp, [r5], #4
 80084e4:	f04f 0b00 	mov.w	fp, #0
 80084e8:	465b      	mov	r3, fp
 80084ea:	7830      	ldrb	r0, [r6, #0]
 80084ec:	9303      	str	r3, [sp, #12]
 80084ee:	f7ff fef3 	bl	80082d8 <__hexdig_fun>
 80084f2:	9b03      	ldr	r3, [sp, #12]
 80084f4:	f000 000f 	and.w	r0, r0, #15
 80084f8:	4098      	lsls	r0, r3
 80084fa:	ea4b 0b00 	orr.w	fp, fp, r0
 80084fe:	3304      	adds	r3, #4
 8008500:	e7ae      	b.n	8008460 <__gethex+0x15c>
 8008502:	45b1      	cmp	r9, r6
 8008504:	d8ea      	bhi.n	80084dc <__gethex+0x1d8>
 8008506:	492b      	ldr	r1, [pc, #172]	@ (80085b4 <__gethex+0x2b0>)
 8008508:	9303      	str	r3, [sp, #12]
 800850a:	2201      	movs	r2, #1
 800850c:	4630      	mov	r0, r6
 800850e:	f7fe ff38 	bl	8007382 <strncmp>
 8008512:	9b03      	ldr	r3, [sp, #12]
 8008514:	2800      	cmp	r0, #0
 8008516:	d1e1      	bne.n	80084dc <__gethex+0x1d8>
 8008518:	e7a2      	b.n	8008460 <__gethex+0x15c>
 800851a:	1ea9      	subs	r1, r5, #2
 800851c:	4620      	mov	r0, r4
 800851e:	f000 ff14 	bl	800934a <__any_on>
 8008522:	2800      	cmp	r0, #0
 8008524:	d0c2      	beq.n	80084ac <__gethex+0x1a8>
 8008526:	f04f 0903 	mov.w	r9, #3
 800852a:	e7c1      	b.n	80084b0 <__gethex+0x1ac>
 800852c:	da09      	bge.n	8008542 <__gethex+0x23e>
 800852e:	1b75      	subs	r5, r6, r5
 8008530:	4621      	mov	r1, r4
 8008532:	9801      	ldr	r0, [sp, #4]
 8008534:	462a      	mov	r2, r5
 8008536:	f000 fccf 	bl	8008ed8 <__lshift>
 800853a:	1b7f      	subs	r7, r7, r5
 800853c:	4604      	mov	r4, r0
 800853e:	f100 0a14 	add.w	sl, r0, #20
 8008542:	f04f 0900 	mov.w	r9, #0
 8008546:	e7b8      	b.n	80084ba <__gethex+0x1b6>
 8008548:	f8d8 5004 	ldr.w	r5, [r8, #4]
 800854c:	42bd      	cmp	r5, r7
 800854e:	dd6f      	ble.n	8008630 <__gethex+0x32c>
 8008550:	1bed      	subs	r5, r5, r7
 8008552:	42ae      	cmp	r6, r5
 8008554:	dc34      	bgt.n	80085c0 <__gethex+0x2bc>
 8008556:	f8d8 300c 	ldr.w	r3, [r8, #12]
 800855a:	2b02      	cmp	r3, #2
 800855c:	d022      	beq.n	80085a4 <__gethex+0x2a0>
 800855e:	2b03      	cmp	r3, #3
 8008560:	d024      	beq.n	80085ac <__gethex+0x2a8>
 8008562:	2b01      	cmp	r3, #1
 8008564:	d115      	bne.n	8008592 <__gethex+0x28e>
 8008566:	42ae      	cmp	r6, r5
 8008568:	d113      	bne.n	8008592 <__gethex+0x28e>
 800856a:	2e01      	cmp	r6, #1
 800856c:	d10b      	bne.n	8008586 <__gethex+0x282>
 800856e:	9a02      	ldr	r2, [sp, #8]
 8008570:	f8d8 3004 	ldr.w	r3, [r8, #4]
 8008574:	6013      	str	r3, [r2, #0]
 8008576:	2301      	movs	r3, #1
 8008578:	6123      	str	r3, [r4, #16]
 800857a:	f8ca 3000 	str.w	r3, [sl]
 800857e:	9b0e      	ldr	r3, [sp, #56]	@ 0x38
 8008580:	2562      	movs	r5, #98	@ 0x62
 8008582:	601c      	str	r4, [r3, #0]
 8008584:	e73a      	b.n	80083fc <__gethex+0xf8>
 8008586:	1e71      	subs	r1, r6, #1
 8008588:	4620      	mov	r0, r4
 800858a:	f000 fede 	bl	800934a <__any_on>
 800858e:	2800      	cmp	r0, #0
 8008590:	d1ed      	bne.n	800856e <__gethex+0x26a>
 8008592:	9801      	ldr	r0, [sp, #4]
 8008594:	4621      	mov	r1, r4
 8008596:	f000 fa8f 	bl	8008ab8 <_Bfree>
 800859a:	9a0e      	ldr	r2, [sp, #56]	@ 0x38
 800859c:	2300      	movs	r3, #0
 800859e:	6013      	str	r3, [r2, #0]
 80085a0:	2550      	movs	r5, #80	@ 0x50
 80085a2:	e72b      	b.n	80083fc <__gethex+0xf8>
 80085a4:	9b0f      	ldr	r3, [sp, #60]	@ 0x3c
 80085a6:	2b00      	cmp	r3, #0
 80085a8:	d1f3      	bne.n	8008592 <__gethex+0x28e>
 80085aa:	e7e0      	b.n	800856e <__gethex+0x26a>
 80085ac:	9b0f      	ldr	r3, [sp, #60]	@ 0x3c
 80085ae:	2b00      	cmp	r3, #0
 80085b0:	d1dd      	bne.n	800856e <__gethex+0x26a>
 80085b2:	e7ee      	b.n	8008592 <__gethex+0x28e>
 80085b4:	08009aac 	.word	0x08009aac
 80085b8:	08009b66 	.word	0x08009b66
 80085bc:	08009b77 	.word	0x08009b77
 80085c0:	1e6f      	subs	r7, r5, #1
 80085c2:	f1b9 0f00 	cmp.w	r9, #0
 80085c6:	d130      	bne.n	800862a <__gethex+0x326>
 80085c8:	b127      	cbz	r7, 80085d4 <__gethex+0x2d0>
 80085ca:	4639      	mov	r1, r7
 80085cc:	4620      	mov	r0, r4
 80085ce:	f000 febc 	bl	800934a <__any_on>
 80085d2:	4681      	mov	r9, r0
 80085d4:	117a      	asrs	r2, r7, #5
 80085d6:	2301      	movs	r3, #1
 80085d8:	f85a 2022 	ldr.w	r2, [sl, r2, lsl #2]
 80085dc:	f007 071f 	and.w	r7, r7, #31
 80085e0:	40bb      	lsls	r3, r7
 80085e2:	4213      	tst	r3, r2
 80085e4:	4629      	mov	r1, r5
 80085e6:	4620      	mov	r0, r4
 80085e8:	bf18      	it	ne
 80085ea:	f049 0902 	orrne.w	r9, r9, #2
 80085ee:	f7ff fe21 	bl	8008234 <rshift>
 80085f2:	f8d8 7004 	ldr.w	r7, [r8, #4]
 80085f6:	1b76      	subs	r6, r6, r5
 80085f8:	2502      	movs	r5, #2
 80085fa:	f1b9 0f00 	cmp.w	r9, #0
 80085fe:	d047      	beq.n	8008690 <__gethex+0x38c>
 8008600:	f8d8 300c 	ldr.w	r3, [r8, #12]
 8008604:	2b02      	cmp	r3, #2
 8008606:	d015      	beq.n	8008634 <__gethex+0x330>
 8008608:	2b03      	cmp	r3, #3
 800860a:	d017      	beq.n	800863c <__gethex+0x338>
 800860c:	2b01      	cmp	r3, #1
 800860e:	d109      	bne.n	8008624 <__gethex+0x320>
 8008610:	f019 0f02 	tst.w	r9, #2
 8008614:	d006      	beq.n	8008624 <__gethex+0x320>
 8008616:	f8da 3000 	ldr.w	r3, [sl]
 800861a:	ea49 0903 	orr.w	r9, r9, r3
 800861e:	f019 0f01 	tst.w	r9, #1
 8008622:	d10e      	bne.n	8008642 <__gethex+0x33e>
 8008624:	f045 0510 	orr.w	r5, r5, #16
 8008628:	e032      	b.n	8008690 <__gethex+0x38c>
 800862a:	f04f 0901 	mov.w	r9, #1
 800862e:	e7d1      	b.n	80085d4 <__gethex+0x2d0>
 8008630:	2501      	movs	r5, #1
 8008632:	e7e2      	b.n	80085fa <__gethex+0x2f6>
 8008634:	9b0f      	ldr	r3, [sp, #60]	@ 0x3c
 8008636:	f1c3 0301 	rsb	r3, r3, #1
 800863a:	930f      	str	r3, [sp, #60]	@ 0x3c
 800863c:	9b0f      	ldr	r3, [sp, #60]	@ 0x3c
 800863e:	2b00      	cmp	r3, #0
 8008640:	d0f0      	beq.n	8008624 <__gethex+0x320>
 8008642:	f8d4 b010 	ldr.w	fp, [r4, #16]
 8008646:	f104 0314 	add.w	r3, r4, #20
 800864a:	ea4f 0a8b 	mov.w	sl, fp, lsl #2
 800864e:	eb03 018b 	add.w	r1, r3, fp, lsl #2
 8008652:	f04f 0c00 	mov.w	ip, #0
 8008656:	4618      	mov	r0, r3
 8008658:	f853 2b04 	ldr.w	r2, [r3], #4
 800865c:	f1b2 3fff 	cmp.w	r2, #4294967295
 8008660:	d01b      	beq.n	800869a <__gethex+0x396>
 8008662:	3201      	adds	r2, #1
 8008664:	6002      	str	r2, [r0, #0]
 8008666:	2d02      	cmp	r5, #2
 8008668:	f104 0314 	add.w	r3, r4, #20
 800866c:	d13c      	bne.n	80086e8 <__gethex+0x3e4>
 800866e:	f8d8 2000 	ldr.w	r2, [r8]
 8008672:	3a01      	subs	r2, #1
 8008674:	42b2      	cmp	r2, r6
 8008676:	d109      	bne.n	800868c <__gethex+0x388>
 8008678:	1171      	asrs	r1, r6, #5
 800867a:	2201      	movs	r2, #1
 800867c:	f853 3021 	ldr.w	r3, [r3, r1, lsl #2]
 8008680:	f006 061f 	and.w	r6, r6, #31
 8008684:	fa02 f606 	lsl.w	r6, r2, r6
 8008688:	421e      	tst	r6, r3
 800868a:	d13a      	bne.n	8008702 <__gethex+0x3fe>
 800868c:	f045 0520 	orr.w	r5, r5, #32
 8008690:	9b0e      	ldr	r3, [sp, #56]	@ 0x38
 8008692:	601c      	str	r4, [r3, #0]
 8008694:	9b02      	ldr	r3, [sp, #8]
 8008696:	601f      	str	r7, [r3, #0]
 8008698:	e6b0      	b.n	80083fc <__gethex+0xf8>
 800869a:	4299      	cmp	r1, r3
 800869c:	f843 cc04 	str.w	ip, [r3, #-4]
 80086a0:	d8d9      	bhi.n	8008656 <__gethex+0x352>
 80086a2:	68a3      	ldr	r3, [r4, #8]
 80086a4:	459b      	cmp	fp, r3
 80086a6:	db17      	blt.n	80086d8 <__gethex+0x3d4>
 80086a8:	6861      	ldr	r1, [r4, #4]
 80086aa:	9801      	ldr	r0, [sp, #4]
 80086ac:	3101      	adds	r1, #1
 80086ae:	f000 f9c3 	bl	8008a38 <_Balloc>
 80086b2:	4681      	mov	r9, r0
 80086b4:	b918      	cbnz	r0, 80086be <__gethex+0x3ba>
 80086b6:	4b1a      	ldr	r3, [pc, #104]	@ (8008720 <__gethex+0x41c>)
 80086b8:	4602      	mov	r2, r0
 80086ba:	2184      	movs	r1, #132	@ 0x84
 80086bc:	e6c5      	b.n	800844a <__gethex+0x146>
 80086be:	6922      	ldr	r2, [r4, #16]
 80086c0:	3202      	adds	r2, #2
 80086c2:	f104 010c 	add.w	r1, r4, #12
 80086c6:	0092      	lsls	r2, r2, #2
 80086c8:	300c      	adds	r0, #12
 80086ca:	f7fe fefa 	bl	80074c2 <memcpy>
 80086ce:	4621      	mov	r1, r4
 80086d0:	9801      	ldr	r0, [sp, #4]
 80086d2:	f000 f9f1 	bl	8008ab8 <_Bfree>
 80086d6:	464c      	mov	r4, r9
 80086d8:	6923      	ldr	r3, [r4, #16]
 80086da:	1c5a      	adds	r2, r3, #1
 80086dc:	eb04 0383 	add.w	r3, r4, r3, lsl #2
 80086e0:	6122      	str	r2, [r4, #16]
 80086e2:	2201      	movs	r2, #1
 80086e4:	615a      	str	r2, [r3, #20]
 80086e6:	e7be      	b.n	8008666 <__gethex+0x362>
 80086e8:	6922      	ldr	r2, [r4, #16]
 80086ea:	455a      	cmp	r2, fp
 80086ec:	dd0b      	ble.n	8008706 <__gethex+0x402>
 80086ee:	2101      	movs	r1, #1
 80086f0:	4620      	mov	r0, r4
 80086f2:	f7ff fd9f 	bl	8008234 <rshift>
 80086f6:	f8d8 3008 	ldr.w	r3, [r8, #8]
 80086fa:	3701      	adds	r7, #1
 80086fc:	42bb      	cmp	r3, r7
 80086fe:	f6ff aee0 	blt.w	80084c2 <__gethex+0x1be>
 8008702:	2501      	movs	r5, #1
 8008704:	e7c2      	b.n	800868c <__gethex+0x388>
 8008706:	f016 061f 	ands.w	r6, r6, #31
 800870a:	d0fa      	beq.n	8008702 <__gethex+0x3fe>
 800870c:	4453      	add	r3, sl
 800870e:	f1c6 0620 	rsb	r6, r6, #32
 8008712:	f853 0c04 	ldr.w	r0, [r3, #-4]
 8008716:	f000 fa81 	bl	8008c1c <__hi0bits>
 800871a:	42b0      	cmp	r0, r6
 800871c:	dbe7      	blt.n	80086ee <__gethex+0x3ea>
 800871e:	e7f0      	b.n	8008702 <__gethex+0x3fe>
 8008720:	08009b66 	.word	0x08009b66

08008724 <L_shift>:
 8008724:	f1c2 0208 	rsb	r2, r2, #8
 8008728:	0092      	lsls	r2, r2, #2
 800872a:	b570      	push	{r4, r5, r6, lr}
 800872c:	f1c2 0620 	rsb	r6, r2, #32
 8008730:	6843      	ldr	r3, [r0, #4]
 8008732:	6804      	ldr	r4, [r0, #0]
 8008734:	fa03 f506 	lsl.w	r5, r3, r6
 8008738:	432c      	orrs	r4, r5
 800873a:	40d3      	lsrs	r3, r2
 800873c:	6004      	str	r4, [r0, #0]
 800873e:	f840 3f04 	str.w	r3, [r0, #4]!
 8008742:	4288      	cmp	r0, r1
 8008744:	d3f4      	bcc.n	8008730 <L_shift+0xc>
 8008746:	bd70      	pop	{r4, r5, r6, pc}

08008748 <__match>:
 8008748:	b530      	push	{r4, r5, lr}
 800874a:	6803      	ldr	r3, [r0, #0]
 800874c:	3301      	adds	r3, #1
 800874e:	f811 4b01 	ldrb.w	r4, [r1], #1
 8008752:	b914      	cbnz	r4, 800875a <__match+0x12>
 8008754:	6003      	str	r3, [r0, #0]
 8008756:	2001      	movs	r0, #1
 8008758:	bd30      	pop	{r4, r5, pc}
 800875a:	f813 2b01 	ldrb.w	r2, [r3], #1
 800875e:	f1a2 0541 	sub.w	r5, r2, #65	@ 0x41
 8008762:	2d19      	cmp	r5, #25
 8008764:	bf98      	it	ls
 8008766:	3220      	addls	r2, #32
 8008768:	42a2      	cmp	r2, r4
 800876a:	d0f0      	beq.n	800874e <__match+0x6>
 800876c:	2000      	movs	r0, #0
 800876e:	e7f3      	b.n	8008758 <__match+0x10>

08008770 <__hexnan>:
 8008770:	e92d 4ff0 	stmdb	sp!, {r4, r5, r6, r7, r8, r9, sl, fp, lr}
 8008774:	680b      	ldr	r3, [r1, #0]
 8008776:	6801      	ldr	r1, [r0, #0]
 8008778:	115e      	asrs	r6, r3, #5
 800877a:	eb02 0686 	add.w	r6, r2, r6, lsl #2
 800877e:	f013 031f 	ands.w	r3, r3, #31
 8008782:	b087      	sub	sp, #28
 8008784:	bf18      	it	ne
 8008786:	3604      	addne	r6, #4
 8008788:	2500      	movs	r5, #0
 800878a:	1f37      	subs	r7, r6, #4
 800878c:	4682      	mov	sl, r0
 800878e:	4690      	mov	r8, r2
 8008790:	9301      	str	r3, [sp, #4]
 8008792:	f846 5c04 	str.w	r5, [r6, #-4]
 8008796:	46b9      	mov	r9, r7
 8008798:	463c      	mov	r4, r7
 800879a:	9502      	str	r5, [sp, #8]
 800879c:	46ab      	mov	fp, r5
 800879e:	784a      	ldrb	r2, [r1, #1]
 80087a0:	1c4b      	adds	r3, r1, #1
 80087a2:	9303      	str	r3, [sp, #12]
 80087a4:	b342      	cbz	r2, 80087f8 <__hexnan+0x88>
 80087a6:	4610      	mov	r0, r2
 80087a8:	9105      	str	r1, [sp, #20]
 80087aa:	9204      	str	r2, [sp, #16]
 80087ac:	f7ff fd94 	bl	80082d8 <__hexdig_fun>
 80087b0:	2800      	cmp	r0, #0
 80087b2:	d151      	bne.n	8008858 <__hexnan+0xe8>
 80087b4:	9a04      	ldr	r2, [sp, #16]
 80087b6:	9905      	ldr	r1, [sp, #20]
 80087b8:	2a20      	cmp	r2, #32
 80087ba:	d818      	bhi.n	80087ee <__hexnan+0x7e>
 80087bc:	9b02      	ldr	r3, [sp, #8]
 80087be:	459b      	cmp	fp, r3
 80087c0:	dd13      	ble.n	80087ea <__hexnan+0x7a>
 80087c2:	454c      	cmp	r4, r9
 80087c4:	d206      	bcs.n	80087d4 <__hexnan+0x64>
 80087c6:	2d07      	cmp	r5, #7
 80087c8:	dc04      	bgt.n	80087d4 <__hexnan+0x64>
 80087ca:	462a      	mov	r2, r5
 80087cc:	4649      	mov	r1, r9
 80087ce:	4620      	mov	r0, r4
 80087d0:	f7ff ffa8 	bl	8008724 <L_shift>
 80087d4:	4544      	cmp	r4, r8
 80087d6:	d952      	bls.n	800887e <__hexnan+0x10e>
 80087d8:	2300      	movs	r3, #0
 80087da:	f1a4 0904 	sub.w	r9, r4, #4
 80087de:	f844 3c04 	str.w	r3, [r4, #-4]
 80087e2:	f8cd b008 	str.w	fp, [sp, #8]
 80087e6:	464c      	mov	r4, r9
 80087e8:	461d      	mov	r5, r3
 80087ea:	9903      	ldr	r1, [sp, #12]
 80087ec:	e7d7      	b.n	800879e <__hexnan+0x2e>
 80087ee:	2a29      	cmp	r2, #41	@ 0x29
 80087f0:	d157      	bne.n	80088a2 <__hexnan+0x132>
 80087f2:	3102      	adds	r1, #2
 80087f4:	f8ca 1000 	str.w	r1, [sl]
 80087f8:	f1bb 0f00 	cmp.w	fp, #0
 80087fc:	d051      	beq.n	80088a2 <__hexnan+0x132>
 80087fe:	454c      	cmp	r4, r9
 8008800:	d206      	bcs.n	8008810 <__hexnan+0xa0>
 8008802:	2d07      	cmp	r5, #7
 8008804:	dc04      	bgt.n	8008810 <__hexnan+0xa0>
 8008806:	462a      	mov	r2, r5
 8008808:	4649      	mov	r1, r9
 800880a:	4620      	mov	r0, r4
 800880c:	f7ff ff8a 	bl	8008724 <L_shift>
 8008810:	4544      	cmp	r4, r8
 8008812:	d936      	bls.n	8008882 <__hexnan+0x112>
 8008814:	f1a8 0204 	sub.w	r2, r8, #4
 8008818:	4623      	mov	r3, r4
 800881a:	f853 1b04 	ldr.w	r1, [r3], #4
 800881e:	f842 1f04 	str.w	r1, [r2, #4]!
 8008822:	429f      	cmp	r7, r3
 8008824:	d2f9      	bcs.n	800881a <__hexnan+0xaa>
 8008826:	1b3b      	subs	r3, r7, r4
 8008828:	f023 0303 	bic.w	r3, r3, #3
 800882c:	3304      	adds	r3, #4
 800882e:	3401      	adds	r4, #1
 8008830:	3e03      	subs	r6, #3
 8008832:	42b4      	cmp	r4, r6
 8008834:	bf88      	it	hi
 8008836:	2304      	movhi	r3, #4
 8008838:	4443      	add	r3, r8
 800883a:	2200      	movs	r2, #0
 800883c:	f843 2b04 	str.w	r2, [r3], #4
 8008840:	429f      	cmp	r7, r3
 8008842:	d2fb      	bcs.n	800883c <__hexnan+0xcc>
 8008844:	683b      	ldr	r3, [r7, #0]
 8008846:	b91b      	cbnz	r3, 8008850 <__hexnan+0xe0>
 8008848:	4547      	cmp	r7, r8
 800884a:	d128      	bne.n	800889e <__hexnan+0x12e>
 800884c:	2301      	movs	r3, #1
 800884e:	603b      	str	r3, [r7, #0]
 8008850:	2005      	movs	r0, #5
 8008852:	b007      	add	sp, #28
 8008854:	e8bd 8ff0 	ldmia.w	sp!, {r4, r5, r6, r7, r8, r9, sl, fp, pc}
 8008858:	3501      	adds	r5, #1
 800885a:	2d08      	cmp	r5, #8
 800885c:	f10b 0b01 	add.w	fp, fp, #1
 8008860:	dd06      	ble.n	8008870 <__hexnan+0x100>
 8008862:	4544      	cmp	r4, r8
 8008864:	d9c1      	bls.n	80087ea <__hexnan+0x7a>
 8008866:	2300      	movs	r3, #0
 8008868:	f844 3c04 	str.w	r3, [r4, #-4]
 800886c:	2501      	movs	r5, #1
 800886e:	3c04      	subs	r4, #4
 8008870:	6822      	ldr	r2, [r4, #0]
 8008872:	f000 000f 	and.w	r0, r0, #15
 8008876:	ea40 1002 	orr.w	r0, r0, r2, lsl #4
 800887a:	6020      	str	r0, [r4, #0]
 800887c:	e7b5      	b.n	80087ea <__hexnan+0x7a>
 800887e:	2508      	movs	r5, #8
 8008880:	e7b3      	b.n	80087ea <__hexnan+0x7a>
 8008882:	9b01      	ldr	r3, [sp, #4]
 8008884:	2b00      	cmp	r3, #0
 8008886:	d0dd      	beq.n	8008844 <__hexnan+0xd4>
 8008888:	f1c3 0320 	rsb	r3, r3, #32
 800888c:	f04f 32ff 	mov.w	r2, #4294967295
 8008890:	40da      	lsrs	r2, r3
 8008892:	f856 3c04 	ldr.w	r3, [r6, #-4]
 8008896:	4013      	ands	r3, r2
 8008898:	f846 3c04 	str.w	r3, [r6, #-4]
 800889c:	e7d2      	b.n	8008844 <__hexnan+0xd4>
 800889e:	3f04      	subs	r7, #4
 80088a0:	e7d0      	b.n	8008844 <__hexnan+0xd4>
 80088a2:	2004      	movs	r0, #4
 80088a4:	e7d5      	b.n	8008852 <__hexnan+0xe2>
	...

080088a8 <malloc>:
 80088a8:	4b02      	ldr	r3, [pc, #8]	@ (80088b4 <malloc+0xc>)
 80088aa:	4601      	mov	r1, r0
 80088ac:	6818      	ldr	r0, [r3, #0]
 80088ae:	f000 b825 	b.w	80088fc <_malloc_r>
 80088b2:	bf00      	nop
 80088b4:	20000188 	.word	0x20000188

080088b8 <sbrk_aligned>:
 80088b8:	b570      	push	{r4, r5, r6, lr}
 80088ba:	4e0f      	ldr	r6, [pc, #60]	@ (80088f8 <sbrk_aligned+0x40>)
 80088bc:	460c      	mov	r4, r1
 80088be:	6831      	ldr	r1, [r6, #0]
 80088c0:	4605      	mov	r5, r0
 80088c2:	b911      	cbnz	r1, 80088ca <sbrk_aligned+0x12>
 80088c4:	f000 ffe0 	bl	8009888 <_sbrk_r>
 80088c8:	6030      	str	r0, [r6, #0]
 80088ca:	4621      	mov	r1, r4
 80088cc:	4628      	mov	r0, r5
 80088ce:	f000 ffdb 	bl	8009888 <_sbrk_r>
 80088d2:	1c43      	adds	r3, r0, #1
 80088d4:	d103      	bne.n	80088de <sbrk_aligned+0x26>
 80088d6:	f04f 34ff 	mov.w	r4, #4294967295
 80088da:	4620      	mov	r0, r4
 80088dc:	bd70      	pop	{r4, r5, r6, pc}
 80088de:	1cc4      	adds	r4, r0, #3
 80088e0:	f024 0403 	bic.w	r4, r4, #3
 80088e4:	42a0      	cmp	r0, r4
 80088e6:	d0f8      	beq.n	80088da <sbrk_aligned+0x22>
 80088e8:	1a21      	subs	r1, r4, r0
 80088ea:	4628      	mov	r0, r5
 80088ec:	f000 ffcc 	bl	8009888 <_sbrk_r>
 80088f0:	3001      	adds	r0, #1
 80088f2:	d1f2      	bne.n	80088da <sbrk_aligned+0x22>
 80088f4:	e7ef      	b.n	80088d6 <sbrk_aligned+0x1e>
 80088f6:	bf00      	nop
 80088f8:	200004e0 	.word	0x200004e0

080088fc <_malloc_r>:
 80088fc:	e92d 43f8 	stmdb	sp!, {r3, r4, r5, r6, r7, r8, r9, lr}
 8008900:	1ccd      	adds	r5, r1, #3
 8008902:	f025 0503 	bic.w	r5, r5, #3
 8008906:	3508      	adds	r5, #8
 8008908:	2d0c      	cmp	r5, #12
 800890a:	bf38      	it	cc
 800890c:	250c      	movcc	r5, #12
 800890e:	2d00      	cmp	r5, #0
 8008910:	4606      	mov	r6, r0
 8008912:	db01      	blt.n	8008918 <_malloc_r+0x1c>
 8008914:	42a9      	cmp	r1, r5
 8008916:	d904      	bls.n	8008922 <_malloc_r+0x26>
 8008918:	230c      	movs	r3, #12
 800891a:	6033      	str	r3, [r6, #0]
 800891c:	2000      	movs	r0, #0
 800891e:	e8bd 83f8 	ldmia.w	sp!, {r3, r4, r5, r6, r7, r8, r9, pc}
 8008922:	f8df 80d4 	ldr.w	r8, [pc, #212]	@ 80089f8 <_malloc_r+0xfc>
 8008926:	f000 f87b 	bl	8008a20 <__malloc_lock>
 800892a:	f8d8 3000 	ldr.w	r3, [r8]
 800892e:	461c      	mov	r4, r3
 8008930:	bb44      	cbnz	r4, 8008984 <_malloc_r+0x88>
 8008932:	4629      	mov	r1, r5
 8008934:	4630      	mov	r0, r6
 8008936:	f7ff ffbf 	bl	80088b8 <sbrk_aligned>
 800893a:	1c43      	adds	r3, r0, #1
 800893c:	4604      	mov	r4, r0
 800893e:	d158      	bne.n	80089f2 <_malloc_r+0xf6>
 8008940:	f8d8 4000 	ldr.w	r4, [r8]
 8008944:	4627      	mov	r7, r4
 8008946:	2f00      	cmp	r7, #0
 8008948:	d143      	bne.n	80089d2 <_malloc_r+0xd6>
 800894a:	2c00      	cmp	r4, #0
 800894c:	d04b      	beq.n	80089e6 <_malloc_r+0xea>
 800894e:	6823      	ldr	r3, [r4, #0]
 8008950:	4639      	mov	r1, r7
 8008952:	4630      	mov	r0, r6
 8008954:	eb04 0903 	add.w	r9, r4, r3
 8008958:	f000 ff96 	bl	8009888 <_sbrk_r>
 800895c:	4581      	cmp	r9, r0
 800895e:	d142      	bne.n	80089e6 <_malloc_r+0xea>
 8008960:	6821      	ldr	r1, [r4, #0]
 8008962:	1a6d      	subs	r5, r5, r1
 8008964:	4629      	mov	r1, r5
 8008966:	4630      	mov	r0, r6
 8008968:	f7ff ffa6 	bl	80088b8 <sbrk_aligned>
 800896c:	3001      	adds	r0, #1
 800896e:	d03a      	beq.n	80089e6 <_malloc_r+0xea>
 8008970:	6823      	ldr	r3, [r4, #0]
 8008972:	442b      	add	r3, r5
 8008974:	6023      	str	r3, [r4, #0]
 8008976:	f8d8 3000 	ldr.w	r3, [r8]
 800897a:	685a      	ldr	r2, [r3, #4]
 800897c:	bb62      	cbnz	r2, 80089d8 <_malloc_r+0xdc>
 800897e:	f8c8 7000 	str.w	r7, [r8]
 8008982:	e00f      	b.n	80089a4 <_malloc_r+0xa8>
 8008984:	6822      	ldr	r2, [r4, #0]
 8008986:	1b52      	subs	r2, r2, r5
 8008988:	d420      	bmi.n	80089cc <_malloc_r+0xd0>
 800898a:	2a0b      	cmp	r2, #11
 800898c:	d917      	bls.n	80089be <_malloc_r+0xc2>
 800898e:	1961      	adds	r1, r4, r5
 8008990:	42a3      	cmp	r3, r4
 8008992:	6025      	str	r5, [r4, #0]
 8008994:	bf18      	it	ne
 8008996:	6059      	strne	r1, [r3, #4]
 8008998:	6863      	ldr	r3, [r4, #4]
 800899a:	bf08      	it	eq
 800899c:	f8c8 1000 	streq.w	r1, [r8]
 80089a0:	5162      	str	r2, [r4, r5]
 80089a2:	604b      	str	r3, [r1, #4]
 80089a4:	4630      	mov	r0, r6
 80089a6:	f000 f841 	bl	8008a2c <__malloc_unlock>
 80089aa:	f104 000b 	add.w	r0, r4, #11
 80089ae:	1d23      	adds	r3, r4, #4
 80089b0:	f020 0007 	bic.w	r0, r0, #7
 80089b4:	1ac2      	subs	r2, r0, r3
 80089b6:	bf1c      	itt	ne
 80089b8:	1a1b      	subne	r3, r3, r0
 80089ba:	50a3      	strne	r3, [r4, r2]
 80089bc:	e7af      	b.n	800891e <_malloc_r+0x22>
 80089be:	6862      	ldr	r2, [r4, #4]
 80089c0:	42a3      	cmp	r3, r4
 80089c2:	bf0c      	ite	eq
 80089c4:	f8c8 2000 	streq.w	r2, [r8]
 80089c8:	605a      	strne	r2, [r3, #4]
 80089ca:	e7eb      	b.n	80089a4 <_malloc_r+0xa8>
 80089cc:	4623      	mov	r3, r4
 80089ce:	6864      	ldr	r4, [r4, #4]
 80089d0:	e7ae      	b.n	8008930 <_malloc_r+0x34>
 80089d2:	463c      	mov	r4, r7
 80089d4:	687f      	ldr	r7, [r7, #4]
 80089d6:	e7b6      	b.n	8008946 <_malloc_r+0x4a>
 80089d8:	461a      	mov	r2, r3
 80089da:	685b      	ldr	r3, [r3, #4]
 80089dc:	42a3      	cmp	r3, r4
 80089de:	d1fb      	bne.n	80089d8 <_malloc_r+0xdc>
 80089e0:	2300      	movs	r3, #0
 80089e2:	6053      	str	r3, [r2, #4]
 80089e4:	e7de      	b.n	80089a4 <_malloc_r+0xa8>
 80089e6:	230c      	movs	r3, #12
 80089e8:	6033      	str	r3, [r6, #0]
 80089ea:	4630      	mov	r0, r6
 80089ec:	f000 f81e 	bl	8008a2c <__malloc_unlock>
 80089f0:	e794      	b.n	800891c <_malloc_r+0x20>
 80089f2:	6005      	str	r5, [r0, #0]
 80089f4:	e7d6      	b.n	80089a4 <_malloc_r+0xa8>
 80089f6:	bf00      	nop
 80089f8:	200004e4 	.word	0x200004e4

080089fc <__ascii_mbtowc>:
 80089fc:	b082      	sub	sp, #8
 80089fe:	b901      	cbnz	r1, 8008a02 <__ascii_mbtowc+0x6>
 8008a00:	a901      	add	r1, sp, #4
 8008a02:	b142      	cbz	r2, 8008a16 <__ascii_mbtowc+0x1a>
 8008a04:	b14b      	cbz	r3, 8008a1a <__ascii_mbtowc+0x1e>
 8008a06:	7813      	ldrb	r3, [r2, #0]
 8008a08:	600b      	str	r3, [r1, #0]
 8008a0a:	7812      	ldrb	r2, [r2, #0]
 8008a0c:	1e10      	subs	r0, r2, #0
 8008a0e:	bf18      	it	ne
 8008a10:	2001      	movne	r0, #1
 8008a12:	b002      	add	sp, #8
 8008a14:	4770      	bx	lr
 8008a16:	4610      	mov	r0, r2
 8008a18:	e7fb      	b.n	8008a12 <__ascii_mbtowc+0x16>
 8008a1a:	f06f 0001 	mvn.w	r0, #1
 8008a1e:	e7f8      	b.n	8008a12 <__ascii_mbtowc+0x16>

08008a20 <__malloc_lock>:
 8008a20:	4801      	ldr	r0, [pc, #4]	@ (8008a28 <__malloc_lock+0x8>)
 8008a22:	f7fe bd4c 	b.w	80074be <__retarget_lock_acquire_recursive>
 8008a26:	bf00      	nop
 8008a28:	200004dc 	.word	0x200004dc

08008a2c <__malloc_unlock>:
 8008a2c:	4801      	ldr	r0, [pc, #4]	@ (8008a34 <__malloc_unlock+0x8>)
 8008a2e:	f7fe bd47 	b.w	80074c0 <__retarget_lock_release_recursive>
 8008a32:	bf00      	nop
 8008a34:	200004dc 	.word	0x200004dc

08008a38 <_Balloc>:
 8008a38:	b570      	push	{r4, r5, r6, lr}
 8008a3a:	69c6      	ldr	r6, [r0, #28]
 8008a3c:	4604      	mov	r4, r0
 8008a3e:	460d      	mov	r5, r1
 8008a40:	b976      	cbnz	r6, 8008a60 <_Balloc+0x28>
 8008a42:	2010      	movs	r0, #16
 8008a44:	f7ff ff30 	bl	80088a8 <malloc>
 8008a48:	4602      	mov	r2, r0
 8008a4a:	61e0      	str	r0, [r4, #28]
 8008a4c:	b920      	cbnz	r0, 8008a58 <_Balloc+0x20>
 8008a4e:	4b18      	ldr	r3, [pc, #96]	@ (8008ab0 <_Balloc+0x78>)
 8008a50:	4818      	ldr	r0, [pc, #96]	@ (8008ab4 <_Balloc+0x7c>)
 8008a52:	216b      	movs	r1, #107	@ 0x6b
 8008a54:	f000 ff28 	bl	80098a8 <__assert_func>
 8008a58:	e9c0 6601 	strd	r6, r6, [r0, #4]
 8008a5c:	6006      	str	r6, [r0, #0]
 8008a5e:	60c6      	str	r6, [r0, #12]
 8008a60:	69e6      	ldr	r6, [r4, #28]
 8008a62:	68f3      	ldr	r3, [r6, #12]
 8008a64:	b183      	cbz	r3, 8008a88 <_Balloc+0x50>
 8008a66:	69e3      	ldr	r3, [r4, #28]
 8008a68:	68db      	ldr	r3, [r3, #12]
 8008a6a:	f853 0025 	ldr.w	r0, [r3, r5, lsl #2]
 8008a6e:	b9b8      	cbnz	r0, 8008aa0 <_Balloc+0x68>
 8008a70:	2101      	movs	r1, #1
 8008a72:	fa01 f605 	lsl.w	r6, r1, r5
 8008a76:	1d72      	adds	r2, r6, #5
 8008a78:	0092      	lsls	r2, r2, #2
 8008a7a:	4620      	mov	r0, r4
 8008a7c:	f000 ff32 	bl	80098e4 <_calloc_r>
 8008a80:	b160      	cbz	r0, 8008a9c <_Balloc+0x64>
 8008a82:	e9c0 5601 	strd	r5, r6, [r0, #4]
 8008a86:	e00e      	b.n	8008aa6 <_Balloc+0x6e>
 8008a88:	2221      	movs	r2, #33	@ 0x21
 8008a8a:	2104      	movs	r1, #4
 8008a8c:	4620      	mov	r0, r4
 8008a8e:	f000 ff29 	bl	80098e4 <_calloc_r>
 8008a92:	69e3      	ldr	r3, [r4, #28]
 8008a94:	60f0      	str	r0, [r6, #12]
 8008a96:	68db      	ldr	r3, [r3, #12]
 8008a98:	2b00      	cmp	r3, #0
 8008a9a:	d1e4      	bne.n	8008a66 <_Balloc+0x2e>
 8008a9c:	2000      	movs	r0, #0
 8008a9e:	bd70      	pop	{r4, r5, r6, pc}
 8008aa0:	6802      	ldr	r2, [r0, #0]
 8008aa2:	f843 2025 	str.w	r2, [r3, r5, lsl #2]
 8008aa6:	2300      	movs	r3, #0
 8008aa8:	e9c0 3303 	strd	r3, r3, [r0, #12]
 8008aac:	e7f7      	b.n	8008a9e <_Balloc+0x66>
 8008aae:	bf00      	nop
 8008ab0:	08009af7 	.word	0x08009af7
 8008ab4:	08009bd7 	.word	0x08009bd7

08008ab8 <_Bfree>:
 8008ab8:	b570      	push	{r4, r5, r6, lr}
 8008aba:	69c6      	ldr	r6, [r0, #28]
 8008abc:	4605      	mov	r5, r0
 8008abe:	460c      	mov	r4, r1
 8008ac0:	b976      	cbnz	r6, 8008ae0 <_Bfree+0x28>
 8008ac2:	2010      	movs	r0, #16
 8008ac4:	f7ff fef0 	bl	80088a8 <malloc>
 8008ac8:	4602      	mov	r2, r0
 8008aca:	61e8      	str	r0, [r5, #28]
 8008acc:	b920      	cbnz	r0, 8008ad8 <_Bfree+0x20>
 8008ace:	4b09      	ldr	r3, [pc, #36]	@ (8008af4 <_Bfree+0x3c>)
 8008ad0:	4809      	ldr	r0, [pc, #36]	@ (8008af8 <_Bfree+0x40>)
 8008ad2:	218f      	movs	r1, #143	@ 0x8f
 8008ad4:	f000 fee8 	bl	80098a8 <__assert_func>
 8008ad8:	e9c0 6601 	strd	r6, r6, [r0, #4]
 8008adc:	6006      	str	r6, [r0, #0]
 8008ade:	60c6      	str	r6, [r0, #12]
 8008ae0:	b13c      	cbz	r4, 8008af2 <_Bfree+0x3a>
 8008ae2:	69eb      	ldr	r3, [r5, #28]
 8008ae4:	6862      	ldr	r2, [r4, #4]
 8008ae6:	68db      	ldr	r3, [r3, #12]
 8008ae8:	f853 1022 	ldr.w	r1, [r3, r2, lsl #2]
 8008aec:	6021      	str	r1, [r4, #0]
 8008aee:	f843 4022 	str.w	r4, [r3, r2, lsl #2]
 8008af2:	bd70      	pop	{r4, r5, r6, pc}
 8008af4:	08009af7 	.word	0x08009af7
 8008af8:	08009bd7 	.word	0x08009bd7

08008afc <__multadd>:
 8008afc:	e92d 41f0 	stmdb	sp!, {r4, r5, r6, r7, r8, lr}
 8008b00:	690d      	ldr	r5, [r1, #16]
 8008b02:	4607      	mov	r7, r0
 8008b04:	460c      	mov	r4, r1
 8008b06:	461e      	mov	r6, r3
 8008b08:	f101 0c14 	add.w	ip, r1, #20
 8008b0c:	2000      	movs	r0, #0
 8008b0e:	f8dc 3000 	ldr.w	r3, [ip]
 8008b12:	b299      	uxth	r1, r3
 8008b14:	fb02 6101 	mla	r1, r2, r1, r6
 8008b18:	0c1e      	lsrs	r6, r3, #16
 8008b1a:	0c0b      	lsrs	r3, r1, #16
 8008b1c:	fb02 3306 	mla	r3, r2, r6, r3
 8008b20:	b289      	uxth	r1, r1
 8008b22:	3001      	adds	r0, #1
 8008b24:	eb01 4103 	add.w	r1, r1, r3, lsl #16
 8008b28:	4285      	cmp	r5, r0
 8008b2a:	f84c 1b04 	str.w	r1, [ip], #4
 8008b2e:	ea4f 4613 	mov.w	r6, r3, lsr #16
 8008b32:	dcec      	bgt.n	8008b0e <__multadd+0x12>
 8008b34:	b30e      	cbz	r6, 8008b7a <__multadd+0x7e>
 8008b36:	68a3      	ldr	r3, [r4, #8]
 8008b38:	42ab      	cmp	r3, r5
 8008b3a:	dc19      	bgt.n	8008b70 <__multadd+0x74>
 8008b3c:	6861      	ldr	r1, [r4, #4]
 8008b3e:	4638      	mov	r0, r7
 8008b40:	3101      	adds	r1, #1
 8008b42:	f7ff ff79 	bl	8008a38 <_Balloc>
 8008b46:	4680      	mov	r8, r0
 8008b48:	b928      	cbnz	r0, 8008b56 <__multadd+0x5a>
 8008b4a:	4602      	mov	r2, r0
 8008b4c:	4b0c      	ldr	r3, [pc, #48]	@ (8008b80 <__multadd+0x84>)
 8008b4e:	480d      	ldr	r0, [pc, #52]	@ (8008b84 <__multadd+0x88>)
 8008b50:	21ba      	movs	r1, #186	@ 0xba
 8008b52:	f000 fea9 	bl	80098a8 <__assert_func>
 8008b56:	6922      	ldr	r2, [r4, #16]
 8008b58:	3202      	adds	r2, #2
 8008b5a:	f104 010c 	add.w	r1, r4, #12
 8008b5e:	0092      	lsls	r2, r2, #2
 8008b60:	300c      	adds	r0, #12
 8008b62:	f7fe fcae 	bl	80074c2 <memcpy>
 8008b66:	4621      	mov	r1, r4
 8008b68:	4638      	mov	r0, r7
 8008b6a:	f7ff ffa5 	bl	8008ab8 <_Bfree>
 8008b6e:	4644      	mov	r4, r8
 8008b70:	eb04 0385 	add.w	r3, r4, r5, lsl #2
 8008b74:	3501      	adds	r5, #1
 8008b76:	615e      	str	r6, [r3, #20]
 8008b78:	6125      	str	r5, [r4, #16]
 8008b7a:	4620      	mov	r0, r4
 8008b7c:	e8bd 81f0 	ldmia.w	sp!, {r4, r5, r6, r7, r8, pc}
 8008b80:	08009b66 	.word	0x08009b66
 8008b84:	08009bd7 	.word	0x08009bd7

08008b88 <__s2b>:
 8008b88:	e92d 43f8 	stmdb	sp!, {r3, r4, r5, r6, r7, r8, r9, lr}
 8008b8c:	460c      	mov	r4, r1
 8008b8e:	4615      	mov	r5, r2
 8008b90:	461f      	mov	r7, r3
 8008b92:	2209      	movs	r2, #9
 8008b94:	3308      	adds	r3, #8
 8008b96:	4606      	mov	r6, r0
 8008b98:	fb93 f3f2 	sdiv	r3, r3, r2
 8008b9c:	2100      	movs	r1, #0
 8008b9e:	2201      	movs	r2, #1
 8008ba0:	429a      	cmp	r2, r3
 8008ba2:	db09      	blt.n	8008bb8 <__s2b+0x30>
 8008ba4:	4630      	mov	r0, r6
 8008ba6:	f7ff ff47 	bl	8008a38 <_Balloc>
 8008baa:	b940      	cbnz	r0, 8008bbe <__s2b+0x36>
 8008bac:	4602      	mov	r2, r0
 8008bae:	4b19      	ldr	r3, [pc, #100]	@ (8008c14 <__s2b+0x8c>)
 8008bb0:	4819      	ldr	r0, [pc, #100]	@ (8008c18 <__s2b+0x90>)
 8008bb2:	21d3      	movs	r1, #211	@ 0xd3
 8008bb4:	f000 fe78 	bl	80098a8 <__assert_func>
 8008bb8:	0052      	lsls	r2, r2, #1
 8008bba:	3101      	adds	r1, #1
 8008bbc:	e7f0      	b.n	8008ba0 <__s2b+0x18>
 8008bbe:	9b08      	ldr	r3, [sp, #32]
 8008bc0:	6143      	str	r3, [r0, #20]
 8008bc2:	2d09      	cmp	r5, #9
 8008bc4:	f04f 0301 	mov.w	r3, #1
 8008bc8:	6103      	str	r3, [r0, #16]
 8008bca:	dd16      	ble.n	8008bfa <__s2b+0x72>
 8008bcc:	f104 0909 	add.w	r9, r4, #9
 8008bd0:	46c8      	mov	r8, r9
 8008bd2:	442c      	add	r4, r5
 8008bd4:	f818 3b01 	ldrb.w	r3, [r8], #1
 8008bd8:	4601      	mov	r1, r0
 8008bda:	3b30      	subs	r3, #48	@ 0x30
 8008bdc:	220a      	movs	r2, #10
 8008bde:	4630      	mov	r0, r6
 8008be0:	f7ff ff8c 	bl	8008afc <__multadd>
 8008be4:	45a0      	cmp	r8, r4
 8008be6:	d1f5      	bne.n	8008bd4 <__s2b+0x4c>
 8008be8:	f1a5 0408 	sub.w	r4, r5, #8
 8008bec:	444c      	add	r4, r9
 8008bee:	1b2d      	subs	r5, r5, r4
 8008bf0:	1963      	adds	r3, r4, r5
 8008bf2:	42bb      	cmp	r3, r7
 8008bf4:	db04      	blt.n	8008c00 <__s2b+0x78>
 8008bf6:	e8bd 83f8 	ldmia.w	sp!, {r3, r4, r5, r6, r7, r8, r9, pc}
 8008bfa:	340a      	adds	r4, #10
 8008bfc:	2509      	movs	r5, #9
 8008bfe:	e7f6      	b.n	8008bee <__s2b+0x66>
 8008c00:	f814 3b01 	ldrb.w	r3, [r4], #1
 8008c04:	4601      	mov	r1, r0
 8008c06:	3b30      	subs	r3, #48	@ 0x30
 8008c08:	220a      	movs	r2, #10
 8008c0a:	4630      	mov	r0, r6
 8008c0c:	f7ff ff76 	bl	8008afc <__multadd>
 8008c10:	e7ee      	b.n	8008bf0 <__s2b+0x68>
 8008c12:	bf00      	nop
 8008c14:	08009b66 	.word	0x08009b66
 8008c18:	08009bd7 	.word	0x08009bd7

08008c1c <__hi0bits>:
 8008c1c:	f5b0 3f80 	cmp.w	r0, #65536	@ 0x10000
 8008c20:	4603      	mov	r3, r0
 8008c22:	bf36      	itet	cc
 8008c24:	0403      	lslcc	r3, r0, #16
 8008c26:	2000      	movcs	r0, #0
 8008c28:	2010      	movcc	r0, #16
 8008c2a:	f1b3 7f80 	cmp.w	r3, #16777216	@ 0x1000000
 8008c2e:	bf3c      	itt	cc
 8008c30:	021b      	lslcc	r3, r3, #8
 8008c32:	3008      	addcc	r0, #8
 8008c34:	f1b3 5f80 	cmp.w	r3, #268435456	@ 0x10000000
 8008c38:	bf3c      	itt	cc
 8008c3a:	011b      	lslcc	r3, r3, #4
 8008c3c:	3004      	addcc	r0, #4
 8008c3e:	f1b3 4f80 	cmp.w	r3, #1073741824	@ 0x40000000
 8008c42:	bf3c      	itt	cc
 8008c44:	009b      	lslcc	r3, r3, #2
 8008c46:	3002      	addcc	r0, #2
 8008c48:	2b00      	cmp	r3, #0
 8008c4a:	db05      	blt.n	8008c58 <__hi0bits+0x3c>
 8008c4c:	f013 4f80 	tst.w	r3, #1073741824	@ 0x40000000
 8008c50:	f100 0001 	add.w	r0, r0, #1
 8008c54:	bf08      	it	eq
 8008c56:	2020      	moveq	r0, #32
 8008c58:	4770      	bx	lr

08008c5a <__lo0bits>:
 8008c5a:	6803      	ldr	r3, [r0, #0]
 8008c5c:	4602      	mov	r2, r0
 8008c5e:	f013 0007 	ands.w	r0, r3, #7
 8008c62:	d00b      	beq.n	8008c7c <__lo0bits+0x22>
 8008c64:	07d9      	lsls	r1, r3, #31
 8008c66:	d421      	bmi.n	8008cac <__lo0bits+0x52>
 8008c68:	0798      	lsls	r0, r3, #30
 8008c6a:	bf49      	itett	mi
 8008c6c:	085b      	lsrmi	r3, r3, #1
 8008c6e:	089b      	lsrpl	r3, r3, #2
 8008c70:	2001      	movmi	r0, #1
 8008c72:	6013      	strmi	r3, [r2, #0]
 8008c74:	bf5c      	itt	pl
 8008c76:	6013      	strpl	r3, [r2, #0]
 8008c78:	2002      	movpl	r0, #2
 8008c7a:	4770      	bx	lr
 8008c7c:	b299      	uxth	r1, r3
 8008c7e:	b909      	cbnz	r1, 8008c84 <__lo0bits+0x2a>
 8008c80:	0c1b      	lsrs	r3, r3, #16
 8008c82:	2010      	movs	r0, #16
 8008c84:	b2d9      	uxtb	r1, r3
 8008c86:	b909      	cbnz	r1, 8008c8c <__lo0bits+0x32>
 8008c88:	3008      	adds	r0, #8
 8008c8a:	0a1b      	lsrs	r3, r3, #8
 8008c8c:	0719      	lsls	r1, r3, #28
 8008c8e:	bf04      	itt	eq
 8008c90:	091b      	lsreq	r3, r3, #4
 8008c92:	3004      	addeq	r0, #4
 8008c94:	0799      	lsls	r1, r3, #30
 8008c96:	bf04      	itt	eq
 8008c98:	089b      	lsreq	r3, r3, #2
 8008c9a:	3002      	addeq	r0, #2
 8008c9c:	07d9      	lsls	r1, r3, #31
 8008c9e:	d403      	bmi.n	8008ca8 <__lo0bits+0x4e>
 8008ca0:	085b      	lsrs	r3, r3, #1
 8008ca2:	f100 0001 	add.w	r0, r0, #1
 8008ca6:	d003      	beq.n	8008cb0 <__lo0bits+0x56>
 8008ca8:	6013      	str	r3, [r2, #0]
 8008caa:	4770      	bx	lr
 8008cac:	2000      	movs	r0, #0
 8008cae:	4770      	bx	lr
 8008cb0:	2020      	movs	r0, #32
 8008cb2:	4770      	bx	lr

08008cb4 <__i2b>:
 8008cb4:	b510      	push	{r4, lr}
 8008cb6:	460c      	mov	r4, r1
 8008cb8:	2101      	movs	r1, #1
 8008cba:	f7ff febd 	bl	8008a38 <_Balloc>
 8008cbe:	4602      	mov	r2, r0
 8008cc0:	b928      	cbnz	r0, 8008cce <__i2b+0x1a>
 8008cc2:	4b05      	ldr	r3, [pc, #20]	@ (8008cd8 <__i2b+0x24>)
 8008cc4:	4805      	ldr	r0, [pc, #20]	@ (8008cdc <__i2b+0x28>)
 8008cc6:	f240 1145 	movw	r1, #325	@ 0x145
 8008cca:	f000 fded 	bl	80098a8 <__assert_func>
 8008cce:	2301      	movs	r3, #1
 8008cd0:	6144      	str	r4, [r0, #20]
 8008cd2:	6103      	str	r3, [r0, #16]
 8008cd4:	bd10      	pop	{r4, pc}
 8008cd6:	bf00      	nop
 8008cd8:	08009b66 	.word	0x08009b66
 8008cdc:	08009bd7 	.word	0x08009bd7

08008ce0 <__multiply>:
 8008ce0:	e92d 4ff0 	stmdb	sp!, {r4, r5, r6, r7, r8, r9, sl, fp, lr}
 8008ce4:	4617      	mov	r7, r2
 8008ce6:	690a      	ldr	r2, [r1, #16]
 8008ce8:	693b      	ldr	r3, [r7, #16]
 8008cea:	429a      	cmp	r2, r3
 8008cec:	bfa8      	it	ge
 8008cee:	463b      	movge	r3, r7
 8008cf0:	4689      	mov	r9, r1
 8008cf2:	bfa4      	itt	ge
 8008cf4:	460f      	movge	r7, r1
 8008cf6:	4699      	movge	r9, r3
 8008cf8:	693d      	ldr	r5, [r7, #16]
 8008cfa:	f8d9 a010 	ldr.w	sl, [r9, #16]
 8008cfe:	68bb      	ldr	r3, [r7, #8]
 8008d00:	6879      	ldr	r1, [r7, #4]
 8008d02:	eb05 060a 	add.w	r6, r5, sl
 8008d06:	42b3      	cmp	r3, r6
 8008d08:	b085      	sub	sp, #20
 8008d0a:	bfb8      	it	lt
 8008d0c:	3101      	addlt	r1, #1
 8008d0e:	f7ff fe93 	bl	8008a38 <_Balloc>
 8008d12:	b930      	cbnz	r0, 8008d22 <__multiply+0x42>
 8008d14:	4602      	mov	r2, r0
 8008d16:	4b41      	ldr	r3, [pc, #260]	@ (8008e1c <__multiply+0x13c>)
 8008d18:	4841      	ldr	r0, [pc, #260]	@ (8008e20 <__multiply+0x140>)
 8008d1a:	f44f 71b1 	mov.w	r1, #354	@ 0x162
 8008d1e:	f000 fdc3 	bl	80098a8 <__assert_func>
 8008d22:	f100 0414 	add.w	r4, r0, #20
 8008d26:	eb04 0e86 	add.w	lr, r4, r6, lsl #2
 8008d2a:	4623      	mov	r3, r4
 8008d2c:	2200      	movs	r2, #0
 8008d2e:	4573      	cmp	r3, lr
 8008d30:	d320      	bcc.n	8008d74 <__multiply+0x94>
 8008d32:	f107 0814 	add.w	r8, r7, #20
 8008d36:	f109 0114 	add.w	r1, r9, #20
 8008d3a:	eb08 0585 	add.w	r5, r8, r5, lsl #2
 8008d3e:	eb01 038a 	add.w	r3, r1, sl, lsl #2
 8008d42:	9302      	str	r3, [sp, #8]
 8008d44:	1beb      	subs	r3, r5, r7
 8008d46:	3b15      	subs	r3, #21
 8008d48:	f023 0303 	bic.w	r3, r3, #3
 8008d4c:	3304      	adds	r3, #4
 8008d4e:	3715      	adds	r7, #21
 8008d50:	42bd      	cmp	r5, r7
 8008d52:	bf38      	it	cc
 8008d54:	2304      	movcc	r3, #4
 8008d56:	9301      	str	r3, [sp, #4]
 8008d58:	9b02      	ldr	r3, [sp, #8]
 8008d5a:	9103      	str	r1, [sp, #12]
 8008d5c:	428b      	cmp	r3, r1
 8008d5e:	d80c      	bhi.n	8008d7a <__multiply+0x9a>
 8008d60:	2e00      	cmp	r6, #0
 8008d62:	dd03      	ble.n	8008d6c <__multiply+0x8c>
 8008d64:	f85e 3d04 	ldr.w	r3, [lr, #-4]!
 8008d68:	2b00      	cmp	r3, #0
 8008d6a:	d055      	beq.n	8008e18 <__multiply+0x138>
 8008d6c:	6106      	str	r6, [r0, #16]
 8008d6e:	b005      	add	sp, #20
 8008d70:	e8bd 8ff0 	ldmia.w	sp!, {r4, r5, r6, r7, r8, r9, sl, fp, pc}
 8008d74:	f843 2b04 	str.w	r2, [r3], #4
 8008d78:	e7d9      	b.n	8008d2e <__multiply+0x4e>
 8008d7a:	f8b1 a000 	ldrh.w	sl, [r1]
 8008d7e:	f1ba 0f00 	cmp.w	sl, #0
 8008d82:	d01f      	beq.n	8008dc4 <__multiply+0xe4>
 8008d84:	46c4      	mov	ip, r8
 8008d86:	46a1      	mov	r9, r4
 8008d88:	2700      	movs	r7, #0
 8008d8a:	f85c 2b04 	ldr.w	r2, [ip], #4
 8008d8e:	f8d9 3000 	ldr.w	r3, [r9]
 8008d92:	fa1f fb82 	uxth.w	fp, r2
 8008d96:	b29b      	uxth	r3, r3
 8008d98:	fb0a 330b 	mla	r3, sl, fp, r3
 8008d9c:	443b      	add	r3, r7
 8008d9e:	f8d9 7000 	ldr.w	r7, [r9]
 8008da2:	0c12      	lsrs	r2, r2, #16
 8008da4:	0c3f      	lsrs	r7, r7, #16
 8008da6:	fb0a 7202 	mla	r2, sl, r2, r7
 8008daa:	eb02 4213 	add.w	r2, r2, r3, lsr #16
 8008dae:	b29b      	uxth	r3, r3
 8008db0:	ea43 4302 	orr.w	r3, r3, r2, lsl #16
 8008db4:	4565      	cmp	r5, ip
 8008db6:	f849 3b04 	str.w	r3, [r9], #4
 8008dba:	ea4f 4712 	mov.w	r7, r2, lsr #16
 8008dbe:	d8e4      	bhi.n	8008d8a <__multiply+0xaa>
 8008dc0:	9b01      	ldr	r3, [sp, #4]
 8008dc2:	50e7      	str	r7, [r4, r3]
 8008dc4:	9b03      	ldr	r3, [sp, #12]
 8008dc6:	f8b3 9002 	ldrh.w	r9, [r3, #2]
 8008dca:	3104      	adds	r1, #4
 8008dcc:	f1b9 0f00 	cmp.w	r9, #0
 8008dd0:	d020      	beq.n	8008e14 <__multiply+0x134>
 8008dd2:	6823      	ldr	r3, [r4, #0]
 8008dd4:	4647      	mov	r7, r8
 8008dd6:	46a4      	mov	ip, r4
 8008dd8:	f04f 0a00 	mov.w	sl, #0
 8008ddc:	f8b7 b000 	ldrh.w	fp, [r7]
 8008de0:	f8bc 2002 	ldrh.w	r2, [ip, #2]
 8008de4:	fb09 220b 	mla	r2, r9, fp, r2
 8008de8:	4452      	add	r2, sl
 8008dea:	b29b      	uxth	r3, r3
 8008dec:	ea43 4302 	orr.w	r3, r3, r2, lsl #16
 8008df0:	f84c 3b04 	str.w	r3, [ip], #4
 8008df4:	f857 3b04 	ldr.w	r3, [r7], #4
 8008df8:	ea4f 4a13 	mov.w	sl, r3, lsr #16
 8008dfc:	f8bc 3000 	ldrh.w	r3, [ip]
 8008e00:	fb09 330a 	mla	r3, r9, sl, r3
 8008e04:	eb03 4312 	add.w	r3, r3, r2, lsr #16
 8008e08:	42bd      	cmp	r5, r7
 8008e0a:	ea4f 4a13 	mov.w	sl, r3, lsr #16
 8008e0e:	d8e5      	bhi.n	8008ddc <__multiply+0xfc>
 8008e10:	9a01      	ldr	r2, [sp, #4]
 8008e12:	50a3      	str	r3, [r4, r2]
 8008e14:	3404      	adds	r4, #4
 8008e16:	e79f      	b.n	8008d58 <__multiply+0x78>
 8008e18:	3e01      	subs	r6, #1
 8008e1a:	e7a1      	b.n	8008d60 <__multiply+0x80>
 8008e1c:	08009b66 	.word	0x08009b66
 8008e20:	08009bd7 	.word	0x08009bd7

08008e24 <__pow5mult>:
 8008e24:	e92d 43f8 	stmdb	sp!, {r3, r4, r5, r6, r7, r8, r9, lr}
 8008e28:	4615      	mov	r5, r2
 8008e2a:	f012 0203 	ands.w	r2, r2, #3
 8008e2e:	4607      	mov	r7, r0
 8008e30:	460e      	mov	r6, r1
 8008e32:	d007      	beq.n	8008e44 <__pow5mult+0x20>
 8008e34:	4c25      	ldr	r4, [pc, #148]	@ (8008ecc <__pow5mult+0xa8>)
 8008e36:	3a01      	subs	r2, #1
 8008e38:	2300      	movs	r3, #0
 8008e3a:	f854 2022 	ldr.w	r2, [r4, r2, lsl #2]
 8008e3e:	f7ff fe5d 	bl	8008afc <__multadd>
 8008e42:	4606      	mov	r6, r0
 8008e44:	10ad      	asrs	r5, r5, #2
 8008e46:	d03d      	beq.n	8008ec4 <__pow5mult+0xa0>
 8008e48:	69fc      	ldr	r4, [r7, #28]
 8008e4a:	b97c      	cbnz	r4, 8008e6c <__pow5mult+0x48>
 8008e4c:	2010      	movs	r0, #16
 8008e4e:	f7ff fd2b 	bl	80088a8 <malloc>
 8008e52:	4602      	mov	r2, r0
 8008e54:	61f8      	str	r0, [r7, #28]
 8008e56:	b928      	cbnz	r0, 8008e64 <__pow5mult+0x40>
 8008e58:	4b1d      	ldr	r3, [pc, #116]	@ (8008ed0 <__pow5mult+0xac>)
 8008e5a:	481e      	ldr	r0, [pc, #120]	@ (8008ed4 <__pow5mult+0xb0>)
 8008e5c:	f240 11b3 	movw	r1, #435	@ 0x1b3
 8008e60:	f000 fd22 	bl	80098a8 <__assert_func>
 8008e64:	e9c0 4401 	strd	r4, r4, [r0, #4]
 8008e68:	6004      	str	r4, [r0, #0]
 8008e6a:	60c4      	str	r4, [r0, #12]
 8008e6c:	f8d7 801c 	ldr.w	r8, [r7, #28]
 8008e70:	f8d8 4008 	ldr.w	r4, [r8, #8]
 8008e74:	b94c      	cbnz	r4, 8008e8a <__pow5mult+0x66>
 8008e76:	f240 2171 	movw	r1, #625	@ 0x271
 8008e7a:	4638      	mov	r0, r7
 8008e7c:	f7ff ff1a 	bl	8008cb4 <__i2b>
 8008e80:	2300      	movs	r3, #0
 8008e82:	f8c8 0008 	str.w	r0, [r8, #8]
 8008e86:	4604      	mov	r4, r0
 8008e88:	6003      	str	r3, [r0, #0]
 8008e8a:	f04f 0900 	mov.w	r9, #0
 8008e8e:	07eb      	lsls	r3, r5, #31
 8008e90:	d50a      	bpl.n	8008ea8 <__pow5mult+0x84>
 8008e92:	4631      	mov	r1, r6
 8008e94:	4622      	mov	r2, r4
 8008e96:	4638      	mov	r0, r7
 8008e98:	f7ff ff22 	bl	8008ce0 <__multiply>
 8008e9c:	4631      	mov	r1, r6
 8008e9e:	4680      	mov	r8, r0
 8008ea0:	4638      	mov	r0, r7
 8008ea2:	f7ff fe09 	bl	8008ab8 <_Bfree>
 8008ea6:	4646      	mov	r6, r8
 8008ea8:	106d      	asrs	r5, r5, #1
 8008eaa:	d00b      	beq.n	8008ec4 <__pow5mult+0xa0>
 8008eac:	6820      	ldr	r0, [r4, #0]
 8008eae:	b938      	cbnz	r0, 8008ec0 <__pow5mult+0x9c>
 8008eb0:	4622      	mov	r2, r4
 8008eb2:	4621      	mov	r1, r4
 8008eb4:	4638      	mov	r0, r7
 8008eb6:	f7ff ff13 	bl	8008ce0 <__multiply>
 8008eba:	6020      	str	r0, [r4, #0]
 8008ebc:	f8c0 9000 	str.w	r9, [r0]
 8008ec0:	4604      	mov	r4, r0
 8008ec2:	e7e4      	b.n	8008e8e <__pow5mult+0x6a>
 8008ec4:	4630      	mov	r0, r6
 8008ec6:	e8bd 83f8 	ldmia.w	sp!, {r3, r4, r5, r6, r7, r8, r9, pc}
 8008eca:	bf00      	nop
 8008ecc:	08009dd4 	.word	0x08009dd4
 8008ed0:	08009af7 	.word	0x08009af7
 8008ed4:	08009bd7 	.word	0x08009bd7

08008ed8 <__lshift>:
 8008ed8:	e92d 47f0 	stmdb	sp!, {r4, r5, r6, r7, r8, r9, sl, lr}
 8008edc:	460c      	mov	r4, r1
 8008ede:	6849      	ldr	r1, [r1, #4]
 8008ee0:	6923      	ldr	r3, [r4, #16]
 8008ee2:	eb03 1862 	add.w	r8, r3, r2, asr #5
 8008ee6:	68a3      	ldr	r3, [r4, #8]
 8008ee8:	4607      	mov	r7, r0
 8008eea:	4691      	mov	r9, r2
 8008eec:	ea4f 1a62 	mov.w	sl, r2, asr #5
 8008ef0:	f108 0601 	add.w	r6, r8, #1
 8008ef4:	42b3      	cmp	r3, r6
 8008ef6:	db0b      	blt.n	8008f10 <__lshift+0x38>
 8008ef8:	4638      	mov	r0, r7
 8008efa:	f7ff fd9d 	bl	8008a38 <_Balloc>
 8008efe:	4605      	mov	r5, r0
 8008f00:	b948      	cbnz	r0, 8008f16 <__lshift+0x3e>
 8008f02:	4602      	mov	r2, r0
 8008f04:	4b28      	ldr	r3, [pc, #160]	@ (8008fa8 <__lshift+0xd0>)
 8008f06:	4829      	ldr	r0, [pc, #164]	@ (8008fac <__lshift+0xd4>)
 8008f08:	f44f 71ef 	mov.w	r1, #478	@ 0x1de
 8008f0c:	f000 fccc 	bl	80098a8 <__assert_func>
 8008f10:	3101      	adds	r1, #1
 8008f12:	005b      	lsls	r3, r3, #1
 8008f14:	e7ee      	b.n	8008ef4 <__lshift+0x1c>
 8008f16:	2300      	movs	r3, #0
 8008f18:	f100 0114 	add.w	r1, r0, #20
 8008f1c:	f100 0210 	add.w	r2, r0, #16
 8008f20:	4618      	mov	r0, r3
 8008f22:	4553      	cmp	r3, sl
 8008f24:	db33      	blt.n	8008f8e <__lshift+0xb6>
 8008f26:	6920      	ldr	r0, [r4, #16]
 8008f28:	ea2a 7aea 	bic.w	sl, sl, sl, asr #31
 8008f2c:	f104 0314 	add.w	r3, r4, #20
 8008f30:	f019 091f 	ands.w	r9, r9, #31
 8008f34:	eb01 018a 	add.w	r1, r1, sl, lsl #2
 8008f38:	eb03 0c80 	add.w	ip, r3, r0, lsl #2
 8008f3c:	d02b      	beq.n	8008f96 <__lshift+0xbe>
 8008f3e:	f1c9 0e20 	rsb	lr, r9, #32
 8008f42:	468a      	mov	sl, r1
 8008f44:	2200      	movs	r2, #0
 8008f46:	6818      	ldr	r0, [r3, #0]
 8008f48:	fa00 f009 	lsl.w	r0, r0, r9
 8008f4c:	4310      	orrs	r0, r2
 8008f4e:	f84a 0b04 	str.w	r0, [sl], #4
 8008f52:	f853 2b04 	ldr.w	r2, [r3], #4
 8008f56:	459c      	cmp	ip, r3
 8008f58:	fa22 f20e 	lsr.w	r2, r2, lr
 8008f5c:	d8f3      	bhi.n	8008f46 <__lshift+0x6e>
 8008f5e:	ebac 0304 	sub.w	r3, ip, r4
 8008f62:	3b15      	subs	r3, #21
 8008f64:	f023 0303 	bic.w	r3, r3, #3
 8008f68:	3304      	adds	r3, #4
 8008f6a:	f104 0015 	add.w	r0, r4, #21
 8008f6e:	4560      	cmp	r0, ip
 8008f70:	bf88      	it	hi
 8008f72:	2304      	movhi	r3, #4
 8008f74:	50ca      	str	r2, [r1, r3]
 8008f76:	b10a      	cbz	r2, 8008f7c <__lshift+0xa4>
 8008f78:	f108 0602 	add.w	r6, r8, #2
 8008f7c:	3e01      	subs	r6, #1
 8008f7e:	4638      	mov	r0, r7
 8008f80:	612e      	str	r6, [r5, #16]
 8008f82:	4621      	mov	r1, r4
 8008f84:	f7ff fd98 	bl	8008ab8 <_Bfree>
 8008f88:	4628      	mov	r0, r5
 8008f8a:	e8bd 87f0 	ldmia.w	sp!, {r4, r5, r6, r7, r8, r9, sl, pc}
 8008f8e:	f842 0f04 	str.w	r0, [r2, #4]!
 8008f92:	3301      	adds	r3, #1
 8008f94:	e7c5      	b.n	8008f22 <__lshift+0x4a>
 8008f96:	3904      	subs	r1, #4
 8008f98:	f853 2b04 	ldr.w	r2, [r3], #4
 8008f9c:	f841 2f04 	str.w	r2, [r1, #4]!
 8008fa0:	459c      	cmp	ip, r3
 8008fa2:	d8f9      	bhi.n	8008f98 <__lshift+0xc0>
 8008fa4:	e7ea      	b.n	8008f7c <__lshift+0xa4>
 8008fa6:	bf00      	nop
 8008fa8:	08009b66 	.word	0x08009b66
 8008fac:	08009bd7 	.word	0x08009bd7

08008fb0 <__mcmp>:
 8008fb0:	690a      	ldr	r2, [r1, #16]
 8008fb2:	4603      	mov	r3, r0
 8008fb4:	6900      	ldr	r0, [r0, #16]
 8008fb6:	1a80      	subs	r0, r0, r2
 8008fb8:	b530      	push	{r4, r5, lr}
 8008fba:	d10e      	bne.n	8008fda <__mcmp+0x2a>
 8008fbc:	3314      	adds	r3, #20
 8008fbe:	3114      	adds	r1, #20
 8008fc0:	eb03 0482 	add.w	r4, r3, r2, lsl #2
 8008fc4:	eb01 0182 	add.w	r1, r1, r2, lsl #2
 8008fc8:	f854 5d04 	ldr.w	r5, [r4, #-4]!
 8008fcc:	f851 2d04 	ldr.w	r2, [r1, #-4]!
 8008fd0:	4295      	cmp	r5, r2
 8008fd2:	d003      	beq.n	8008fdc <__mcmp+0x2c>
 8008fd4:	d205      	bcs.n	8008fe2 <__mcmp+0x32>
 8008fd6:	f04f 30ff 	mov.w	r0, #4294967295
 8008fda:	bd30      	pop	{r4, r5, pc}
 8008fdc:	42a3      	cmp	r3, r4
 8008fde:	d3f3      	bcc.n	8008fc8 <__mcmp+0x18>
 8008fe0:	e7fb      	b.n	8008fda <__mcmp+0x2a>
 8008fe2:	2001      	movs	r0, #1
 8008fe4:	e7f9      	b.n	8008fda <__mcmp+0x2a>
	...

08008fe8 <__mdiff>:
 8008fe8:	e92d 4ff7 	stmdb	sp!, {r0, r1, r2, r4, r5, r6, r7, r8, r9, sl, fp, lr}
 8008fec:	4689      	mov	r9, r1
 8008fee:	4606      	mov	r6, r0
 8008ff0:	4611      	mov	r1, r2
 8008ff2:	4648      	mov	r0, r9
 8008ff4:	4614      	mov	r4, r2
 8008ff6:	f7ff ffdb 	bl	8008fb0 <__mcmp>
 8008ffa:	1e05      	subs	r5, r0, #0
 8008ffc:	d112      	bne.n	8009024 <__mdiff+0x3c>
 8008ffe:	4629      	mov	r1, r5
 8009000:	4630      	mov	r0, r6
 8009002:	f7ff fd19 	bl	8008a38 <_Balloc>
 8009006:	4602      	mov	r2, r0
 8009008:	b928      	cbnz	r0, 8009016 <__mdiff+0x2e>
 800900a:	4b3f      	ldr	r3, [pc, #252]	@ (8009108 <__mdiff+0x120>)
 800900c:	f240 2137 	movw	r1, #567	@ 0x237
 8009010:	483e      	ldr	r0, [pc, #248]	@ (800910c <__mdiff+0x124>)
 8009012:	f000 fc49 	bl	80098a8 <__assert_func>
 8009016:	2301      	movs	r3, #1
 8009018:	e9c0 3504 	strd	r3, r5, [r0, #16]
 800901c:	4610      	mov	r0, r2
 800901e:	b003      	add	sp, #12
 8009020:	e8bd 8ff0 	ldmia.w	sp!, {r4, r5, r6, r7, r8, r9, sl, fp, pc}
 8009024:	bfbc      	itt	lt
 8009026:	464b      	movlt	r3, r9
 8009028:	46a1      	movlt	r9, r4
 800902a:	4630      	mov	r0, r6
 800902c:	f8d9 1004 	ldr.w	r1, [r9, #4]
 8009030:	bfba      	itte	lt
 8009032:	461c      	movlt	r4, r3
 8009034:	2501      	movlt	r5, #1
 8009036:	2500      	movge	r5, #0
 8009038:	f7ff fcfe 	bl	8008a38 <_Balloc>
 800903c:	4602      	mov	r2, r0
 800903e:	b918      	cbnz	r0, 8009048 <__mdiff+0x60>
 8009040:	4b31      	ldr	r3, [pc, #196]	@ (8009108 <__mdiff+0x120>)
 8009042:	f240 2145 	movw	r1, #581	@ 0x245
 8009046:	e7e3      	b.n	8009010 <__mdiff+0x28>
 8009048:	f8d9 7010 	ldr.w	r7, [r9, #16]
 800904c:	6926      	ldr	r6, [r4, #16]
 800904e:	60c5      	str	r5, [r0, #12]
 8009050:	f109 0310 	add.w	r3, r9, #16
 8009054:	f109 0514 	add.w	r5, r9, #20
 8009058:	f104 0e14 	add.w	lr, r4, #20
 800905c:	f100 0b14 	add.w	fp, r0, #20
 8009060:	eb05 0887 	add.w	r8, r5, r7, lsl #2
 8009064:	eb0e 0686 	add.w	r6, lr, r6, lsl #2
 8009068:	9301      	str	r3, [sp, #4]
 800906a:	46d9      	mov	r9, fp
 800906c:	f04f 0c00 	mov.w	ip, #0
 8009070:	9b01      	ldr	r3, [sp, #4]
 8009072:	f85e 0b04 	ldr.w	r0, [lr], #4
 8009076:	f853 af04 	ldr.w	sl, [r3, #4]!
 800907a:	9301      	str	r3, [sp, #4]
 800907c:	fa1f f38a 	uxth.w	r3, sl
 8009080:	4619      	mov	r1, r3
 8009082:	b283      	uxth	r3, r0
 8009084:	1acb      	subs	r3, r1, r3
 8009086:	0c00      	lsrs	r0, r0, #16
 8009088:	4463      	add	r3, ip
 800908a:	ebc0 401a 	rsb	r0, r0, sl, lsr #16
 800908e:	eb00 4023 	add.w	r0, r0, r3, asr #16
 8009092:	b29b      	uxth	r3, r3
 8009094:	ea43 4300 	orr.w	r3, r3, r0, lsl #16
 8009098:	4576      	cmp	r6, lr
 800909a:	f849 3b04 	str.w	r3, [r9], #4
 800909e:	ea4f 4c20 	mov.w	ip, r0, asr #16
 80090a2:	d8e5      	bhi.n	8009070 <__mdiff+0x88>
 80090a4:	1b33      	subs	r3, r6, r4
 80090a6:	3b15      	subs	r3, #21
 80090a8:	f023 0303 	bic.w	r3, r3, #3
 80090ac:	3415      	adds	r4, #21
 80090ae:	3304      	adds	r3, #4
 80090b0:	42a6      	cmp	r6, r4
 80090b2:	bf38      	it	cc
 80090b4:	2304      	movcc	r3, #4
 80090b6:	441d      	add	r5, r3
 80090b8:	445b      	add	r3, fp
 80090ba:	461e      	mov	r6, r3
 80090bc:	462c      	mov	r4, r5
 80090be:	4544      	cmp	r4, r8
 80090c0:	d30e      	bcc.n	80090e0 <__mdiff+0xf8>
 80090c2:	f108 0103 	add.w	r1, r8, #3
 80090c6:	1b49      	subs	r1, r1, r5
 80090c8:	f021 0103 	bic.w	r1, r1, #3
 80090cc:	3d03      	subs	r5, #3
 80090ce:	45a8      	cmp	r8, r5
 80090d0:	bf38      	it	cc
 80090d2:	2100      	movcc	r1, #0
 80090d4:	440b      	add	r3, r1
 80090d6:	f853 1d04 	ldr.w	r1, [r3, #-4]!
 80090da:	b191      	cbz	r1, 8009102 <__mdiff+0x11a>
 80090dc:	6117      	str	r7, [r2, #16]
 80090de:	e79d      	b.n	800901c <__mdiff+0x34>
 80090e0:	f854 1b04 	ldr.w	r1, [r4], #4
 80090e4:	46e6      	mov	lr, ip
 80090e6:	0c08      	lsrs	r0, r1, #16
 80090e8:	fa1c fc81 	uxtah	ip, ip, r1
 80090ec:	4471      	add	r1, lr
 80090ee:	eb00 402c 	add.w	r0, r0, ip, asr #16
 80090f2:	b289      	uxth	r1, r1
 80090f4:	ea41 4100 	orr.w	r1, r1, r0, lsl #16
 80090f8:	f846 1b04 	str.w	r1, [r6], #4
 80090fc:	ea4f 4c20 	mov.w	ip, r0, asr #16
 8009100:	e7dd      	b.n	80090be <__mdiff+0xd6>
 8009102:	3f01      	subs	r7, #1
 8009104:	e7e7      	b.n	80090d6 <__mdiff+0xee>
 8009106:	bf00      	nop
 8009108:	08009b66 	.word	0x08009b66
 800910c:	08009bd7 	.word	0x08009bd7

08009110 <__ulp>:
 8009110:	b082      	sub	sp, #8
 8009112:	ed8d 0b00 	vstr	d0, [sp]
 8009116:	9a01      	ldr	r2, [sp, #4]
 8009118:	4b0f      	ldr	r3, [pc, #60]	@ (8009158 <__ulp+0x48>)
 800911a:	4013      	ands	r3, r2
 800911c:	f1a3 7350 	sub.w	r3, r3, #54525952	@ 0x3400000
 8009120:	2b00      	cmp	r3, #0
 8009122:	dc08      	bgt.n	8009136 <__ulp+0x26>
 8009124:	425b      	negs	r3, r3
 8009126:	f1b3 7fa0 	cmp.w	r3, #20971520	@ 0x1400000
 800912a:	ea4f 5223 	mov.w	r2, r3, asr #20
 800912e:	da04      	bge.n	800913a <__ulp+0x2a>
 8009130:	f44f 2300 	mov.w	r3, #524288	@ 0x80000
 8009134:	4113      	asrs	r3, r2
 8009136:	2200      	movs	r2, #0
 8009138:	e008      	b.n	800914c <__ulp+0x3c>
 800913a:	f1a2 0314 	sub.w	r3, r2, #20
 800913e:	2b1e      	cmp	r3, #30
 8009140:	bfda      	itte	le
 8009142:	f04f 4200 	movle.w	r2, #2147483648	@ 0x80000000
 8009146:	40da      	lsrle	r2, r3
 8009148:	2201      	movgt	r2, #1
 800914a:	2300      	movs	r3, #0
 800914c:	4619      	mov	r1, r3
 800914e:	4610      	mov	r0, r2
 8009150:	ec41 0b10 	vmov	d0, r0, r1
 8009154:	b002      	add	sp, #8
 8009156:	4770      	bx	lr
 8009158:	7ff00000 	.word	0x7ff00000

0800915c <__b2d>:
 800915c:	e92d 41f0 	stmdb	sp!, {r4, r5, r6, r7, r8, lr}
 8009160:	6906      	ldr	r6, [r0, #16]
 8009162:	f100 0814 	add.w	r8, r0, #20
 8009166:	eb08 0686 	add.w	r6, r8, r6, lsl #2
 800916a:	1f37      	subs	r7, r6, #4
 800916c:	f856 2c04 	ldr.w	r2, [r6, #-4]
 8009170:	4610      	mov	r0, r2
 8009172:	f7ff fd53 	bl	8008c1c <__hi0bits>
 8009176:	f1c0 0320 	rsb	r3, r0, #32
 800917a:	280a      	cmp	r0, #10
 800917c:	600b      	str	r3, [r1, #0]
 800917e:	491b      	ldr	r1, [pc, #108]	@ (80091ec <__b2d+0x90>)
 8009180:	dc15      	bgt.n	80091ae <__b2d+0x52>
 8009182:	f1c0 0c0b 	rsb	ip, r0, #11
 8009186:	fa22 f30c 	lsr.w	r3, r2, ip
 800918a:	45b8      	cmp	r8, r7
 800918c:	ea43 0501 	orr.w	r5, r3, r1
 8009190:	bf34      	ite	cc
 8009192:	f856 3c08 	ldrcc.w	r3, [r6, #-8]
 8009196:	2300      	movcs	r3, #0
 8009198:	3015      	adds	r0, #21
 800919a:	fa02 f000 	lsl.w	r0, r2, r0
 800919e:	fa23 f30c 	lsr.w	r3, r3, ip
 80091a2:	4303      	orrs	r3, r0
 80091a4:	461c      	mov	r4, r3
 80091a6:	ec45 4b10 	vmov	d0, r4, r5
 80091aa:	e8bd 81f0 	ldmia.w	sp!, {r4, r5, r6, r7, r8, pc}
 80091ae:	45b8      	cmp	r8, r7
 80091b0:	bf3a      	itte	cc
 80091b2:	f856 3c08 	ldrcc.w	r3, [r6, #-8]
 80091b6:	f1a6 0708 	subcc.w	r7, r6, #8
 80091ba:	2300      	movcs	r3, #0
 80091bc:	380b      	subs	r0, #11
 80091be:	d012      	beq.n	80091e6 <__b2d+0x8a>
 80091c0:	f1c0 0120 	rsb	r1, r0, #32
 80091c4:	fa23 f401 	lsr.w	r4, r3, r1
 80091c8:	4082      	lsls	r2, r0
 80091ca:	4322      	orrs	r2, r4
 80091cc:	4547      	cmp	r7, r8
 80091ce:	f042 557f 	orr.w	r5, r2, #1069547520	@ 0x3fc00000
 80091d2:	bf8c      	ite	hi
 80091d4:	f857 2c04 	ldrhi.w	r2, [r7, #-4]
 80091d8:	2200      	movls	r2, #0
 80091da:	4083      	lsls	r3, r0
 80091dc:	40ca      	lsrs	r2, r1
 80091de:	f445 1540 	orr.w	r5, r5, #3145728	@ 0x300000
 80091e2:	4313      	orrs	r3, r2
 80091e4:	e7de      	b.n	80091a4 <__b2d+0x48>
 80091e6:	ea42 0501 	orr.w	r5, r2, r1
 80091ea:	e7db      	b.n	80091a4 <__b2d+0x48>
 80091ec:	3ff00000 	.word	0x3ff00000

080091f0 <__d2b>:
 80091f0:	e92d 43f7 	stmdb	sp!, {r0, r1, r2, r4, r5, r6, r7, r8, r9, lr}
 80091f4:	460f      	mov	r7, r1
 80091f6:	2101      	movs	r1, #1
 80091f8:	ec59 8b10 	vmov	r8, r9, d0
 80091fc:	4616      	mov	r6, r2
 80091fe:	f7ff fc1b 	bl	8008a38 <_Balloc>
 8009202:	4604      	mov	r4, r0
 8009204:	b930      	cbnz	r0, 8009214 <__d2b+0x24>
 8009206:	4602      	mov	r2, r0
 8009208:	4b23      	ldr	r3, [pc, #140]	@ (8009298 <__d2b+0xa8>)
 800920a:	4824      	ldr	r0, [pc, #144]	@ (800929c <__d2b+0xac>)
 800920c:	f240 310f 	movw	r1, #783	@ 0x30f
 8009210:	f000 fb4a 	bl	80098a8 <__assert_func>
 8009214:	f3c9 550a 	ubfx	r5, r9, #20, #11
 8009218:	f3c9 0313 	ubfx	r3, r9, #0, #20
 800921c:	b10d      	cbz	r5, 8009222 <__d2b+0x32>
 800921e:	f443 1380 	orr.w	r3, r3, #1048576	@ 0x100000
 8009222:	9301      	str	r3, [sp, #4]
 8009224:	f1b8 0300 	subs.w	r3, r8, #0
 8009228:	d023      	beq.n	8009272 <__d2b+0x82>
 800922a:	4668      	mov	r0, sp
 800922c:	9300      	str	r3, [sp, #0]
 800922e:	f7ff fd14 	bl	8008c5a <__lo0bits>
 8009232:	e9dd 1200 	ldrd	r1, r2, [sp]
 8009236:	b1d0      	cbz	r0, 800926e <__d2b+0x7e>
 8009238:	f1c0 0320 	rsb	r3, r0, #32
 800923c:	fa02 f303 	lsl.w	r3, r2, r3
 8009240:	430b      	orrs	r3, r1
 8009242:	40c2      	lsrs	r2, r0
 8009244:	6163      	str	r3, [r4, #20]
 8009246:	9201      	str	r2, [sp, #4]
 8009248:	9b01      	ldr	r3, [sp, #4]
 800924a:	61a3      	str	r3, [r4, #24]
 800924c:	2b00      	cmp	r3, #0
 800924e:	bf0c      	ite	eq
 8009250:	2201      	moveq	r2, #1
 8009252:	2202      	movne	r2, #2
 8009254:	6122      	str	r2, [r4, #16]
 8009256:	b1a5      	cbz	r5, 8009282 <__d2b+0x92>
 8009258:	f2a5 4533 	subw	r5, r5, #1075	@ 0x433
 800925c:	4405      	add	r5, r0
 800925e:	603d      	str	r5, [r7, #0]
 8009260:	f1c0 0035 	rsb	r0, r0, #53	@ 0x35
 8009264:	6030      	str	r0, [r6, #0]
 8009266:	4620      	mov	r0, r4
 8009268:	b003      	add	sp, #12
 800926a:	e8bd 83f0 	ldmia.w	sp!, {r4, r5, r6, r7, r8, r9, pc}
 800926e:	6161      	str	r1, [r4, #20]
 8009270:	e7ea      	b.n	8009248 <__d2b+0x58>
 8009272:	a801      	add	r0, sp, #4
 8009274:	f7ff fcf1 	bl	8008c5a <__lo0bits>
 8009278:	9b01      	ldr	r3, [sp, #4]
 800927a:	6163      	str	r3, [r4, #20]
 800927c:	3020      	adds	r0, #32
 800927e:	2201      	movs	r2, #1
 8009280:	e7e8      	b.n	8009254 <__d2b+0x64>
 8009282:	eb04 0382 	add.w	r3, r4, r2, lsl #2
 8009286:	f2a0 4032 	subw	r0, r0, #1074	@ 0x432
 800928a:	6038      	str	r0, [r7, #0]
 800928c:	6918      	ldr	r0, [r3, #16]
 800928e:	f7ff fcc5 	bl	8008c1c <__hi0bits>
 8009292:	ebc0 1042 	rsb	r0, r0, r2, lsl #5
 8009296:	e7e5      	b.n	8009264 <__d2b+0x74>
 8009298:	08009b66 	.word	0x08009b66
 800929c:	08009bd7 	.word	0x08009bd7

080092a0 <__ratio>:
 80092a0:	e92d 4ff0 	stmdb	sp!, {r4, r5, r6, r7, r8, r9, sl, fp, lr}
 80092a4:	b085      	sub	sp, #20
 80092a6:	e9cd 1000 	strd	r1, r0, [sp]
 80092aa:	a902      	add	r1, sp, #8
 80092ac:	f7ff ff56 	bl	800915c <__b2d>
 80092b0:	9800      	ldr	r0, [sp, #0]
 80092b2:	a903      	add	r1, sp, #12
 80092b4:	ec55 4b10 	vmov	r4, r5, d0
 80092b8:	f7ff ff50 	bl	800915c <__b2d>
 80092bc:	9b01      	ldr	r3, [sp, #4]
 80092be:	6919      	ldr	r1, [r3, #16]
 80092c0:	9b00      	ldr	r3, [sp, #0]
 80092c2:	691b      	ldr	r3, [r3, #16]
 80092c4:	1ac9      	subs	r1, r1, r3
 80092c6:	e9dd 3202 	ldrd	r3, r2, [sp, #8]
 80092ca:	1a9b      	subs	r3, r3, r2
 80092cc:	ec5b ab10 	vmov	sl, fp, d0
 80092d0:	eb03 1341 	add.w	r3, r3, r1, lsl #5
 80092d4:	2b00      	cmp	r3, #0
 80092d6:	bfce      	itee	gt
 80092d8:	462a      	movgt	r2, r5
 80092da:	ebc3 3303 	rsble	r3, r3, r3, lsl #12
 80092de:	465a      	movle	r2, fp
 80092e0:	462f      	mov	r7, r5
 80092e2:	46d9      	mov	r9, fp
 80092e4:	bfcc      	ite	gt
 80092e6:	eb02 5703 	addgt.w	r7, r2, r3, lsl #20
 80092ea:	eb02 5903 	addle.w	r9, r2, r3, lsl #20
 80092ee:	464b      	mov	r3, r9
 80092f0:	4652      	mov	r2, sl
 80092f2:	4620      	mov	r0, r4
 80092f4:	4639      	mov	r1, r7
 80092f6:	f7f7 fab1 	bl	800085c <__aeabi_ddiv>
 80092fa:	ec41 0b10 	vmov	d0, r0, r1
 80092fe:	b005      	add	sp, #20
 8009300:	e8bd 8ff0 	ldmia.w	sp!, {r4, r5, r6, r7, r8, r9, sl, fp, pc}

08009304 <__copybits>:
 8009304:	3901      	subs	r1, #1
 8009306:	b570      	push	{r4, r5, r6, lr}
 8009308:	1149      	asrs	r1, r1, #5
 800930a:	6914      	ldr	r4, [r2, #16]
 800930c:	3101      	adds	r1, #1
 800930e:	f102 0314 	add.w	r3, r2, #20
 8009312:	eb00 0181 	add.w	r1, r0, r1, lsl #2
 8009316:	eb03 0484 	add.w	r4, r3, r4, lsl #2
 800931a:	1f05      	subs	r5, r0, #4
 800931c:	42a3      	cmp	r3, r4
 800931e:	d30c      	bcc.n	800933a <__copybits+0x36>
 8009320:	1aa3      	subs	r3, r4, r2
 8009322:	3b11      	subs	r3, #17
 8009324:	f023 0303 	bic.w	r3, r3, #3
 8009328:	3211      	adds	r2, #17
 800932a:	42a2      	cmp	r2, r4
 800932c:	bf88      	it	hi
 800932e:	2300      	movhi	r3, #0
 8009330:	4418      	add	r0, r3
 8009332:	2300      	movs	r3, #0
 8009334:	4288      	cmp	r0, r1
 8009336:	d305      	bcc.n	8009344 <__copybits+0x40>
 8009338:	bd70      	pop	{r4, r5, r6, pc}
 800933a:	f853 6b04 	ldr.w	r6, [r3], #4
 800933e:	f845 6f04 	str.w	r6, [r5, #4]!
 8009342:	e7eb      	b.n	800931c <__copybits+0x18>
 8009344:	f840 3b04 	str.w	r3, [r0], #4
 8009348:	e7f4      	b.n	8009334 <__copybits+0x30>

0800934a <__any_on>:
 800934a:	f100 0214 	add.w	r2, r0, #20
 800934e:	6900      	ldr	r0, [r0, #16]
 8009350:	114b      	asrs	r3, r1, #5
 8009352:	4298      	cmp	r0, r3
 8009354:	b510      	push	{r4, lr}
 8009356:	db11      	blt.n	800937c <__any_on+0x32>
 8009358:	dd0a      	ble.n	8009370 <__any_on+0x26>
 800935a:	f011 011f 	ands.w	r1, r1, #31
 800935e:	d007      	beq.n	8009370 <__any_on+0x26>
 8009360:	f852 4023 	ldr.w	r4, [r2, r3, lsl #2]
 8009364:	fa24 f001 	lsr.w	r0, r4, r1
 8009368:	fa00 f101 	lsl.w	r1, r0, r1
 800936c:	428c      	cmp	r4, r1
 800936e:	d10b      	bne.n	8009388 <__any_on+0x3e>
 8009370:	eb02 0383 	add.w	r3, r2, r3, lsl #2
 8009374:	4293      	cmp	r3, r2
 8009376:	d803      	bhi.n	8009380 <__any_on+0x36>
 8009378:	2000      	movs	r0, #0
 800937a:	bd10      	pop	{r4, pc}
 800937c:	4603      	mov	r3, r0
 800937e:	e7f7      	b.n	8009370 <__any_on+0x26>
 8009380:	f853 1d04 	ldr.w	r1, [r3, #-4]!
 8009384:	2900      	cmp	r1, #0
 8009386:	d0f5      	beq.n	8009374 <__any_on+0x2a>
 8009388:	2001      	movs	r0, #1
 800938a:	e7f6      	b.n	800937a <__any_on+0x30>

0800938c <__ascii_wctomb>:
 800938c:	4603      	mov	r3, r0
 800938e:	4608      	mov	r0, r1
 8009390:	b141      	cbz	r1, 80093a4 <__ascii_wctomb+0x18>
 8009392:	2aff      	cmp	r2, #255	@ 0xff
 8009394:	d904      	bls.n	80093a0 <__ascii_wctomb+0x14>
 8009396:	228a      	movs	r2, #138	@ 0x8a
 8009398:	601a      	str	r2, [r3, #0]
 800939a:	f04f 30ff 	mov.w	r0, #4294967295
 800939e:	4770      	bx	lr
 80093a0:	700a      	strb	r2, [r1, #0]
 80093a2:	2001      	movs	r0, #1
 80093a4:	4770      	bx	lr

080093a6 <__sfputc_r>:
 80093a6:	6893      	ldr	r3, [r2, #8]
 80093a8:	3b01      	subs	r3, #1
 80093aa:	2b00      	cmp	r3, #0
 80093ac:	b410      	push	{r4}
 80093ae:	6093      	str	r3, [r2, #8]
 80093b0:	da08      	bge.n	80093c4 <__sfputc_r+0x1e>
 80093b2:	6994      	ldr	r4, [r2, #24]
 80093b4:	42a3      	cmp	r3, r4
 80093b6:	db01      	blt.n	80093bc <__sfputc_r+0x16>
 80093b8:	290a      	cmp	r1, #10
 80093ba:	d103      	bne.n	80093c4 <__sfputc_r+0x1e>
 80093bc:	f85d 4b04 	ldr.w	r4, [sp], #4
 80093c0:	f7fd bf35 	b.w	800722e <__swbuf_r>
 80093c4:	6813      	ldr	r3, [r2, #0]
 80093c6:	1c58      	adds	r0, r3, #1
 80093c8:	6010      	str	r0, [r2, #0]
 80093ca:	7019      	strb	r1, [r3, #0]
 80093cc:	4608      	mov	r0, r1
 80093ce:	f85d 4b04 	ldr.w	r4, [sp], #4
 80093d2:	4770      	bx	lr

080093d4 <__sfputs_r>:
 80093d4:	b5f8      	push	{r3, r4, r5, r6, r7, lr}
 80093d6:	4606      	mov	r6, r0
 80093d8:	460f      	mov	r7, r1
 80093da:	4614      	mov	r4, r2
 80093dc:	18d5      	adds	r5, r2, r3
 80093de:	42ac      	cmp	r4, r5
 80093e0:	d101      	bne.n	80093e6 <__sfputs_r+0x12>
 80093e2:	2000      	movs	r0, #0
 80093e4:	e007      	b.n	80093f6 <__sfputs_r+0x22>
 80093e6:	f814 1b01 	ldrb.w	r1, [r4], #1
 80093ea:	463a      	mov	r2, r7
 80093ec:	4630      	mov	r0, r6
 80093ee:	f7ff ffda 	bl	80093a6 <__sfputc_r>
 80093f2:	1c43      	adds	r3, r0, #1
 80093f4:	d1f3      	bne.n	80093de <__sfputs_r+0xa>
 80093f6:	bdf8      	pop	{r3, r4, r5, r6, r7, pc}

080093f8 <_vfiprintf_r>:
 80093f8:	e92d 4ff0 	stmdb	sp!, {r4, r5, r6, r7, r8, r9, sl, fp, lr}
 80093fc:	460d      	mov	r5, r1
 80093fe:	b09d      	sub	sp, #116	@ 0x74
 8009400:	4614      	mov	r4, r2
 8009402:	4698      	mov	r8, r3
 8009404:	4606      	mov	r6, r0
 8009406:	b118      	cbz	r0, 8009410 <_vfiprintf_r+0x18>
 8009408:	6a03      	ldr	r3, [r0, #32]
 800940a:	b90b      	cbnz	r3, 8009410 <_vfiprintf_r+0x18>
 800940c:	f7fd fe26 	bl	800705c <__sinit>
 8009410:	6e6b      	ldr	r3, [r5, #100]	@ 0x64
 8009412:	07d9      	lsls	r1, r3, #31
 8009414:	d405      	bmi.n	8009422 <_vfiprintf_r+0x2a>
 8009416:	89ab      	ldrh	r3, [r5, #12]
 8009418:	059a      	lsls	r2, r3, #22
 800941a:	d402      	bmi.n	8009422 <_vfiprintf_r+0x2a>
 800941c:	6da8      	ldr	r0, [r5, #88]	@ 0x58
 800941e:	f7fe f84e 	bl	80074be <__retarget_lock_acquire_recursive>
 8009422:	89ab      	ldrh	r3, [r5, #12]
 8009424:	071b      	lsls	r3, r3, #28
 8009426:	d501      	bpl.n	800942c <_vfiprintf_r+0x34>
 8009428:	692b      	ldr	r3, [r5, #16]
 800942a:	b99b      	cbnz	r3, 8009454 <_vfiprintf_r+0x5c>
 800942c:	4629      	mov	r1, r5
 800942e:	4630      	mov	r0, r6
 8009430:	f7fd ff3c 	bl	80072ac <__swsetup_r>
 8009434:	b170      	cbz	r0, 8009454 <_vfiprintf_r+0x5c>
 8009436:	6e6b      	ldr	r3, [r5, #100]	@ 0x64
 8009438:	07dc      	lsls	r4, r3, #31
 800943a:	d504      	bpl.n	8009446 <_vfiprintf_r+0x4e>
 800943c:	f04f 30ff 	mov.w	r0, #4294967295
 8009440:	b01d      	add	sp, #116	@ 0x74
 8009442:	e8bd 8ff0 	ldmia.w	sp!, {r4, r5, r6, r7, r8, r9, sl, fp, pc}
 8009446:	89ab      	ldrh	r3, [r5, #12]
 8009448:	0598      	lsls	r0, r3, #22
 800944a:	d4f7      	bmi.n	800943c <_vfiprintf_r+0x44>
 800944c:	6da8      	ldr	r0, [r5, #88]	@ 0x58
 800944e:	f7fe f837 	bl	80074c0 <__retarget_lock_release_recursive>
 8009452:	e7f3      	b.n	800943c <_vfiprintf_r+0x44>
 8009454:	2300      	movs	r3, #0
 8009456:	9309      	str	r3, [sp, #36]	@ 0x24
 8009458:	2320      	movs	r3, #32
 800945a:	f88d 3029 	strb.w	r3, [sp, #41]	@ 0x29
 800945e:	f8cd 800c 	str.w	r8, [sp, #12]
 8009462:	2330      	movs	r3, #48	@ 0x30
 8009464:	f8df 81ac 	ldr.w	r8, [pc, #428]	@ 8009614 <_vfiprintf_r+0x21c>
 8009468:	f88d 302a 	strb.w	r3, [sp, #42]	@ 0x2a
 800946c:	f04f 0901 	mov.w	r9, #1
 8009470:	4623      	mov	r3, r4
 8009472:	469a      	mov	sl, r3
 8009474:	f813 2b01 	ldrb.w	r2, [r3], #1
 8009478:	b10a      	cbz	r2, 800947e <_vfiprintf_r+0x86>
 800947a:	2a25      	cmp	r2, #37	@ 0x25
 800947c:	d1f9      	bne.n	8009472 <_vfiprintf_r+0x7a>
 800947e:	ebba 0b04 	subs.w	fp, sl, r4
 8009482:	d00b      	beq.n	800949c <_vfiprintf_r+0xa4>
 8009484:	465b      	mov	r3, fp
 8009486:	4622      	mov	r2, r4
 8009488:	4629      	mov	r1, r5
 800948a:	4630      	mov	r0, r6
 800948c:	f7ff ffa2 	bl	80093d4 <__sfputs_r>
 8009490:	3001      	adds	r0, #1
 8009492:	f000 80a7 	beq.w	80095e4 <_vfiprintf_r+0x1ec>
 8009496:	9a09      	ldr	r2, [sp, #36]	@ 0x24
 8009498:	445a      	add	r2, fp
 800949a:	9209      	str	r2, [sp, #36]	@ 0x24
 800949c:	f89a 3000 	ldrb.w	r3, [sl]
 80094a0:	2b00      	cmp	r3, #0
 80094a2:	f000 809f 	beq.w	80095e4 <_vfiprintf_r+0x1ec>
 80094a6:	2300      	movs	r3, #0
 80094a8:	f04f 32ff 	mov.w	r2, #4294967295
 80094ac:	e9cd 2305 	strd	r2, r3, [sp, #20]
 80094b0:	f10a 0a01 	add.w	sl, sl, #1
 80094b4:	9304      	str	r3, [sp, #16]
 80094b6:	9307      	str	r3, [sp, #28]
 80094b8:	f88d 3053 	strb.w	r3, [sp, #83]	@ 0x53
 80094bc:	931a      	str	r3, [sp, #104]	@ 0x68
 80094be:	4654      	mov	r4, sl
 80094c0:	2205      	movs	r2, #5
 80094c2:	f814 1b01 	ldrb.w	r1, [r4], #1
 80094c6:	4853      	ldr	r0, [pc, #332]	@ (8009614 <_vfiprintf_r+0x21c>)
 80094c8:	f7f6 fe8a 	bl	80001e0 <memchr>
 80094cc:	9a04      	ldr	r2, [sp, #16]
 80094ce:	b9d8      	cbnz	r0, 8009508 <_vfiprintf_r+0x110>
 80094d0:	06d1      	lsls	r1, r2, #27
 80094d2:	bf44      	itt	mi
 80094d4:	2320      	movmi	r3, #32
 80094d6:	f88d 3053 	strbmi.w	r3, [sp, #83]	@ 0x53
 80094da:	0713      	lsls	r3, r2, #28
 80094dc:	bf44      	itt	mi
 80094de:	232b      	movmi	r3, #43	@ 0x2b
 80094e0:	f88d 3053 	strbmi.w	r3, [sp, #83]	@ 0x53
 80094e4:	f89a 3000 	ldrb.w	r3, [sl]
 80094e8:	2b2a      	cmp	r3, #42	@ 0x2a
 80094ea:	d015      	beq.n	8009518 <_vfiprintf_r+0x120>
 80094ec:	9a07      	ldr	r2, [sp, #28]
 80094ee:	4654      	mov	r4, sl
 80094f0:	2000      	movs	r0, #0
 80094f2:	f04f 0c0a 	mov.w	ip, #10
 80094f6:	4621      	mov	r1, r4
 80094f8:	f811 3b01 	ldrb.w	r3, [r1], #1
 80094fc:	3b30      	subs	r3, #48	@ 0x30
 80094fe:	2b09      	cmp	r3, #9
 8009500:	d94b      	bls.n	800959a <_vfiprintf_r+0x1a2>
 8009502:	b1b0      	cbz	r0, 8009532 <_vfiprintf_r+0x13a>
 8009504:	9207      	str	r2, [sp, #28]
 8009506:	e014      	b.n	8009532 <_vfiprintf_r+0x13a>
 8009508:	eba0 0308 	sub.w	r3, r0, r8
 800950c:	fa09 f303 	lsl.w	r3, r9, r3
 8009510:	4313      	orrs	r3, r2
 8009512:	9304      	str	r3, [sp, #16]
 8009514:	46a2      	mov	sl, r4
 8009516:	e7d2      	b.n	80094be <_vfiprintf_r+0xc6>
 8009518:	9b03      	ldr	r3, [sp, #12]
 800951a:	1d19      	adds	r1, r3, #4
 800951c:	681b      	ldr	r3, [r3, #0]
 800951e:	9103      	str	r1, [sp, #12]
 8009520:	2b00      	cmp	r3, #0
 8009522:	bfbb      	ittet	lt
 8009524:	425b      	neglt	r3, r3
 8009526:	f042 0202 	orrlt.w	r2, r2, #2
 800952a:	9307      	strge	r3, [sp, #28]
 800952c:	9307      	strlt	r3, [sp, #28]
 800952e:	bfb8      	it	lt
 8009530:	9204      	strlt	r2, [sp, #16]
 8009532:	7823      	ldrb	r3, [r4, #0]
 8009534:	2b2e      	cmp	r3, #46	@ 0x2e
 8009536:	d10a      	bne.n	800954e <_vfiprintf_r+0x156>
 8009538:	7863      	ldrb	r3, [r4, #1]
 800953a:	2b2a      	cmp	r3, #42	@ 0x2a
 800953c:	d132      	bne.n	80095a4 <_vfiprintf_r+0x1ac>
 800953e:	9b03      	ldr	r3, [sp, #12]
 8009540:	1d1a      	adds	r2, r3, #4
 8009542:	681b      	ldr	r3, [r3, #0]
 8009544:	9203      	str	r2, [sp, #12]
 8009546:	ea43 73e3 	orr.w	r3, r3, r3, asr #31
 800954a:	3402      	adds	r4, #2
 800954c:	9305      	str	r3, [sp, #20]
 800954e:	f8df a0d4 	ldr.w	sl, [pc, #212]	@ 8009624 <_vfiprintf_r+0x22c>
 8009552:	7821      	ldrb	r1, [r4, #0]
 8009554:	2203      	movs	r2, #3
 8009556:	4650      	mov	r0, sl
 8009558:	f7f6 fe42 	bl	80001e0 <memchr>
 800955c:	b138      	cbz	r0, 800956e <_vfiprintf_r+0x176>
 800955e:	9b04      	ldr	r3, [sp, #16]
 8009560:	eba0 000a 	sub.w	r0, r0, sl
 8009564:	2240      	movs	r2, #64	@ 0x40
 8009566:	4082      	lsls	r2, r0
 8009568:	4313      	orrs	r3, r2
 800956a:	3401      	adds	r4, #1
 800956c:	9304      	str	r3, [sp, #16]
 800956e:	f814 1b01 	ldrb.w	r1, [r4], #1
 8009572:	4829      	ldr	r0, [pc, #164]	@ (8009618 <_vfiprintf_r+0x220>)
 8009574:	f88d 1028 	strb.w	r1, [sp, #40]	@ 0x28
 8009578:	2206      	movs	r2, #6
 800957a:	f7f6 fe31 	bl	80001e0 <memchr>
 800957e:	2800      	cmp	r0, #0
 8009580:	d03f      	beq.n	8009602 <_vfiprintf_r+0x20a>
 8009582:	4b26      	ldr	r3, [pc, #152]	@ (800961c <_vfiprintf_r+0x224>)
 8009584:	bb1b      	cbnz	r3, 80095ce <_vfiprintf_r+0x1d6>
 8009586:	9b03      	ldr	r3, [sp, #12]
 8009588:	3307      	adds	r3, #7
 800958a:	f023 0307 	bic.w	r3, r3, #7
 800958e:	3308      	adds	r3, #8
 8009590:	9303      	str	r3, [sp, #12]
 8009592:	9b09      	ldr	r3, [sp, #36]	@ 0x24
 8009594:	443b      	add	r3, r7
 8009596:	9309      	str	r3, [sp, #36]	@ 0x24
 8009598:	e76a      	b.n	8009470 <_vfiprintf_r+0x78>
 800959a:	fb0c 3202 	mla	r2, ip, r2, r3
 800959e:	460c      	mov	r4, r1
 80095a0:	2001      	movs	r0, #1
 80095a2:	e7a8      	b.n	80094f6 <_vfiprintf_r+0xfe>
 80095a4:	2300      	movs	r3, #0
 80095a6:	3401      	adds	r4, #1
 80095a8:	9305      	str	r3, [sp, #20]
 80095aa:	4619      	mov	r1, r3
 80095ac:	f04f 0c0a 	mov.w	ip, #10
 80095b0:	4620      	mov	r0, r4
 80095b2:	f810 2b01 	ldrb.w	r2, [r0], #1
 80095b6:	3a30      	subs	r2, #48	@ 0x30
 80095b8:	2a09      	cmp	r2, #9
 80095ba:	d903      	bls.n	80095c4 <_vfiprintf_r+0x1cc>
 80095bc:	2b00      	cmp	r3, #0
 80095be:	d0c6      	beq.n	800954e <_vfiprintf_r+0x156>
 80095c0:	9105      	str	r1, [sp, #20]
 80095c2:	e7c4      	b.n	800954e <_vfiprintf_r+0x156>
 80095c4:	fb0c 2101 	mla	r1, ip, r1, r2
 80095c8:	4604      	mov	r4, r0
 80095ca:	2301      	movs	r3, #1
 80095cc:	e7f0      	b.n	80095b0 <_vfiprintf_r+0x1b8>
 80095ce:	ab03      	add	r3, sp, #12
 80095d0:	9300      	str	r3, [sp, #0]
 80095d2:	462a      	mov	r2, r5
 80095d4:	4b12      	ldr	r3, [pc, #72]	@ (8009620 <_vfiprintf_r+0x228>)
 80095d6:	a904      	add	r1, sp, #16
 80095d8:	4630      	mov	r0, r6
 80095da:	f7fd f8fd 	bl	80067d8 <_printf_float>
 80095de:	4607      	mov	r7, r0
 80095e0:	1c78      	adds	r0, r7, #1
 80095e2:	d1d6      	bne.n	8009592 <_vfiprintf_r+0x19a>
 80095e4:	6e6b      	ldr	r3, [r5, #100]	@ 0x64
 80095e6:	07d9      	lsls	r1, r3, #31
 80095e8:	d405      	bmi.n	80095f6 <_vfiprintf_r+0x1fe>
 80095ea:	89ab      	ldrh	r3, [r5, #12]
 80095ec:	059a      	lsls	r2, r3, #22
 80095ee:	d402      	bmi.n	80095f6 <_vfiprintf_r+0x1fe>
 80095f0:	6da8      	ldr	r0, [r5, #88]	@ 0x58
 80095f2:	f7fd ff65 	bl	80074c0 <__retarget_lock_release_recursive>
 80095f6:	89ab      	ldrh	r3, [r5, #12]
 80095f8:	065b      	lsls	r3, r3, #25
 80095fa:	f53f af1f 	bmi.w	800943c <_vfiprintf_r+0x44>
 80095fe:	9809      	ldr	r0, [sp, #36]	@ 0x24
 8009600:	e71e      	b.n	8009440 <_vfiprintf_r+0x48>
 8009602:	ab03      	add	r3, sp, #12
 8009604:	9300      	str	r3, [sp, #0]
 8009606:	462a      	mov	r2, r5
 8009608:	4b05      	ldr	r3, [pc, #20]	@ (8009620 <_vfiprintf_r+0x228>)
 800960a:	a904      	add	r1, sp, #16
 800960c:	4630      	mov	r0, r6
 800960e:	f7fd fb7b 	bl	8006d08 <_printf_i>
 8009612:	e7e4      	b.n	80095de <_vfiprintf_r+0x1e6>
 8009614:	08009c30 	.word	0x08009c30
 8009618:	08009c3a 	.word	0x08009c3a
 800961c:	080067d9 	.word	0x080067d9
 8009620:	080093d5 	.word	0x080093d5
 8009624:	08009c36 	.word	0x08009c36

08009628 <__sflush_r>:
 8009628:	f9b1 200c 	ldrsh.w	r2, [r1, #12]
 800962c:	e92d 41f0 	stmdb	sp!, {r4, r5, r6, r7, r8, lr}
 8009630:	0716      	lsls	r6, r2, #28
 8009632:	4605      	mov	r5, r0
 8009634:	460c      	mov	r4, r1
 8009636:	d454      	bmi.n	80096e2 <__sflush_r+0xba>
 8009638:	684b      	ldr	r3, [r1, #4]
 800963a:	2b00      	cmp	r3, #0
 800963c:	dc02      	bgt.n	8009644 <__sflush_r+0x1c>
 800963e:	6c0b      	ldr	r3, [r1, #64]	@ 0x40
 8009640:	2b00      	cmp	r3, #0
 8009642:	dd48      	ble.n	80096d6 <__sflush_r+0xae>
 8009644:	6ae6      	ldr	r6, [r4, #44]	@ 0x2c
 8009646:	2e00      	cmp	r6, #0
 8009648:	d045      	beq.n	80096d6 <__sflush_r+0xae>
 800964a:	2300      	movs	r3, #0
 800964c:	f412 5280 	ands.w	r2, r2, #4096	@ 0x1000
 8009650:	682f      	ldr	r7, [r5, #0]
 8009652:	6a21      	ldr	r1, [r4, #32]
 8009654:	602b      	str	r3, [r5, #0]
 8009656:	d030      	beq.n	80096ba <__sflush_r+0x92>
 8009658:	6d62      	ldr	r2, [r4, #84]	@ 0x54
 800965a:	89a3      	ldrh	r3, [r4, #12]
 800965c:	0759      	lsls	r1, r3, #29
 800965e:	d505      	bpl.n	800966c <__sflush_r+0x44>
 8009660:	6863      	ldr	r3, [r4, #4]
 8009662:	1ad2      	subs	r2, r2, r3
 8009664:	6b63      	ldr	r3, [r4, #52]	@ 0x34
 8009666:	b10b      	cbz	r3, 800966c <__sflush_r+0x44>
 8009668:	6c23      	ldr	r3, [r4, #64]	@ 0x40
 800966a:	1ad2      	subs	r2, r2, r3
 800966c:	2300      	movs	r3, #0
 800966e:	6ae6      	ldr	r6, [r4, #44]	@ 0x2c
 8009670:	6a21      	ldr	r1, [r4, #32]
 8009672:	4628      	mov	r0, r5
 8009674:	47b0      	blx	r6
 8009676:	1c43      	adds	r3, r0, #1
 8009678:	89a3      	ldrh	r3, [r4, #12]
 800967a:	d106      	bne.n	800968a <__sflush_r+0x62>
 800967c:	6829      	ldr	r1, [r5, #0]
 800967e:	291d      	cmp	r1, #29
 8009680:	d82b      	bhi.n	80096da <__sflush_r+0xb2>
 8009682:	4a2a      	ldr	r2, [pc, #168]	@ (800972c <__sflush_r+0x104>)
 8009684:	40ca      	lsrs	r2, r1
 8009686:	07d6      	lsls	r6, r2, #31
 8009688:	d527      	bpl.n	80096da <__sflush_r+0xb2>
 800968a:	2200      	movs	r2, #0
 800968c:	6062      	str	r2, [r4, #4]
 800968e:	04d9      	lsls	r1, r3, #19
 8009690:	6922      	ldr	r2, [r4, #16]
 8009692:	6022      	str	r2, [r4, #0]
 8009694:	d504      	bpl.n	80096a0 <__sflush_r+0x78>
 8009696:	1c42      	adds	r2, r0, #1
 8009698:	d101      	bne.n	800969e <__sflush_r+0x76>
 800969a:	682b      	ldr	r3, [r5, #0]
 800969c:	b903      	cbnz	r3, 80096a0 <__sflush_r+0x78>
 800969e:	6560      	str	r0, [r4, #84]	@ 0x54
 80096a0:	6b61      	ldr	r1, [r4, #52]	@ 0x34
 80096a2:	602f      	str	r7, [r5, #0]
 80096a4:	b1b9      	cbz	r1, 80096d6 <__sflush_r+0xae>
 80096a6:	f104 0344 	add.w	r3, r4, #68	@ 0x44
 80096aa:	4299      	cmp	r1, r3
 80096ac:	d002      	beq.n	80096b4 <__sflush_r+0x8c>
 80096ae:	4628      	mov	r0, r5
 80096b0:	f7fe fd76 	bl	80081a0 <_free_r>
 80096b4:	2300      	movs	r3, #0
 80096b6:	6363      	str	r3, [r4, #52]	@ 0x34
 80096b8:	e00d      	b.n	80096d6 <__sflush_r+0xae>
 80096ba:	2301      	movs	r3, #1
 80096bc:	4628      	mov	r0, r5
 80096be:	47b0      	blx	r6
 80096c0:	4602      	mov	r2, r0
 80096c2:	1c50      	adds	r0, r2, #1
 80096c4:	d1c9      	bne.n	800965a <__sflush_r+0x32>
 80096c6:	682b      	ldr	r3, [r5, #0]
 80096c8:	2b00      	cmp	r3, #0
 80096ca:	d0c6      	beq.n	800965a <__sflush_r+0x32>
 80096cc:	2b1d      	cmp	r3, #29
 80096ce:	d001      	beq.n	80096d4 <__sflush_r+0xac>
 80096d0:	2b16      	cmp	r3, #22
 80096d2:	d11e      	bne.n	8009712 <__sflush_r+0xea>
 80096d4:	602f      	str	r7, [r5, #0]
 80096d6:	2000      	movs	r0, #0
 80096d8:	e022      	b.n	8009720 <__sflush_r+0xf8>
 80096da:	f043 0340 	orr.w	r3, r3, #64	@ 0x40
 80096de:	b21b      	sxth	r3, r3
 80096e0:	e01b      	b.n	800971a <__sflush_r+0xf2>
 80096e2:	690f      	ldr	r7, [r1, #16]
 80096e4:	2f00      	cmp	r7, #0
 80096e6:	d0f6      	beq.n	80096d6 <__sflush_r+0xae>
 80096e8:	0793      	lsls	r3, r2, #30
 80096ea:	680e      	ldr	r6, [r1, #0]
 80096ec:	bf08      	it	eq
 80096ee:	694b      	ldreq	r3, [r1, #20]
 80096f0:	600f      	str	r7, [r1, #0]
 80096f2:	bf18      	it	ne
 80096f4:	2300      	movne	r3, #0
 80096f6:	eba6 0807 	sub.w	r8, r6, r7
 80096fa:	608b      	str	r3, [r1, #8]
 80096fc:	f1b8 0f00 	cmp.w	r8, #0
 8009700:	dde9      	ble.n	80096d6 <__sflush_r+0xae>
 8009702:	6a21      	ldr	r1, [r4, #32]
 8009704:	6aa6      	ldr	r6, [r4, #40]	@ 0x28
 8009706:	4643      	mov	r3, r8
 8009708:	463a      	mov	r2, r7
 800970a:	4628      	mov	r0, r5
 800970c:	47b0      	blx	r6
 800970e:	2800      	cmp	r0, #0
 8009710:	dc08      	bgt.n	8009724 <__sflush_r+0xfc>
 8009712:	f9b4 300c 	ldrsh.w	r3, [r4, #12]
 8009716:	f043 0340 	orr.w	r3, r3, #64	@ 0x40
 800971a:	81a3      	strh	r3, [r4, #12]
 800971c:	f04f 30ff 	mov.w	r0, #4294967295
 8009720:	e8bd 81f0 	ldmia.w	sp!, {r4, r5, r6, r7, r8, pc}
 8009724:	4407      	add	r7, r0
 8009726:	eba8 0800 	sub.w	r8, r8, r0
 800972a:	e7e7      	b.n	80096fc <__sflush_r+0xd4>
 800972c:	20400001 	.word	0x20400001

08009730 <_fflush_r>:
 8009730:	b538      	push	{r3, r4, r5, lr}
 8009732:	690b      	ldr	r3, [r1, #16]
 8009734:	4605      	mov	r5, r0
 8009736:	460c      	mov	r4, r1
 8009738:	b913      	cbnz	r3, 8009740 <_fflush_r+0x10>
 800973a:	2500      	movs	r5, #0
 800973c:	4628      	mov	r0, r5
 800973e:	bd38      	pop	{r3, r4, r5, pc}
 8009740:	b118      	cbz	r0, 800974a <_fflush_r+0x1a>
 8009742:	6a03      	ldr	r3, [r0, #32]
 8009744:	b90b      	cbnz	r3, 800974a <_fflush_r+0x1a>
 8009746:	f7fd fc89 	bl	800705c <__sinit>
 800974a:	f9b4 300c 	ldrsh.w	r3, [r4, #12]
 800974e:	2b00      	cmp	r3, #0
 8009750:	d0f3      	beq.n	800973a <_fflush_r+0xa>
 8009752:	6e62      	ldr	r2, [r4, #100]	@ 0x64
 8009754:	07d0      	lsls	r0, r2, #31
 8009756:	d404      	bmi.n	8009762 <_fflush_r+0x32>
 8009758:	0599      	lsls	r1, r3, #22
 800975a:	d402      	bmi.n	8009762 <_fflush_r+0x32>
 800975c:	6da0      	ldr	r0, [r4, #88]	@ 0x58
 800975e:	f7fd feae 	bl	80074be <__retarget_lock_acquire_recursive>
 8009762:	4628      	mov	r0, r5
 8009764:	4621      	mov	r1, r4
 8009766:	f7ff ff5f 	bl	8009628 <__sflush_r>
 800976a:	6e63      	ldr	r3, [r4, #100]	@ 0x64
 800976c:	07da      	lsls	r2, r3, #31
 800976e:	4605      	mov	r5, r0
 8009770:	d4e4      	bmi.n	800973c <_fflush_r+0xc>
 8009772:	89a3      	ldrh	r3, [r4, #12]
 8009774:	059b      	lsls	r3, r3, #22
 8009776:	d4e1      	bmi.n	800973c <_fflush_r+0xc>
 8009778:	6da0      	ldr	r0, [r4, #88]	@ 0x58
 800977a:	f7fd fea1 	bl	80074c0 <__retarget_lock_release_recursive>
 800977e:	e7dd      	b.n	800973c <_fflush_r+0xc>

08009780 <__swhatbuf_r>:
 8009780:	b570      	push	{r4, r5, r6, lr}
 8009782:	460c      	mov	r4, r1
 8009784:	f9b1 100e 	ldrsh.w	r1, [r1, #14]
 8009788:	2900      	cmp	r1, #0
 800978a:	b096      	sub	sp, #88	@ 0x58
 800978c:	4615      	mov	r5, r2
 800978e:	461e      	mov	r6, r3
 8009790:	da0d      	bge.n	80097ae <__swhatbuf_r+0x2e>
 8009792:	89a3      	ldrh	r3, [r4, #12]
 8009794:	f013 0f80 	tst.w	r3, #128	@ 0x80
 8009798:	f04f 0100 	mov.w	r1, #0
 800979c:	bf14      	ite	ne
 800979e:	2340      	movne	r3, #64	@ 0x40
 80097a0:	f44f 6380 	moveq.w	r3, #1024	@ 0x400
 80097a4:	2000      	movs	r0, #0
 80097a6:	6031      	str	r1, [r6, #0]
 80097a8:	602b      	str	r3, [r5, #0]
 80097aa:	b016      	add	sp, #88	@ 0x58
 80097ac:	bd70      	pop	{r4, r5, r6, pc}
 80097ae:	466a      	mov	r2, sp
 80097b0:	f000 f848 	bl	8009844 <_fstat_r>
 80097b4:	2800      	cmp	r0, #0
 80097b6:	dbec      	blt.n	8009792 <__swhatbuf_r+0x12>
 80097b8:	9901      	ldr	r1, [sp, #4]
 80097ba:	f401 4170 	and.w	r1, r1, #61440	@ 0xf000
 80097be:	f5a1 5300 	sub.w	r3, r1, #8192	@ 0x2000
 80097c2:	4259      	negs	r1, r3
 80097c4:	4159      	adcs	r1, r3
 80097c6:	f44f 6380 	mov.w	r3, #1024	@ 0x400
 80097ca:	e7eb      	b.n	80097a4 <__swhatbuf_r+0x24>

080097cc <__smakebuf_r>:
 80097cc:	898b      	ldrh	r3, [r1, #12]
 80097ce:	b5f7      	push	{r0, r1, r2, r4, r5, r6, r7, lr}
 80097d0:	079d      	lsls	r5, r3, #30
 80097d2:	4606      	mov	r6, r0
 80097d4:	460c      	mov	r4, r1
 80097d6:	d507      	bpl.n	80097e8 <__smakebuf_r+0x1c>
 80097d8:	f104 0347 	add.w	r3, r4, #71	@ 0x47
 80097dc:	6023      	str	r3, [r4, #0]
 80097de:	6123      	str	r3, [r4, #16]
 80097e0:	2301      	movs	r3, #1
 80097e2:	6163      	str	r3, [r4, #20]
 80097e4:	b003      	add	sp, #12
 80097e6:	bdf0      	pop	{r4, r5, r6, r7, pc}
 80097e8:	ab01      	add	r3, sp, #4
 80097ea:	466a      	mov	r2, sp
 80097ec:	f7ff ffc8 	bl	8009780 <__swhatbuf_r>
 80097f0:	9f00      	ldr	r7, [sp, #0]
 80097f2:	4605      	mov	r5, r0
 80097f4:	4639      	mov	r1, r7
 80097f6:	4630      	mov	r0, r6
 80097f8:	f7ff f880 	bl	80088fc <_malloc_r>
 80097fc:	b948      	cbnz	r0, 8009812 <__smakebuf_r+0x46>
 80097fe:	f9b4 300c 	ldrsh.w	r3, [r4, #12]
 8009802:	059a      	lsls	r2, r3, #22
 8009804:	d4ee      	bmi.n	80097e4 <__smakebuf_r+0x18>
 8009806:	f023 0303 	bic.w	r3, r3, #3
 800980a:	f043 0302 	orr.w	r3, r3, #2
 800980e:	81a3      	strh	r3, [r4, #12]
 8009810:	e7e2      	b.n	80097d8 <__smakebuf_r+0xc>
 8009812:	89a3      	ldrh	r3, [r4, #12]
 8009814:	6020      	str	r0, [r4, #0]
 8009816:	f043 0380 	orr.w	r3, r3, #128	@ 0x80
 800981a:	81a3      	strh	r3, [r4, #12]
 800981c:	9b01      	ldr	r3, [sp, #4]
 800981e:	e9c4 0704 	strd	r0, r7, [r4, #16]
 8009822:	b15b      	cbz	r3, 800983c <__smakebuf_r+0x70>
 8009824:	f9b4 100e 	ldrsh.w	r1, [r4, #14]
 8009828:	4630      	mov	r0, r6
 800982a:	f000 f81d 	bl	8009868 <_isatty_r>
 800982e:	b128      	cbz	r0, 800983c <__smakebuf_r+0x70>
 8009830:	89a3      	ldrh	r3, [r4, #12]
 8009832:	f023 0303 	bic.w	r3, r3, #3
 8009836:	f043 0301 	orr.w	r3, r3, #1
 800983a:	81a3      	strh	r3, [r4, #12]
 800983c:	89a3      	ldrh	r3, [r4, #12]
 800983e:	431d      	orrs	r5, r3
 8009840:	81a5      	strh	r5, [r4, #12]
 8009842:	e7cf      	b.n	80097e4 <__smakebuf_r+0x18>

08009844 <_fstat_r>:
 8009844:	b538      	push	{r3, r4, r5, lr}
 8009846:	4d07      	ldr	r5, [pc, #28]	@ (8009864 <_fstat_r+0x20>)
 8009848:	2300      	movs	r3, #0
 800984a:	4604      	mov	r4, r0
 800984c:	4608      	mov	r0, r1
 800984e:	4611      	mov	r1, r2
 8009850:	602b      	str	r3, [r5, #0]
 8009852:	f7f8 fef1 	bl	8002638 <_fstat>
 8009856:	1c43      	adds	r3, r0, #1
 8009858:	d102      	bne.n	8009860 <_fstat_r+0x1c>
 800985a:	682b      	ldr	r3, [r5, #0]
 800985c:	b103      	cbz	r3, 8009860 <_fstat_r+0x1c>
 800985e:	6023      	str	r3, [r4, #0]
 8009860:	bd38      	pop	{r3, r4, r5, pc}
 8009862:	bf00      	nop
 8009864:	200004d8 	.word	0x200004d8

08009868 <_isatty_r>:
 8009868:	b538      	push	{r3, r4, r5, lr}
 800986a:	4d06      	ldr	r5, [pc, #24]	@ (8009884 <_isatty_r+0x1c>)
 800986c:	2300      	movs	r3, #0
 800986e:	4604      	mov	r4, r0
 8009870:	4608      	mov	r0, r1
 8009872:	602b      	str	r3, [r5, #0]
 8009874:	f7f8 fef0 	bl	8002658 <_isatty>
 8009878:	1c43      	adds	r3, r0, #1
 800987a:	d102      	bne.n	8009882 <_isatty_r+0x1a>
 800987c:	682b      	ldr	r3, [r5, #0]
 800987e:	b103      	cbz	r3, 8009882 <_isatty_r+0x1a>
 8009880:	6023      	str	r3, [r4, #0]
 8009882:	bd38      	pop	{r3, r4, r5, pc}
 8009884:	200004d8 	.word	0x200004d8

08009888 <_sbrk_r>:
 8009888:	b538      	push	{r3, r4, r5, lr}
 800988a:	4d06      	ldr	r5, [pc, #24]	@ (80098a4 <_sbrk_r+0x1c>)
 800988c:	2300      	movs	r3, #0
 800988e:	4604      	mov	r4, r0
 8009890:	4608      	mov	r0, r1
 8009892:	602b      	str	r3, [r5, #0]
 8009894:	f7f8 fef8 	bl	8002688 <_sbrk>
 8009898:	1c43      	adds	r3, r0, #1
 800989a:	d102      	bne.n	80098a2 <_sbrk_r+0x1a>
 800989c:	682b      	ldr	r3, [r5, #0]
 800989e:	b103      	cbz	r3, 80098a2 <_sbrk_r+0x1a>
 80098a0:	6023      	str	r3, [r4, #0]
 80098a2:	bd38      	pop	{r3, r4, r5, pc}
 80098a4:	200004d8 	.word	0x200004d8

080098a8 <__assert_func>:
 80098a8:	b51f      	push	{r0, r1, r2, r3, r4, lr}
 80098aa:	4614      	mov	r4, r2
 80098ac:	461a      	mov	r2, r3
 80098ae:	4b09      	ldr	r3, [pc, #36]	@ (80098d4 <__assert_func+0x2c>)
 80098b0:	681b      	ldr	r3, [r3, #0]
 80098b2:	4605      	mov	r5, r0
 80098b4:	68d8      	ldr	r0, [r3, #12]
 80098b6:	b14c      	cbz	r4, 80098cc <__assert_func+0x24>
 80098b8:	4b07      	ldr	r3, [pc, #28]	@ (80098d8 <__assert_func+0x30>)
 80098ba:	9100      	str	r1, [sp, #0]
 80098bc:	e9cd 3401 	strd	r3, r4, [sp, #4]
 80098c0:	4906      	ldr	r1, [pc, #24]	@ (80098dc <__assert_func+0x34>)
 80098c2:	462b      	mov	r3, r5
 80098c4:	f000 f822 	bl	800990c <fiprintf>
 80098c8:	f000 f832 	bl	8009930 <abort>
 80098cc:	4b04      	ldr	r3, [pc, #16]	@ (80098e0 <__assert_func+0x38>)
 80098ce:	461c      	mov	r4, r3
 80098d0:	e7f3      	b.n	80098ba <__assert_func+0x12>
 80098d2:	bf00      	nop
 80098d4:	20000188 	.word	0x20000188
 80098d8:	08009c41 	.word	0x08009c41
 80098dc:	08009c4e 	.word	0x08009c4e
 80098e0:	08009c7c 	.word	0x08009c7c

080098e4 <_calloc_r>:
 80098e4:	b570      	push	{r4, r5, r6, lr}
 80098e6:	fba1 5402 	umull	r5, r4, r1, r2
 80098ea:	b934      	cbnz	r4, 80098fa <_calloc_r+0x16>
 80098ec:	4629      	mov	r1, r5
 80098ee:	f7ff f805 	bl	80088fc <_malloc_r>
 80098f2:	4606      	mov	r6, r0
 80098f4:	b928      	cbnz	r0, 8009902 <_calloc_r+0x1e>
 80098f6:	4630      	mov	r0, r6
 80098f8:	bd70      	pop	{r4, r5, r6, pc}
 80098fa:	220c      	movs	r2, #12
 80098fc:	6002      	str	r2, [r0, #0]
 80098fe:	2600      	movs	r6, #0
 8009900:	e7f9      	b.n	80098f6 <_calloc_r+0x12>
 8009902:	462a      	mov	r2, r5
 8009904:	4621      	mov	r1, r4
 8009906:	f7fd fd27 	bl	8007358 <memset>
 800990a:	e7f4      	b.n	80098f6 <_calloc_r+0x12>

0800990c <fiprintf>:
 800990c:	b40e      	push	{r1, r2, r3}
 800990e:	b503      	push	{r0, r1, lr}
 8009910:	4601      	mov	r1, r0
 8009912:	ab03      	add	r3, sp, #12
 8009914:	4805      	ldr	r0, [pc, #20]	@ (800992c <fiprintf+0x20>)
 8009916:	f853 2b04 	ldr.w	r2, [r3], #4
 800991a:	6800      	ldr	r0, [r0, #0]
 800991c:	9301      	str	r3, [sp, #4]
 800991e:	f7ff fd6b 	bl	80093f8 <_vfiprintf_r>
 8009922:	b002      	add	sp, #8
 8009924:	f85d eb04 	ldr.w	lr, [sp], #4
 8009928:	b003      	add	sp, #12
 800992a:	4770      	bx	lr
 800992c:	20000188 	.word	0x20000188

08009930 <abort>:
 8009930:	b508      	push	{r3, lr}
 8009932:	2006      	movs	r0, #6
 8009934:	f000 f82c 	bl	8009990 <raise>
 8009938:	2001      	movs	r0, #1
 800993a:	f7f8 fe49 	bl	80025d0 <_exit>

0800993e <_raise_r>:
 800993e:	291f      	cmp	r1, #31
 8009940:	b538      	push	{r3, r4, r5, lr}
 8009942:	4605      	mov	r5, r0
 8009944:	460c      	mov	r4, r1
 8009946:	d904      	bls.n	8009952 <_raise_r+0x14>
 8009948:	2316      	movs	r3, #22
 800994a:	6003      	str	r3, [r0, #0]
 800994c:	f04f 30ff 	mov.w	r0, #4294967295
 8009950:	bd38      	pop	{r3, r4, r5, pc}
 8009952:	6bc2      	ldr	r2, [r0, #60]	@ 0x3c
 8009954:	b112      	cbz	r2, 800995c <_raise_r+0x1e>
 8009956:	f852 3021 	ldr.w	r3, [r2, r1, lsl #2]
 800995a:	b94b      	cbnz	r3, 8009970 <_raise_r+0x32>
 800995c:	4628      	mov	r0, r5
 800995e:	f000 f831 	bl	80099c4 <_getpid_r>
 8009962:	4622      	mov	r2, r4
 8009964:	4601      	mov	r1, r0
 8009966:	4628      	mov	r0, r5
 8009968:	e8bd 4038 	ldmia.w	sp!, {r3, r4, r5, lr}
 800996c:	f000 b818 	b.w	80099a0 <_kill_r>
 8009970:	2b01      	cmp	r3, #1
 8009972:	d00a      	beq.n	800998a <_raise_r+0x4c>
 8009974:	1c59      	adds	r1, r3, #1
 8009976:	d103      	bne.n	8009980 <_raise_r+0x42>
 8009978:	2316      	movs	r3, #22
 800997a:	6003      	str	r3, [r0, #0]
 800997c:	2001      	movs	r0, #1
 800997e:	e7e7      	b.n	8009950 <_raise_r+0x12>
 8009980:	2100      	movs	r1, #0
 8009982:	f842 1024 	str.w	r1, [r2, r4, lsl #2]
 8009986:	4620      	mov	r0, r4
 8009988:	4798      	blx	r3
 800998a:	2000      	movs	r0, #0
 800998c:	e7e0      	b.n	8009950 <_raise_r+0x12>
	...

08009990 <raise>:
 8009990:	4b02      	ldr	r3, [pc, #8]	@ (800999c <raise+0xc>)
 8009992:	4601      	mov	r1, r0
 8009994:	6818      	ldr	r0, [r3, #0]
 8009996:	f7ff bfd2 	b.w	800993e <_raise_r>
 800999a:	bf00      	nop
 800999c:	20000188 	.word	0x20000188

080099a0 <_kill_r>:
 80099a0:	b538      	push	{r3, r4, r5, lr}
 80099a2:	4d07      	ldr	r5, [pc, #28]	@ (80099c0 <_kill_r+0x20>)
 80099a4:	2300      	movs	r3, #0
 80099a6:	4604      	mov	r4, r0
 80099a8:	4608      	mov	r0, r1
 80099aa:	4611      	mov	r1, r2
 80099ac:	602b      	str	r3, [r5, #0]
 80099ae:	f7f8 fdff 	bl	80025b0 <_kill>
 80099b2:	1c43      	adds	r3, r0, #1
 80099b4:	d102      	bne.n	80099bc <_kill_r+0x1c>
 80099b6:	682b      	ldr	r3, [r5, #0]
 80099b8:	b103      	cbz	r3, 80099bc <_kill_r+0x1c>
 80099ba:	6023      	str	r3, [r4, #0]
 80099bc:	bd38      	pop	{r3, r4, r5, pc}
 80099be:	bf00      	nop
 80099c0:	200004d8 	.word	0x200004d8

080099c4 <_getpid_r>:
 80099c4:	f7f8 bdec 	b.w	80025a0 <_getpid>

080099c8 <_init>:
 80099c8:	b5f8      	push	{r3, r4, r5, r6, r7, lr}
 80099ca:	bf00      	nop
 80099cc:	bcf8      	pop	{r3, r4, r5, r6, r7}
 80099ce:	bc08      	pop	{r3}
 80099d0:	469e      	mov	lr, r3
 80099d2:	4770      	bx	lr

080099d4 <_fini>:
 80099d4:	b5f8      	push	{r3, r4, r5, r6, r7, lr}
 80099d6:	bf00      	nop
 80099d8:	bcf8      	pop	{r3, r4, r5, r6, r7}
 80099da:	bc08      	pop	{r3}
 80099dc:	469e      	mov	lr, r3
 80099de:	4770      	bx	lr
