
testSTM.elf:     file format elf32-littlearm

Sections:
Idx Name          Size      VMA       LMA       File off  Algn
  0 .isr_vector   00000194  08000000  08000000  00001000  2**0
                  CONTENTS, ALLOC, LOAD, READONLY, DATA
  1 .text         000090c0  080001a0  080001a0  000011a0  2**4
                  CONTENTS, ALLOC, LOAD, READONLY, CODE
  2 .rodata       00000528  08009260  08009260  0000a260  2**3
                  CONTENTS, ALLOC, LOAD, READONLY, DATA
  3 .ARM.extab    00000000  08009788  08009788  0000b1d8  2**0
                  CONTENTS, READONLY
  4 .ARM          00000008  08009788  08009788  0000a788  2**2
                  CONTENTS, ALLOC, LOAD, READONLY, DATA
  5 .preinit_array 00000000  08009790  08009790  0000b1d8  2**0
                  CONTENTS, ALLOC, LOAD, DATA
  6 .init_array   00000004  08009790  08009790  0000a790  2**2
                  CONTENTS, ALLOC, LOAD, READONLY, DATA
  7 .fini_array   00000004  08009794  08009794  0000a794  2**2
                  CONTENTS, ALLOC, LOAD, READONLY, DATA
  8 .data         000001d8  20000000  08009798  0000b000  2**2
                  CONTENTS, ALLOC, LOAD, DATA
  9 .bss          00000310  200001d8  08009970  0000b1d8  2**2
                  ALLOC
 10 ._user_heap_stack 00000600  200004e8  08009970  0000b4e8  2**0
                  ALLOC
 11 .ARM.attributes 00000030  00000000  00000000  0000b1d8  2**0
                  CONTENTS, READONLY
 12 .debug_info   0000bb24  00000000  00000000  0000b208  2**0
                  CONTENTS, READONLY, DEBUGGING, OCTETS
 13 .debug_abbrev 00001c07  00000000  00000000  00016d2c  2**0
                  CONTENTS, READONLY, DEBUGGING, OCTETS
 14 .debug_aranges 00000a90  00000000  00000000  00018938  2**3
                  CONTENTS, READONLY, DEBUGGING, OCTETS
 15 .debug_rnglists 0000084f  00000000  00000000  000193c8  2**0
                  CONTENTS, READONLY, DEBUGGING, OCTETS
 16 .debug_macro  00015a8c  00000000  00000000  00019c17  2**0
                  CONTENTS, READONLY, DEBUGGING, OCTETS
 17 .debug_line   0000d6ff  00000000  00000000  0002f6a3  2**0
                  CONTENTS, READONLY, DEBUGGING, OCTETS
 18 .debug_str    00089fe7  00000000  00000000  0003cda2  2**0
                  CONTENTS, READONLY, DEBUGGING, OCTETS
 19 .comment      00000043  00000000  00000000  000c6d89  2**0
                  CONTENTS, READONLY
 20 .debug_frame  00004048  00000000  00000000  000c6dcc  2**2
                  CONTENTS, READONLY, DEBUGGING, OCTETS
 21 .debug_line_str 0000005d  00000000  00000000  000cae14  2**0
                  CONTENTS, READONLY, DEBUGGING, OCTETS

Disassembly of section .text:

080001a0 <__do_global_dtors_aux>:
 80001a0:	b510      	push	{r4, lr}
 80001a2:	4c05      	ldr	r4, [pc, #20]	@ (80001b8 <__do_global_dtors_aux+0x18>)
 80001a4:	7823      	ldrb	r3, [r4, #0]
 80001a6:	b933      	cbnz	r3, 80001b6 <__do_global_dtors_aux+0x16>
 80001a8:	4b04      	ldr	r3, [pc, #16]	@ (80001bc <__do_global_dtors_aux+0x1c>)
 80001aa:	b113      	cbz	r3, 80001b2 <__do_global_dtors_aux+0x12>
 80001ac:	4804      	ldr	r0, [pc, #16]	@ (80001c0 <__do_global_dtors_aux+0x20>)
 80001ae:	f3af 8000 	nop.w
 80001b2:	2301      	movs	r3, #1
 80001b4:	7023      	strb	r3, [r4, #0]
 80001b6:	bd10      	pop	{r4, pc}
 80001b8:	200001d8 	.word	0x200001d8
 80001bc:	00000000 	.word	0x00000000
 80001c0:	08009248 	.word	0x08009248

080001c4 <frame_dummy>:
 80001c4:	b508      	push	{r3, lr}
 80001c6:	4b03      	ldr	r3, [pc, #12]	@ (80001d4 <frame_dummy+0x10>)
 80001c8:	b11b      	cbz	r3, 80001d2 <frame_dummy+0xe>
 80001ca:	4903      	ldr	r1, [pc, #12]	@ (80001d8 <frame_dummy+0x14>)
 80001cc:	4803      	ldr	r0, [pc, #12]	@ (80001dc <frame_dummy+0x18>)
 80001ce:	f3af 8000 	nop.w
 80001d2:	bd08      	pop	{r3, pc}
 80001d4:	00000000 	.word	0x00000000
 80001d8:	200001dc 	.word	0x200001dc
 80001dc:	08009248 	.word	0x08009248

080001e0 <memchr>:
 80001e0:	f001 01ff 	and.w	r1, r1, #255	@ 0xff
 80001e4:	2a10      	cmp	r2, #16
 80001e6:	db2b      	blt.n	8000240 <memchr+0x60>
 80001e8:	f010 0f07 	tst.w	r0, #7
 80001ec:	d008      	beq.n	8000200 <memchr+0x20>
 80001ee:	f810 3b01 	ldrb.w	r3, [r0], #1
 80001f2:	3a01      	subs	r2, #1
 80001f4:	428b      	cmp	r3, r1
 80001f6:	d02d      	beq.n	8000254 <memchr+0x74>
 80001f8:	f010 0f07 	tst.w	r0, #7
 80001fc:	b342      	cbz	r2, 8000250 <memchr+0x70>
 80001fe:	d1f6      	bne.n	80001ee <memchr+0xe>
 8000200:	b4f0      	push	{r4, r5, r6, r7}
 8000202:	ea41 2101 	orr.w	r1, r1, r1, lsl #8
 8000206:	ea41 4101 	orr.w	r1, r1, r1, lsl #16
 800020a:	f022 0407 	bic.w	r4, r2, #7
 800020e:	f07f 0700 	mvns.w	r7, #0
 8000212:	2300      	movs	r3, #0
 8000214:	e8f0 5602 	ldrd	r5, r6, [r0], #8
 8000218:	3c08      	subs	r4, #8
 800021a:	ea85 0501 	eor.w	r5, r5, r1
 800021e:	ea86 0601 	eor.w	r6, r6, r1
 8000222:	fa85 f547 	uadd8	r5, r5, r7
 8000226:	faa3 f587 	sel	r5, r3, r7
 800022a:	fa86 f647 	uadd8	r6, r6, r7
 800022e:	faa5 f687 	sel	r6, r5, r7
 8000232:	b98e      	cbnz	r6, 8000258 <memchr+0x78>
 8000234:	d1ee      	bne.n	8000214 <memchr+0x34>
 8000236:	bcf0      	pop	{r4, r5, r6, r7}
 8000238:	f001 01ff 	and.w	r1, r1, #255	@ 0xff
 800023c:	f002 0207 	and.w	r2, r2, #7
 8000240:	b132      	cbz	r2, 8000250 <memchr+0x70>
 8000242:	f810 3b01 	ldrb.w	r3, [r0], #1
 8000246:	3a01      	subs	r2, #1
 8000248:	ea83 0301 	eor.w	r3, r3, r1
 800024c:	b113      	cbz	r3, 8000254 <memchr+0x74>
 800024e:	d1f8      	bne.n	8000242 <memchr+0x62>
 8000250:	2000      	movs	r0, #0
 8000252:	4770      	bx	lr
 8000254:	3801      	subs	r0, #1
 8000256:	4770      	bx	lr
 8000258:	2d00      	cmp	r5, #0
 800025a:	bf06      	itte	eq
 800025c:	4635      	moveq	r5, r6
 800025e:	3803      	subeq	r0, #3
 8000260:	3807      	subne	r0, #7
 8000262:	f015 0f01 	tst.w	r5, #1
 8000266:	d107      	bne.n	8000278 <memchr+0x98>
 8000268:	3001      	adds	r0, #1
 800026a:	f415 7f80 	tst.w	r5, #256	@ 0x100
 800026e:	bf02      	ittt	eq
 8000270:	3001      	addeq	r0, #1
 8000272:	f415 3fc0 	tsteq.w	r5, #98304	@ 0x18000
 8000276:	3001      	addeq	r0, #1
 8000278:	bcf0      	pop	{r4, r5, r6, r7}
 800027a:	3801      	subs	r0, #1
 800027c:	4770      	bx	lr
 800027e:	bf00      	nop

08000280 <strlen>:
 8000280:	4603      	mov	r3, r0
 8000282:	f813 2b01 	ldrb.w	r2, [r3], #1
 8000286:	2a00      	cmp	r2, #0
 8000288:	d1fb      	bne.n	8000282 <strlen+0x2>
 800028a:	1a18      	subs	r0, r3, r0
 800028c:	3801      	subs	r0, #1
 800028e:	4770      	bx	lr

08000290 <__aeabi_drsub>:
 8000290:	f081 4100 	eor.w	r1, r1, #2147483648	@ 0x80000000
 8000294:	e002      	b.n	800029c <__adddf3>
 8000296:	bf00      	nop

08000298 <__aeabi_dsub>:
 8000298:	f083 4300 	eor.w	r3, r3, #2147483648	@ 0x80000000

0800029c <__adddf3>:
 800029c:	b530      	push	{r4, r5, lr}
 800029e:	ea4f 0441 	mov.w	r4, r1, lsl #1
 80002a2:	ea4f 0543 	mov.w	r5, r3, lsl #1
 80002a6:	ea94 0f05 	teq	r4, r5
 80002aa:	bf08      	it	eq
 80002ac:	ea90 0f02 	teqeq	r0, r2
 80002b0:	bf1f      	itttt	ne
 80002b2:	ea54 0c00 	orrsne.w	ip, r4, r0
 80002b6:	ea55 0c02 	orrsne.w	ip, r5, r2
 80002ba:	ea7f 5c64 	mvnsne.w	ip, r4, asr #21
 80002be:	ea7f 5c65 	mvnsne.w	ip, r5, asr #21
 80002c2:	f000 80e2 	beq.w	800048a <__adddf3+0x1ee>
 80002c6:	ea4f 5454 	mov.w	r4, r4, lsr #21
 80002ca:	ebd4 5555 	rsbs	r5, r4, r5, lsr #21
 80002ce:	bfb8      	it	lt
 80002d0:	426d      	neglt	r5, r5
 80002d2:	dd0c      	ble.n	80002ee <__adddf3+0x52>
 80002d4:	442c      	add	r4, r5
 80002d6:	ea80 0202 	eor.w	r2, r0, r2
 80002da:	ea81 0303 	eor.w	r3, r1, r3
 80002de:	ea82 0000 	eor.w	r0, r2, r0
 80002e2:	ea83 0101 	eor.w	r1, r3, r1
 80002e6:	ea80 0202 	eor.w	r2, r0, r2
 80002ea:	ea81 0303 	eor.w	r3, r1, r3
 80002ee:	2d36      	cmp	r5, #54	@ 0x36
 80002f0:	bf88      	it	hi
 80002f2:	bd30      	pophi	{r4, r5, pc}
 80002f4:	f011 4f00 	tst.w	r1, #2147483648	@ 0x80000000
 80002f8:	ea4f 3101 	mov.w	r1, r1, lsl #12
 80002fc:	f44f 1c80 	mov.w	ip, #1048576	@ 0x100000
 8000300:	ea4c 3111 	orr.w	r1, ip, r1, lsr #12
 8000304:	d002      	beq.n	800030c <__adddf3+0x70>
 8000306:	4240      	negs	r0, r0
 8000308:	eb61 0141 	sbc.w	r1, r1, r1, lsl #1
 800030c:	f013 4f00 	tst.w	r3, #2147483648	@ 0x80000000
 8000310:	ea4f 3303 	mov.w	r3, r3, lsl #12
 8000314:	ea4c 3313 	orr.w	r3, ip, r3, lsr #12
 8000318:	d002      	beq.n	8000320 <__adddf3+0x84>
 800031a:	4252      	negs	r2, r2
 800031c:	eb63 0343 	sbc.w	r3, r3, r3, lsl #1
 8000320:	ea94 0f05 	teq	r4, r5
 8000324:	f000 80a7 	beq.w	8000476 <__adddf3+0x1da>
 8000328:	f1a4 0401 	sub.w	r4, r4, #1
 800032c:	f1d5 0e20 	rsbs	lr, r5, #32
 8000330:	db0d      	blt.n	800034e <__adddf3+0xb2>
 8000332:	fa02 fc0e 	lsl.w	ip, r2, lr
 8000336:	fa22 f205 	lsr.w	r2, r2, r5
 800033a:	1880      	adds	r0, r0, r2
 800033c:	f141 0100 	adc.w	r1, r1, #0
 8000340:	fa03 f20e 	lsl.w	r2, r3, lr
 8000344:	1880      	adds	r0, r0, r2
 8000346:	fa43 f305 	asr.w	r3, r3, r5
 800034a:	4159      	adcs	r1, r3
 800034c:	e00e      	b.n	800036c <__adddf3+0xd0>
 800034e:	f1a5 0520 	sub.w	r5, r5, #32
 8000352:	f10e 0e20 	add.w	lr, lr, #32
 8000356:	2a01      	cmp	r2, #1
 8000358:	fa03 fc0e 	lsl.w	ip, r3, lr
 800035c:	bf28      	it	cs
 800035e:	f04c 0c02 	orrcs.w	ip, ip, #2
 8000362:	fa43 f305 	asr.w	r3, r3, r5
 8000366:	18c0      	adds	r0, r0, r3
 8000368:	eb51 71e3 	adcs.w	r1, r1, r3, asr #31
 800036c:	f001 4500 	and.w	r5, r1, #2147483648	@ 0x80000000
 8000370:	d507      	bpl.n	8000382 <__adddf3+0xe6>
 8000372:	f04f 0e00 	mov.w	lr, #0
 8000376:	f1dc 0c00 	rsbs	ip, ip, #0
 800037a:	eb7e 0000 	sbcs.w	r0, lr, r0
 800037e:	eb6e 0101 	sbc.w	r1, lr, r1
 8000382:	f5b1 1f80 	cmp.w	r1, #1048576	@ 0x100000
 8000386:	d31b      	bcc.n	80003c0 <__adddf3+0x124>
 8000388:	f5b1 1f00 	cmp.w	r1, #2097152	@ 0x200000
 800038c:	d30c      	bcc.n	80003a8 <__adddf3+0x10c>
 800038e:	0849      	lsrs	r1, r1, #1
 8000390:	ea5f 0030 	movs.w	r0, r0, rrx
 8000394:	ea4f 0c3c 	mov.w	ip, ip, rrx
 8000398:	f104 0401 	add.w	r4, r4, #1
 800039c:	ea4f 5244 	mov.w	r2, r4, lsl #21
 80003a0:	f512 0f80 	cmn.w	r2, #4194304	@ 0x400000
 80003a4:	f080 809a 	bcs.w	80004dc <__adddf3+0x240>
 80003a8:	f1bc 4f00 	cmp.w	ip, #2147483648	@ 0x80000000
 80003ac:	bf08      	it	eq
 80003ae:	ea5f 0c50 	movseq.w	ip, r0, lsr #1
 80003b2:	f150 0000 	adcs.w	r0, r0, #0
 80003b6:	eb41 5104 	adc.w	r1, r1, r4, lsl #20
 80003ba:	ea41 0105 	orr.w	r1, r1, r5
 80003be:	bd30      	pop	{r4, r5, pc}
 80003c0:	ea5f 0c4c 	movs.w	ip, ip, lsl #1
 80003c4:	4140      	adcs	r0, r0
 80003c6:	eb41 0101 	adc.w	r1, r1, r1
 80003ca:	3c01      	subs	r4, #1
 80003cc:	bf28      	it	cs
 80003ce:	f5b1 1f80 	cmpcs.w	r1, #1048576	@ 0x100000
 80003d2:	d2e9      	bcs.n	80003a8 <__adddf3+0x10c>
 80003d4:	f091 0f00 	teq	r1, #0
 80003d8:	bf04      	itt	eq
 80003da:	4601      	moveq	r1, r0
 80003dc:	2000      	moveq	r0, #0
 80003de:	fab1 f381 	clz	r3, r1
 80003e2:	bf08      	it	eq
 80003e4:	3320      	addeq	r3, #32
 80003e6:	f1a3 030b 	sub.w	r3, r3, #11
 80003ea:	f1b3 0220 	subs.w	r2, r3, #32
 80003ee:	da0c      	bge.n	800040a <__adddf3+0x16e>
 80003f0:	320c      	adds	r2, #12
 80003f2:	dd08      	ble.n	8000406 <__adddf3+0x16a>
 80003f4:	f102 0c14 	add.w	ip, r2, #20
 80003f8:	f1c2 020c 	rsb	r2, r2, #12
 80003fc:	fa01 f00c 	lsl.w	r0, r1, ip
 8000400:	fa21 f102 	lsr.w	r1, r1, r2
 8000404:	e00c      	b.n	8000420 <__adddf3+0x184>
 8000406:	f102 0214 	add.w	r2, r2, #20
 800040a:	bfd8      	it	le
 800040c:	f1c2 0c20 	rsble	ip, r2, #32
 8000410:	fa01 f102 	lsl.w	r1, r1, r2
 8000414:	fa20 fc0c 	lsr.w	ip, r0, ip
 8000418:	bfdc      	itt	le
 800041a:	ea41 010c 	orrle.w	r1, r1, ip
 800041e:	4090      	lslle	r0, r2
 8000420:	1ae4      	subs	r4, r4, r3
 8000422:	bfa2      	ittt	ge
 8000424:	eb01 5104 	addge.w	r1, r1, r4, lsl #20
 8000428:	4329      	orrge	r1, r5
 800042a:	bd30      	popge	{r4, r5, pc}
 800042c:	ea6f 0404 	mvn.w	r4, r4
 8000430:	3c1f      	subs	r4, #31
 8000432:	da1c      	bge.n	800046e <__adddf3+0x1d2>
 8000434:	340c      	adds	r4, #12
 8000436:	dc0e      	bgt.n	8000456 <__adddf3+0x1ba>
 8000438:	f104 0414 	add.w	r4, r4, #20
 800043c:	f1c4 0220 	rsb	r2, r4, #32
 8000440:	fa20 f004 	lsr.w	r0, r0, r4
 8000444:	fa01 f302 	lsl.w	r3, r1, r2
 8000448:	ea40 0003 	orr.w	r0, r0, r3
 800044c:	fa21 f304 	lsr.w	r3, r1, r4
 8000450:	ea45 0103 	orr.w	r1, r5, r3
 8000454:	bd30      	pop	{r4, r5, pc}
 8000456:	f1c4 040c 	rsb	r4, r4, #12
 800045a:	f1c4 0220 	rsb	r2, r4, #32
 800045e:	fa20 f002 	lsr.w	r0, r0, r2
 8000462:	fa01 f304 	lsl.w	r3, r1, r4
 8000466:	ea40 0003 	orr.w	r0, r0, r3
 800046a:	4629      	mov	r1, r5
 800046c:	bd30      	pop	{r4, r5, pc}
 800046e:	fa21 f004 	lsr.w	r0, r1, r4
 8000472:	4629      	mov	r1, r5
 8000474:	bd30      	pop	{r4, r5, pc}
 8000476:	f094 0f00 	teq	r4, #0
 800047a:	f483 1380 	eor.w	r3, r3, #1048576	@ 0x100000
 800047e:	bf06      	itte	eq
 8000480:	f481 1180 	eoreq.w	r1, r1, #1048576	@ 0x100000
 8000484:	3401      	addeq	r4, #1
 8000486:	3d01      	subne	r5, #1
 8000488:	e74e      	b.n	8000328 <__adddf3+0x8c>
 800048a:	ea7f 5c64 	mvns.w	ip, r4, asr #21
 800048e:	bf18      	it	ne
 8000490:	ea7f 5c65 	mvnsne.w	ip, r5, asr #21
 8000494:	d029      	beq.n	80004ea <__adddf3+0x24e>
 8000496:	ea94 0f05 	teq	r4, r5
 800049a:	bf08      	it	eq
 800049c:	ea90 0f02 	teqeq	r0, r2
 80004a0:	d005      	beq.n	80004ae <__adddf3+0x212>
 80004a2:	ea54 0c00 	orrs.w	ip, r4, r0
 80004a6:	bf04      	itt	eq
 80004a8:	4619      	moveq	r1, r3
 80004aa:	4610      	moveq	r0, r2
 80004ac:	bd30      	pop	{r4, r5, pc}
 80004ae:	ea91 0f03 	teq	r1, r3
 80004b2:	bf1e      	ittt	ne
 80004b4:	2100      	movne	r1, #0
 80004b6:	2000      	movne	r0, #0
 80004b8:	bd30      	popne	{r4, r5, pc}
 80004ba:	ea5f 5c54 	movs.w	ip, r4, lsr #21
 80004be:	d105      	bne.n	80004cc <__adddf3+0x230>
 80004c0:	0040      	lsls	r0, r0, #1
 80004c2:	4149      	adcs	r1, r1
 80004c4:	bf28      	it	cs
 80004c6:	f041 4100 	orrcs.w	r1, r1, #2147483648	@ 0x80000000
 80004ca:	bd30      	pop	{r4, r5, pc}
 80004cc:	f514 0480 	adds.w	r4, r4, #4194304	@ 0x400000
 80004d0:	bf3c      	itt	cc
 80004d2:	f501 1180 	addcc.w	r1, r1, #1048576	@ 0x100000
 80004d6:	bd30      	popcc	{r4, r5, pc}
 80004d8:	f001 4500 	and.w	r5, r1, #2147483648	@ 0x80000000
 80004dc:	f045 41fe 	orr.w	r1, r5, #2130706432	@ 0x7f000000
 80004e0:	f441 0170 	orr.w	r1, r1, #15728640	@ 0xf00000
 80004e4:	f04f 0000 	mov.w	r0, #0
 80004e8:	bd30      	pop	{r4, r5, pc}
 80004ea:	ea7f 5c64 	mvns.w	ip, r4, asr #21
 80004ee:	bf1a      	itte	ne
 80004f0:	4619      	movne	r1, r3
 80004f2:	4610      	movne	r0, r2
 80004f4:	ea7f 5c65 	mvnseq.w	ip, r5, asr #21
 80004f8:	bf1c      	itt	ne
 80004fa:	460b      	movne	r3, r1
 80004fc:	4602      	movne	r2, r0
 80004fe:	ea50 3401 	orrs.w	r4, r0, r1, lsl #12
 8000502:	bf06      	itte	eq
 8000504:	ea52 3503 	orrseq.w	r5, r2, r3, lsl #12
 8000508:	ea91 0f03 	teqeq	r1, r3
 800050c:	f441 2100 	orrne.w	r1, r1, #524288	@ 0x80000
 8000510:	bd30      	pop	{r4, r5, pc}
 8000512:	bf00      	nop

08000514 <__aeabi_ui2d>:
 8000514:	f090 0f00 	teq	r0, #0
 8000518:	bf04      	itt	eq
 800051a:	2100      	moveq	r1, #0
 800051c:	4770      	bxeq	lr
 800051e:	b530      	push	{r4, r5, lr}
 8000520:	f44f 6480 	mov.w	r4, #1024	@ 0x400
 8000524:	f104 0432 	add.w	r4, r4, #50	@ 0x32
 8000528:	f04f 0500 	mov.w	r5, #0
 800052c:	f04f 0100 	mov.w	r1, #0
 8000530:	e750      	b.n	80003d4 <__adddf3+0x138>
 8000532:	bf00      	nop

08000534 <__aeabi_i2d>:
 8000534:	f090 0f00 	teq	r0, #0
 8000538:	bf04      	itt	eq
 800053a:	2100      	moveq	r1, #0
 800053c:	4770      	bxeq	lr
 800053e:	b530      	push	{r4, r5, lr}
 8000540:	f44f 6480 	mov.w	r4, #1024	@ 0x400
 8000544:	f104 0432 	add.w	r4, r4, #50	@ 0x32
 8000548:	f010 4500 	ands.w	r5, r0, #2147483648	@ 0x80000000
 800054c:	bf48      	it	mi
 800054e:	4240      	negmi	r0, r0
 8000550:	f04f 0100 	mov.w	r1, #0
 8000554:	e73e      	b.n	80003d4 <__adddf3+0x138>
 8000556:	bf00      	nop

08000558 <__aeabi_f2d>:
 8000558:	0042      	lsls	r2, r0, #1
 800055a:	ea4f 01e2 	mov.w	r1, r2, asr #3
 800055e:	ea4f 0131 	mov.w	r1, r1, rrx
 8000562:	ea4f 7002 	mov.w	r0, r2, lsl #28
 8000566:	bf1f      	itttt	ne
 8000568:	f012 437f 	andsne.w	r3, r2, #4278190080	@ 0xff000000
 800056c:	f093 4f7f 	teqne	r3, #4278190080	@ 0xff000000
 8000570:	f081 5160 	eorne.w	r1, r1, #939524096	@ 0x38000000
 8000574:	4770      	bxne	lr
 8000576:	f032 427f 	bics.w	r2, r2, #4278190080	@ 0xff000000
 800057a:	bf08      	it	eq
 800057c:	4770      	bxeq	lr
 800057e:	f093 4f7f 	teq	r3, #4278190080	@ 0xff000000
 8000582:	bf04      	itt	eq
 8000584:	f441 2100 	orreq.w	r1, r1, #524288	@ 0x80000
 8000588:	4770      	bxeq	lr
 800058a:	b530      	push	{r4, r5, lr}
 800058c:	f44f 7460 	mov.w	r4, #896	@ 0x380
 8000590:	f001 4500 	and.w	r5, r1, #2147483648	@ 0x80000000
 8000594:	f021 4100 	bic.w	r1, r1, #2147483648	@ 0x80000000
 8000598:	e71c      	b.n	80003d4 <__adddf3+0x138>
 800059a:	bf00      	nop

0800059c <__aeabi_ul2d>:
 800059c:	ea50 0201 	orrs.w	r2, r0, r1
 80005a0:	bf08      	it	eq
 80005a2:	4770      	bxeq	lr
 80005a4:	b530      	push	{r4, r5, lr}
 80005a6:	f04f 0500 	mov.w	r5, #0
 80005aa:	e00a      	b.n	80005c2 <__aeabi_l2d+0x16>

080005ac <__aeabi_l2d>:
 80005ac:	ea50 0201 	orrs.w	r2, r0, r1
 80005b0:	bf08      	it	eq
 80005b2:	4770      	bxeq	lr
 80005b4:	b530      	push	{r4, r5, lr}
 80005b6:	f011 4500 	ands.w	r5, r1, #2147483648	@ 0x80000000
 80005ba:	d502      	bpl.n	80005c2 <__aeabi_l2d+0x16>
 80005bc:	4240      	negs	r0, r0
 80005be:	eb61 0141 	sbc.w	r1, r1, r1, lsl #1
 80005c2:	f44f 6480 	mov.w	r4, #1024	@ 0x400
 80005c6:	f104 0432 	add.w	r4, r4, #50	@ 0x32
 80005ca:	ea5f 5c91 	movs.w	ip, r1, lsr #22
 80005ce:	f43f aed8 	beq.w	8000382 <__adddf3+0xe6>
 80005d2:	f04f 0203 	mov.w	r2, #3
 80005d6:	ea5f 0cdc 	movs.w	ip, ip, lsr #3
 80005da:	bf18      	it	ne
 80005dc:	3203      	addne	r2, #3
 80005de:	ea5f 0cdc 	movs.w	ip, ip, lsr #3
 80005e2:	bf18      	it	ne
 80005e4:	3203      	addne	r2, #3
 80005e6:	eb02 02dc 	add.w	r2, r2, ip, lsr #3
 80005ea:	f1c2 0320 	rsb	r3, r2, #32
 80005ee:	fa00 fc03 	lsl.w	ip, r0, r3
 80005f2:	fa20 f002 	lsr.w	r0, r0, r2
 80005f6:	fa01 fe03 	lsl.w	lr, r1, r3
 80005fa:	ea40 000e 	orr.w	r0, r0, lr
 80005fe:	fa21 f102 	lsr.w	r1, r1, r2
 8000602:	4414      	add	r4, r2
 8000604:	e6bd      	b.n	8000382 <__adddf3+0xe6>
 8000606:	bf00      	nop

08000608 <__aeabi_dmul>:
 8000608:	b570      	push	{r4, r5, r6, lr}
 800060a:	f04f 0cff 	mov.w	ip, #255	@ 0xff
 800060e:	f44c 6ce0 	orr.w	ip, ip, #1792	@ 0x700
 8000612:	ea1c 5411 	ands.w	r4, ip, r1, lsr #20
 8000616:	bf1d      	ittte	ne
 8000618:	ea1c 5513 	andsne.w	r5, ip, r3, lsr #20
 800061c:	ea94 0f0c 	teqne	r4, ip
 8000620:	ea95 0f0c 	teqne	r5, ip
 8000624:	f000 f8de 	bleq	80007e4 <__aeabi_dmul+0x1dc>
 8000628:	442c      	add	r4, r5
 800062a:	ea81 0603 	eor.w	r6, r1, r3
 800062e:	ea21 514c 	bic.w	r1, r1, ip, lsl #21
 8000632:	ea23 534c 	bic.w	r3, r3, ip, lsl #21
 8000636:	ea50 3501 	orrs.w	r5, r0, r1, lsl #12
 800063a:	bf18      	it	ne
 800063c:	ea52 3503 	orrsne.w	r5, r2, r3, lsl #12
 8000640:	f441 1180 	orr.w	r1, r1, #1048576	@ 0x100000
 8000644:	f443 1380 	orr.w	r3, r3, #1048576	@ 0x100000
 8000648:	d038      	beq.n	80006bc <__aeabi_dmul+0xb4>
 800064a:	fba0 ce02 	umull	ip, lr, r0, r2
 800064e:	f04f 0500 	mov.w	r5, #0
 8000652:	fbe1 e502 	umlal	lr, r5, r1, r2
 8000656:	f006 4200 	and.w	r2, r6, #2147483648	@ 0x80000000
 800065a:	fbe0 e503 	umlal	lr, r5, r0, r3
 800065e:	f04f 0600 	mov.w	r6, #0
 8000662:	fbe1 5603 	umlal	r5, r6, r1, r3
 8000666:	f09c 0f00 	teq	ip, #0
 800066a:	bf18      	it	ne
 800066c:	f04e 0e01 	orrne.w	lr, lr, #1
 8000670:	f1a4 04ff 	sub.w	r4, r4, #255	@ 0xff
 8000674:	f5b6 7f00 	cmp.w	r6, #512	@ 0x200
 8000678:	f564 7440 	sbc.w	r4, r4, #768	@ 0x300
 800067c:	d204      	bcs.n	8000688 <__aeabi_dmul+0x80>
 800067e:	ea5f 0e4e 	movs.w	lr, lr, lsl #1
 8000682:	416d      	adcs	r5, r5
 8000684:	eb46 0606 	adc.w	r6, r6, r6
 8000688:	ea42 21c6 	orr.w	r1, r2, r6, lsl #11
 800068c:	ea41 5155 	orr.w	r1, r1, r5, lsr #21
 8000690:	ea4f 20c5 	mov.w	r0, r5, lsl #11
 8000694:	ea40 505e 	orr.w	r0, r0, lr, lsr #21
 8000698:	ea4f 2ece 	mov.w	lr, lr, lsl #11
 800069c:	f1b4 0cfd 	subs.w	ip, r4, #253	@ 0xfd
 80006a0:	bf88      	it	hi
 80006a2:	f5bc 6fe0 	cmphi.w	ip, #1792	@ 0x700
 80006a6:	d81e      	bhi.n	80006e6 <__aeabi_dmul+0xde>
 80006a8:	f1be 4f00 	cmp.w	lr, #2147483648	@ 0x80000000
 80006ac:	bf08      	it	eq
 80006ae:	ea5f 0e50 	movseq.w	lr, r0, lsr #1
 80006b2:	f150 0000 	adcs.w	r0, r0, #0
 80006b6:	eb41 5104 	adc.w	r1, r1, r4, lsl #20
 80006ba:	bd70      	pop	{r4, r5, r6, pc}
 80006bc:	f006 4600 	and.w	r6, r6, #2147483648	@ 0x80000000
 80006c0:	ea46 0101 	orr.w	r1, r6, r1
 80006c4:	ea40 0002 	orr.w	r0, r0, r2
 80006c8:	ea81 0103 	eor.w	r1, r1, r3
 80006cc:	ebb4 045c 	subs.w	r4, r4, ip, lsr #1
 80006d0:	bfc2      	ittt	gt
 80006d2:	ebd4 050c 	rsbsgt	r5, r4, ip
 80006d6:	ea41 5104 	orrgt.w	r1, r1, r4, lsl #20
 80006da:	bd70      	popgt	{r4, r5, r6, pc}
 80006dc:	f441 1180 	orr.w	r1, r1, #1048576	@ 0x100000
 80006e0:	f04f 0e00 	mov.w	lr, #0
 80006e4:	3c01      	subs	r4, #1
 80006e6:	f300 80ab 	bgt.w	8000840 <__aeabi_dmul+0x238>
 80006ea:	f114 0f36 	cmn.w	r4, #54	@ 0x36
 80006ee:	bfde      	ittt	le
 80006f0:	2000      	movle	r0, #0
 80006f2:	f001 4100 	andle.w	r1, r1, #2147483648	@ 0x80000000
 80006f6:	bd70      	pople	{r4, r5, r6, pc}
 80006f8:	f1c4 0400 	rsb	r4, r4, #0
 80006fc:	3c20      	subs	r4, #32
 80006fe:	da35      	bge.n	800076c <__aeabi_dmul+0x164>
 8000700:	340c      	adds	r4, #12
 8000702:	dc1b      	bgt.n	800073c <__aeabi_dmul+0x134>
 8000704:	f104 0414 	add.w	r4, r4, #20
 8000708:	f1c4 0520 	rsb	r5, r4, #32
 800070c:	fa00 f305 	lsl.w	r3, r0, r5
 8000710:	fa20 f004 	lsr.w	r0, r0, r4
 8000714:	fa01 f205 	lsl.w	r2, r1, r5
 8000718:	ea40 0002 	orr.w	r0, r0, r2
 800071c:	f001 4200 	and.w	r2, r1, #2147483648	@ 0x80000000
 8000720:	f021 4100 	bic.w	r1, r1, #2147483648	@ 0x80000000
 8000724:	eb10 70d3 	adds.w	r0, r0, r3, lsr #31
 8000728:	fa21 f604 	lsr.w	r6, r1, r4
 800072c:	eb42 0106 	adc.w	r1, r2, r6
 8000730:	ea5e 0e43 	orrs.w	lr, lr, r3, lsl #1
 8000734:	bf08      	it	eq
 8000736:	ea20 70d3 	biceq.w	r0, r0, r3, lsr #31
 800073a:	bd70      	pop	{r4, r5, r6, pc}
 800073c:	f1c4 040c 	rsb	r4, r4, #12
 8000740:	f1c4 0520 	rsb	r5, r4, #32
 8000744:	fa00 f304 	lsl.w	r3, r0, r4
 8000748:	fa20 f005 	lsr.w	r0, r0, r5
 800074c:	fa01 f204 	lsl.w	r2, r1, r4
 8000750:	ea40 0002 	orr.w	r0, r0, r2
 8000754:	f001 4100 	and.w	r1, r1, #2147483648	@ 0x80000000
 8000758:	eb10 70d3 	adds.w	r0, r0, r3, lsr #31
 800075c:	f141 0100 	adc.w	r1, r1, #0
 8000760:	ea5e 0e43 	orrs.w	lr, lr, r3, lsl #1
 8000764:	bf08      	it	eq
 8000766:	ea20 70d3 	biceq.w	r0, r0, r3, lsr #31
 800076a:	bd70      	pop	{r4, r5, r6, pc}
 800076c:	f1c4 0520 	rsb	r5, r4, #32
 8000770:	fa00 f205 	lsl.w	r2, r0, r5
 8000774:	ea4e 0e02 	orr.w	lr, lr, r2
 8000778:	fa20 f304 	lsr.w	r3, r0, r4
 800077c:	fa01 f205 	lsl.w	r2, r1, r5
 8000780:	ea43 0302 	orr.w	r3, r3, r2
 8000784:	fa21 f004 	lsr.w	r0, r1, r4
 8000788:	f001 4100 	and.w	r1, r1, #2147483648	@ 0x80000000
 800078c:	fa21 f204 	lsr.w	r2, r1, r4
 8000790:	ea20 0002 	bic.w	r0, r0, r2
 8000794:	eb00 70d3 	add.w	r0, r0, r3, lsr #31
 8000798:	ea5e 0e43 	orrs.w	lr, lr, r3, lsl #1
 800079c:	bf08      	it	eq
 800079e:	ea20 70d3 	biceq.w	r0, r0, r3, lsr #31
 80007a2:	bd70      	pop	{r4, r5, r6, pc}
 80007a4:	f094 0f00 	teq	r4, #0
 80007a8:	d10f      	bne.n	80007ca <__aeabi_dmul+0x1c2>
 80007aa:	f001 4600 	and.w	r6, r1, #2147483648	@ 0x80000000
 80007ae:	0040      	lsls	r0, r0, #1
 80007b0:	eb41 0101 	adc.w	r1, r1, r1
 80007b4:	f411 1f80 	tst.w	r1, #1048576	@ 0x100000
 80007b8:	bf08      	it	eq
 80007ba:	3c01      	subeq	r4, #1
 80007bc:	d0f7      	beq.n	80007ae <__aeabi_dmul+0x1a6>
 80007be:	ea41 0106 	orr.w	r1, r1, r6
 80007c2:	f095 0f00 	teq	r5, #0
 80007c6:	bf18      	it	ne
 80007c8:	4770      	bxne	lr
 80007ca:	f003 4600 	and.w	r6, r3, #2147483648	@ 0x80000000
 80007ce:	0052      	lsls	r2, r2, #1
 80007d0:	eb43 0303 	adc.w	r3, r3, r3
 80007d4:	f413 1f80 	tst.w	r3, #1048576	@ 0x100000
 80007d8:	bf08      	it	eq
 80007da:	3d01      	subeq	r5, #1
 80007dc:	d0f7      	beq.n	80007ce <__aeabi_dmul+0x1c6>
 80007de:	ea43 0306 	orr.w	r3, r3, r6
 80007e2:	4770      	bx	lr
 80007e4:	ea94 0f0c 	teq	r4, ip
 80007e8:	ea0c 5513 	and.w	r5, ip, r3, lsr #20
 80007ec:	bf18      	it	ne
 80007ee:	ea95 0f0c 	teqne	r5, ip
 80007f2:	d00c      	beq.n	800080e <__aeabi_dmul+0x206>
 80007f4:	ea50 0641 	orrs.w	r6, r0, r1, lsl #1
 80007f8:	bf18      	it	ne
 80007fa:	ea52 0643 	orrsne.w	r6, r2, r3, lsl #1
 80007fe:	d1d1      	bne.n	80007a4 <__aeabi_dmul+0x19c>
 8000800:	ea81 0103 	eor.w	r1, r1, r3
 8000804:	f001 4100 	and.w	r1, r1, #2147483648	@ 0x80000000
 8000808:	f04f 0000 	mov.w	r0, #0
 800080c:	bd70      	pop	{r4, r5, r6, pc}
 800080e:	ea50 0641 	orrs.w	r6, r0, r1, lsl #1
 8000812:	bf06      	itte	eq
 8000814:	4610      	moveq	r0, r2
 8000816:	4619      	moveq	r1, r3
 8000818:	ea52 0643 	orrsne.w	r6, r2, r3, lsl #1
 800081c:	d019      	beq.n	8000852 <__aeabi_dmul+0x24a>
 800081e:	ea94 0f0c 	teq	r4, ip
 8000822:	d102      	bne.n	800082a <__aeabi_dmul+0x222>
 8000824:	ea50 3601 	orrs.w	r6, r0, r1, lsl #12
 8000828:	d113      	bne.n	8000852 <__aeabi_dmul+0x24a>
 800082a:	ea95 0f0c 	teq	r5, ip
 800082e:	d105      	bne.n	800083c <__aeabi_dmul+0x234>
 8000830:	ea52 3603 	orrs.w	r6, r2, r3, lsl #12
 8000834:	bf1c      	itt	ne
 8000836:	4610      	movne	r0, r2
 8000838:	4619      	movne	r1, r3
 800083a:	d10a      	bne.n	8000852 <__aeabi_dmul+0x24a>
 800083c:	ea81 0103 	eor.w	r1, r1, r3
 8000840:	f001 4100 	and.w	r1, r1, #2147483648	@ 0x80000000
 8000844:	f041 41fe 	orr.w	r1, r1, #2130706432	@ 0x7f000000
 8000848:	f441 0170 	orr.w	r1, r1, #15728640	@ 0xf00000
 800084c:	f04f 0000 	mov.w	r0, #0
 8000850:	bd70      	pop	{r4, r5, r6, pc}
 8000852:	f041 41fe 	orr.w	r1, r1, #2130706432	@ 0x7f000000
 8000856:	f441 0178 	orr.w	r1, r1, #16252928	@ 0xf80000
 800085a:	bd70      	pop	{r4, r5, r6, pc}

0800085c <__aeabi_ddiv>:
 800085c:	b570      	push	{r4, r5, r6, lr}
 800085e:	f04f 0cff 	mov.w	ip, #255	@ 0xff
 8000862:	f44c 6ce0 	orr.w	ip, ip, #1792	@ 0x700
 8000866:	ea1c 5411 	ands.w	r4, ip, r1, lsr #20
 800086a:	bf1d      	ittte	ne
 800086c:	ea1c 5513 	andsne.w	r5, ip, r3, lsr #20
 8000870:	ea94 0f0c 	teqne	r4, ip
 8000874:	ea95 0f0c 	teqne	r5, ip
 8000878:	f000 f8a7 	bleq	80009ca <__aeabi_ddiv+0x16e>
 800087c:	eba4 0405 	sub.w	r4, r4, r5
 8000880:	ea81 0e03 	eor.w	lr, r1, r3
 8000884:	ea52 3503 	orrs.w	r5, r2, r3, lsl #12
 8000888:	ea4f 3101 	mov.w	r1, r1, lsl #12
 800088c:	f000 8088 	beq.w	80009a0 <__aeabi_ddiv+0x144>
 8000890:	ea4f 3303 	mov.w	r3, r3, lsl #12
 8000894:	f04f 5580 	mov.w	r5, #268435456	@ 0x10000000
 8000898:	ea45 1313 	orr.w	r3, r5, r3, lsr #4
 800089c:	ea43 6312 	orr.w	r3, r3, r2, lsr #24
 80008a0:	ea4f 2202 	mov.w	r2, r2, lsl #8
 80008a4:	ea45 1511 	orr.w	r5, r5, r1, lsr #4
 80008a8:	ea45 6510 	orr.w	r5, r5, r0, lsr #24
 80008ac:	ea4f 2600 	mov.w	r6, r0, lsl #8
 80008b0:	f00e 4100 	and.w	r1, lr, #2147483648	@ 0x80000000
 80008b4:	429d      	cmp	r5, r3
 80008b6:	bf08      	it	eq
 80008b8:	4296      	cmpeq	r6, r2
 80008ba:	f144 04fd 	adc.w	r4, r4, #253	@ 0xfd
 80008be:	f504 7440 	add.w	r4, r4, #768	@ 0x300
 80008c2:	d202      	bcs.n	80008ca <__aeabi_ddiv+0x6e>
 80008c4:	085b      	lsrs	r3, r3, #1
 80008c6:	ea4f 0232 	mov.w	r2, r2, rrx
 80008ca:	1ab6      	subs	r6, r6, r2
 80008cc:	eb65 0503 	sbc.w	r5, r5, r3
 80008d0:	085b      	lsrs	r3, r3, #1
 80008d2:	ea4f 0232 	mov.w	r2, r2, rrx
 80008d6:	f44f 1080 	mov.w	r0, #1048576	@ 0x100000
 80008da:	f44f 2c00 	mov.w	ip, #524288	@ 0x80000
 80008de:	ebb6 0e02 	subs.w	lr, r6, r2
 80008e2:	eb75 0e03 	sbcs.w	lr, r5, r3
 80008e6:	bf22      	ittt	cs
 80008e8:	1ab6      	subcs	r6, r6, r2
 80008ea:	4675      	movcs	r5, lr
 80008ec:	ea40 000c 	orrcs.w	r0, r0, ip
 80008f0:	085b      	lsrs	r3, r3, #1
 80008f2:	ea4f 0232 	mov.w	r2, r2, rrx
 80008f6:	ebb6 0e02 	subs.w	lr, r6, r2
 80008fa:	eb75 0e03 	sbcs.w	lr, r5, r3
 80008fe:	bf22      	ittt	cs
 8000900:	1ab6      	subcs	r6, r6, r2
 8000902:	4675      	movcs	r5, lr
 8000904:	ea40 005c 	orrcs.w	r0, r0, ip, lsr #1
 8000908:	085b      	lsrs	r3, r3, #1
 800090a:	ea4f 0232 	mov.w	r2, r2, rrx
 800090e:	ebb6 0e02 	subs.w	lr, r6, r2
 8000912:	eb75 0e03 	sbcs.w	lr, r5, r3
 8000916:	bf22      	ittt	cs
 8000918:	1ab6      	subcs	r6, r6, r2
 800091a:	4675      	movcs	r5, lr
 800091c:	ea40 009c 	orrcs.w	r0, r0, ip, lsr #2
 8000920:	085b      	lsrs	r3, r3, #1
 8000922:	ea4f 0232 	mov.w	r2, r2, rrx
 8000926:	ebb6 0e02 	subs.w	lr, r6, r2
 800092a:	eb75 0e03 	sbcs.w	lr, r5, r3
 800092e:	bf22      	ittt	cs
 8000930:	1ab6      	subcs	r6, r6, r2
 8000932:	4675      	movcs	r5, lr
 8000934:	ea40 00dc 	orrcs.w	r0, r0, ip, lsr #3
 8000938:	ea55 0e06 	orrs.w	lr, r5, r6
 800093c:	d018      	beq.n	8000970 <__aeabi_ddiv+0x114>
 800093e:	ea4f 1505 	mov.w	r5, r5, lsl #4
 8000942:	ea45 7516 	orr.w	r5, r5, r6, lsr #28
 8000946:	ea4f 1606 	mov.w	r6, r6, lsl #4
 800094a:	ea4f 03c3 	mov.w	r3, r3, lsl #3
 800094e:	ea43 7352 	orr.w	r3, r3, r2, lsr #29
 8000952:	ea4f 02c2 	mov.w	r2, r2, lsl #3
 8000956:	ea5f 1c1c 	movs.w	ip, ip, lsr #4
 800095a:	d1c0      	bne.n	80008de <__aeabi_ddiv+0x82>
 800095c:	f411 1f80 	tst.w	r1, #1048576	@ 0x100000
 8000960:	d10b      	bne.n	800097a <__aeabi_ddiv+0x11e>
 8000962:	ea41 0100 	orr.w	r1, r1, r0
 8000966:	f04f 0000 	mov.w	r0, #0
 800096a:	f04f 4c00 	mov.w	ip, #2147483648	@ 0x80000000
 800096e:	e7b6      	b.n	80008de <__aeabi_ddiv+0x82>
 8000970:	f411 1f80 	tst.w	r1, #1048576	@ 0x100000
 8000974:	bf04      	itt	eq
 8000976:	4301      	orreq	r1, r0
 8000978:	2000      	moveq	r0, #0
 800097a:	f1b4 0cfd 	subs.w	ip, r4, #253	@ 0xfd
 800097e:	bf88      	it	hi
 8000980:	f5bc 6fe0 	cmphi.w	ip, #1792	@ 0x700
 8000984:	f63f aeaf 	bhi.w	80006e6 <__aeabi_dmul+0xde>
 8000988:	ebb5 0c03 	subs.w	ip, r5, r3
 800098c:	bf04      	itt	eq
 800098e:	ebb6 0c02 	subseq.w	ip, r6, r2
 8000992:	ea5f 0c50 	movseq.w	ip, r0, lsr #1
 8000996:	f150 0000 	adcs.w	r0, r0, #0
 800099a:	eb41 5104 	adc.w	r1, r1, r4, lsl #20
 800099e:	bd70      	pop	{r4, r5, r6, pc}
 80009a0:	f00e 4e00 	and.w	lr, lr, #2147483648	@ 0x80000000
 80009a4:	ea4e 3111 	orr.w	r1, lr, r1, lsr #12
 80009a8:	eb14 045c 	adds.w	r4, r4, ip, lsr #1
 80009ac:	bfc2      	ittt	gt
 80009ae:	ebd4 050c 	rsbsgt	r5, r4, ip
 80009b2:	ea41 5104 	orrgt.w	r1, r1, r4, lsl #20
 80009b6:	bd70      	popgt	{r4, r5, r6, pc}
 80009b8:	f441 1180 	orr.w	r1, r1, #1048576	@ 0x100000
 80009bc:	f04f 0e00 	mov.w	lr, #0
 80009c0:	3c01      	subs	r4, #1
 80009c2:	e690      	b.n	80006e6 <__aeabi_dmul+0xde>
 80009c4:	ea45 0e06 	orr.w	lr, r5, r6
 80009c8:	e68d      	b.n	80006e6 <__aeabi_dmul+0xde>
 80009ca:	ea0c 5513 	and.w	r5, ip, r3, lsr #20
 80009ce:	ea94 0f0c 	teq	r4, ip
 80009d2:	bf08      	it	eq
 80009d4:	ea95 0f0c 	teqeq	r5, ip
 80009d8:	f43f af3b 	beq.w	8000852 <__aeabi_dmul+0x24a>
 80009dc:	ea94 0f0c 	teq	r4, ip
 80009e0:	d10a      	bne.n	80009f8 <__aeabi_ddiv+0x19c>
 80009e2:	ea50 3401 	orrs.w	r4, r0, r1, lsl #12
 80009e6:	f47f af34 	bne.w	8000852 <__aeabi_dmul+0x24a>
 80009ea:	ea95 0f0c 	teq	r5, ip
 80009ee:	f47f af25 	bne.w	800083c <__aeabi_dmul+0x234>
 80009f2:	4610      	mov	r0, r2
 80009f4:	4619      	mov	r1, r3
 80009f6:	e72c      	b.n	8000852 <__aeabi_dmul+0x24a>
 80009f8:	ea95 0f0c 	teq	r5, ip
 80009fc:	d106      	bne.n	8000a0c <__aeabi_ddiv+0x1b0>
 80009fe:	ea52 3503 	orrs.w	r5, r2, r3, lsl #12
 8000a02:	f43f aefd 	beq.w	8000800 <__aeabi_dmul+0x1f8>
 8000a06:	4610      	mov	r0, r2
 8000a08:	4619      	mov	r1, r3
 8000a0a:	e722      	b.n	8000852 <__aeabi_dmul+0x24a>
 8000a0c:	ea50 0641 	orrs.w	r6, r0, r1, lsl #1
 8000a10:	bf18      	it	ne
 8000a12:	ea52 0643 	orrsne.w	r6, r2, r3, lsl #1
 8000a16:	f47f aec5 	bne.w	80007a4 <__aeabi_dmul+0x19c>
 8000a1a:	ea50 0441 	orrs.w	r4, r0, r1, lsl #1
 8000a1e:	f47f af0d 	bne.w	800083c <__aeabi_dmul+0x234>
 8000a22:	ea52 0543 	orrs.w	r5, r2, r3, lsl #1
 8000a26:	f47f aeeb 	bne.w	8000800 <__aeabi_dmul+0x1f8>
 8000a2a:	e712      	b.n	8000852 <__aeabi_dmul+0x24a>

08000a2c <__gedf2>:
 8000a2c:	f04f 3cff 	mov.w	ip, #4294967295
 8000a30:	e006      	b.n	8000a40 <__cmpdf2+0x4>
 8000a32:	bf00      	nop

08000a34 <__ledf2>:
 8000a34:	f04f 0c01 	mov.w	ip, #1
 8000a38:	e002      	b.n	8000a40 <__cmpdf2+0x4>
 8000a3a:	bf00      	nop

08000a3c <__cmpdf2>:
 8000a3c:	f04f 0c01 	mov.w	ip, #1
 8000a40:	f84d cd04 	str.w	ip, [sp, #-4]!
 8000a44:	ea4f 0c41 	mov.w	ip, r1, lsl #1
 8000a48:	ea7f 5c6c 	mvns.w	ip, ip, asr #21
 8000a4c:	ea4f 0c43 	mov.w	ip, r3, lsl #1
 8000a50:	bf18      	it	ne
 8000a52:	ea7f 5c6c 	mvnsne.w	ip, ip, asr #21
 8000a56:	d01b      	beq.n	8000a90 <__cmpdf2+0x54>
 8000a58:	b001      	add	sp, #4
 8000a5a:	ea50 0c41 	orrs.w	ip, r0, r1, lsl #1
 8000a5e:	bf0c      	ite	eq
 8000a60:	ea52 0c43 	orrseq.w	ip, r2, r3, lsl #1
 8000a64:	ea91 0f03 	teqne	r1, r3
 8000a68:	bf02      	ittt	eq
 8000a6a:	ea90 0f02 	teqeq	r0, r2
 8000a6e:	2000      	moveq	r0, #0
 8000a70:	4770      	bxeq	lr
 8000a72:	f110 0f00 	cmn.w	r0, #0
 8000a76:	ea91 0f03 	teq	r1, r3
 8000a7a:	bf58      	it	pl
 8000a7c:	4299      	cmppl	r1, r3
 8000a7e:	bf08      	it	eq
 8000a80:	4290      	cmpeq	r0, r2
 8000a82:	bf2c      	ite	cs
 8000a84:	17d8      	asrcs	r0, r3, #31
 8000a86:	ea6f 70e3 	mvncc.w	r0, r3, asr #31
 8000a8a:	f040 0001 	orr.w	r0, r0, #1
 8000a8e:	4770      	bx	lr
 8000a90:	ea4f 0c41 	mov.w	ip, r1, lsl #1
 8000a94:	ea7f 5c6c 	mvns.w	ip, ip, asr #21
 8000a98:	d102      	bne.n	8000aa0 <__cmpdf2+0x64>
 8000a9a:	ea50 3c01 	orrs.w	ip, r0, r1, lsl #12
 8000a9e:	d107      	bne.n	8000ab0 <__cmpdf2+0x74>
 8000aa0:	ea4f 0c43 	mov.w	ip, r3, lsl #1
 8000aa4:	ea7f 5c6c 	mvns.w	ip, ip, asr #21
 8000aa8:	d1d6      	bne.n	8000a58 <__cmpdf2+0x1c>
 8000aaa:	ea52 3c03 	orrs.w	ip, r2, r3, lsl #12
 8000aae:	d0d3      	beq.n	8000a58 <__cmpdf2+0x1c>
 8000ab0:	f85d 0b04 	ldr.w	r0, [sp], #4
 8000ab4:	4770      	bx	lr
 8000ab6:	bf00      	nop

08000ab8 <__aeabi_cdrcmple>:
 8000ab8:	4684      	mov	ip, r0
 8000aba:	4610      	mov	r0, r2
 8000abc:	4662      	mov	r2, ip
 8000abe:	468c      	mov	ip, r1
 8000ac0:	4619      	mov	r1, r3
 8000ac2:	4663      	mov	r3, ip
 8000ac4:	e000      	b.n	8000ac8 <__aeabi_cdcmpeq>
 8000ac6:	bf00      	nop

08000ac8 <__aeabi_cdcmpeq>:
 8000ac8:	b501      	push	{r0, lr}
 8000aca:	f7ff ffb7 	bl	8000a3c <__cmpdf2>
 8000ace:	2800      	cmp	r0, #0
 8000ad0:	bf48      	it	mi
 8000ad2:	f110 0f00 	cmnmi.w	r0, #0
 8000ad6:	bd01      	pop	{r0, pc}

08000ad8 <__aeabi_dcmpeq>:
 8000ad8:	f84d ed08 	str.w	lr, [sp, #-8]!
 8000adc:	f7ff fff4 	bl	8000ac8 <__aeabi_cdcmpeq>
 8000ae0:	bf0c      	ite	eq
 8000ae2:	2001      	moveq	r0, #1
 8000ae4:	2000      	movne	r0, #0
 8000ae6:	f85d fb08 	ldr.w	pc, [sp], #8
 8000aea:	bf00      	nop

08000aec <__aeabi_dcmplt>:
 8000aec:	f84d ed08 	str.w	lr, [sp, #-8]!
 8000af0:	f7ff ffea 	bl	8000ac8 <__aeabi_cdcmpeq>
 8000af4:	bf34      	ite	cc
 8000af6:	2001      	movcc	r0, #1
 8000af8:	2000      	movcs	r0, #0
 8000afa:	f85d fb08 	ldr.w	pc, [sp], #8
 8000afe:	bf00      	nop

08000b00 <__aeabi_dcmple>:
 8000b00:	f84d ed08 	str.w	lr, [sp, #-8]!
 8000b04:	f7ff ffe0 	bl	8000ac8 <__aeabi_cdcmpeq>
 8000b08:	bf94      	ite	ls
 8000b0a:	2001      	movls	r0, #1
 8000b0c:	2000      	movhi	r0, #0
 8000b0e:	f85d fb08 	ldr.w	pc, [sp], #8
 8000b12:	bf00      	nop

08000b14 <__aeabi_dcmpge>:
 8000b14:	f84d ed08 	str.w	lr, [sp, #-8]!
 8000b18:	f7ff ffce 	bl	8000ab8 <__aeabi_cdrcmple>
 8000b1c:	bf94      	ite	ls
 8000b1e:	2001      	movls	r0, #1
 8000b20:	2000      	movhi	r0, #0
 8000b22:	f85d fb08 	ldr.w	pc, [sp], #8
 8000b26:	bf00      	nop

08000b28 <__aeabi_dcmpgt>:
 8000b28:	f84d ed08 	str.w	lr, [sp, #-8]!
 8000b2c:	f7ff ffc4 	bl	8000ab8 <__aeabi_cdrcmple>
 8000b30:	bf34      	ite	cc
 8000b32:	2001      	movcc	r0, #1
 8000b34:	2000      	movcs	r0, #0
 8000b36:	f85d fb08 	ldr.w	pc, [sp], #8
 8000b3a:	bf00      	nop

08000b3c <__aeabi_dcmpun>:
 8000b3c:	ea4f 0c41 	mov.w	ip, r1, lsl #1
 8000b40:	ea7f 5c6c 	mvns.w	ip, ip, asr #21
 8000b44:	d102      	bne.n	8000b4c <__aeabi_dcmpun+0x10>
 8000b46:	ea50 3c01 	orrs.w	ip, r0, r1, lsl #12
 8000b4a:	d10a      	bne.n	8000b62 <__aeabi_dcmpun+0x26>
 8000b4c:	ea4f 0c43 	mov.w	ip, r3, lsl #1
 8000b50:	ea7f 5c6c 	mvns.w	ip, ip, asr #21
 8000b54:	d102      	bne.n	8000b5c <__aeabi_dcmpun+0x20>
 8000b56:	ea52 3c03 	orrs.w	ip, r2, r3, lsl #12
 8000b5a:	d102      	bne.n	8000b62 <__aeabi_dcmpun+0x26>
 8000b5c:	f04f 0000 	mov.w	r0, #0
 8000b60:	4770      	bx	lr
 8000b62:	f04f 0001 	mov.w	r0, #1
 8000b66:	4770      	bx	lr

08000b68 <__aeabi_d2iz>:
 8000b68:	ea4f 0241 	mov.w	r2, r1, lsl #1
 8000b6c:	f512 1200 	adds.w	r2, r2, #2097152	@ 0x200000
 8000b70:	d215      	bcs.n	8000b9e <__aeabi_d2iz+0x36>
 8000b72:	d511      	bpl.n	8000b98 <__aeabi_d2iz+0x30>
 8000b74:	f46f 7378 	mvn.w	r3, #992	@ 0x3e0
 8000b78:	ebb3 5262 	subs.w	r2, r3, r2, asr #21
 8000b7c:	d912      	bls.n	8000ba4 <__aeabi_d2iz+0x3c>
 8000b7e:	ea4f 23c1 	mov.w	r3, r1, lsl #11
 8000b82:	f043 4300 	orr.w	r3, r3, #2147483648	@ 0x80000000
 8000b86:	ea43 5350 	orr.w	r3, r3, r0, lsr #21
 8000b8a:	f011 4f00 	tst.w	r1, #2147483648	@ 0x80000000
 8000b8e:	fa23 f002 	lsr.w	r0, r3, r2
 8000b92:	bf18      	it	ne
 8000b94:	4240      	negne	r0, r0
 8000b96:	4770      	bx	lr
 8000b98:	f04f 0000 	mov.w	r0, #0
 8000b9c:	4770      	bx	lr
 8000b9e:	ea50 3001 	orrs.w	r0, r0, r1, lsl #12
 8000ba2:	d105      	bne.n	8000bb0 <__aeabi_d2iz+0x48>
 8000ba4:	f011 4000 	ands.w	r0, r1, #2147483648	@ 0x80000000
 8000ba8:	bf08      	it	eq
 8000baa:	f06f 4000 	mvneq.w	r0, #2147483648	@ 0x80000000
 8000bae:	4770      	bx	lr
 8000bb0:	f04f 0000 	mov.w	r0, #0
 8000bb4:	4770      	bx	lr
 8000bb6:	bf00      	nop

08000bb8 <__aeabi_d2uiz>:
 8000bb8:	004a      	lsls	r2, r1, #1
 8000bba:	d211      	bcs.n	8000be0 <__aeabi_d2uiz+0x28>
 8000bbc:	f512 1200 	adds.w	r2, r2, #2097152	@ 0x200000
 8000bc0:	d211      	bcs.n	8000be6 <__aeabi_d2uiz+0x2e>
 8000bc2:	d50d      	bpl.n	8000be0 <__aeabi_d2uiz+0x28>
 8000bc4:	f46f 7378 	mvn.w	r3, #992	@ 0x3e0
 8000bc8:	ebb3 5262 	subs.w	r2, r3, r2, asr #21
 8000bcc:	d40e      	bmi.n	8000bec <__aeabi_d2uiz+0x34>
 8000bce:	ea4f 23c1 	mov.w	r3, r1, lsl #11
 8000bd2:	f043 4300 	orr.w	r3, r3, #2147483648	@ 0x80000000
 8000bd6:	ea43 5350 	orr.w	r3, r3, r0, lsr #21
 8000bda:	fa23 f002 	lsr.w	r0, r3, r2
 8000bde:	4770      	bx	lr
 8000be0:	f04f 0000 	mov.w	r0, #0
 8000be4:	4770      	bx	lr
 8000be6:	ea50 3001 	orrs.w	r0, r0, r1, lsl #12
 8000bea:	d102      	bne.n	8000bf2 <__aeabi_d2uiz+0x3a>
 8000bec:	f04f 30ff 	mov.w	r0, #4294967295
 8000bf0:	4770      	bx	lr
 8000bf2:	f04f 0000 	mov.w	r0, #0
 8000bf6:	4770      	bx	lr

08000bf8 <__aeabi_d2f>:
 8000bf8:	ea4f 0241 	mov.w	r2, r1, lsl #1
 8000bfc:	f1b2 43e0 	subs.w	r3, r2, #1879048192	@ 0x70000000
 8000c00:	bf24      	itt	cs
 8000c02:	f5b3 1c00 	subscs.w	ip, r3, #2097152	@ 0x200000
 8000c06:	f1dc 5cfe 	rsbscs	ip, ip, #532676608	@ 0x1fc00000
 8000c0a:	d90d      	bls.n	8000c28 <__aeabi_d2f+0x30>
 8000c0c:	f001 4c00 	and.w	ip, r1, #2147483648	@ 0x80000000
 8000c10:	ea4f 02c0 	mov.w	r2, r0, lsl #3
 8000c14:	ea4c 7050 	orr.w	r0, ip, r0, lsr #29
 8000c18:	f1b2 4f00 	cmp.w	r2, #2147483648	@ 0x80000000
 8000c1c:	eb40 0083 	adc.w	r0, r0, r3, lsl #2
 8000c20:	bf08      	it	eq
 8000c22:	f020 0001 	biceq.w	r0, r0, #1
 8000c26:	4770      	bx	lr
 8000c28:	f011 4f80 	tst.w	r1, #1073741824	@ 0x40000000
 8000c2c:	d121      	bne.n	8000c72 <__aeabi_d2f+0x7a>
 8000c2e:	f113 7238 	adds.w	r2, r3, #48234496	@ 0x2e00000
 8000c32:	bfbc      	itt	lt
 8000c34:	f001 4000 	andlt.w	r0, r1, #2147483648	@ 0x80000000
 8000c38:	4770      	bxlt	lr
 8000c3a:	f441 1180 	orr.w	r1, r1, #1048576	@ 0x100000
 8000c3e:	ea4f 5252 	mov.w	r2, r2, lsr #21
 8000c42:	f1c2 0218 	rsb	r2, r2, #24
 8000c46:	f1c2 0c20 	rsb	ip, r2, #32
 8000c4a:	fa10 f30c 	lsls.w	r3, r0, ip
 8000c4e:	fa20 f002 	lsr.w	r0, r0, r2
 8000c52:	bf18      	it	ne
 8000c54:	f040 0001 	orrne.w	r0, r0, #1
 8000c58:	ea4f 23c1 	mov.w	r3, r1, lsl #11
 8000c5c:	ea4f 23d3 	mov.w	r3, r3, lsr #11
 8000c60:	fa03 fc0c 	lsl.w	ip, r3, ip
 8000c64:	ea40 000c 	orr.w	r0, r0, ip
 8000c68:	fa23 f302 	lsr.w	r3, r3, r2
 8000c6c:	ea4f 0343 	mov.w	r3, r3, lsl #1
 8000c70:	e7cc      	b.n	8000c0c <__aeabi_d2f+0x14>
 8000c72:	ea7f 5362 	mvns.w	r3, r2, asr #21
 8000c76:	d107      	bne.n	8000c88 <__aeabi_d2f+0x90>
 8000c78:	ea50 3301 	orrs.w	r3, r0, r1, lsl #12
 8000c7c:	bf1e      	ittt	ne
 8000c7e:	f04f 40fe 	movne.w	r0, #2130706432	@ 0x7f000000
 8000c82:	f440 0040 	orrne.w	r0, r0, #12582912	@ 0xc00000
 8000c86:	4770      	bxne	lr
 8000c88:	f001 4000 	and.w	r0, r1, #2147483648	@ 0x80000000
 8000c8c:	f040 40fe 	orr.w	r0, r0, #2130706432	@ 0x7f000000
 8000c90:	f440 0000 	orr.w	r0, r0, #8388608	@ 0x800000
 8000c94:	4770      	bx	lr
 8000c96:	bf00      	nop

08000c98 <__aeabi_uldivmod>:
 8000c98:	b953      	cbnz	r3, 8000cb0 <__aeabi_uldivmod+0x18>
 8000c9a:	b94a      	cbnz	r2, 8000cb0 <__aeabi_uldivmod+0x18>
 8000c9c:	2900      	cmp	r1, #0
 8000c9e:	bf08      	it	eq
 8000ca0:	2800      	cmpeq	r0, #0
 8000ca2:	bf1c      	itt	ne
 8000ca4:	f04f 31ff 	movne.w	r1, #4294967295
 8000ca8:	f04f 30ff 	movne.w	r0, #4294967295
 8000cac:	f000 b9be 	b.w	800102c <__aeabi_idiv0>
 8000cb0:	f1ad 0c08 	sub.w	ip, sp, #8
 8000cb4:	e96d ce04 	strd	ip, lr, [sp, #-16]!
 8000cb8:	f000 f83c 	bl	8000d34 <__udivmoddi4>
 8000cbc:	f8dd e004 	ldr.w	lr, [sp, #4]
 8000cc0:	e9dd 2302 	ldrd	r2, r3, [sp, #8]
 8000cc4:	b004      	add	sp, #16
 8000cc6:	4770      	bx	lr

08000cc8 <__aeabi_d2lz>:
 8000cc8:	b538      	push	{r3, r4, r5, lr}
 8000cca:	2200      	movs	r2, #0
 8000ccc:	2300      	movs	r3, #0
 8000cce:	4604      	mov	r4, r0
 8000cd0:	460d      	mov	r5, r1
 8000cd2:	f7ff ff0b 	bl	8000aec <__aeabi_dcmplt>
 8000cd6:	b928      	cbnz	r0, 8000ce4 <__aeabi_d2lz+0x1c>
 8000cd8:	4620      	mov	r0, r4
 8000cda:	4629      	mov	r1, r5
 8000cdc:	e8bd 4038 	ldmia.w	sp!, {r3, r4, r5, lr}
 8000ce0:	f000 b80a 	b.w	8000cf8 <__aeabi_d2ulz>
 8000ce4:	4620      	mov	r0, r4
 8000ce6:	f105 4100 	add.w	r1, r5, #2147483648	@ 0x80000000
 8000cea:	f000 f805 	bl	8000cf8 <__aeabi_d2ulz>
 8000cee:	4240      	negs	r0, r0
 8000cf0:	eb61 0141 	sbc.w	r1, r1, r1, lsl #1
 8000cf4:	bd38      	pop	{r3, r4, r5, pc}
 8000cf6:	bf00      	nop

08000cf8 <__aeabi_d2ulz>:
 8000cf8:	b5d0      	push	{r4, r6, r7, lr}
 8000cfa:	4b0c      	ldr	r3, [pc, #48]	@ (8000d2c <__aeabi_d2ulz+0x34>)
 8000cfc:	2200      	movs	r2, #0
 8000cfe:	4606      	mov	r6, r0
 8000d00:	460f      	mov	r7, r1
 8000d02:	f7ff fc81 	bl	8000608 <__aeabi_dmul>
 8000d06:	f7ff ff57 	bl	8000bb8 <__aeabi_d2uiz>
 8000d0a:	4604      	mov	r4, r0
 8000d0c:	f7ff fc02 	bl	8000514 <__aeabi_ui2d>
 8000d10:	4b07      	ldr	r3, [pc, #28]	@ (8000d30 <__aeabi_d2ulz+0x38>)
 8000d12:	2200      	movs	r2, #0
 8000d14:	f7ff fc78 	bl	8000608 <__aeabi_dmul>
 8000d18:	4602      	mov	r2, r0
 8000d1a:	460b      	mov	r3, r1
 8000d1c:	4630      	mov	r0, r6
 8000d1e:	4639      	mov	r1, r7
 8000d20:	f7ff faba 	bl	8000298 <__aeabi_dsub>
 8000d24:	f7ff ff48 	bl	8000bb8 <__aeabi_d2uiz>
 8000d28:	4621      	mov	r1, r4
 8000d2a:	bdd0      	pop	{r4, r6, r7, pc}
 8000d2c:	3df00000 	.word	0x3df00000
 8000d30:	41f00000 	.word	0x41f00000

08000d34 <__udivmoddi4>:
 8000d34:	e92d 47f0 	stmdb	sp!, {r4, r5, r6, r7, r8, r9, sl, lr}
 8000d38:	9d08      	ldr	r5, [sp, #32]
 8000d3a:	468e      	mov	lr, r1
 8000d3c:	4604      	mov	r4, r0
 8000d3e:	4688      	mov	r8, r1
 8000d40:	2b00      	cmp	r3, #0
 8000d42:	d14a      	bne.n	8000dda <__udivmoddi4+0xa6>
 8000d44:	428a      	cmp	r2, r1
 8000d46:	4617      	mov	r7, r2
 8000d48:	d962      	bls.n	8000e10 <__udivmoddi4+0xdc>
 8000d4a:	fab2 f682 	clz	r6, r2
 8000d4e:	b14e      	cbz	r6, 8000d64 <__udivmoddi4+0x30>
 8000d50:	f1c6 0320 	rsb	r3, r6, #32
 8000d54:	fa01 f806 	lsl.w	r8, r1, r6
 8000d58:	fa20 f303 	lsr.w	r3, r0, r3
 8000d5c:	40b7      	lsls	r7, r6
 8000d5e:	ea43 0808 	orr.w	r8, r3, r8
 8000d62:	40b4      	lsls	r4, r6
 8000d64:	ea4f 4e17 	mov.w	lr, r7, lsr #16
 8000d68:	fa1f fc87 	uxth.w	ip, r7
 8000d6c:	fbb8 f1fe 	udiv	r1, r8, lr
 8000d70:	0c23      	lsrs	r3, r4, #16
 8000d72:	fb0e 8811 	mls	r8, lr, r1, r8
 8000d76:	ea43 4308 	orr.w	r3, r3, r8, lsl #16
 8000d7a:	fb01 f20c 	mul.w	r2, r1, ip
 8000d7e:	429a      	cmp	r2, r3
 8000d80:	d909      	bls.n	8000d96 <__udivmoddi4+0x62>
 8000d82:	18fb      	adds	r3, r7, r3
 8000d84:	f101 30ff 	add.w	r0, r1, #4294967295
 8000d88:	f080 80ea 	bcs.w	8000f60 <__udivmoddi4+0x22c>
 8000d8c:	429a      	cmp	r2, r3
 8000d8e:	f240 80e7 	bls.w	8000f60 <__udivmoddi4+0x22c>
 8000d92:	3902      	subs	r1, #2
 8000d94:	443b      	add	r3, r7
 8000d96:	1a9a      	subs	r2, r3, r2
 8000d98:	b2a3      	uxth	r3, r4
 8000d9a:	fbb2 f0fe 	udiv	r0, r2, lr
 8000d9e:	fb0e 2210 	mls	r2, lr, r0, r2
 8000da2:	ea43 4302 	orr.w	r3, r3, r2, lsl #16
 8000da6:	fb00 fc0c 	mul.w	ip, r0, ip
 8000daa:	459c      	cmp	ip, r3
 8000dac:	d909      	bls.n	8000dc2 <__udivmoddi4+0x8e>
 8000dae:	18fb      	adds	r3, r7, r3
 8000db0:	f100 32ff 	add.w	r2, r0, #4294967295
 8000db4:	f080 80d6 	bcs.w	8000f64 <__udivmoddi4+0x230>
 8000db8:	459c      	cmp	ip, r3
 8000dba:	f240 80d3 	bls.w	8000f64 <__udivmoddi4+0x230>
 8000dbe:	443b      	add	r3, r7
 8000dc0:	3802      	subs	r0, #2
 8000dc2:	ea40 4001 	orr.w	r0, r0, r1, lsl #16
 8000dc6:	eba3 030c 	sub.w	r3, r3, ip
 8000dca:	2100      	movs	r1, #0
 8000dcc:	b11d      	cbz	r5, 8000dd6 <__udivmoddi4+0xa2>
 8000dce:	40f3      	lsrs	r3, r6
 8000dd0:	2200      	movs	r2, #0
 8000dd2:	e9c5 3200 	strd	r3, r2, [r5]
 8000dd6:	e8bd 87f0 	ldmia.w	sp!, {r4, r5, r6, r7, r8, r9, sl, pc}
 8000dda:	428b      	cmp	r3, r1
 8000ddc:	d905      	bls.n	8000dea <__udivmoddi4+0xb6>
 8000dde:	b10d      	cbz	r5, 8000de4 <__udivmoddi4+0xb0>
 8000de0:	e9c5 0100 	strd	r0, r1, [r5]
 8000de4:	2100      	movs	r1, #0
 8000de6:	4608      	mov	r0, r1
 8000de8:	e7f5      	b.n	8000dd6 <__udivmoddi4+0xa2>
 8000dea:	fab3 f183 	clz	r1, r3
 8000dee:	2900      	cmp	r1, #0
 8000df0:	d146      	bne.n	8000e80 <__udivmoddi4+0x14c>
 8000df2:	4573      	cmp	r3, lr
 8000df4:	d302      	bcc.n	8000dfc <__udivmoddi4+0xc8>
 8000df6:	4282      	cmp	r2, r0
 8000df8:	f200 8105 	bhi.w	8001006 <__udivmoddi4+0x2d2>
 8000dfc:	1a84      	subs	r4, r0, r2
 8000dfe:	eb6e 0203 	sbc.w	r2, lr, r3
 8000e02:	2001      	movs	r0, #1
 8000e04:	4690      	mov	r8, r2
 8000e06:	2d00      	cmp	r5, #0
 8000e08:	d0e5      	beq.n	8000dd6 <__udivmoddi4+0xa2>
 8000e0a:	e9c5 4800 	strd	r4, r8, [r5]
 8000e0e:	e7e2      	b.n	8000dd6 <__udivmoddi4+0xa2>
 8000e10:	2a00      	cmp	r2, #0
 8000e12:	f000 8090 	beq.w	8000f36 <__udivmoddi4+0x202>
 8000e16:	fab2 f682 	clz	r6, r2
 8000e1a:	2e00      	cmp	r6, #0
 8000e1c:	f040 80a4 	bne.w	8000f68 <__udivmoddi4+0x234>
 8000e20:	1a8a      	subs	r2, r1, r2
 8000e22:	0c03      	lsrs	r3, r0, #16
 8000e24:	ea4f 4e17 	mov.w	lr, r7, lsr #16
 8000e28:	b280      	uxth	r0, r0
 8000e2a:	b2bc      	uxth	r4, r7
 8000e2c:	2101      	movs	r1, #1
 8000e2e:	fbb2 fcfe 	udiv	ip, r2, lr
 8000e32:	fb0e 221c 	mls	r2, lr, ip, r2
 8000e36:	ea43 4302 	orr.w	r3, r3, r2, lsl #16
 8000e3a:	fb04 f20c 	mul.w	r2, r4, ip
 8000e3e:	429a      	cmp	r2, r3
 8000e40:	d907      	bls.n	8000e52 <__udivmoddi4+0x11e>
 8000e42:	18fb      	adds	r3, r7, r3
 8000e44:	f10c 38ff 	add.w	r8, ip, #4294967295
 8000e48:	d202      	bcs.n	8000e50 <__udivmoddi4+0x11c>
 8000e4a:	429a      	cmp	r2, r3
 8000e4c:	f200 80e0 	bhi.w	8001010 <__udivmoddi4+0x2dc>
 8000e50:	46c4      	mov	ip, r8
 8000e52:	1a9b      	subs	r3, r3, r2
 8000e54:	fbb3 f2fe 	udiv	r2, r3, lr
 8000e58:	fb0e 3312 	mls	r3, lr, r2, r3
 8000e5c:	ea40 4303 	orr.w	r3, r0, r3, lsl #16
 8000e60:	fb02 f404 	mul.w	r4, r2, r4
 8000e64:	429c      	cmp	r4, r3
 8000e66:	d907      	bls.n	8000e78 <__udivmoddi4+0x144>
 8000e68:	18fb      	adds	r3, r7, r3
 8000e6a:	f102 30ff 	add.w	r0, r2, #4294967295
 8000e6e:	d202      	bcs.n	8000e76 <__udivmoddi4+0x142>
 8000e70:	429c      	cmp	r4, r3
 8000e72:	f200 80ca 	bhi.w	800100a <__udivmoddi4+0x2d6>
 8000e76:	4602      	mov	r2, r0
 8000e78:	1b1b      	subs	r3, r3, r4
 8000e7a:	ea42 400c 	orr.w	r0, r2, ip, lsl #16
 8000e7e:	e7a5      	b.n	8000dcc <__udivmoddi4+0x98>
 8000e80:	f1c1 0620 	rsb	r6, r1, #32
 8000e84:	408b      	lsls	r3, r1
 8000e86:	fa22 f706 	lsr.w	r7, r2, r6
 8000e8a:	431f      	orrs	r7, r3
 8000e8c:	fa0e f401 	lsl.w	r4, lr, r1
 8000e90:	fa20 f306 	lsr.w	r3, r0, r6
 8000e94:	fa2e fe06 	lsr.w	lr, lr, r6
 8000e98:	ea4f 4917 	mov.w	r9, r7, lsr #16
 8000e9c:	4323      	orrs	r3, r4
 8000e9e:	fa00 f801 	lsl.w	r8, r0, r1
 8000ea2:	fa1f fc87 	uxth.w	ip, r7
 8000ea6:	fbbe f0f9 	udiv	r0, lr, r9
 8000eaa:	0c1c      	lsrs	r4, r3, #16
 8000eac:	fb09 ee10 	mls	lr, r9, r0, lr
 8000eb0:	ea44 440e 	orr.w	r4, r4, lr, lsl #16
 8000eb4:	fb00 fe0c 	mul.w	lr, r0, ip
 8000eb8:	45a6      	cmp	lr, r4
 8000eba:	fa02 f201 	lsl.w	r2, r2, r1
 8000ebe:	d909      	bls.n	8000ed4 <__udivmoddi4+0x1a0>
 8000ec0:	193c      	adds	r4, r7, r4
 8000ec2:	f100 3aff 	add.w	sl, r0, #4294967295
 8000ec6:	f080 809c 	bcs.w	8001002 <__udivmoddi4+0x2ce>
 8000eca:	45a6      	cmp	lr, r4
 8000ecc:	f240 8099 	bls.w	8001002 <__udivmoddi4+0x2ce>
 8000ed0:	3802      	subs	r0, #2
 8000ed2:	443c      	add	r4, r7
 8000ed4:	eba4 040e 	sub.w	r4, r4, lr
 8000ed8:	fa1f fe83 	uxth.w	lr, r3
 8000edc:	fbb4 f3f9 	udiv	r3, r4, r9
 8000ee0:	fb09 4413 	mls	r4, r9, r3, r4
 8000ee4:	ea4e 4404 	orr.w	r4, lr, r4, lsl #16
 8000ee8:	fb03 fc0c 	mul.w	ip, r3, ip
 8000eec:	45a4      	cmp	ip, r4
 8000eee:	d908      	bls.n	8000f02 <__udivmoddi4+0x1ce>
 8000ef0:	193c      	adds	r4, r7, r4
 8000ef2:	f103 3eff 	add.w	lr, r3, #4294967295
 8000ef6:	f080 8082 	bcs.w	8000ffe <__udivmoddi4+0x2ca>
 8000efa:	45a4      	cmp	ip, r4
 8000efc:	d97f      	bls.n	8000ffe <__udivmoddi4+0x2ca>
 8000efe:	3b02      	subs	r3, #2
 8000f00:	443c      	add	r4, r7
 8000f02:	ea43 4000 	orr.w	r0, r3, r0, lsl #16
 8000f06:	eba4 040c 	sub.w	r4, r4, ip
 8000f0a:	fba0 ec02 	umull	lr, ip, r0, r2
 8000f0e:	4564      	cmp	r4, ip
 8000f10:	4673      	mov	r3, lr
 8000f12:	46e1      	mov	r9, ip
 8000f14:	d362      	bcc.n	8000fdc <__udivmoddi4+0x2a8>
 8000f16:	d05f      	beq.n	8000fd8 <__udivmoddi4+0x2a4>
 8000f18:	b15d      	cbz	r5, 8000f32 <__udivmoddi4+0x1fe>
 8000f1a:	ebb8 0203 	subs.w	r2, r8, r3
 8000f1e:	eb64 0409 	sbc.w	r4, r4, r9
 8000f22:	fa04 f606 	lsl.w	r6, r4, r6
 8000f26:	fa22 f301 	lsr.w	r3, r2, r1
 8000f2a:	431e      	orrs	r6, r3
 8000f2c:	40cc      	lsrs	r4, r1
 8000f2e:	e9c5 6400 	strd	r6, r4, [r5]
 8000f32:	2100      	movs	r1, #0
 8000f34:	e74f      	b.n	8000dd6 <__udivmoddi4+0xa2>
 8000f36:	fbb1 fcf2 	udiv	ip, r1, r2
 8000f3a:	0c01      	lsrs	r1, r0, #16
 8000f3c:	ea41 410e 	orr.w	r1, r1, lr, lsl #16
 8000f40:	b280      	uxth	r0, r0
 8000f42:	ea40 4201 	orr.w	r2, r0, r1, lsl #16
 8000f46:	463b      	mov	r3, r7
 8000f48:	4638      	mov	r0, r7
 8000f4a:	463c      	mov	r4, r7
 8000f4c:	46b8      	mov	r8, r7
 8000f4e:	46be      	mov	lr, r7
 8000f50:	2620      	movs	r6, #32
 8000f52:	fbb1 f1f7 	udiv	r1, r1, r7
 8000f56:	eba2 0208 	sub.w	r2, r2, r8
 8000f5a:	ea41 410c 	orr.w	r1, r1, ip, lsl #16
 8000f5e:	e766      	b.n	8000e2e <__udivmoddi4+0xfa>
 8000f60:	4601      	mov	r1, r0
 8000f62:	e718      	b.n	8000d96 <__udivmoddi4+0x62>
 8000f64:	4610      	mov	r0, r2
 8000f66:	e72c      	b.n	8000dc2 <__udivmoddi4+0x8e>
 8000f68:	f1c6 0220 	rsb	r2, r6, #32
 8000f6c:	fa2e f302 	lsr.w	r3, lr, r2
 8000f70:	40b7      	lsls	r7, r6
 8000f72:	40b1      	lsls	r1, r6
 8000f74:	fa20 f202 	lsr.w	r2, r0, r2
 8000f78:	ea4f 4e17 	mov.w	lr, r7, lsr #16
 8000f7c:	430a      	orrs	r2, r1
 8000f7e:	fbb3 f8fe 	udiv	r8, r3, lr
 8000f82:	b2bc      	uxth	r4, r7
 8000f84:	fb0e 3318 	mls	r3, lr, r8, r3
 8000f88:	0c11      	lsrs	r1, r2, #16
 8000f8a:	ea41 4103 	orr.w	r1, r1, r3, lsl #16
 8000f8e:	fb08 f904 	mul.w	r9, r8, r4
 8000f92:	40b0      	lsls	r0, r6
 8000f94:	4589      	cmp	r9, r1
 8000f96:	ea4f 4310 	mov.w	r3, r0, lsr #16
 8000f9a:	b280      	uxth	r0, r0
 8000f9c:	d93e      	bls.n	800101c <__udivmoddi4+0x2e8>
 8000f9e:	1879      	adds	r1, r7, r1
 8000fa0:	f108 3cff 	add.w	ip, r8, #4294967295
 8000fa4:	d201      	bcs.n	8000faa <__udivmoddi4+0x276>
 8000fa6:	4589      	cmp	r9, r1
 8000fa8:	d81f      	bhi.n	8000fea <__udivmoddi4+0x2b6>
 8000faa:	eba1 0109 	sub.w	r1, r1, r9
 8000fae:	fbb1 f9fe 	udiv	r9, r1, lr
 8000fb2:	fb09 f804 	mul.w	r8, r9, r4
 8000fb6:	fb0e 1119 	mls	r1, lr, r9, r1
 8000fba:	b292      	uxth	r2, r2
 8000fbc:	ea42 4201 	orr.w	r2, r2, r1, lsl #16
 8000fc0:	4542      	cmp	r2, r8
 8000fc2:	d229      	bcs.n	8001018 <__udivmoddi4+0x2e4>
 8000fc4:	18ba      	adds	r2, r7, r2
 8000fc6:	f109 31ff 	add.w	r1, r9, #4294967295
 8000fca:	d2c4      	bcs.n	8000f56 <__udivmoddi4+0x222>
 8000fcc:	4542      	cmp	r2, r8
 8000fce:	d2c2      	bcs.n	8000f56 <__udivmoddi4+0x222>
 8000fd0:	f1a9 0102 	sub.w	r1, r9, #2
 8000fd4:	443a      	add	r2, r7
 8000fd6:	e7be      	b.n	8000f56 <__udivmoddi4+0x222>
 8000fd8:	45f0      	cmp	r8, lr
 8000fda:	d29d      	bcs.n	8000f18 <__udivmoddi4+0x1e4>
 8000fdc:	ebbe 0302 	subs.w	r3, lr, r2
 8000fe0:	eb6c 0c07 	sbc.w	ip, ip, r7
 8000fe4:	3801      	subs	r0, #1
 8000fe6:	46e1      	mov	r9, ip
 8000fe8:	e796      	b.n	8000f18 <__udivmoddi4+0x1e4>
 8000fea:	eba7 0909 	sub.w	r9, r7, r9
 8000fee:	4449      	add	r1, r9
 8000ff0:	f1a8 0c02 	sub.w	ip, r8, #2
 8000ff4:	fbb1 f9fe 	udiv	r9, r1, lr
 8000ff8:	fb09 f804 	mul.w	r8, r9, r4
 8000ffc:	e7db      	b.n	8000fb6 <__udivmoddi4+0x282>
 8000ffe:	4673      	mov	r3, lr
 8001000:	e77f      	b.n	8000f02 <__udivmoddi4+0x1ce>
 8001002:	4650      	mov	r0, sl
 8001004:	e766      	b.n	8000ed4 <__udivmoddi4+0x1a0>
 8001006:	4608      	mov	r0, r1
 8001008:	e6fd      	b.n	8000e06 <__udivmoddi4+0xd2>
 800100a:	443b      	add	r3, r7
 800100c:	3a02      	subs	r2, #2
 800100e:	e733      	b.n	8000e78 <__udivmoddi4+0x144>
 8001010:	f1ac 0c02 	sub.w	ip, ip, #2
 8001014:	443b      	add	r3, r7
 8001016:	e71c      	b.n	8000e52 <__udivmoddi4+0x11e>
 8001018:	4649      	mov	r1, r9
 800101a:	e79c      	b.n	8000f56 <__udivmoddi4+0x222>
 800101c:	eba1 0109 	sub.w	r1, r1, r9
 8001020:	46c4      	mov	ip, r8
 8001022:	fbb1 f9fe 	udiv	r9, r1, lr
 8001026:	fb09 f804 	mul.w	r8, r9, r4
 800102a:	e7c4      	b.n	8000fb6 <__udivmoddi4+0x282>

0800102c <__aeabi_idiv0>:
 800102c:	4770      	bx	lr
 800102e:	bf00      	nop

08001030 <main>:
void MPU6050_Calibrate(void);
void MPU6050_Read_AccelGyro(void);
void Parse_GGA_Generic(char* nmea);

int main(void)
{
 8001030:	e92d 43f0 	stmdb	sp!, {r4, r5, r6, r7, r8, r9, lr}
 8001034:	b093      	sub	sp, #76	@ 0x4c
 8001036:	af0c      	add	r7, sp, #48	@ 0x30
  HAL_Init();
 8001038:	f000 fff6 	bl	8002028 <HAL_Init>
  SystemClock_Config();
 800103c:	f000 fcda 	bl	80019f4 <SystemClock_Config>
  MX_GPIO_Init();
 8001040:	f000 fd86 	bl	8001b50 <MX_GPIO_Init>
  MX_I2C1_Init();
 8001044:	f000 fd36 	bl	8001ab4 <MX_I2C1_Init>
  MX_USART1_UART_Init();
 8001048:	f000 fd5e 	bl	8001b08 <MX_USART1_UART_Init>
  MX_USART2_UART_Init(); // This function now includes the Interrupt Enable fix
 800104c:	f000 f990 	bl	8001370 <MX_USART2_UART_Init>

  printf("\n--- VeloCET Payload: Data Fusion Active ---\n");
 8001050:	4844      	ldr	r0, [pc, #272]	@ (8001164 <main+0x134>)
 8001052:	f005 fce1 	bl	8006a18 <puts>

  if (MPU6050_Init() == 0) printf("MPU6050 OK.\n");
 8001056:	f000 fa37 	bl	80014c8 <MPU6050_Init>
 800105a:	4603      	mov	r3, r0
 800105c:	2b00      	cmp	r3, #0
 800105e:	d103      	bne.n	8001068 <main+0x38>
 8001060:	4841      	ldr	r0, [pc, #260]	@ (8001168 <main+0x138>)
 8001062:	f005 fcd9 	bl	8006a18 <puts>
 8001066:	e002      	b.n	800106e <main+0x3e>
  else printf("MPU6050 FAIL.\n");
 8001068:	4840      	ldr	r0, [pc, #256]	@ (800116c <main+0x13c>)
 800106a:	f005 fcd5 	bl	8006a18 <puts>

  printf("Calibrating IMU... Keep Still.\n");
 800106e:	4840      	ldr	r0, [pc, #256]	@ (8001170 <main+0x140>)
 8001070:	f005 fcd2 	bl	8006a18 <puts>
  HAL_Delay(2000);
 8001074:	f44f 60fa 	mov.w	r0, #2000	@ 0x7d0
 8001078:	f001 f848 	bl	800210c <HAL_Delay>
  MPU6050_Calibrate();
 800107c:	f000 fa6e 	bl	800155c <MPU6050_Calibrate>
  printf("Ready. Listening for GPS & Barometer...\n");
 8001080:	483c      	ldr	r0, [pc, #240]	@ (8001174 <main+0x144>)
 8001082:	f005 fcc9 	bl	8006a18 <puts>

  // Start Interrupts
  HAL_UART_Receive_IT(&huart1, &gps_rx_char, 1);
 8001086:	2201      	movs	r2, #1
 8001088:	493b      	ldr	r1, [pc, #236]	@ (8001178 <main+0x148>)
 800108a:	483c      	ldr	r0, [pc, #240]	@ (800117c <main+0x14c>)
 800108c:	f003 f915 	bl	80042ba <HAL_UART_Receive_IT>
  HAL_UART_Receive_IT(&huart2, &baro_rx_byte, 1);
 8001090:	2201      	movs	r2, #1
 8001092:	493b      	ldr	r1, [pc, #236]	@ (8001180 <main+0x150>)
 8001094:	483b      	ldr	r0, [pc, #236]	@ (8001184 <main+0x154>)
 8001096:	f003 f910 	bl	80042ba <HAL_UART_Receive_IT>

  while (1)
  {
    HAL_GPIO_TogglePin(GPIOC, GPIO_PIN_13);
 800109a:	f44f 5100 	mov.w	r1, #8192	@ 0x2000
 800109e:	483a      	ldr	r0, [pc, #232]	@ (8001188 <main+0x158>)
 80010a0:	f001 fb99 	bl	80027d6 <HAL_GPIO_TogglePin>

    // 1. Process GPS
    if (gps_data_ready) {
 80010a4:	4b39      	ldr	r3, [pc, #228]	@ (800118c <main+0x15c>)
 80010a6:	781b      	ldrb	r3, [r3, #0]
 80010a8:	b2db      	uxtb	r3, r3
 80010aa:	2b00      	cmp	r3, #0
 80010ac:	d00c      	beq.n	80010c8 <main+0x98>
        if (strstr(nmea_buffer, "GGA") != NULL) Parse_GGA_Generic(nmea_buffer);
 80010ae:	4938      	ldr	r1, [pc, #224]	@ (8001190 <main+0x160>)
 80010b0:	4838      	ldr	r0, [pc, #224]	@ (8001194 <main+0x164>)
 80010b2:	f005 fdb8 	bl	8006c26 <strstr>
 80010b6:	4603      	mov	r3, r0
 80010b8:	2b00      	cmp	r3, #0
 80010ba:	d002      	beq.n	80010c2 <main+0x92>
 80010bc:	4835      	ldr	r0, [pc, #212]	@ (8001194 <main+0x164>)
 80010be:	f000 f989 	bl	80013d4 <Parse_GGA_Generic>
        gps_data_ready = 0;
 80010c2:	4b32      	ldr	r3, [pc, #200]	@ (800118c <main+0x15c>)
 80010c4:	2200      	movs	r2, #0
 80010c6:	701a      	strb	r2, [r3, #0]
    }

    // 2. Process IMU
    MPU6050_Read_AccelGyro();
 80010c8:	f000 fb9c 	bl	8001804 <MPU6050_Read_AccelGyro>

    // 3. Print Final Telemetry String
    // Format: "NAV> T:Time | Alt:Baro | A:x,y,z | G:x,y,z | Lat:x Lon:x"
    printf("NAV> T:%lu | Alt:%.2f | A:%d,%d,%d | G:%d,%d,%d | Lat:%.5f Lon:%.5f Sats:%d\n",
 80010cc:	f001 f812 	bl	80020f4 <HAL_GetTick>
 80010d0:	4606      	mov	r6, r0
           HAL_GetTick(),
           vehicleState.BaroAlt,
 80010d2:	4b31      	ldr	r3, [pc, #196]	@ (8001198 <main+0x168>)
 80010d4:	69db      	ldr	r3, [r3, #28]
    printf("NAV> T:%lu | Alt:%.2f | A:%d,%d,%d | G:%d,%d,%d | Lat:%.5f Lon:%.5f Sats:%d\n",
 80010d6:	4618      	mov	r0, r3
 80010d8:	f7ff fa3e 	bl	8000558 <__aeabi_f2d>
 80010dc:	4680      	mov	r8, r0
 80010de:	4689      	mov	r9, r1
           vehicleState.AccX, vehicleState.AccY, vehicleState.AccZ,
 80010e0:	4b2d      	ldr	r3, [pc, #180]	@ (8001198 <main+0x168>)
 80010e2:	f9b3 3000 	ldrsh.w	r3, [r3]
    printf("NAV> T:%lu | Alt:%.2f | A:%d,%d,%d | G:%d,%d,%d | Lat:%.5f Lon:%.5f Sats:%d\n",
 80010e6:	617b      	str	r3, [r7, #20]
           vehicleState.AccX, vehicleState.AccY, vehicleState.AccZ,
 80010e8:	4b2b      	ldr	r3, [pc, #172]	@ (8001198 <main+0x168>)
 80010ea:	f9b3 3002 	ldrsh.w	r3, [r3, #2]
    printf("NAV> T:%lu | Alt:%.2f | A:%d,%d,%d | G:%d,%d,%d | Lat:%.5f Lon:%.5f Sats:%d\n",
 80010ee:	613b      	str	r3, [r7, #16]
           vehicleState.AccX, vehicleState.AccY, vehicleState.AccZ,
 80010f0:	4b29      	ldr	r3, [pc, #164]	@ (8001198 <main+0x168>)
 80010f2:	f9b3 3004 	ldrsh.w	r3, [r3, #4]
    printf("NAV> T:%lu | Alt:%.2f | A:%d,%d,%d | G:%d,%d,%d | Lat:%.5f Lon:%.5f Sats:%d\n",
 80010f6:	60fb      	str	r3, [r7, #12]
           vehicleState.GyroX, vehicleState.GyroY, vehicleState.GyroZ,
 80010f8:	4b27      	ldr	r3, [pc, #156]	@ (8001198 <main+0x168>)
 80010fa:	f9b3 3006 	ldrsh.w	r3, [r3, #6]
    printf("NAV> T:%lu | Alt:%.2f | A:%d,%d,%d | G:%d,%d,%d | Lat:%.5f Lon:%.5f Sats:%d\n",
 80010fe:	60bb      	str	r3, [r7, #8]
           vehicleState.GyroX, vehicleState.GyroY, vehicleState.GyroZ,
 8001100:	4b25      	ldr	r3, [pc, #148]	@ (8001198 <main+0x168>)
 8001102:	f9b3 3008 	ldrsh.w	r3, [r3, #8]
    printf("NAV> T:%lu | Alt:%.2f | A:%d,%d,%d | G:%d,%d,%d | Lat:%.5f Lon:%.5f Sats:%d\n",
 8001106:	607b      	str	r3, [r7, #4]
           vehicleState.GyroX, vehicleState.GyroY, vehicleState.GyroZ,
 8001108:	4b23      	ldr	r3, [pc, #140]	@ (8001198 <main+0x168>)
 800110a:	f9b3 300a 	ldrsh.w	r3, [r3, #10]
    printf("NAV> T:%lu | Alt:%.2f | A:%d,%d,%d | G:%d,%d,%d | Lat:%.5f Lon:%.5f Sats:%d\n",
 800110e:	603b      	str	r3, [r7, #0]
           vehicleState.Latitude, vehicleState.Longitude,
 8001110:	4b21      	ldr	r3, [pc, #132]	@ (8001198 <main+0x168>)
 8001112:	68db      	ldr	r3, [r3, #12]
    printf("NAV> T:%lu | Alt:%.2f | A:%d,%d,%d | G:%d,%d,%d | Lat:%.5f Lon:%.5f Sats:%d\n",
 8001114:	4618      	mov	r0, r3
 8001116:	f7ff fa1f 	bl	8000558 <__aeabi_f2d>
 800111a:	4604      	mov	r4, r0
 800111c:	460d      	mov	r5, r1
           vehicleState.Latitude, vehicleState.Longitude,
 800111e:	4b1e      	ldr	r3, [pc, #120]	@ (8001198 <main+0x168>)
 8001120:	691b      	ldr	r3, [r3, #16]
    printf("NAV> T:%lu | Alt:%.2f | A:%d,%d,%d | G:%d,%d,%d | Lat:%.5f Lon:%.5f Sats:%d\n",
 8001122:	4618      	mov	r0, r3
 8001124:	f7ff fa18 	bl	8000558 <__aeabi_f2d>
 8001128:	4b1b      	ldr	r3, [pc, #108]	@ (8001198 <main+0x168>)
 800112a:	695b      	ldr	r3, [r3, #20]
 800112c:	930a      	str	r3, [sp, #40]	@ 0x28
 800112e:	e9cd 0108 	strd	r0, r1, [sp, #32]
 8001132:	e9cd 4506 	strd	r4, r5, [sp, #24]
 8001136:	683a      	ldr	r2, [r7, #0]
 8001138:	9205      	str	r2, [sp, #20]
 800113a:	687a      	ldr	r2, [r7, #4]
 800113c:	9204      	str	r2, [sp, #16]
 800113e:	68ba      	ldr	r2, [r7, #8]
 8001140:	9203      	str	r2, [sp, #12]
 8001142:	68fa      	ldr	r2, [r7, #12]
 8001144:	9202      	str	r2, [sp, #8]
 8001146:	693a      	ldr	r2, [r7, #16]
 8001148:	9201      	str	r2, [sp, #4]
 800114a:	697b      	ldr	r3, [r7, #20]
 800114c:	9300      	str	r3, [sp, #0]
 800114e:	4642      	mov	r2, r8
 8001150:	464b      	mov	r3, r9
 8001152:	4631      	mov	r1, r6
 8001154:	4811      	ldr	r0, [pc, #68]	@ (800119c <main+0x16c>)
 8001156:	f005 fbf7 	bl	8006948 <iprintf>
           vehicleState.Satellites);

    HAL_Delay(100); // 10Hz Update
 800115a:	2064      	movs	r0, #100	@ 0x64
 800115c:	f000 ffd6 	bl	800210c <HAL_Delay>
    HAL_GPIO_TogglePin(GPIOC, GPIO_PIN_13);
 8001160:	e79b      	b.n	800109a <main+0x6a>
 8001162:	bf00      	nop
 8001164:	08009260 	.word	0x08009260
 8001168:	08009290 	.word	0x08009290
 800116c:	0800929c 	.word	0x0800929c
 8001170:	080092ac 	.word	0x080092ac
 8001174:	080092cc 	.word	0x080092cc
 8001178:	2000030e 	.word	0x2000030e
 800117c:	20000248 	.word	0x20000248
 8001180:	200002f8 	.word	0x200002f8
 8001184:	20000290 	.word	0x20000290
 8001188:	40020800 	.word	0x40020800
 800118c:	20000391 	.word	0x20000391
 8001190:	080092f4 	.word	0x080092f4
 8001194:	20000310 	.word	0x20000310
 8001198:	200002d8 	.word	0x200002d8
 800119c:	080092f8 	.word	0x080092f8

080011a0 <USART2_IRQHandler>:
// -------------------------------------------------------------------------
//  INTERRUPT HANDLERS (CRITICAL)
// -------------------------------------------------------------------------

// 1. The Hardware Hook
void USART2_IRQHandler(void) {
 80011a0:	b580      	push	{r7, lr}
 80011a2:	af00      	add	r7, sp, #0
  HAL_UART_IRQHandler(&huart2);
 80011a4:	4802      	ldr	r0, [pc, #8]	@ (80011b0 <USART2_IRQHandler+0x10>)
 80011a6:	f003 f8ad 	bl	8004304 <HAL_UART_IRQHandler>
}
 80011aa:	bf00      	nop
 80011ac:	bd80      	pop	{r7, pc}
 80011ae:	bf00      	nop
 80011b0:	20000290 	.word	0x20000290

080011b4 <HAL_UART_RxCpltCallback>:

// 2. The Logic Callback
void HAL_UART_RxCpltCallback(UART_HandleTypeDef *huart) {
 80011b4:	b580      	push	{r7, lr}
 80011b6:	b082      	sub	sp, #8
 80011b8:	af00      	add	r7, sp, #0
 80011ba:	6078      	str	r0, [r7, #4]

  // GPS (UART 1)
  if (huart->Instance == USART1) {
 80011bc:	687b      	ldr	r3, [r7, #4]
 80011be:	681b      	ldr	r3, [r3, #0]
 80011c0:	4a39      	ldr	r2, [pc, #228]	@ (80012a8 <HAL_UART_RxCpltCallback+0xf4>)
 80011c2:	4293      	cmp	r3, r2
 80011c4:	d129      	bne.n	800121a <HAL_UART_RxCpltCallback+0x66>
    if (gps_rx_char == '\n' || nmea_idx >= NMEA_BUFFER_SIZE - 1) {
 80011c6:	4b39      	ldr	r3, [pc, #228]	@ (80012ac <HAL_UART_RxCpltCallback+0xf8>)
 80011c8:	781b      	ldrb	r3, [r3, #0]
 80011ca:	2b0a      	cmp	r3, #10
 80011cc:	d003      	beq.n	80011d6 <HAL_UART_RxCpltCallback+0x22>
 80011ce:	4b38      	ldr	r3, [pc, #224]	@ (80012b0 <HAL_UART_RxCpltCallback+0xfc>)
 80011d0:	781b      	ldrb	r3, [r3, #0]
 80011d2:	2b7e      	cmp	r3, #126	@ 0x7e
 80011d4:	d90c      	bls.n	80011f0 <HAL_UART_RxCpltCallback+0x3c>
        nmea_buffer[nmea_idx] = '\0'; gps_data_ready = 1; nmea_idx = 0;
 80011d6:	4b36      	ldr	r3, [pc, #216]	@ (80012b0 <HAL_UART_RxCpltCallback+0xfc>)
 80011d8:	781b      	ldrb	r3, [r3, #0]
 80011da:	461a      	mov	r2, r3
 80011dc:	4b35      	ldr	r3, [pc, #212]	@ (80012b4 <HAL_UART_RxCpltCallback+0x100>)
 80011de:	2100      	movs	r1, #0
 80011e0:	5499      	strb	r1, [r3, r2]
 80011e2:	4b35      	ldr	r3, [pc, #212]	@ (80012b8 <HAL_UART_RxCpltCallback+0x104>)
 80011e4:	2201      	movs	r2, #1
 80011e6:	701a      	strb	r2, [r3, #0]
 80011e8:	4b31      	ldr	r3, [pc, #196]	@ (80012b0 <HAL_UART_RxCpltCallback+0xfc>)
 80011ea:	2200      	movs	r2, #0
 80011ec:	701a      	strb	r2, [r3, #0]
 80011ee:	e00e      	b.n	800120e <HAL_UART_RxCpltCallback+0x5a>
    }
    else if (gps_rx_char != '\r') { nmea_buffer[nmea_idx++] = gps_rx_char; }
 80011f0:	4b2e      	ldr	r3, [pc, #184]	@ (80012ac <HAL_UART_RxCpltCallback+0xf8>)
 80011f2:	781b      	ldrb	r3, [r3, #0]
 80011f4:	2b0d      	cmp	r3, #13
 80011f6:	d00a      	beq.n	800120e <HAL_UART_RxCpltCallback+0x5a>
 80011f8:	4b2d      	ldr	r3, [pc, #180]	@ (80012b0 <HAL_UART_RxCpltCallback+0xfc>)
 80011fa:	781b      	ldrb	r3, [r3, #0]
 80011fc:	1c5a      	adds	r2, r3, #1
 80011fe:	b2d1      	uxtb	r1, r2
 8001200:	4a2b      	ldr	r2, [pc, #172]	@ (80012b0 <HAL_UART_RxCpltCallback+0xfc>)
 8001202:	7011      	strb	r1, [r2, #0]
 8001204:	461a      	mov	r2, r3
 8001206:	4b29      	ldr	r3, [pc, #164]	@ (80012ac <HAL_UART_RxCpltCallback+0xf8>)
 8001208:	7819      	ldrb	r1, [r3, #0]
 800120a:	4b2a      	ldr	r3, [pc, #168]	@ (80012b4 <HAL_UART_RxCpltCallback+0x100>)
 800120c:	5499      	strb	r1, [r3, r2]
    HAL_UART_Receive_IT(&huart1, &gps_rx_char, 1);
 800120e:	2201      	movs	r2, #1
 8001210:	4926      	ldr	r1, [pc, #152]	@ (80012ac <HAL_UART_RxCpltCallback+0xf8>)
 8001212:	482a      	ldr	r0, [pc, #168]	@ (80012bc <HAL_UART_RxCpltCallback+0x108>)
 8001214:	f003 f851 	bl	80042ba <HAL_UART_Receive_IT>
              baro_state = 0;
              break;
      }
      HAL_UART_Receive_IT(&huart2, &baro_rx_byte, 1);
  }
}
 8001218:	e041      	b.n	800129e <HAL_UART_RxCpltCallback+0xea>
  else if (huart->Instance == USART2) {
 800121a:	687b      	ldr	r3, [r7, #4]
 800121c:	681b      	ldr	r3, [r3, #0]
 800121e:	4a28      	ldr	r2, [pc, #160]	@ (80012c0 <HAL_UART_RxCpltCallback+0x10c>)
 8001220:	4293      	cmp	r3, r2
 8001222:	d13c      	bne.n	800129e <HAL_UART_RxCpltCallback+0xea>
      switch (baro_state) {
 8001224:	4b27      	ldr	r3, [pc, #156]	@ (80012c4 <HAL_UART_RxCpltCallback+0x110>)
 8001226:	781b      	ldrb	r3, [r3, #0]
 8001228:	2b02      	cmp	r3, #2
 800122a:	d024      	beq.n	8001276 <HAL_UART_RxCpltCallback+0xc2>
 800122c:	2b02      	cmp	r3, #2
 800122e:	dc31      	bgt.n	8001294 <HAL_UART_RxCpltCallback+0xe0>
 8001230:	2b00      	cmp	r3, #0
 8001232:	d002      	beq.n	800123a <HAL_UART_RxCpltCallback+0x86>
 8001234:	2b01      	cmp	r3, #1
 8001236:	d00b      	beq.n	8001250 <HAL_UART_RxCpltCallback+0x9c>
 8001238:	e02c      	b.n	8001294 <HAL_UART_RxCpltCallback+0xe0>
              if (baro_rx_byte == 0xBB) { baro_idx = 0; baro_state = 1; }
 800123a:	4b23      	ldr	r3, [pc, #140]	@ (80012c8 <HAL_UART_RxCpltCallback+0x114>)
 800123c:	781b      	ldrb	r3, [r3, #0]
 800123e:	2bbb      	cmp	r3, #187	@ 0xbb
 8001240:	d125      	bne.n	800128e <HAL_UART_RxCpltCallback+0xda>
 8001242:	4b22      	ldr	r3, [pc, #136]	@ (80012cc <HAL_UART_RxCpltCallback+0x118>)
 8001244:	2200      	movs	r2, #0
 8001246:	701a      	strb	r2, [r3, #0]
 8001248:	4b1e      	ldr	r3, [pc, #120]	@ (80012c4 <HAL_UART_RxCpltCallback+0x110>)
 800124a:	2201      	movs	r2, #1
 800124c:	701a      	strb	r2, [r3, #0]
              break;
 800124e:	e01e      	b.n	800128e <HAL_UART_RxCpltCallback+0xda>
              baro_buffer[baro_idx++] = baro_rx_byte;
 8001250:	4b1e      	ldr	r3, [pc, #120]	@ (80012cc <HAL_UART_RxCpltCallback+0x118>)
 8001252:	781b      	ldrb	r3, [r3, #0]
 8001254:	1c5a      	adds	r2, r3, #1
 8001256:	b2d1      	uxtb	r1, r2
 8001258:	4a1c      	ldr	r2, [pc, #112]	@ (80012cc <HAL_UART_RxCpltCallback+0x118>)
 800125a:	7011      	strb	r1, [r2, #0]
 800125c:	461a      	mov	r2, r3
 800125e:	4b1a      	ldr	r3, [pc, #104]	@ (80012c8 <HAL_UART_RxCpltCallback+0x114>)
 8001260:	7819      	ldrb	r1, [r3, #0]
 8001262:	4b1b      	ldr	r3, [pc, #108]	@ (80012d0 <HAL_UART_RxCpltCallback+0x11c>)
 8001264:	5499      	strb	r1, [r3, r2]
              if (baro_idx >= 4) baro_state = 2;
 8001266:	4b19      	ldr	r3, [pc, #100]	@ (80012cc <HAL_UART_RxCpltCallback+0x118>)
 8001268:	781b      	ldrb	r3, [r3, #0]
 800126a:	2b03      	cmp	r3, #3
 800126c:	d911      	bls.n	8001292 <HAL_UART_RxCpltCallback+0xde>
 800126e:	4b15      	ldr	r3, [pc, #84]	@ (80012c4 <HAL_UART_RxCpltCallback+0x110>)
 8001270:	2202      	movs	r2, #2
 8001272:	701a      	strb	r2, [r3, #0]
              break;
 8001274:	e00d      	b.n	8001292 <HAL_UART_RxCpltCallback+0xde>
              if (baro_rx_byte == 0x55) {
 8001276:	4b14      	ldr	r3, [pc, #80]	@ (80012c8 <HAL_UART_RxCpltCallback+0x114>)
 8001278:	781b      	ldrb	r3, [r3, #0]
 800127a:	2b55      	cmp	r3, #85	@ 0x55
 800127c:	d103      	bne.n	8001286 <HAL_UART_RxCpltCallback+0xd2>
                  memcpy(&vehicleState.BaroAlt, baro_buffer, 4);
 800127e:	4b14      	ldr	r3, [pc, #80]	@ (80012d0 <HAL_UART_RxCpltCallback+0x11c>)
 8001280:	681b      	ldr	r3, [r3, #0]
 8001282:	4a14      	ldr	r2, [pc, #80]	@ (80012d4 <HAL_UART_RxCpltCallback+0x120>)
 8001284:	61d3      	str	r3, [r2, #28]
              baro_state = 0;
 8001286:	4b0f      	ldr	r3, [pc, #60]	@ (80012c4 <HAL_UART_RxCpltCallback+0x110>)
 8001288:	2200      	movs	r2, #0
 800128a:	701a      	strb	r2, [r3, #0]
              break;
 800128c:	e002      	b.n	8001294 <HAL_UART_RxCpltCallback+0xe0>
              break;
 800128e:	bf00      	nop
 8001290:	e000      	b.n	8001294 <HAL_UART_RxCpltCallback+0xe0>
              break;
 8001292:	bf00      	nop
      HAL_UART_Receive_IT(&huart2, &baro_rx_byte, 1);
 8001294:	2201      	movs	r2, #1
 8001296:	490c      	ldr	r1, [pc, #48]	@ (80012c8 <HAL_UART_RxCpltCallback+0x114>)
 8001298:	480f      	ldr	r0, [pc, #60]	@ (80012d8 <HAL_UART_RxCpltCallback+0x124>)
 800129a:	f003 f80e 	bl	80042ba <HAL_UART_Receive_IT>
}
 800129e:	bf00      	nop
 80012a0:	3708      	adds	r7, #8
 80012a2:	46bd      	mov	sp, r7
 80012a4:	bd80      	pop	{r7, pc}
 80012a6:	bf00      	nop
 80012a8:	40011000 	.word	0x40011000
 80012ac:	2000030e 	.word	0x2000030e
 80012b0:	20000390 	.word	0x20000390
 80012b4:	20000310 	.word	0x20000310
 80012b8:	20000391 	.word	0x20000391
 80012bc:	20000248 	.word	0x20000248
 80012c0:	40004400 	.word	0x40004400
 80012c4:	20000301 	.word	0x20000301
 80012c8:	200002f8 	.word	0x200002f8
 80012cc:	20000300 	.word	0x20000300
 80012d0:	200002fc 	.word	0x200002fc
 80012d4:	200002d8 	.word	0x200002d8
 80012d8:	20000290 	.word	0x20000290

080012dc <HAL_UART_ErrorCallback>:

// 3. Error Callback (Auto-restart on noise)
void HAL_UART_ErrorCallback(UART_HandleTypeDef *huart) {
 80012dc:	b580      	push	{r7, lr}
 80012de:	b084      	sub	sp, #16
 80012e0:	af00      	add	r7, sp, #0
 80012e2:	6078      	str	r0, [r7, #4]
    if (huart->Instance == USART2) {
 80012e4:	687b      	ldr	r3, [r7, #4]
 80012e6:	681b      	ldr	r3, [r3, #0]
 80012e8:	4a10      	ldr	r2, [pc, #64]	@ (800132c <HAL_UART_ErrorCallback+0x50>)
 80012ea:	4293      	cmp	r3, r2
 80012ec:	d10a      	bne.n	8001304 <HAL_UART_ErrorCallback+0x28>
        volatile uint32_t er = HAL_UART_GetError(huart); // Clear flag
 80012ee:	6878      	ldr	r0, [r7, #4]
 80012f0:	f003 fac8 	bl	8004884 <HAL_UART_GetError>
 80012f4:	4603      	mov	r3, r0
 80012f6:	60fb      	str	r3, [r7, #12]
        HAL_UART_Receive_IT(&huart2, &baro_rx_byte, 1);  // Restart
 80012f8:	2201      	movs	r2, #1
 80012fa:	490d      	ldr	r1, [pc, #52]	@ (8001330 <HAL_UART_ErrorCallback+0x54>)
 80012fc:	480d      	ldr	r0, [pc, #52]	@ (8001334 <HAL_UART_ErrorCallback+0x58>)
 80012fe:	f002 ffdc 	bl	80042ba <HAL_UART_Receive_IT>
    }
    else if (huart->Instance == USART1) {
        volatile uint32_t er = HAL_UART_GetError(huart);
        HAL_UART_Receive_IT(&huart1, &gps_rx_char, 1);
    }
}
 8001302:	e00e      	b.n	8001322 <HAL_UART_ErrorCallback+0x46>
    else if (huart->Instance == USART1) {
 8001304:	687b      	ldr	r3, [r7, #4]
 8001306:	681b      	ldr	r3, [r3, #0]
 8001308:	4a0b      	ldr	r2, [pc, #44]	@ (8001338 <HAL_UART_ErrorCallback+0x5c>)
 800130a:	4293      	cmp	r3, r2
 800130c:	d109      	bne.n	8001322 <HAL_UART_ErrorCallback+0x46>
        volatile uint32_t er = HAL_UART_GetError(huart);
 800130e:	6878      	ldr	r0, [r7, #4]
 8001310:	f003 fab8 	bl	8004884 <HAL_UART_GetError>
 8001314:	4603      	mov	r3, r0
 8001316:	60bb      	str	r3, [r7, #8]
        HAL_UART_Receive_IT(&huart1, &gps_rx_char, 1);
 8001318:	2201      	movs	r2, #1
 800131a:	4908      	ldr	r1, [pc, #32]	@ (800133c <HAL_UART_ErrorCallback+0x60>)
 800131c:	4808      	ldr	r0, [pc, #32]	@ (8001340 <HAL_UART_ErrorCallback+0x64>)
 800131e:	f002 ffcc 	bl	80042ba <HAL_UART_Receive_IT>
}
 8001322:	bf00      	nop
 8001324:	3710      	adds	r7, #16
 8001326:	46bd      	mov	sp, r7
 8001328:	bd80      	pop	{r7, pc}
 800132a:	bf00      	nop
 800132c:	40004400 	.word	0x40004400
 8001330:	200002f8 	.word	0x200002f8
 8001334:	20000290 	.word	0x20000290
 8001338:	40011000 	.word	0x40011000
 800133c:	2000030e 	.word	0x2000030e
 8001340:	20000248 	.word	0x20000248

08001344 <_write>:

// -------------------------------------------------------------------------
//  Standard Helper Functions (Init, Read, Parse)
// -------------------------------------------------------------------------
int _write(int file, char *ptr, int len) { HAL_UART_Transmit(&huart2, (uint8_t*)ptr, len, HAL_MAX_DELAY); return len; }
 8001344:	b580      	push	{r7, lr}
 8001346:	b084      	sub	sp, #16
 8001348:	af00      	add	r7, sp, #0
 800134a:	60f8      	str	r0, [r7, #12]
 800134c:	60b9      	str	r1, [r7, #8]
 800134e:	607a      	str	r2, [r7, #4]
 8001350:	687b      	ldr	r3, [r7, #4]
 8001352:	b29a      	uxth	r2, r3
 8001354:	f04f 33ff 	mov.w	r3, #4294967295
 8001358:	68b9      	ldr	r1, [r7, #8]
 800135a:	4804      	ldr	r0, [pc, #16]	@ (800136c <_write+0x28>)
 800135c:	f002 ff22 	bl	80041a4 <HAL_UART_Transmit>
 8001360:	687b      	ldr	r3, [r7, #4]
 8001362:	4618      	mov	r0, r3
 8001364:	3710      	adds	r7, #16
 8001366:	46bd      	mov	sp, r7
 8001368:	bd80      	pop	{r7, pc}
 800136a:	bf00      	nop
 800136c:	20000290 	.word	0x20000290

08001370 <MX_USART2_UART_Init>:

// --- Initialization Functions (With fixes) ---
static void MX_USART2_UART_Init(void) {
 8001370:	b580      	push	{r7, lr}
 8001372:	af00      	add	r7, sp, #0
  huart2.Instance = USART2;
 8001374:	4b15      	ldr	r3, [pc, #84]	@ (80013cc <MX_USART2_UART_Init+0x5c>)
 8001376:	4a16      	ldr	r2, [pc, #88]	@ (80013d0 <MX_USART2_UART_Init+0x60>)
 8001378:	601a      	str	r2, [r3, #0]
  huart2.Init.BaudRate = 115200;
 800137a:	4b14      	ldr	r3, [pc, #80]	@ (80013cc <MX_USART2_UART_Init+0x5c>)
 800137c:	f44f 32e1 	mov.w	r2, #115200	@ 0x1c200
 8001380:	605a      	str	r2, [r3, #4]
  huart2.Init.WordLength = UART_WORDLENGTH_8B;
 8001382:	4b12      	ldr	r3, [pc, #72]	@ (80013cc <MX_USART2_UART_Init+0x5c>)
 8001384:	2200      	movs	r2, #0
 8001386:	609a      	str	r2, [r3, #8]
  huart2.Init.StopBits = UART_STOPBITS_1;
 8001388:	4b10      	ldr	r3, [pc, #64]	@ (80013cc <MX_USART2_UART_Init+0x5c>)
 800138a:	2200      	movs	r2, #0
 800138c:	60da      	str	r2, [r3, #12]
  huart2.Init.Parity = UART_PARITY_NONE;
 800138e:	4b0f      	ldr	r3, [pc, #60]	@ (80013cc <MX_USART2_UART_Init+0x5c>)
 8001390:	2200      	movs	r2, #0
 8001392:	611a      	str	r2, [r3, #16]
  huart2.Init.Mode = UART_MODE_TX_RX;
 8001394:	4b0d      	ldr	r3, [pc, #52]	@ (80013cc <MX_USART2_UART_Init+0x5c>)
 8001396:	220c      	movs	r2, #12
 8001398:	615a      	str	r2, [r3, #20]
  huart2.Init.HwFlowCtl = UART_HWCONTROL_NONE;
 800139a:	4b0c      	ldr	r3, [pc, #48]	@ (80013cc <MX_USART2_UART_Init+0x5c>)
 800139c:	2200      	movs	r2, #0
 800139e:	619a      	str	r2, [r3, #24]
  huart2.Init.OverSampling = UART_OVERSAMPLING_16;
 80013a0:	4b0a      	ldr	r3, [pc, #40]	@ (80013cc <MX_USART2_UART_Init+0x5c>)
 80013a2:	2200      	movs	r2, #0
 80013a4:	61da      	str	r2, [r3, #28]

  // Init and Error Check
  if (HAL_UART_Init(&huart2) != HAL_OK) { Error_Handler(); }
 80013a6:	4809      	ldr	r0, [pc, #36]	@ (80013cc <MX_USART2_UART_Init+0x5c>)
 80013a8:	f002 feac 	bl	8004104 <HAL_UART_Init>
 80013ac:	4603      	mov	r3, r0
 80013ae:	2b00      	cmp	r3, #0
 80013b0:	d001      	beq.n	80013b6 <MX_USART2_UART_Init+0x46>
 80013b2:	f000 fc1f 	bl	8001bf4 <Error_Handler>

  // Manually Enable Interrupts
  HAL_NVIC_SetPriority(USART2_IRQn, 0, 0);
 80013b6:	2200      	movs	r2, #0
 80013b8:	2100      	movs	r1, #0
 80013ba:	2026      	movs	r0, #38	@ 0x26
 80013bc:	f000 ffa5 	bl	800230a <HAL_NVIC_SetPriority>
  HAL_NVIC_EnableIRQ(USART2_IRQn);
 80013c0:	2026      	movs	r0, #38	@ 0x26
 80013c2:	f000 ffbe 	bl	8002342 <HAL_NVIC_EnableIRQ>
}
 80013c6:	bf00      	nop
 80013c8:	bd80      	pop	{r7, pc}
 80013ca:	bf00      	nop
 80013cc:	20000290 	.word	0x20000290
 80013d0:	40004400 	.word	0x40004400

080013d4 <Parse_GGA_Generic>:

// --- Standard Functions (MPU, GPS, System) ---
void Parse_GGA_Generic(char* nmea) {
 80013d4:	b580      	push	{r7, lr}
 80013d6:	b08a      	sub	sp, #40	@ 0x28
 80013d8:	af00      	add	r7, sp, #0
 80013da:	6078      	str	r0, [r7, #4]
    char* current_pos = nmea; int field_index = 0;
 80013dc:	687b      	ldr	r3, [r7, #4]
 80013de:	627b      	str	r3, [r7, #36]	@ 0x24
 80013e0:	2300      	movs	r3, #0
 80013e2:	623b      	str	r3, [r7, #32]
    float t_lat = 0.0, t_lon = 0.0; int t_sats = 0, t_fix = 0;
 80013e4:	f04f 0300 	mov.w	r3, #0
 80013e8:	61fb      	str	r3, [r7, #28]
 80013ea:	f04f 0300 	mov.w	r3, #0
 80013ee:	61bb      	str	r3, [r7, #24]
 80013f0:	2300      	movs	r3, #0
 80013f2:	617b      	str	r3, [r7, #20]
 80013f4:	2300      	movs	r3, #0
 80013f6:	613b      	str	r3, [r7, #16]
    while (*current_pos != '\0') {
 80013f8:	e04d      	b.n	8001496 <Parse_GGA_Generic+0xc2>
        char* next_comma = strchr(current_pos, ','); if (next_comma != NULL) *next_comma = '\0';
 80013fa:	212c      	movs	r1, #44	@ 0x2c
 80013fc:	6a78      	ldr	r0, [r7, #36]	@ 0x24
 80013fe:	f005 fbf3 	bl	8006be8 <strchr>
 8001402:	60f8      	str	r0, [r7, #12]
 8001404:	68fb      	ldr	r3, [r7, #12]
 8001406:	2b00      	cmp	r3, #0
 8001408:	d002      	beq.n	8001410 <Parse_GGA_Generic+0x3c>
 800140a:	68fb      	ldr	r3, [r7, #12]
 800140c:	2200      	movs	r2, #0
 800140e:	701a      	strb	r2, [r3, #0]
        if (*current_pos != '\0') {
 8001410:	6a7b      	ldr	r3, [r7, #36]	@ 0x24
 8001412:	781b      	ldrb	r3, [r3, #0]
 8001414:	2b00      	cmp	r3, #0
 8001416:	d035      	beq.n	8001484 <Parse_GGA_Generic+0xb0>
            switch (field_index) {
 8001418:	6a3b      	ldr	r3, [r7, #32]
 800141a:	3b02      	subs	r3, #2
 800141c:	2b05      	cmp	r3, #5
 800141e:	d831      	bhi.n	8001484 <Parse_GGA_Generic+0xb0>
 8001420:	a201      	add	r2, pc, #4	@ (adr r2, 8001428 <Parse_GGA_Generic+0x54>)
 8001422:	f852 f023 	ldr.w	pc, [r2, r3, lsl #2]
 8001426:	bf00      	nop
 8001428:	08001441 	.word	0x08001441
 800142c:	08001485 	.word	0x08001485
 8001430:	08001459 	.word	0x08001459
 8001434:	08001485 	.word	0x08001485
 8001438:	08001471 	.word	0x08001471
 800143c:	0800147b 	.word	0x0800147b
                case 2: t_lat = atof(current_pos); break;
 8001440:	6a78      	ldr	r0, [r7, #36]	@ 0x24
 8001442:	f003 fecd 	bl	80051e0 <atof>
 8001446:	ec53 2b10 	vmov	r2, r3, d0
 800144a:	4610      	mov	r0, r2
 800144c:	4619      	mov	r1, r3
 800144e:	f7ff fbd3 	bl	8000bf8 <__aeabi_d2f>
 8001452:	4603      	mov	r3, r0
 8001454:	61fb      	str	r3, [r7, #28]
 8001456:	e015      	b.n	8001484 <Parse_GGA_Generic+0xb0>
                case 4: t_lon = atof(current_pos); break;
 8001458:	6a78      	ldr	r0, [r7, #36]	@ 0x24
 800145a:	f003 fec1 	bl	80051e0 <atof>
 800145e:	ec53 2b10 	vmov	r2, r3, d0
 8001462:	4610      	mov	r0, r2
 8001464:	4619      	mov	r1, r3
 8001466:	f7ff fbc7 	bl	8000bf8 <__aeabi_d2f>
 800146a:	4603      	mov	r3, r0
 800146c:	61bb      	str	r3, [r7, #24]
 800146e:	e009      	b.n	8001484 <Parse_GGA_Generic+0xb0>
                case 6: t_fix = atoi(current_pos); break;
 8001470:	6a78      	ldr	r0, [r7, #36]	@ 0x24
 8001472:	f003 feb8 	bl	80051e6 <atoi>
 8001476:	6138      	str	r0, [r7, #16]
 8001478:	e004      	b.n	8001484 <Parse_GGA_Generic+0xb0>
                case 7: t_sats = atoi(current_pos); break;
 800147a:	6a78      	ldr	r0, [r7, #36]	@ 0x24
 800147c:	f003 feb3 	bl	80051e6 <atoi>
 8001480:	6178      	str	r0, [r7, #20]
 8001482:	bf00      	nop
            }
        }
        if (next_comma == NULL) break; current_pos = next_comma + 1; field_index++;
 8001484:	68fb      	ldr	r3, [r7, #12]
 8001486:	2b00      	cmp	r3, #0
 8001488:	d00a      	beq.n	80014a0 <Parse_GGA_Generic+0xcc>
 800148a:	68fb      	ldr	r3, [r7, #12]
 800148c:	3301      	adds	r3, #1
 800148e:	627b      	str	r3, [r7, #36]	@ 0x24
 8001490:	6a3b      	ldr	r3, [r7, #32]
 8001492:	3301      	adds	r3, #1
 8001494:	623b      	str	r3, [r7, #32]
    while (*current_pos != '\0') {
 8001496:	6a7b      	ldr	r3, [r7, #36]	@ 0x24
 8001498:	781b      	ldrb	r3, [r3, #0]
 800149a:	2b00      	cmp	r3, #0
 800149c:	d1ad      	bne.n	80013fa <Parse_GGA_Generic+0x26>
 800149e:	e000      	b.n	80014a2 <Parse_GGA_Generic+0xce>
        if (next_comma == NULL) break; current_pos = next_comma + 1; field_index++;
 80014a0:	bf00      	nop
    }
    vehicleState.Latitude = t_lat; vehicleState.Longitude = t_lon;
 80014a2:	4a08      	ldr	r2, [pc, #32]	@ (80014c4 <Parse_GGA_Generic+0xf0>)
 80014a4:	69fb      	ldr	r3, [r7, #28]
 80014a6:	60d3      	str	r3, [r2, #12]
 80014a8:	4a06      	ldr	r2, [pc, #24]	@ (80014c4 <Parse_GGA_Generic+0xf0>)
 80014aa:	69bb      	ldr	r3, [r7, #24]
 80014ac:	6113      	str	r3, [r2, #16]
    vehicleState.FixStatus = t_fix; vehicleState.Satellites = t_sats;
 80014ae:	693b      	ldr	r3, [r7, #16]
 80014b0:	b2da      	uxtb	r2, r3
 80014b2:	4b04      	ldr	r3, [pc, #16]	@ (80014c4 <Parse_GGA_Generic+0xf0>)
 80014b4:	761a      	strb	r2, [r3, #24]
 80014b6:	4a03      	ldr	r2, [pc, #12]	@ (80014c4 <Parse_GGA_Generic+0xf0>)
 80014b8:	697b      	ldr	r3, [r7, #20]
 80014ba:	6153      	str	r3, [r2, #20]
}
 80014bc:	bf00      	nop
 80014be:	3728      	adds	r7, #40	@ 0x28
 80014c0:	46bd      	mov	sp, r7
 80014c2:	bd80      	pop	{r7, pc}
 80014c4:	200002d8 	.word	0x200002d8

080014c8 <MPU6050_Init>:

uint8_t MPU6050_Init(void) {
 80014c8:	b580      	push	{r7, lr}
 80014ca:	b086      	sub	sp, #24
 80014cc:	af04      	add	r7, sp, #16
    uint8_t check, data; HAL_I2C_Mem_Read(&hi2c1, MPU6050_ADDR, MPU_REG_WHO_AM_I, 1, &check, 1, 1000);
 80014ce:	f44f 737a 	mov.w	r3, #1000	@ 0x3e8
 80014d2:	9302      	str	r3, [sp, #8]
 80014d4:	2301      	movs	r3, #1
 80014d6:	9301      	str	r3, [sp, #4]
 80014d8:	1dfb      	adds	r3, r7, #7
 80014da:	9300      	str	r3, [sp, #0]
 80014dc:	2301      	movs	r3, #1
 80014de:	2275      	movs	r2, #117	@ 0x75
 80014e0:	21d0      	movs	r1, #208	@ 0xd0
 80014e2:	481d      	ldr	r0, [pc, #116]	@ (8001558 <MPU6050_Init+0x90>)
 80014e4:	f001 fbd0 	bl	8002c88 <HAL_I2C_Mem_Read>
    if (check == 0x68) {
 80014e8:	79fb      	ldrb	r3, [r7, #7]
 80014ea:	2b68      	cmp	r3, #104	@ 0x68
 80014ec:	d12e      	bne.n	800154c <MPU6050_Init+0x84>
        data = 0x00; HAL_I2C_Mem_Write(&hi2c1, MPU6050_ADDR, MPU_REG_PWR_MGMT_1, 1, &data, 1, 1000);
 80014ee:	2300      	movs	r3, #0
 80014f0:	71bb      	strb	r3, [r7, #6]
 80014f2:	f44f 737a 	mov.w	r3, #1000	@ 0x3e8
 80014f6:	9302      	str	r3, [sp, #8]
 80014f8:	2301      	movs	r3, #1
 80014fa:	9301      	str	r3, [sp, #4]
 80014fc:	1dbb      	adds	r3, r7, #6
 80014fe:	9300      	str	r3, [sp, #0]
 8001500:	2301      	movs	r3, #1
 8001502:	226b      	movs	r2, #107	@ 0x6b
 8001504:	21d0      	movs	r1, #208	@ 0xd0
 8001506:	4814      	ldr	r0, [pc, #80]	@ (8001558 <MPU6050_Init+0x90>)
 8001508:	f001 fac4 	bl	8002a94 <HAL_I2C_Mem_Write>
        data = 0x18; HAL_I2C_Mem_Write(&hi2c1, MPU6050_ADDR, MPU_REG_GYRO_CONFIG, 1, &data, 1, 1000);
 800150c:	2318      	movs	r3, #24
 800150e:	71bb      	strb	r3, [r7, #6]
 8001510:	f44f 737a 	mov.w	r3, #1000	@ 0x3e8
 8001514:	9302      	str	r3, [sp, #8]
 8001516:	2301      	movs	r3, #1
 8001518:	9301      	str	r3, [sp, #4]
 800151a:	1dbb      	adds	r3, r7, #6
 800151c:	9300      	str	r3, [sp, #0]
 800151e:	2301      	movs	r3, #1
 8001520:	221b      	movs	r2, #27
 8001522:	21d0      	movs	r1, #208	@ 0xd0
 8001524:	480c      	ldr	r0, [pc, #48]	@ (8001558 <MPU6050_Init+0x90>)
 8001526:	f001 fab5 	bl	8002a94 <HAL_I2C_Mem_Write>
        data = 0x18; HAL_I2C_Mem_Write(&hi2c1, MPU6050_ADDR, MPU_REG_ACCEL_CONFIG, 1, &data, 1, 1000);
 800152a:	2318      	movs	r3, #24
 800152c:	71bb      	strb	r3, [r7, #6]
 800152e:	f44f 737a 	mov.w	r3, #1000	@ 0x3e8
 8001532:	9302      	str	r3, [sp, #8]
 8001534:	2301      	movs	r3, #1
 8001536:	9301      	str	r3, [sp, #4]
 8001538:	1dbb      	adds	r3, r7, #6
 800153a:	9300      	str	r3, [sp, #0]
 800153c:	2301      	movs	r3, #1
 800153e:	221c      	movs	r2, #28
 8001540:	21d0      	movs	r1, #208	@ 0xd0
 8001542:	4805      	ldr	r0, [pc, #20]	@ (8001558 <MPU6050_Init+0x90>)
 8001544:	f001 faa6 	bl	8002a94 <HAL_I2C_Mem_Write>
        return 0;
 8001548:	2300      	movs	r3, #0
 800154a:	e000      	b.n	800154e <MPU6050_Init+0x86>
    } return 1;
 800154c:	2301      	movs	r3, #1
}
 800154e:	4618      	mov	r0, r3
 8001550:	3708      	adds	r7, #8
 8001552:	46bd      	mov	sp, r7
 8001554:	bd80      	pop	{r7, pc}
 8001556:	bf00      	nop
 8001558:	200001f4 	.word	0x200001f4

0800155c <MPU6050_Calibrate>:

void MPU6050_Calibrate(void) {
 800155c:	b580      	push	{r7, lr}
 800155e:	b092      	sub	sp, #72	@ 0x48
 8001560:	af04      	add	r7, sp, #16
    int32_t Aa[3]={0}, Ag[3]={0}; uint8_t Rec[14];
 8001562:	f107 0320 	add.w	r3, r7, #32
 8001566:	2200      	movs	r2, #0
 8001568:	601a      	str	r2, [r3, #0]
 800156a:	605a      	str	r2, [r3, #4]
 800156c:	609a      	str	r2, [r3, #8]
 800156e:	f107 0314 	add.w	r3, r7, #20
 8001572:	2200      	movs	r2, #0
 8001574:	601a      	str	r2, [r3, #0]
 8001576:	605a      	str	r2, [r3, #4]
 8001578:	609a      	str	r2, [r3, #8]
    for(int i=0; i<1000; i++) {
 800157a:	2300      	movs	r3, #0
 800157c:	637b      	str	r3, [r7, #52]	@ 0x34
 800157e:	e054      	b.n	800162a <MPU6050_Calibrate+0xce>
        HAL_I2C_Mem_Read(&hi2c1, MPU6050_ADDR, MPU_REG_ACCEL_XOUT_H, 1, Rec, 14, 1000);
 8001580:	f44f 737a 	mov.w	r3, #1000	@ 0x3e8
 8001584:	9302      	str	r3, [sp, #8]
 8001586:	230e      	movs	r3, #14
 8001588:	9301      	str	r3, [sp, #4]
 800158a:	1d3b      	adds	r3, r7, #4
 800158c:	9300      	str	r3, [sp, #0]
 800158e:	2301      	movs	r3, #1
 8001590:	223b      	movs	r2, #59	@ 0x3b
 8001592:	21d0      	movs	r1, #208	@ 0xd0
 8001594:	4891      	ldr	r0, [pc, #580]	@ (80017dc <MPU6050_Calibrate+0x280>)
 8001596:	f001 fb77 	bl	8002c88 <HAL_I2C_Mem_Read>
        Aa[0]+=(int16_t)(Rec[0]<<8|Rec[1]); Aa[1]+=(int16_t)(Rec[2]<<8|Rec[3]); Aa[2]+=(int16_t)(Rec[4]<<8|Rec[5]);
 800159a:	6a3b      	ldr	r3, [r7, #32]
 800159c:	793a      	ldrb	r2, [r7, #4]
 800159e:	b212      	sxth	r2, r2
 80015a0:	0212      	lsls	r2, r2, #8
 80015a2:	b211      	sxth	r1, r2
 80015a4:	797a      	ldrb	r2, [r7, #5]
 80015a6:	b212      	sxth	r2, r2
 80015a8:	430a      	orrs	r2, r1
 80015aa:	b212      	sxth	r2, r2
 80015ac:	4413      	add	r3, r2
 80015ae:	623b      	str	r3, [r7, #32]
 80015b0:	6a7b      	ldr	r3, [r7, #36]	@ 0x24
 80015b2:	79ba      	ldrb	r2, [r7, #6]
 80015b4:	b212      	sxth	r2, r2
 80015b6:	0212      	lsls	r2, r2, #8
 80015b8:	b211      	sxth	r1, r2
 80015ba:	79fa      	ldrb	r2, [r7, #7]
 80015bc:	b212      	sxth	r2, r2
 80015be:	430a      	orrs	r2, r1
 80015c0:	b212      	sxth	r2, r2
 80015c2:	4413      	add	r3, r2
 80015c4:	627b      	str	r3, [r7, #36]	@ 0x24
 80015c6:	6abb      	ldr	r3, [r7, #40]	@ 0x28
 80015c8:	7a3a      	ldrb	r2, [r7, #8]
 80015ca:	b212      	sxth	r2, r2
 80015cc:	0212      	lsls	r2, r2, #8
 80015ce:	b211      	sxth	r1, r2
 80015d0:	7a7a      	ldrb	r2, [r7, #9]
 80015d2:	b212      	sxth	r2, r2
 80015d4:	430a      	orrs	r2, r1
 80015d6:	b212      	sxth	r2, r2
 80015d8:	4413      	add	r3, r2
 80015da:	62bb      	str	r3, [r7, #40]	@ 0x28
        Ag[0]+=(int16_t)(Rec[8]<<8|Rec[9]); Ag[1]+=(int16_t)(Rec[10]<<8|Rec[11]); Ag[2]+=(int16_t)(Rec[12]<<8|Rec[13]);
 80015dc:	697b      	ldr	r3, [r7, #20]
 80015de:	7b3a      	ldrb	r2, [r7, #12]
 80015e0:	b212      	sxth	r2, r2
 80015e2:	0212      	lsls	r2, r2, #8
 80015e4:	b211      	sxth	r1, r2
 80015e6:	7b7a      	ldrb	r2, [r7, #13]
 80015e8:	b212      	sxth	r2, r2
 80015ea:	430a      	orrs	r2, r1
 80015ec:	b212      	sxth	r2, r2
 80015ee:	4413      	add	r3, r2
 80015f0:	617b      	str	r3, [r7, #20]
 80015f2:	69bb      	ldr	r3, [r7, #24]
 80015f4:	7bba      	ldrb	r2, [r7, #14]
 80015f6:	b212      	sxth	r2, r2
 80015f8:	0212      	lsls	r2, r2, #8
 80015fa:	b211      	sxth	r1, r2
 80015fc:	7bfa      	ldrb	r2, [r7, #15]
 80015fe:	b212      	sxth	r2, r2
 8001600:	430a      	orrs	r2, r1
 8001602:	b212      	sxth	r2, r2
 8001604:	4413      	add	r3, r2
 8001606:	61bb      	str	r3, [r7, #24]
 8001608:	69fb      	ldr	r3, [r7, #28]
 800160a:	7c3a      	ldrb	r2, [r7, #16]
 800160c:	b212      	sxth	r2, r2
 800160e:	0212      	lsls	r2, r2, #8
 8001610:	b211      	sxth	r1, r2
 8001612:	7c7a      	ldrb	r2, [r7, #17]
 8001614:	b212      	sxth	r2, r2
 8001616:	430a      	orrs	r2, r1
 8001618:	b212      	sxth	r2, r2
 800161a:	4413      	add	r3, r2
 800161c:	61fb      	str	r3, [r7, #28]
        HAL_Delay(1);
 800161e:	2001      	movs	r0, #1
 8001620:	f000 fd74 	bl	800210c <HAL_Delay>
    for(int i=0; i<1000; i++) {
 8001624:	6b7b      	ldr	r3, [r7, #52]	@ 0x34
 8001626:	3301      	adds	r3, #1
 8001628:	637b      	str	r3, [r7, #52]	@ 0x34
 800162a:	6b7b      	ldr	r3, [r7, #52]	@ 0x34
 800162c:	f5b3 7f7a 	cmp.w	r3, #1000	@ 0x3e8
 8001630:	dba6      	blt.n	8001580 <MPU6050_Calibrate+0x24>
    }
    int16_t AvgX=Aa[0]/1000, AvgY=Aa[1]/1000, AvgZ=Aa[2]/1000;
 8001632:	6a3b      	ldr	r3, [r7, #32]
 8001634:	4a6a      	ldr	r2, [pc, #424]	@ (80017e0 <MPU6050_Calibrate+0x284>)
 8001636:	fb82 1203 	smull	r1, r2, r2, r3
 800163a:	1192      	asrs	r2, r2, #6
 800163c:	17db      	asrs	r3, r3, #31
 800163e:	1ad3      	subs	r3, r2, r3
 8001640:	867b      	strh	r3, [r7, #50]	@ 0x32
 8001642:	6a7b      	ldr	r3, [r7, #36]	@ 0x24
 8001644:	4a66      	ldr	r2, [pc, #408]	@ (80017e0 <MPU6050_Calibrate+0x284>)
 8001646:	fb82 1203 	smull	r1, r2, r2, r3
 800164a:	1192      	asrs	r2, r2, #6
 800164c:	17db      	asrs	r3, r3, #31
 800164e:	1ad3      	subs	r3, r2, r3
 8001650:	863b      	strh	r3, [r7, #48]	@ 0x30
 8001652:	6abb      	ldr	r3, [r7, #40]	@ 0x28
 8001654:	4a62      	ldr	r2, [pc, #392]	@ (80017e0 <MPU6050_Calibrate+0x284>)
 8001656:	fb82 1203 	smull	r1, r2, r2, r3
 800165a:	1192      	asrs	r2, r2, #6
 800165c:	17db      	asrs	r3, r3, #31
 800165e:	1ad3      	subs	r3, r2, r3
 8001660:	85fb      	strh	r3, [r7, #46]	@ 0x2e
    if(abs(AvgX)>abs(AvgY)&&abs(AvgX)>abs(AvgZ)){Vertical_Axis=0;Vertical_Sign=(AvgX>0)?1:-1;}
 8001662:	f9b7 3032 	ldrsh.w	r3, [r7, #50]	@ 0x32
 8001666:	2b00      	cmp	r3, #0
 8001668:	bfb8      	it	lt
 800166a:	425b      	neglt	r3, r3
 800166c:	b29a      	uxth	r2, r3
 800166e:	f9b7 3030 	ldrsh.w	r3, [r7, #48]	@ 0x30
 8001672:	2b00      	cmp	r3, #0
 8001674:	bfb8      	it	lt
 8001676:	425b      	neglt	r3, r3
 8001678:	b29b      	uxth	r3, r3
 800167a:	429a      	cmp	r2, r3
 800167c:	d91b      	bls.n	80016b6 <MPU6050_Calibrate+0x15a>
 800167e:	f9b7 3032 	ldrsh.w	r3, [r7, #50]	@ 0x32
 8001682:	2b00      	cmp	r3, #0
 8001684:	bfb8      	it	lt
 8001686:	425b      	neglt	r3, r3
 8001688:	b29a      	uxth	r2, r3
 800168a:	f9b7 302e 	ldrsh.w	r3, [r7, #46]	@ 0x2e
 800168e:	2b00      	cmp	r3, #0
 8001690:	bfb8      	it	lt
 8001692:	425b      	neglt	r3, r3
 8001694:	b29b      	uxth	r3, r3
 8001696:	429a      	cmp	r2, r3
 8001698:	d90d      	bls.n	80016b6 <MPU6050_Calibrate+0x15a>
 800169a:	4b52      	ldr	r3, [pc, #328]	@ (80017e4 <MPU6050_Calibrate+0x288>)
 800169c:	2200      	movs	r2, #0
 800169e:	701a      	strb	r2, [r3, #0]
 80016a0:	f9b7 3032 	ldrsh.w	r3, [r7, #50]	@ 0x32
 80016a4:	2b00      	cmp	r3, #0
 80016a6:	dd01      	ble.n	80016ac <MPU6050_Calibrate+0x150>
 80016a8:	2201      	movs	r2, #1
 80016aa:	e001      	b.n	80016b0 <MPU6050_Calibrate+0x154>
 80016ac:	f04f 32ff 	mov.w	r2, #4294967295
 80016b0:	4b4d      	ldr	r3, [pc, #308]	@ (80017e8 <MPU6050_Calibrate+0x28c>)
 80016b2:	701a      	strb	r2, [r3, #0]
 80016b4:	e036      	b.n	8001724 <MPU6050_Calibrate+0x1c8>
    else if(abs(AvgY)>abs(AvgX)&&abs(AvgY)>abs(AvgZ)){Vertical_Axis=1;Vertical_Sign=(AvgY>0)?1:-1;}
 80016b6:	f9b7 3030 	ldrsh.w	r3, [r7, #48]	@ 0x30
 80016ba:	2b00      	cmp	r3, #0
 80016bc:	bfb8      	it	lt
 80016be:	425b      	neglt	r3, r3
 80016c0:	b29a      	uxth	r2, r3
 80016c2:	f9b7 3032 	ldrsh.w	r3, [r7, #50]	@ 0x32
 80016c6:	2b00      	cmp	r3, #0
 80016c8:	bfb8      	it	lt
 80016ca:	425b      	neglt	r3, r3
 80016cc:	b29b      	uxth	r3, r3
 80016ce:	429a      	cmp	r2, r3
 80016d0:	d91b      	bls.n	800170a <MPU6050_Calibrate+0x1ae>
 80016d2:	f9b7 3030 	ldrsh.w	r3, [r7, #48]	@ 0x30
 80016d6:	2b00      	cmp	r3, #0
 80016d8:	bfb8      	it	lt
 80016da:	425b      	neglt	r3, r3
 80016dc:	b29a      	uxth	r2, r3
 80016de:	f9b7 302e 	ldrsh.w	r3, [r7, #46]	@ 0x2e
 80016e2:	2b00      	cmp	r3, #0
 80016e4:	bfb8      	it	lt
 80016e6:	425b      	neglt	r3, r3
 80016e8:	b29b      	uxth	r3, r3
 80016ea:	429a      	cmp	r2, r3
 80016ec:	d90d      	bls.n	800170a <MPU6050_Calibrate+0x1ae>
 80016ee:	4b3d      	ldr	r3, [pc, #244]	@ (80017e4 <MPU6050_Calibrate+0x288>)
 80016f0:	2201      	movs	r2, #1
 80016f2:	701a      	strb	r2, [r3, #0]
 80016f4:	f9b7 3030 	ldrsh.w	r3, [r7, #48]	@ 0x30
 80016f8:	2b00      	cmp	r3, #0
 80016fa:	dd01      	ble.n	8001700 <MPU6050_Calibrate+0x1a4>
 80016fc:	2201      	movs	r2, #1
 80016fe:	e001      	b.n	8001704 <MPU6050_Calibrate+0x1a8>
 8001700:	f04f 32ff 	mov.w	r2, #4294967295
 8001704:	4b38      	ldr	r3, [pc, #224]	@ (80017e8 <MPU6050_Calibrate+0x28c>)
 8001706:	701a      	strb	r2, [r3, #0]
 8001708:	e00c      	b.n	8001724 <MPU6050_Calibrate+0x1c8>
    else{Vertical_Axis=2;Vertical_Sign=(AvgZ>0)?1:-1;}
 800170a:	4b36      	ldr	r3, [pc, #216]	@ (80017e4 <MPU6050_Calibrate+0x288>)
 800170c:	2202      	movs	r2, #2
 800170e:	701a      	strb	r2, [r3, #0]
 8001710:	f9b7 302e 	ldrsh.w	r3, [r7, #46]	@ 0x2e
 8001714:	2b00      	cmp	r3, #0
 8001716:	dd01      	ble.n	800171c <MPU6050_Calibrate+0x1c0>
 8001718:	2201      	movs	r2, #1
 800171a:	e001      	b.n	8001720 <MPU6050_Calibrate+0x1c4>
 800171c:	f04f 32ff 	mov.w	r2, #4294967295
 8001720:	4b31      	ldr	r3, [pc, #196]	@ (80017e8 <MPU6050_Calibrate+0x28c>)
 8001722:	701a      	strb	r2, [r3, #0]
    GyroX_Offset=Ag[0]/1000; GyroY_Offset=Ag[1]/1000; GyroZ_Offset=Ag[2]/1000;
 8001724:	697b      	ldr	r3, [r7, #20]
 8001726:	4a2e      	ldr	r2, [pc, #184]	@ (80017e0 <MPU6050_Calibrate+0x284>)
 8001728:	fb82 1203 	smull	r1, r2, r2, r3
 800172c:	1192      	asrs	r2, r2, #6
 800172e:	17db      	asrs	r3, r3, #31
 8001730:	1ad3      	subs	r3, r2, r3
 8001732:	b21a      	sxth	r2, r3
 8001734:	4b2d      	ldr	r3, [pc, #180]	@ (80017ec <MPU6050_Calibrate+0x290>)
 8001736:	801a      	strh	r2, [r3, #0]
 8001738:	69bb      	ldr	r3, [r7, #24]
 800173a:	4a29      	ldr	r2, [pc, #164]	@ (80017e0 <MPU6050_Calibrate+0x284>)
 800173c:	fb82 1203 	smull	r1, r2, r2, r3
 8001740:	1192      	asrs	r2, r2, #6
 8001742:	17db      	asrs	r3, r3, #31
 8001744:	1ad3      	subs	r3, r2, r3
 8001746:	b21a      	sxth	r2, r3
 8001748:	4b29      	ldr	r3, [pc, #164]	@ (80017f0 <MPU6050_Calibrate+0x294>)
 800174a:	801a      	strh	r2, [r3, #0]
 800174c:	69fb      	ldr	r3, [r7, #28]
 800174e:	4a24      	ldr	r2, [pc, #144]	@ (80017e0 <MPU6050_Calibrate+0x284>)
 8001750:	fb82 1203 	smull	r1, r2, r2, r3
 8001754:	1192      	asrs	r2, r2, #6
 8001756:	17db      	asrs	r3, r3, #31
 8001758:	1ad3      	subs	r3, r2, r3
 800175a:	b21a      	sxth	r2, r3
 800175c:	4b25      	ldr	r3, [pc, #148]	@ (80017f4 <MPU6050_Calibrate+0x298>)
 800175e:	801a      	strh	r2, [r3, #0]
    int16_t gRaw=MPU_1G_RAW*Vertical_Sign;
 8001760:	4b21      	ldr	r3, [pc, #132]	@ (80017e8 <MPU6050_Calibrate+0x28c>)
 8001762:	f993 3000 	ldrsb.w	r3, [r3]
 8001766:	b29b      	uxth	r3, r3
 8001768:	02db      	lsls	r3, r3, #11
 800176a:	b29b      	uxth	r3, r3
 800176c:	85bb      	strh	r3, [r7, #44]	@ 0x2c
    AccX_Offset=AvgX; AccY_Offset=AvgY; AccZ_Offset=AvgZ;
 800176e:	4a22      	ldr	r2, [pc, #136]	@ (80017f8 <MPU6050_Calibrate+0x29c>)
 8001770:	8e7b      	ldrh	r3, [r7, #50]	@ 0x32
 8001772:	8013      	strh	r3, [r2, #0]
 8001774:	4a21      	ldr	r2, [pc, #132]	@ (80017fc <MPU6050_Calibrate+0x2a0>)
 8001776:	8e3b      	ldrh	r3, [r7, #48]	@ 0x30
 8001778:	8013      	strh	r3, [r2, #0]
 800177a:	4a21      	ldr	r2, [pc, #132]	@ (8001800 <MPU6050_Calibrate+0x2a4>)
 800177c:	8dfb      	ldrh	r3, [r7, #46]	@ 0x2e
 800177e:	8013      	strh	r3, [r2, #0]
    if(Vertical_Axis==0)AccX_Offset-=gRaw; if(Vertical_Axis==1)AccY_Offset-=gRaw; if(Vertical_Axis==2)AccZ_Offset-=gRaw;
 8001780:	4b18      	ldr	r3, [pc, #96]	@ (80017e4 <MPU6050_Calibrate+0x288>)
 8001782:	781b      	ldrb	r3, [r3, #0]
 8001784:	2b00      	cmp	r3, #0
 8001786:	d109      	bne.n	800179c <MPU6050_Calibrate+0x240>
 8001788:	4b1b      	ldr	r3, [pc, #108]	@ (80017f8 <MPU6050_Calibrate+0x29c>)
 800178a:	f9b3 3000 	ldrsh.w	r3, [r3]
 800178e:	b29a      	uxth	r2, r3
 8001790:	8dbb      	ldrh	r3, [r7, #44]	@ 0x2c
 8001792:	1ad3      	subs	r3, r2, r3
 8001794:	b29b      	uxth	r3, r3
 8001796:	b21a      	sxth	r2, r3
 8001798:	4b17      	ldr	r3, [pc, #92]	@ (80017f8 <MPU6050_Calibrate+0x29c>)
 800179a:	801a      	strh	r2, [r3, #0]
 800179c:	4b11      	ldr	r3, [pc, #68]	@ (80017e4 <MPU6050_Calibrate+0x288>)
 800179e:	781b      	ldrb	r3, [r3, #0]
 80017a0:	2b01      	cmp	r3, #1
 80017a2:	d109      	bne.n	80017b8 <MPU6050_Calibrate+0x25c>
 80017a4:	4b15      	ldr	r3, [pc, #84]	@ (80017fc <MPU6050_Calibrate+0x2a0>)
 80017a6:	f9b3 3000 	ldrsh.w	r3, [r3]
 80017aa:	b29a      	uxth	r2, r3
 80017ac:	8dbb      	ldrh	r3, [r7, #44]	@ 0x2c
 80017ae:	1ad3      	subs	r3, r2, r3
 80017b0:	b29b      	uxth	r3, r3
 80017b2:	b21a      	sxth	r2, r3
 80017b4:	4b11      	ldr	r3, [pc, #68]	@ (80017fc <MPU6050_Calibrate+0x2a0>)
 80017b6:	801a      	strh	r2, [r3, #0]
 80017b8:	4b0a      	ldr	r3, [pc, #40]	@ (80017e4 <MPU6050_Calibrate+0x288>)
 80017ba:	781b      	ldrb	r3, [r3, #0]
 80017bc:	2b02      	cmp	r3, #2
 80017be:	d109      	bne.n	80017d4 <MPU6050_Calibrate+0x278>
 80017c0:	4b0f      	ldr	r3, [pc, #60]	@ (8001800 <MPU6050_Calibrate+0x2a4>)
 80017c2:	f9b3 3000 	ldrsh.w	r3, [r3]
 80017c6:	b29a      	uxth	r2, r3
 80017c8:	8dbb      	ldrh	r3, [r7, #44]	@ 0x2c
 80017ca:	1ad3      	subs	r3, r2, r3
 80017cc:	b29b      	uxth	r3, r3
 80017ce:	b21a      	sxth	r2, r3
 80017d0:	4b0b      	ldr	r3, [pc, #44]	@ (8001800 <MPU6050_Calibrate+0x2a4>)
 80017d2:	801a      	strh	r2, [r3, #0]
}
 80017d4:	bf00      	nop
 80017d6:	3738      	adds	r7, #56	@ 0x38
 80017d8:	46bd      	mov	sp, r7
 80017da:	bd80      	pop	{r7, pc}
 80017dc:	200001f4 	.word	0x200001f4
 80017e0:	10624dd3 	.word	0x10624dd3
 80017e4:	20000000 	.word	0x20000000
 80017e8:	20000001 	.word	0x20000001
 80017ec:	20000308 	.word	0x20000308
 80017f0:	2000030a 	.word	0x2000030a
 80017f4:	2000030c 	.word	0x2000030c
 80017f8:	20000302 	.word	0x20000302
 80017fc:	20000304 	.word	0x20000304
 8001800:	20000306 	.word	0x20000306

08001804 <MPU6050_Read_AccelGyro>:

void MPU6050_Read_AccelGyro(void) {
 8001804:	b580      	push	{r7, lr}
 8001806:	b08c      	sub	sp, #48	@ 0x30
 8001808:	af04      	add	r7, sp, #16
    uint8_t Rec[14]; HAL_I2C_Mem_Read(&hi2c1, MPU6050_ADDR, MPU_REG_ACCEL_XOUT_H, 1, Rec, 14, 1000);
 800180a:	f44f 737a 	mov.w	r3, #1000	@ 0x3e8
 800180e:	9302      	str	r3, [sp, #8]
 8001810:	230e      	movs	r3, #14
 8001812:	9301      	str	r3, [sp, #4]
 8001814:	1d3b      	adds	r3, r7, #4
 8001816:	9300      	str	r3, [sp, #0]
 8001818:	2301      	movs	r3, #1
 800181a:	223b      	movs	r2, #59	@ 0x3b
 800181c:	21d0      	movs	r1, #208	@ 0xd0
 800181e:	486b      	ldr	r0, [pc, #428]	@ (80019cc <MPU6050_Read_AccelGyro+0x1c8>)
 8001820:	f001 fa32 	bl	8002c88 <HAL_I2C_Mem_Read>
    int16_t rX=(int16_t)(Rec[0]<<8|Rec[1]), rY=(int16_t)(Rec[2]<<8|Rec[3]), rZ=(int16_t)(Rec[4]<<8|Rec[5]);
 8001824:	793b      	ldrb	r3, [r7, #4]
 8001826:	b21b      	sxth	r3, r3
 8001828:	021b      	lsls	r3, r3, #8
 800182a:	b21a      	sxth	r2, r3
 800182c:	797b      	ldrb	r3, [r7, #5]
 800182e:	b21b      	sxth	r3, r3
 8001830:	4313      	orrs	r3, r2
 8001832:	83fb      	strh	r3, [r7, #30]
 8001834:	79bb      	ldrb	r3, [r7, #6]
 8001836:	b21b      	sxth	r3, r3
 8001838:	021b      	lsls	r3, r3, #8
 800183a:	b21a      	sxth	r2, r3
 800183c:	79fb      	ldrb	r3, [r7, #7]
 800183e:	b21b      	sxth	r3, r3
 8001840:	4313      	orrs	r3, r2
 8001842:	83bb      	strh	r3, [r7, #28]
 8001844:	7a3b      	ldrb	r3, [r7, #8]
 8001846:	b21b      	sxth	r3, r3
 8001848:	021b      	lsls	r3, r3, #8
 800184a:	b21a      	sxth	r2, r3
 800184c:	7a7b      	ldrb	r3, [r7, #9]
 800184e:	b21b      	sxth	r3, r3
 8001850:	4313      	orrs	r3, r2
 8001852:	837b      	strh	r3, [r7, #26]
    int16_t rGx=(int16_t)(Rec[8]<<8|Rec[9]), rGy=(int16_t)(Rec[10]<<8|Rec[11]), rGz=(int16_t)(Rec[12]<<8|Rec[13]);
 8001854:	7b3b      	ldrb	r3, [r7, #12]
 8001856:	b21b      	sxth	r3, r3
 8001858:	021b      	lsls	r3, r3, #8
 800185a:	b21a      	sxth	r2, r3
 800185c:	7b7b      	ldrb	r3, [r7, #13]
 800185e:	b21b      	sxth	r3, r3
 8001860:	4313      	orrs	r3, r2
 8001862:	833b      	strh	r3, [r7, #24]
 8001864:	7bbb      	ldrb	r3, [r7, #14]
 8001866:	b21b      	sxth	r3, r3
 8001868:	021b      	lsls	r3, r3, #8
 800186a:	b21a      	sxth	r2, r3
 800186c:	7bfb      	ldrb	r3, [r7, #15]
 800186e:	b21b      	sxth	r3, r3
 8001870:	4313      	orrs	r3, r2
 8001872:	82fb      	strh	r3, [r7, #22]
 8001874:	7c3b      	ldrb	r3, [r7, #16]
 8001876:	b21b      	sxth	r3, r3
 8001878:	021b      	lsls	r3, r3, #8
 800187a:	b21a      	sxth	r2, r3
 800187c:	7c7b      	ldrb	r3, [r7, #17]
 800187e:	b21b      	sxth	r3, r3
 8001880:	4313      	orrs	r3, r2
 8001882:	82bb      	strh	r3, [r7, #20]
    rX-=AccX_Offset; rY-=AccY_Offset; rZ-=AccZ_Offset; rGx-=GyroX_Offset; rGy-=GyroY_Offset; rGz-=GyroZ_Offset;
 8001884:	8bfa      	ldrh	r2, [r7, #30]
 8001886:	4b52      	ldr	r3, [pc, #328]	@ (80019d0 <MPU6050_Read_AccelGyro+0x1cc>)
 8001888:	f9b3 3000 	ldrsh.w	r3, [r3]
 800188c:	b29b      	uxth	r3, r3
 800188e:	1ad3      	subs	r3, r2, r3
 8001890:	b29b      	uxth	r3, r3
 8001892:	83fb      	strh	r3, [r7, #30]
 8001894:	8bba      	ldrh	r2, [r7, #28]
 8001896:	4b4f      	ldr	r3, [pc, #316]	@ (80019d4 <MPU6050_Read_AccelGyro+0x1d0>)
 8001898:	f9b3 3000 	ldrsh.w	r3, [r3]
 800189c:	b29b      	uxth	r3, r3
 800189e:	1ad3      	subs	r3, r2, r3
 80018a0:	b29b      	uxth	r3, r3
 80018a2:	83bb      	strh	r3, [r7, #28]
 80018a4:	8b7a      	ldrh	r2, [r7, #26]
 80018a6:	4b4c      	ldr	r3, [pc, #304]	@ (80019d8 <MPU6050_Read_AccelGyro+0x1d4>)
 80018a8:	f9b3 3000 	ldrsh.w	r3, [r3]
 80018ac:	b29b      	uxth	r3, r3
 80018ae:	1ad3      	subs	r3, r2, r3
 80018b0:	b29b      	uxth	r3, r3
 80018b2:	837b      	strh	r3, [r7, #26]
 80018b4:	8b3a      	ldrh	r2, [r7, #24]
 80018b6:	4b49      	ldr	r3, [pc, #292]	@ (80019dc <MPU6050_Read_AccelGyro+0x1d8>)
 80018b8:	f9b3 3000 	ldrsh.w	r3, [r3]
 80018bc:	b29b      	uxth	r3, r3
 80018be:	1ad3      	subs	r3, r2, r3
 80018c0:	b29b      	uxth	r3, r3
 80018c2:	833b      	strh	r3, [r7, #24]
 80018c4:	8afa      	ldrh	r2, [r7, #22]
 80018c6:	4b46      	ldr	r3, [pc, #280]	@ (80019e0 <MPU6050_Read_AccelGyro+0x1dc>)
 80018c8:	f9b3 3000 	ldrsh.w	r3, [r3]
 80018cc:	b29b      	uxth	r3, r3
 80018ce:	1ad3      	subs	r3, r2, r3
 80018d0:	b29b      	uxth	r3, r3
 80018d2:	82fb      	strh	r3, [r7, #22]
 80018d4:	8aba      	ldrh	r2, [r7, #20]
 80018d6:	4b43      	ldr	r3, [pc, #268]	@ (80019e4 <MPU6050_Read_AccelGyro+0x1e0>)
 80018d8:	f9b3 3000 	ldrsh.w	r3, [r3]
 80018dc:	b29b      	uxth	r3, r3
 80018de:	1ad3      	subs	r3, r2, r3
 80018e0:	b29b      	uxth	r3, r3
 80018e2:	82bb      	strh	r3, [r7, #20]
    if(Vertical_Axis==0){vehicleState.AccZ=rX*Vertical_Sign;vehicleState.AccY=rY;vehicleState.AccX=rZ; vehicleState.GyroZ=rGx*Vertical_Sign;vehicleState.GyroY=rGy;vehicleState.GyroX=rGz;}
 80018e4:	4b40      	ldr	r3, [pc, #256]	@ (80019e8 <MPU6050_Read_AccelGyro+0x1e4>)
 80018e6:	781b      	ldrb	r3, [r3, #0]
 80018e8:	2b00      	cmp	r3, #0
 80018ea:	d122      	bne.n	8001932 <MPU6050_Read_AccelGyro+0x12e>
 80018ec:	4b3f      	ldr	r3, [pc, #252]	@ (80019ec <MPU6050_Read_AccelGyro+0x1e8>)
 80018ee:	f993 3000 	ldrsb.w	r3, [r3]
 80018f2:	b29a      	uxth	r2, r3
 80018f4:	8bfb      	ldrh	r3, [r7, #30]
 80018f6:	fb12 f303 	smulbb	r3, r2, r3
 80018fa:	b29b      	uxth	r3, r3
 80018fc:	b21a      	sxth	r2, r3
 80018fe:	4b3c      	ldr	r3, [pc, #240]	@ (80019f0 <MPU6050_Read_AccelGyro+0x1ec>)
 8001900:	809a      	strh	r2, [r3, #4]
 8001902:	4a3b      	ldr	r2, [pc, #236]	@ (80019f0 <MPU6050_Read_AccelGyro+0x1ec>)
 8001904:	8bbb      	ldrh	r3, [r7, #28]
 8001906:	8053      	strh	r3, [r2, #2]
 8001908:	4a39      	ldr	r2, [pc, #228]	@ (80019f0 <MPU6050_Read_AccelGyro+0x1ec>)
 800190a:	8b7b      	ldrh	r3, [r7, #26]
 800190c:	8013      	strh	r3, [r2, #0]
 800190e:	4b37      	ldr	r3, [pc, #220]	@ (80019ec <MPU6050_Read_AccelGyro+0x1e8>)
 8001910:	f993 3000 	ldrsb.w	r3, [r3]
 8001914:	b29a      	uxth	r2, r3
 8001916:	8b3b      	ldrh	r3, [r7, #24]
 8001918:	fb12 f303 	smulbb	r3, r2, r3
 800191c:	b29b      	uxth	r3, r3
 800191e:	b21a      	sxth	r2, r3
 8001920:	4b33      	ldr	r3, [pc, #204]	@ (80019f0 <MPU6050_Read_AccelGyro+0x1ec>)
 8001922:	815a      	strh	r2, [r3, #10]
 8001924:	4a32      	ldr	r2, [pc, #200]	@ (80019f0 <MPU6050_Read_AccelGyro+0x1ec>)
 8001926:	8afb      	ldrh	r3, [r7, #22]
 8001928:	8113      	strh	r3, [r2, #8]
 800192a:	4a31      	ldr	r2, [pc, #196]	@ (80019f0 <MPU6050_Read_AccelGyro+0x1ec>)
 800192c:	8abb      	ldrh	r3, [r7, #20]
 800192e:	80d3      	strh	r3, [r2, #6]
    else if(Vertical_Axis==1){vehicleState.AccZ=rY*Vertical_Sign;vehicleState.AccX=rX;vehicleState.AccY=rZ; vehicleState.GyroZ=rGy*Vertical_Sign;vehicleState.GyroX=rGx;vehicleState.GyroY=rGz;}
    else{vehicleState.AccZ=rZ*Vertical_Sign;vehicleState.AccX=rX;vehicleState.AccY=rY; vehicleState.GyroZ=rGz*Vertical_Sign;vehicleState.GyroX=rGx;vehicleState.GyroY=rGy;}
}
 8001930:	e048      	b.n	80019c4 <MPU6050_Read_AccelGyro+0x1c0>
    else if(Vertical_Axis==1){vehicleState.AccZ=rY*Vertical_Sign;vehicleState.AccX=rX;vehicleState.AccY=rZ; vehicleState.GyroZ=rGy*Vertical_Sign;vehicleState.GyroX=rGx;vehicleState.GyroY=rGz;}
 8001932:	4b2d      	ldr	r3, [pc, #180]	@ (80019e8 <MPU6050_Read_AccelGyro+0x1e4>)
 8001934:	781b      	ldrb	r3, [r3, #0]
 8001936:	2b01      	cmp	r3, #1
 8001938:	d122      	bne.n	8001980 <MPU6050_Read_AccelGyro+0x17c>
 800193a:	4b2c      	ldr	r3, [pc, #176]	@ (80019ec <MPU6050_Read_AccelGyro+0x1e8>)
 800193c:	f993 3000 	ldrsb.w	r3, [r3]
 8001940:	b29a      	uxth	r2, r3
 8001942:	8bbb      	ldrh	r3, [r7, #28]
 8001944:	fb12 f303 	smulbb	r3, r2, r3
 8001948:	b29b      	uxth	r3, r3
 800194a:	b21a      	sxth	r2, r3
 800194c:	4b28      	ldr	r3, [pc, #160]	@ (80019f0 <MPU6050_Read_AccelGyro+0x1ec>)
 800194e:	809a      	strh	r2, [r3, #4]
 8001950:	4a27      	ldr	r2, [pc, #156]	@ (80019f0 <MPU6050_Read_AccelGyro+0x1ec>)
 8001952:	8bfb      	ldrh	r3, [r7, #30]
 8001954:	8013      	strh	r3, [r2, #0]
 8001956:	4a26      	ldr	r2, [pc, #152]	@ (80019f0 <MPU6050_Read_AccelGyro+0x1ec>)
 8001958:	8b7b      	ldrh	r3, [r7, #26]
 800195a:	8053      	strh	r3, [r2, #2]
 800195c:	4b23      	ldr	r3, [pc, #140]	@ (80019ec <MPU6050_Read_AccelGyro+0x1e8>)
 800195e:	f993 3000 	ldrsb.w	r3, [r3]
 8001962:	b29a      	uxth	r2, r3
 8001964:	8afb      	ldrh	r3, [r7, #22]
 8001966:	fb12 f303 	smulbb	r3, r2, r3
 800196a:	b29b      	uxth	r3, r3
 800196c:	b21a      	sxth	r2, r3
 800196e:	4b20      	ldr	r3, [pc, #128]	@ (80019f0 <MPU6050_Read_AccelGyro+0x1ec>)
 8001970:	815a      	strh	r2, [r3, #10]
 8001972:	4a1f      	ldr	r2, [pc, #124]	@ (80019f0 <MPU6050_Read_AccelGyro+0x1ec>)
 8001974:	8b3b      	ldrh	r3, [r7, #24]
 8001976:	80d3      	strh	r3, [r2, #6]
 8001978:	4a1d      	ldr	r2, [pc, #116]	@ (80019f0 <MPU6050_Read_AccelGyro+0x1ec>)
 800197a:	8abb      	ldrh	r3, [r7, #20]
 800197c:	8113      	strh	r3, [r2, #8]
}
 800197e:	e021      	b.n	80019c4 <MPU6050_Read_AccelGyro+0x1c0>
    else{vehicleState.AccZ=rZ*Vertical_Sign;vehicleState.AccX=rX;vehicleState.AccY=rY; vehicleState.GyroZ=rGz*Vertical_Sign;vehicleState.GyroX=rGx;vehicleState.GyroY=rGy;}
 8001980:	4b1a      	ldr	r3, [pc, #104]	@ (80019ec <MPU6050_Read_AccelGyro+0x1e8>)
 8001982:	f993 3000 	ldrsb.w	r3, [r3]
 8001986:	b29a      	uxth	r2, r3
 8001988:	8b7b      	ldrh	r3, [r7, #26]
 800198a:	fb12 f303 	smulbb	r3, r2, r3
 800198e:	b29b      	uxth	r3, r3
 8001990:	b21a      	sxth	r2, r3
 8001992:	4b17      	ldr	r3, [pc, #92]	@ (80019f0 <MPU6050_Read_AccelGyro+0x1ec>)
 8001994:	809a      	strh	r2, [r3, #4]
 8001996:	4a16      	ldr	r2, [pc, #88]	@ (80019f0 <MPU6050_Read_AccelGyro+0x1ec>)
 8001998:	8bfb      	ldrh	r3, [r7, #30]
 800199a:	8013      	strh	r3, [r2, #0]
 800199c:	4a14      	ldr	r2, [pc, #80]	@ (80019f0 <MPU6050_Read_AccelGyro+0x1ec>)
 800199e:	8bbb      	ldrh	r3, [r7, #28]
 80019a0:	8053      	strh	r3, [r2, #2]
 80019a2:	4b12      	ldr	r3, [pc, #72]	@ (80019ec <MPU6050_Read_AccelGyro+0x1e8>)
 80019a4:	f993 3000 	ldrsb.w	r3, [r3]
 80019a8:	b29a      	uxth	r2, r3
 80019aa:	8abb      	ldrh	r3, [r7, #20]
 80019ac:	fb12 f303 	smulbb	r3, r2, r3
 80019b0:	b29b      	uxth	r3, r3
 80019b2:	b21a      	sxth	r2, r3
 80019b4:	4b0e      	ldr	r3, [pc, #56]	@ (80019f0 <MPU6050_Read_AccelGyro+0x1ec>)
 80019b6:	815a      	strh	r2, [r3, #10]
 80019b8:	4a0d      	ldr	r2, [pc, #52]	@ (80019f0 <MPU6050_Read_AccelGyro+0x1ec>)
 80019ba:	8b3b      	ldrh	r3, [r7, #24]
 80019bc:	80d3      	strh	r3, [r2, #6]
 80019be:	4a0c      	ldr	r2, [pc, #48]	@ (80019f0 <MPU6050_Read_AccelGyro+0x1ec>)
 80019c0:	8afb      	ldrh	r3, [r7, #22]
 80019c2:	8113      	strh	r3, [r2, #8]
}
 80019c4:	bf00      	nop
 80019c6:	3720      	adds	r7, #32
 80019c8:	46bd      	mov	sp, r7
 80019ca:	bd80      	pop	{r7, pc}
 80019cc:	200001f4 	.word	0x200001f4
 80019d0:	20000302 	.word	0x20000302
 80019d4:	20000304 	.word	0x20000304
 80019d8:	20000306 	.word	0x20000306
 80019dc:	20000308 	.word	0x20000308
 80019e0:	2000030a 	.word	0x2000030a
 80019e4:	2000030c 	.word	0x2000030c
 80019e8:	20000000 	.word	0x20000000
 80019ec:	20000001 	.word	0x20000001
 80019f0:	200002d8 	.word	0x200002d8

080019f4 <SystemClock_Config>:

void SystemClock_Config(void) {
 80019f4:	b580      	push	{r7, lr}
 80019f6:	b094      	sub	sp, #80	@ 0x50
 80019f8:	af00      	add	r7, sp, #0
  RCC_OscInitTypeDef RCC_OscInitStruct = {0}; RCC_ClkInitTypeDef RCC_ClkInitStruct = {0};
 80019fa:	f107 0320 	add.w	r3, r7, #32
 80019fe:	2230      	movs	r2, #48	@ 0x30
 8001a00:	2100      	movs	r1, #0
 8001a02:	4618      	mov	r0, r3
 8001a04:	f005 f8e8 	bl	8006bd8 <memset>
 8001a08:	f107 030c 	add.w	r3, r7, #12
 8001a0c:	2200      	movs	r2, #0
 8001a0e:	601a      	str	r2, [r3, #0]
 8001a10:	605a      	str	r2, [r3, #4]
 8001a12:	609a      	str	r2, [r3, #8]
 8001a14:	60da      	str	r2, [r3, #12]
 8001a16:	611a      	str	r2, [r3, #16]
  __HAL_RCC_PWR_CLK_ENABLE(); __HAL_PWR_VOLTAGESCALING_CONFIG(PWR_REGULATOR_VOLTAGE_SCALE2);
 8001a18:	2300      	movs	r3, #0
 8001a1a:	60bb      	str	r3, [r7, #8]
 8001a1c:	4b23      	ldr	r3, [pc, #140]	@ (8001aac <SystemClock_Config+0xb8>)
 8001a1e:	6c1b      	ldr	r3, [r3, #64]	@ 0x40
 8001a20:	4a22      	ldr	r2, [pc, #136]	@ (8001aac <SystemClock_Config+0xb8>)
 8001a22:	f043 5380 	orr.w	r3, r3, #268435456	@ 0x10000000
 8001a26:	6413      	str	r3, [r2, #64]	@ 0x40
 8001a28:	4b20      	ldr	r3, [pc, #128]	@ (8001aac <SystemClock_Config+0xb8>)
 8001a2a:	6c1b      	ldr	r3, [r3, #64]	@ 0x40
 8001a2c:	f003 5380 	and.w	r3, r3, #268435456	@ 0x10000000
 8001a30:	60bb      	str	r3, [r7, #8]
 8001a32:	68bb      	ldr	r3, [r7, #8]
 8001a34:	2300      	movs	r3, #0
 8001a36:	607b      	str	r3, [r7, #4]
 8001a38:	4b1d      	ldr	r3, [pc, #116]	@ (8001ab0 <SystemClock_Config+0xbc>)
 8001a3a:	681b      	ldr	r3, [r3, #0]
 8001a3c:	f423 4340 	bic.w	r3, r3, #49152	@ 0xc000
 8001a40:	4a1b      	ldr	r2, [pc, #108]	@ (8001ab0 <SystemClock_Config+0xbc>)
 8001a42:	f443 4300 	orr.w	r3, r3, #32768	@ 0x8000
 8001a46:	6013      	str	r3, [r2, #0]
 8001a48:	4b19      	ldr	r3, [pc, #100]	@ (8001ab0 <SystemClock_Config+0xbc>)
 8001a4a:	681b      	ldr	r3, [r3, #0]
 8001a4c:	f403 4340 	and.w	r3, r3, #49152	@ 0xc000
 8001a50:	607b      	str	r3, [r7, #4]
 8001a52:	687b      	ldr	r3, [r7, #4]
  RCC_OscInitStruct.OscillatorType = RCC_OSCILLATORTYPE_HSI; RCC_OscInitStruct.HSIState = RCC_HSI_ON; RCC_OscInitStruct.HSICalibrationValue = RCC_HSICALIBRATION_DEFAULT; RCC_OscInitStruct.PLL.PLLState = RCC_PLL_ON; RCC_OscInitStruct.PLL.PLLSource = RCC_PLLSOURCE_HSI; RCC_OscInitStruct.PLL.PLLM = 8; RCC_OscInitStruct.PLL.PLLN = 84; RCC_OscInitStruct.PLL.PLLP = RCC_PLLP_DIV2; RCC_OscInitStruct.PLL.PLLQ = 4;
 8001a54:	2302      	movs	r3, #2
 8001a56:	623b      	str	r3, [r7, #32]
 8001a58:	2301      	movs	r3, #1
 8001a5a:	62fb      	str	r3, [r7, #44]	@ 0x2c
 8001a5c:	2310      	movs	r3, #16
 8001a5e:	633b      	str	r3, [r7, #48]	@ 0x30
 8001a60:	2302      	movs	r3, #2
 8001a62:	63bb      	str	r3, [r7, #56]	@ 0x38
 8001a64:	2300      	movs	r3, #0
 8001a66:	63fb      	str	r3, [r7, #60]	@ 0x3c
 8001a68:	2308      	movs	r3, #8
 8001a6a:	643b      	str	r3, [r7, #64]	@ 0x40
 8001a6c:	2354      	movs	r3, #84	@ 0x54
 8001a6e:	647b      	str	r3, [r7, #68]	@ 0x44
 8001a70:	2302      	movs	r3, #2
 8001a72:	64bb      	str	r3, [r7, #72]	@ 0x48
 8001a74:	2304      	movs	r3, #4
 8001a76:	64fb      	str	r3, [r7, #76]	@ 0x4c
  HAL_RCC_OscConfig(&RCC_OscInitStruct);
 8001a78:	f107 0320 	add.w	r3, r7, #32
 8001a7c:	4618      	mov	r0, r3
 8001a7e:	f001 fee9 	bl	8003854 <HAL_RCC_OscConfig>
  RCC_ClkInitStruct.ClockType = RCC_CLOCKTYPE_HCLK|RCC_CLOCKTYPE_SYSCLK|RCC_CLOCKTYPE_PCLK1|RCC_CLOCKTYPE_PCLK2; RCC_ClkInitStruct.SYSCLKSource = RCC_SYSCLKSOURCE_PLLCLK; RCC_ClkInitStruct.AHBCLKDivider = RCC_SYSCLK_DIV1; RCC_ClkInitStruct.APB1CLKDivider = RCC_HCLK_DIV2; RCC_ClkInitStruct.APB2CLKDivider = RCC_HCLK_DIV1;
 8001a82:	230f      	movs	r3, #15
 8001a84:	60fb      	str	r3, [r7, #12]
 8001a86:	2302      	movs	r3, #2
 8001a88:	613b      	str	r3, [r7, #16]
 8001a8a:	2300      	movs	r3, #0
 8001a8c:	617b      	str	r3, [r7, #20]
 8001a8e:	f44f 5380 	mov.w	r3, #4096	@ 0x1000
 8001a92:	61bb      	str	r3, [r7, #24]
 8001a94:	2300      	movs	r3, #0
 8001a96:	61fb      	str	r3, [r7, #28]
  HAL_RCC_ClockConfig(&RCC_ClkInitStruct, FLASH_LATENCY_2);
 8001a98:	f107 030c 	add.w	r3, r7, #12
 8001a9c:	2102      	movs	r1, #2
 8001a9e:	4618      	mov	r0, r3
 8001aa0:	f002 f950 	bl	8003d44 <HAL_RCC_ClockConfig>
}
 8001aa4:	bf00      	nop
 8001aa6:	3750      	adds	r7, #80	@ 0x50
 8001aa8:	46bd      	mov	sp, r7
 8001aaa:	bd80      	pop	{r7, pc}
 8001aac:	40023800 	.word	0x40023800
 8001ab0:	40007000 	.word	0x40007000

08001ab4 <MX_I2C1_Init>:
static void MX_I2C1_Init(void) { hi2c1.Instance = I2C1; hi2c1.Init.ClockSpeed = 100000; hi2c1.Init.DutyCycle = I2C_DUTYCYCLE_2; hi2c1.Init.OwnAddress1 = 0; hi2c1.Init.AddressingMode = I2C_ADDRESSINGMODE_7BIT; hi2c1.Init.DualAddressMode = I2C_DUALADDRESS_DISABLE; hi2c1.Init.OwnAddress2 = 0; hi2c1.Init.GeneralCallMode = I2C_GENERALCALL_DISABLE; hi2c1.Init.NoStretchMode = I2C_NOSTRETCH_DISABLE; HAL_I2C_Init(&hi2c1); }
 8001ab4:	b580      	push	{r7, lr}
 8001ab6:	af00      	add	r7, sp, #0
 8001ab8:	4b10      	ldr	r3, [pc, #64]	@ (8001afc <MX_I2C1_Init+0x48>)
 8001aba:	4a11      	ldr	r2, [pc, #68]	@ (8001b00 <MX_I2C1_Init+0x4c>)
 8001abc:	601a      	str	r2, [r3, #0]
 8001abe:	4b0f      	ldr	r3, [pc, #60]	@ (8001afc <MX_I2C1_Init+0x48>)
 8001ac0:	4a10      	ldr	r2, [pc, #64]	@ (8001b04 <MX_I2C1_Init+0x50>)
 8001ac2:	605a      	str	r2, [r3, #4]
 8001ac4:	4b0d      	ldr	r3, [pc, #52]	@ (8001afc <MX_I2C1_Init+0x48>)
 8001ac6:	2200      	movs	r2, #0
 8001ac8:	609a      	str	r2, [r3, #8]
 8001aca:	4b0c      	ldr	r3, [pc, #48]	@ (8001afc <MX_I2C1_Init+0x48>)
 8001acc:	2200      	movs	r2, #0
 8001ace:	60da      	str	r2, [r3, #12]
 8001ad0:	4b0a      	ldr	r3, [pc, #40]	@ (8001afc <MX_I2C1_Init+0x48>)
 8001ad2:	f44f 4280 	mov.w	r2, #16384	@ 0x4000
 8001ad6:	611a      	str	r2, [r3, #16]
 8001ad8:	4b08      	ldr	r3, [pc, #32]	@ (8001afc <MX_I2C1_Init+0x48>)
 8001ada:	2200      	movs	r2, #0
 8001adc:	615a      	str	r2, [r3, #20]
 8001ade:	4b07      	ldr	r3, [pc, #28]	@ (8001afc <MX_I2C1_Init+0x48>)
 8001ae0:	2200      	movs	r2, #0
 8001ae2:	619a      	str	r2, [r3, #24]
 8001ae4:	4b05      	ldr	r3, [pc, #20]	@ (8001afc <MX_I2C1_Init+0x48>)
 8001ae6:	2200      	movs	r2, #0
 8001ae8:	61da      	str	r2, [r3, #28]
 8001aea:	4b04      	ldr	r3, [pc, #16]	@ (8001afc <MX_I2C1_Init+0x48>)
 8001aec:	2200      	movs	r2, #0
 8001aee:	621a      	str	r2, [r3, #32]
 8001af0:	4802      	ldr	r0, [pc, #8]	@ (8001afc <MX_I2C1_Init+0x48>)
 8001af2:	f000 fe8b 	bl	800280c <HAL_I2C_Init>
 8001af6:	bf00      	nop
 8001af8:	bd80      	pop	{r7, pc}
 8001afa:	bf00      	nop
 8001afc:	200001f4 	.word	0x200001f4
 8001b00:	40005400 	.word	0x40005400
 8001b04:	000186a0 	.word	0x000186a0

08001b08 <MX_USART1_UART_Init>:
static void MX_USART1_UART_Init(void) { huart1.Instance = USART1; huart1.Init.BaudRate = 9600; huart1.Init.WordLength = UART_WORDLENGTH_8B; huart1.Init.StopBits = UART_STOPBITS_1; huart1.Init.Parity = UART_PARITY_NONE; huart1.Init.Mode = UART_MODE_TX_RX; huart1.Init.HwFlowCtl = UART_HWCONTROL_NONE; huart1.Init.OverSampling = UART_OVERSAMPLING_16; HAL_UART_Init(&huart1); }
 8001b08:	b580      	push	{r7, lr}
 8001b0a:	af00      	add	r7, sp, #0
 8001b0c:	4b0e      	ldr	r3, [pc, #56]	@ (8001b48 <MX_USART1_UART_Init+0x40>)
 8001b0e:	4a0f      	ldr	r2, [pc, #60]	@ (8001b4c <MX_USART1_UART_Init+0x44>)
 8001b10:	601a      	str	r2, [r3, #0]
 8001b12:	4b0d      	ldr	r3, [pc, #52]	@ (8001b48 <MX_USART1_UART_Init+0x40>)
 8001b14:	f44f 5216 	mov.w	r2, #9600	@ 0x2580
 8001b18:	605a      	str	r2, [r3, #4]
 8001b1a:	4b0b      	ldr	r3, [pc, #44]	@ (8001b48 <MX_USART1_UART_Init+0x40>)
 8001b1c:	2200      	movs	r2, #0
 8001b1e:	609a      	str	r2, [r3, #8]
 8001b20:	4b09      	ldr	r3, [pc, #36]	@ (8001b48 <MX_USART1_UART_Init+0x40>)
 8001b22:	2200      	movs	r2, #0
 8001b24:	60da      	str	r2, [r3, #12]
 8001b26:	4b08      	ldr	r3, [pc, #32]	@ (8001b48 <MX_USART1_UART_Init+0x40>)
 8001b28:	2200      	movs	r2, #0
 8001b2a:	611a      	str	r2, [r3, #16]
 8001b2c:	4b06      	ldr	r3, [pc, #24]	@ (8001b48 <MX_USART1_UART_Init+0x40>)
 8001b2e:	220c      	movs	r2, #12
 8001b30:	615a      	str	r2, [r3, #20]
 8001b32:	4b05      	ldr	r3, [pc, #20]	@ (8001b48 <MX_USART1_UART_Init+0x40>)
 8001b34:	2200      	movs	r2, #0
 8001b36:	619a      	str	r2, [r3, #24]
 8001b38:	4b03      	ldr	r3, [pc, #12]	@ (8001b48 <MX_USART1_UART_Init+0x40>)
 8001b3a:	2200      	movs	r2, #0
 8001b3c:	61da      	str	r2, [r3, #28]
 8001b3e:	4802      	ldr	r0, [pc, #8]	@ (8001b48 <MX_USART1_UART_Init+0x40>)
 8001b40:	f002 fae0 	bl	8004104 <HAL_UART_Init>
 8001b44:	bf00      	nop
 8001b46:	bd80      	pop	{r7, pc}
 8001b48:	20000248 	.word	0x20000248
 8001b4c:	40011000 	.word	0x40011000

08001b50 <MX_GPIO_Init>:
static void MX_GPIO_Init(void) { GPIO_InitTypeDef GPIO_InitStruct = {0}; __HAL_RCC_GPIOC_CLK_ENABLE(); __HAL_RCC_GPIOA_CLK_ENABLE(); __HAL_RCC_GPIOB_CLK_ENABLE(); HAL_GPIO_WritePin(GPIOC, GPIO_PIN_13, GPIO_PIN_RESET); GPIO_InitStruct.Pin = GPIO_PIN_13; GPIO_InitStruct.Mode = GPIO_MODE_OUTPUT_PP; GPIO_InitStruct.Pull = GPIO_NOPULL; GPIO_InitStruct.Speed = GPIO_SPEED_FREQ_LOW; HAL_GPIO_Init(GPIOC, &GPIO_InitStruct); }
 8001b50:	b580      	push	{r7, lr}
 8001b52:	b088      	sub	sp, #32
 8001b54:	af00      	add	r7, sp, #0
 8001b56:	f107 030c 	add.w	r3, r7, #12
 8001b5a:	2200      	movs	r2, #0
 8001b5c:	601a      	str	r2, [r3, #0]
 8001b5e:	605a      	str	r2, [r3, #4]
 8001b60:	609a      	str	r2, [r3, #8]
 8001b62:	60da      	str	r2, [r3, #12]
 8001b64:	611a      	str	r2, [r3, #16]
 8001b66:	2300      	movs	r3, #0
 8001b68:	60bb      	str	r3, [r7, #8]
 8001b6a:	4b20      	ldr	r3, [pc, #128]	@ (8001bec <MX_GPIO_Init+0x9c>)
 8001b6c:	6b1b      	ldr	r3, [r3, #48]	@ 0x30
 8001b6e:	4a1f      	ldr	r2, [pc, #124]	@ (8001bec <MX_GPIO_Init+0x9c>)
 8001b70:	f043 0304 	orr.w	r3, r3, #4
 8001b74:	6313      	str	r3, [r2, #48]	@ 0x30
 8001b76:	4b1d      	ldr	r3, [pc, #116]	@ (8001bec <MX_GPIO_Init+0x9c>)
 8001b78:	6b1b      	ldr	r3, [r3, #48]	@ 0x30
 8001b7a:	f003 0304 	and.w	r3, r3, #4
 8001b7e:	60bb      	str	r3, [r7, #8]
 8001b80:	68bb      	ldr	r3, [r7, #8]
 8001b82:	2300      	movs	r3, #0
 8001b84:	607b      	str	r3, [r7, #4]
 8001b86:	4b19      	ldr	r3, [pc, #100]	@ (8001bec <MX_GPIO_Init+0x9c>)
 8001b88:	6b1b      	ldr	r3, [r3, #48]	@ 0x30
 8001b8a:	4a18      	ldr	r2, [pc, #96]	@ (8001bec <MX_GPIO_Init+0x9c>)
 8001b8c:	f043 0301 	orr.w	r3, r3, #1
 8001b90:	6313      	str	r3, [r2, #48]	@ 0x30
 8001b92:	4b16      	ldr	r3, [pc, #88]	@ (8001bec <MX_GPIO_Init+0x9c>)
 8001b94:	6b1b      	ldr	r3, [r3, #48]	@ 0x30
 8001b96:	f003 0301 	and.w	r3, r3, #1
 8001b9a:	607b      	str	r3, [r7, #4]
 8001b9c:	687b      	ldr	r3, [r7, #4]
 8001b9e:	2300      	movs	r3, #0
 8001ba0:	603b      	str	r3, [r7, #0]
 8001ba2:	4b12      	ldr	r3, [pc, #72]	@ (8001bec <MX_GPIO_Init+0x9c>)
 8001ba4:	6b1b      	ldr	r3, [r3, #48]	@ 0x30
 8001ba6:	4a11      	ldr	r2, [pc, #68]	@ (8001bec <MX_GPIO_Init+0x9c>)
 8001ba8:	f043 0302 	orr.w	r3, r3, #2
 8001bac:	6313      	str	r3, [r2, #48]	@ 0x30
 8001bae:	4b0f      	ldr	r3, [pc, #60]	@ (8001bec <MX_GPIO_Init+0x9c>)
 8001bb0:	6b1b      	ldr	r3, [r3, #48]	@ 0x30
 8001bb2:	f003 0302 	and.w	r3, r3, #2
 8001bb6:	603b      	str	r3, [r7, #0]
 8001bb8:	683b      	ldr	r3, [r7, #0]
 8001bba:	2200      	movs	r2, #0
 8001bbc:	f44f 5100 	mov.w	r1, #8192	@ 0x2000
 8001bc0:	480b      	ldr	r0, [pc, #44]	@ (8001bf0 <MX_GPIO_Init+0xa0>)
 8001bc2:	f000 fdef 	bl	80027a4 <HAL_GPIO_WritePin>
 8001bc6:	f44f 5300 	mov.w	r3, #8192	@ 0x2000
 8001bca:	60fb      	str	r3, [r7, #12]
 8001bcc:	2301      	movs	r3, #1
 8001bce:	613b      	str	r3, [r7, #16]
 8001bd0:	2300      	movs	r3, #0
 8001bd2:	617b      	str	r3, [r7, #20]
 8001bd4:	2300      	movs	r3, #0
 8001bd6:	61bb      	str	r3, [r7, #24]
 8001bd8:	f107 030c 	add.w	r3, r7, #12
 8001bdc:	4619      	mov	r1, r3
 8001bde:	4804      	ldr	r0, [pc, #16]	@ (8001bf0 <MX_GPIO_Init+0xa0>)
 8001be0:	f000 fc5c 	bl	800249c <HAL_GPIO_Init>
 8001be4:	bf00      	nop
 8001be6:	3720      	adds	r7, #32
 8001be8:	46bd      	mov	sp, r7
 8001bea:	bd80      	pop	{r7, pc}
 8001bec:	40023800 	.word	0x40023800
 8001bf0:	40020800 	.word	0x40020800

08001bf4 <Error_Handler>:
void Error_Handler(void) { __disable_irq(); while (1) {} }
 8001bf4:	b480      	push	{r7}
 8001bf6:	af00      	add	r7, sp, #0
  \details Disables IRQ interrupts by setting special-purpose register PRIMASK.
           Can only be executed in Privileged modes.
 */
__STATIC_FORCEINLINE void __disable_irq(void)
{
  __ASM volatile ("cpsid i" : : : "memory");
 8001bf8:	b672      	cpsid	i
}
 8001bfa:	bf00      	nop
 8001bfc:	bf00      	nop
 8001bfe:	e7fd      	b.n	8001bfc <Error_Handler+0x8>

08001c00 <HAL_MspInit>:
/* USER CODE END 0 */
/**
  * Initializes the Global MSP.
  */
void HAL_MspInit(void)
{
 8001c00:	b480      	push	{r7}
 8001c02:	b083      	sub	sp, #12
 8001c04:	af00      	add	r7, sp, #0

  /* USER CODE BEGIN MspInit 0 */

  /* USER CODE END MspInit 0 */

  __HAL_RCC_SYSCFG_CLK_ENABLE();
 8001c06:	2300      	movs	r3, #0
 8001c08:	607b      	str	r3, [r7, #4]
 8001c0a:	4b10      	ldr	r3, [pc, #64]	@ (8001c4c <HAL_MspInit+0x4c>)
 8001c0c:	6c5b      	ldr	r3, [r3, #68]	@ 0x44
 8001c0e:	4a0f      	ldr	r2, [pc, #60]	@ (8001c4c <HAL_MspInit+0x4c>)
 8001c10:	f443 4380 	orr.w	r3, r3, #16384	@ 0x4000
 8001c14:	6453      	str	r3, [r2, #68]	@ 0x44
 8001c16:	4b0d      	ldr	r3, [pc, #52]	@ (8001c4c <HAL_MspInit+0x4c>)
 8001c18:	6c5b      	ldr	r3, [r3, #68]	@ 0x44
 8001c1a:	f403 4380 	and.w	r3, r3, #16384	@ 0x4000
 8001c1e:	607b      	str	r3, [r7, #4]
 8001c20:	687b      	ldr	r3, [r7, #4]
  __HAL_RCC_PWR_CLK_ENABLE();
 8001c22:	2300      	movs	r3, #0
 8001c24:	603b      	str	r3, [r7, #0]
 8001c26:	4b09      	ldr	r3, [pc, #36]	@ (8001c4c <HAL_MspInit+0x4c>)
 8001c28:	6c1b      	ldr	r3, [r3, #64]	@ 0x40
 8001c2a:	4a08      	ldr	r2, [pc, #32]	@ (8001c4c <HAL_MspInit+0x4c>)
 8001c2c:	f043 5380 	orr.w	r3, r3, #268435456	@ 0x10000000
 8001c30:	6413      	str	r3, [r2, #64]	@ 0x40
 8001c32:	4b06      	ldr	r3, [pc, #24]	@ (8001c4c <HAL_MspInit+0x4c>)
 8001c34:	6c1b      	ldr	r3, [r3, #64]	@ 0x40
 8001c36:	f003 5380 	and.w	r3, r3, #268435456	@ 0x10000000
 8001c3a:	603b      	str	r3, [r7, #0]
 8001c3c:	683b      	ldr	r3, [r7, #0]
  /* System interrupt init*/

  /* USER CODE BEGIN MspInit 1 */

  /* USER CODE END MspInit 1 */
}
 8001c3e:	bf00      	nop
 8001c40:	370c      	adds	r7, #12
 8001c42:	46bd      	mov	sp, r7
 8001c44:	f85d 7b04 	ldr.w	r7, [sp], #4
 8001c48:	4770      	bx	lr
 8001c4a:	bf00      	nop
 8001c4c:	40023800 	.word	0x40023800

08001c50 <HAL_I2C_MspInit>:
  * This function configures the hardware resources used in this example
  * @param hi2c: I2C handle pointer
  * @retval None
  */
void HAL_I2C_MspInit(I2C_HandleTypeDef* hi2c)
{
 8001c50:	b580      	push	{r7, lr}
 8001c52:	b08a      	sub	sp, #40	@ 0x28
 8001c54:	af00      	add	r7, sp, #0
 8001c56:	6078      	str	r0, [r7, #4]
  GPIO_InitTypeDef GPIO_InitStruct = {0};
 8001c58:	f107 0314 	add.w	r3, r7, #20
 8001c5c:	2200      	movs	r2, #0
 8001c5e:	601a      	str	r2, [r3, #0]
 8001c60:	605a      	str	r2, [r3, #4]
 8001c62:	609a      	str	r2, [r3, #8]
 8001c64:	60da      	str	r2, [r3, #12]
 8001c66:	611a      	str	r2, [r3, #16]
  if(hi2c->Instance==I2C1)
 8001c68:	687b      	ldr	r3, [r7, #4]
 8001c6a:	681b      	ldr	r3, [r3, #0]
 8001c6c:	4a19      	ldr	r2, [pc, #100]	@ (8001cd4 <HAL_I2C_MspInit+0x84>)
 8001c6e:	4293      	cmp	r3, r2
 8001c70:	d12b      	bne.n	8001cca <HAL_I2C_MspInit+0x7a>
  {
    /* USER CODE BEGIN I2C1_MspInit 0 */

    /* USER CODE END I2C1_MspInit 0 */

    __HAL_RCC_GPIOB_CLK_ENABLE();
 8001c72:	2300      	movs	r3, #0
 8001c74:	613b      	str	r3, [r7, #16]
 8001c76:	4b18      	ldr	r3, [pc, #96]	@ (8001cd8 <HAL_I2C_MspInit+0x88>)
 8001c78:	6b1b      	ldr	r3, [r3, #48]	@ 0x30
 8001c7a:	4a17      	ldr	r2, [pc, #92]	@ (8001cd8 <HAL_I2C_MspInit+0x88>)
 8001c7c:	f043 0302 	orr.w	r3, r3, #2
 8001c80:	6313      	str	r3, [r2, #48]	@ 0x30
 8001c82:	4b15      	ldr	r3, [pc, #84]	@ (8001cd8 <HAL_I2C_MspInit+0x88>)
 8001c84:	6b1b      	ldr	r3, [r3, #48]	@ 0x30
 8001c86:	f003 0302 	and.w	r3, r3, #2
 8001c8a:	613b      	str	r3, [r7, #16]
 8001c8c:	693b      	ldr	r3, [r7, #16]
    /**I2C1 GPIO Configuration
    PB6     ------> I2C1_SCL
    PB7     ------> I2C1_SDA
    */
    GPIO_InitStruct.Pin = GPIO_PIN_6|GPIO_PIN_7;
 8001c8e:	23c0      	movs	r3, #192	@ 0xc0
 8001c90:	617b      	str	r3, [r7, #20]
    GPIO_InitStruct.Mode = GPIO_MODE_AF_OD;
 8001c92:	2312      	movs	r3, #18
 8001c94:	61bb      	str	r3, [r7, #24]
    GPIO_InitStruct.Pull = GPIO_NOPULL;
 8001c96:	2300      	movs	r3, #0
 8001c98:	61fb      	str	r3, [r7, #28]
    GPIO_InitStruct.Speed = GPIO_SPEED_FREQ_VERY_HIGH;
 8001c9a:	2303      	movs	r3, #3
 8001c9c:	623b      	str	r3, [r7, #32]
    GPIO_InitStruct.Alternate = GPIO_AF4_I2C1;
 8001c9e:	2304      	movs	r3, #4
 8001ca0:	627b      	str	r3, [r7, #36]	@ 0x24
    HAL_GPIO_Init(GPIOB, &GPIO_InitStruct);
 8001ca2:	f107 0314 	add.w	r3, r7, #20
 8001ca6:	4619      	mov	r1, r3
 8001ca8:	480c      	ldr	r0, [pc, #48]	@ (8001cdc <HAL_I2C_MspInit+0x8c>)
 8001caa:	f000 fbf7 	bl	800249c <HAL_GPIO_Init>

    /* Peripheral clock enable */
    __HAL_RCC_I2C1_CLK_ENABLE();
 8001cae:	2300      	movs	r3, #0
 8001cb0:	60fb      	str	r3, [r7, #12]
 8001cb2:	4b09      	ldr	r3, [pc, #36]	@ (8001cd8 <HAL_I2C_MspInit+0x88>)
 8001cb4:	6c1b      	ldr	r3, [r3, #64]	@ 0x40
 8001cb6:	4a08      	ldr	r2, [pc, #32]	@ (8001cd8 <HAL_I2C_MspInit+0x88>)
 8001cb8:	f443 1300 	orr.w	r3, r3, #2097152	@ 0x200000
 8001cbc:	6413      	str	r3, [r2, #64]	@ 0x40
 8001cbe:	4b06      	ldr	r3, [pc, #24]	@ (8001cd8 <HAL_I2C_MspInit+0x88>)
 8001cc0:	6c1b      	ldr	r3, [r3, #64]	@ 0x40
 8001cc2:	f403 1300 	and.w	r3, r3, #2097152	@ 0x200000
 8001cc6:	60fb      	str	r3, [r7, #12]
 8001cc8:	68fb      	ldr	r3, [r7, #12]

    /* USER CODE END I2C1_MspInit 1 */

  }

}
 8001cca:	bf00      	nop
 8001ccc:	3728      	adds	r7, #40	@ 0x28
 8001cce:	46bd      	mov	sp, r7
 8001cd0:	bd80      	pop	{r7, pc}
 8001cd2:	bf00      	nop
 8001cd4:	40005400 	.word	0x40005400
 8001cd8:	40023800 	.word	0x40023800
 8001cdc:	40020400 	.word	0x40020400

08001ce0 <HAL_UART_MspInit>:
  * This function configures the hardware resources used in this example
  * @param huart: UART handle pointer
  * @retval None
  */
void HAL_UART_MspInit(UART_HandleTypeDef* huart)
{
 8001ce0:	b580      	push	{r7, lr}
 8001ce2:	b08c      	sub	sp, #48	@ 0x30
 8001ce4:	af00      	add	r7, sp, #0
 8001ce6:	6078      	str	r0, [r7, #4]
  GPIO_InitTypeDef GPIO_InitStruct = {0};
 8001ce8:	f107 031c 	add.w	r3, r7, #28
 8001cec:	2200      	movs	r2, #0
 8001cee:	601a      	str	r2, [r3, #0]
 8001cf0:	605a      	str	r2, [r3, #4]
 8001cf2:	609a      	str	r2, [r3, #8]
 8001cf4:	60da      	str	r2, [r3, #12]
 8001cf6:	611a      	str	r2, [r3, #16]
  if(huart->Instance==USART1)
 8001cf8:	687b      	ldr	r3, [r7, #4]
 8001cfa:	681b      	ldr	r3, [r3, #0]
 8001cfc:	4a36      	ldr	r2, [pc, #216]	@ (8001dd8 <HAL_UART_MspInit+0xf8>)
 8001cfe:	4293      	cmp	r3, r2
 8001d00:	d135      	bne.n	8001d6e <HAL_UART_MspInit+0x8e>
  {
    /* USER CODE BEGIN USART1_MspInit 0 */

    /* USER CODE END USART1_MspInit 0 */
    /* Peripheral clock enable */
    __HAL_RCC_USART1_CLK_ENABLE();
 8001d02:	2300      	movs	r3, #0
 8001d04:	61bb      	str	r3, [r7, #24]
 8001d06:	4b35      	ldr	r3, [pc, #212]	@ (8001ddc <HAL_UART_MspInit+0xfc>)
 8001d08:	6c5b      	ldr	r3, [r3, #68]	@ 0x44
 8001d0a:	4a34      	ldr	r2, [pc, #208]	@ (8001ddc <HAL_UART_MspInit+0xfc>)
 8001d0c:	f043 0310 	orr.w	r3, r3, #16
 8001d10:	6453      	str	r3, [r2, #68]	@ 0x44
 8001d12:	4b32      	ldr	r3, [pc, #200]	@ (8001ddc <HAL_UART_MspInit+0xfc>)
 8001d14:	6c5b      	ldr	r3, [r3, #68]	@ 0x44
 8001d16:	f003 0310 	and.w	r3, r3, #16
 8001d1a:	61bb      	str	r3, [r7, #24]
 8001d1c:	69bb      	ldr	r3, [r7, #24]

    __HAL_RCC_GPIOA_CLK_ENABLE();
 8001d1e:	2300      	movs	r3, #0
 8001d20:	617b      	str	r3, [r7, #20]
 8001d22:	4b2e      	ldr	r3, [pc, #184]	@ (8001ddc <HAL_UART_MspInit+0xfc>)
 8001d24:	6b1b      	ldr	r3, [r3, #48]	@ 0x30
 8001d26:	4a2d      	ldr	r2, [pc, #180]	@ (8001ddc <HAL_UART_MspInit+0xfc>)
 8001d28:	f043 0301 	orr.w	r3, r3, #1
 8001d2c:	6313      	str	r3, [r2, #48]	@ 0x30
 8001d2e:	4b2b      	ldr	r3, [pc, #172]	@ (8001ddc <HAL_UART_MspInit+0xfc>)
 8001d30:	6b1b      	ldr	r3, [r3, #48]	@ 0x30
 8001d32:	f003 0301 	and.w	r3, r3, #1
 8001d36:	617b      	str	r3, [r7, #20]
 8001d38:	697b      	ldr	r3, [r7, #20]
    /**USART1 GPIO Configuration
    PA9     ------> USART1_TX
    PA10     ------> USART1_RX
    */
    GPIO_InitStruct.Pin = GPIO_PIN_9|GPIO_PIN_10;
 8001d3a:	f44f 63c0 	mov.w	r3, #1536	@ 0x600
 8001d3e:	61fb      	str	r3, [r7, #28]
    GPIO_InitStruct.Mode = GPIO_MODE_AF_PP;
 8001d40:	2302      	movs	r3, #2
 8001d42:	623b      	str	r3, [r7, #32]
    GPIO_InitStruct.Pull = GPIO_NOPULL;
 8001d44:	2300      	movs	r3, #0
 8001d46:	627b      	str	r3, [r7, #36]	@ 0x24
    GPIO_InitStruct.Speed = GPIO_SPEED_FREQ_VERY_HIGH;
 8001d48:	2303      	movs	r3, #3
 8001d4a:	62bb      	str	r3, [r7, #40]	@ 0x28
    GPIO_InitStruct.Alternate = GPIO_AF7_USART1;
 8001d4c:	2307      	movs	r3, #7
 8001d4e:	62fb      	str	r3, [r7, #44]	@ 0x2c
    HAL_GPIO_Init(GPIOA, &GPIO_InitStruct);
 8001d50:	f107 031c 	add.w	r3, r7, #28
 8001d54:	4619      	mov	r1, r3
 8001d56:	4822      	ldr	r0, [pc, #136]	@ (8001de0 <HAL_UART_MspInit+0x100>)
 8001d58:	f000 fba0 	bl	800249c <HAL_GPIO_Init>

    /* USART1 interrupt Init */
    HAL_NVIC_SetPriority(USART1_IRQn, 0, 0);
 8001d5c:	2200      	movs	r2, #0
 8001d5e:	2100      	movs	r1, #0
 8001d60:	2025      	movs	r0, #37	@ 0x25
 8001d62:	f000 fad2 	bl	800230a <HAL_NVIC_SetPriority>
    HAL_NVIC_EnableIRQ(USART1_IRQn);
 8001d66:	2025      	movs	r0, #37	@ 0x25
 8001d68:	f000 faeb 	bl	8002342 <HAL_NVIC_EnableIRQ>
    /* USER CODE BEGIN USART2_MspInit 1 */

    /* USER CODE END USART2_MspInit 1 */
  }

}
 8001d6c:	e030      	b.n	8001dd0 <HAL_UART_MspInit+0xf0>
  else if(huart->Instance==USART2)
 8001d6e:	687b      	ldr	r3, [r7, #4]
 8001d70:	681b      	ldr	r3, [r3, #0]
 8001d72:	4a1c      	ldr	r2, [pc, #112]	@ (8001de4 <HAL_UART_MspInit+0x104>)
 8001d74:	4293      	cmp	r3, r2
 8001d76:	d12b      	bne.n	8001dd0 <HAL_UART_MspInit+0xf0>
    __HAL_RCC_USART2_CLK_ENABLE();
 8001d78:	2300      	movs	r3, #0
 8001d7a:	613b      	str	r3, [r7, #16]
 8001d7c:	4b17      	ldr	r3, [pc, #92]	@ (8001ddc <HAL_UART_MspInit+0xfc>)
 8001d7e:	6c1b      	ldr	r3, [r3, #64]	@ 0x40
 8001d80:	4a16      	ldr	r2, [pc, #88]	@ (8001ddc <HAL_UART_MspInit+0xfc>)
 8001d82:	f443 3300 	orr.w	r3, r3, #131072	@ 0x20000
 8001d86:	6413      	str	r3, [r2, #64]	@ 0x40
 8001d88:	4b14      	ldr	r3, [pc, #80]	@ (8001ddc <HAL_UART_MspInit+0xfc>)
 8001d8a:	6c1b      	ldr	r3, [r3, #64]	@ 0x40
 8001d8c:	f403 3300 	and.w	r3, r3, #131072	@ 0x20000
 8001d90:	613b      	str	r3, [r7, #16]
 8001d92:	693b      	ldr	r3, [r7, #16]
    __HAL_RCC_GPIOA_CLK_ENABLE();
 8001d94:	2300      	movs	r3, #0
 8001d96:	60fb      	str	r3, [r7, #12]
 8001d98:	4b10      	ldr	r3, [pc, #64]	@ (8001ddc <HAL_UART_MspInit+0xfc>)
 8001d9a:	6b1b      	ldr	r3, [r3, #48]	@ 0x30
 8001d9c:	4a0f      	ldr	r2, [pc, #60]	@ (8001ddc <HAL_UART_MspInit+0xfc>)
 8001d9e:	f043 0301 	orr.w	r3, r3, #1
 8001da2:	6313      	str	r3, [r2, #48]	@ 0x30
 8001da4:	4b0d      	ldr	r3, [pc, #52]	@ (8001ddc <HAL_UART_MspInit+0xfc>)
 8001da6:	6b1b      	ldr	r3, [r3, #48]	@ 0x30
 8001da8:	f003 0301 	and.w	r3, r3, #1
 8001dac:	60fb      	str	r3, [r7, #12]
 8001dae:	68fb      	ldr	r3, [r7, #12]
    GPIO_InitStruct.Pin = GPIO_PIN_2|GPIO_PIN_3;
 8001db0:	230c      	movs	r3, #12
 8001db2:	61fb      	str	r3, [r7, #28]
    GPIO_InitStruct.Mode = GPIO_MODE_AF_PP;
 8001db4:	2302      	movs	r3, #2
 8001db6:	623b      	str	r3, [r7, #32]
    GPIO_InitStruct.Pull = GPIO_NOPULL;
 8001db8:	2300      	movs	r3, #0
 8001dba:	627b      	str	r3, [r7, #36]	@ 0x24
    GPIO_InitStruct.Speed = GPIO_SPEED_FREQ_VERY_HIGH;
 8001dbc:	2303      	movs	r3, #3
 8001dbe:	62bb      	str	r3, [r7, #40]	@ 0x28
    GPIO_InitStruct.Alternate = GPIO_AF7_USART2;
 8001dc0:	2307      	movs	r3, #7
 8001dc2:	62fb      	str	r3, [r7, #44]	@ 0x2c
    HAL_GPIO_Init(GPIOA, &GPIO_InitStruct);
 8001dc4:	f107 031c 	add.w	r3, r7, #28
 8001dc8:	4619      	mov	r1, r3
 8001dca:	4805      	ldr	r0, [pc, #20]	@ (8001de0 <HAL_UART_MspInit+0x100>)
 8001dcc:	f000 fb66 	bl	800249c <HAL_GPIO_Init>
}
 8001dd0:	bf00      	nop
 8001dd2:	3730      	adds	r7, #48	@ 0x30
 8001dd4:	46bd      	mov	sp, r7
 8001dd6:	bd80      	pop	{r7, pc}
 8001dd8:	40011000 	.word	0x40011000
 8001ddc:	40023800 	.word	0x40023800
 8001de0:	40020000 	.word	0x40020000
 8001de4:	40004400 	.word	0x40004400

08001de8 <NMI_Handler>:
/******************************************************************************/
/**
  * @brief This function handles Non maskable interrupt.
  */
void NMI_Handler(void)
{
 8001de8:	b480      	push	{r7}
 8001dea:	af00      	add	r7, sp, #0
  /* USER CODE BEGIN NonMaskableInt_IRQn 0 */

  /* USER CODE END NonMaskableInt_IRQn 0 */
  /* USER CODE BEGIN NonMaskableInt_IRQn 1 */
   while (1)
 8001dec:	bf00      	nop
 8001dee:	e7fd      	b.n	8001dec <NMI_Handler+0x4>

08001df0 <HardFault_Handler>:

/**
  * @brief This function handles Hard fault interrupt.
  */
void HardFault_Handler(void)
{
 8001df0:	b480      	push	{r7}
 8001df2:	af00      	add	r7, sp, #0
  /* USER CODE BEGIN HardFault_IRQn 0 */

  /* USER CODE END HardFault_IRQn 0 */
  while (1)
 8001df4:	bf00      	nop
 8001df6:	e7fd      	b.n	8001df4 <HardFault_Handler+0x4>

08001df8 <MemManage_Handler>:

/**
  * @brief This function handles Memory management fault.
  */
void MemManage_Handler(void)
{
 8001df8:	b480      	push	{r7}
 8001dfa:	af00      	add	r7, sp, #0
  /* USER CODE BEGIN MemoryManagement_IRQn 0 */

  /* USER CODE END MemoryManagement_IRQn 0 */
  while (1)
 8001dfc:	bf00      	nop
 8001dfe:	e7fd      	b.n	8001dfc <MemManage_Handler+0x4>

08001e00 <BusFault_Handler>:

/**
  * @brief This function handles Pre-fetch fault, memory access fault.
  */
void BusFault_Handler(void)
{
 8001e00:	b480      	push	{r7}
 8001e02:	af00      	add	r7, sp, #0
  /* USER CODE BEGIN BusFault_IRQn 0 */

  /* USER CODE END BusFault_IRQn 0 */
  while (1)
 8001e04:	bf00      	nop
 8001e06:	e7fd      	b.n	8001e04 <BusFault_Handler+0x4>

08001e08 <UsageFault_Handler>:

/**
  * @brief This function handles Undefined instruction or illegal state.
  */
void UsageFault_Handler(void)
{
 8001e08:	b480      	push	{r7}
 8001e0a:	af00      	add	r7, sp, #0
  /* USER CODE BEGIN UsageFault_IRQn 0 */

  /* USER CODE END UsageFault_IRQn 0 */
  while (1)
 8001e0c:	bf00      	nop
 8001e0e:	e7fd      	b.n	8001e0c <UsageFault_Handler+0x4>

08001e10 <SVC_Handler>:

/**
  * @brief This function handles System service call via SWI instruction.
  */
void SVC_Handler(void)
{
 8001e10:	b480      	push	{r7}
 8001e12:	af00      	add	r7, sp, #0

  /* USER CODE END SVCall_IRQn 0 */
  /* USER CODE BEGIN SVCall_IRQn 1 */

  /* USER CODE END SVCall_IRQn 1 */
}
 8001e14:	bf00      	nop
 8001e16:	46bd      	mov	sp, r7
 8001e18:	f85d 7b04 	ldr.w	r7, [sp], #4
 8001e1c:	4770      	bx	lr

08001e1e <DebugMon_Handler>:

/**
  * @brief This function handles Debug monitor.
  */
void DebugMon_Handler(void)
{
 8001e1e:	b480      	push	{r7}
 8001e20:	af00      	add	r7, sp, #0

  /* USER CODE END DebugMonitor_IRQn 0 */
  /* USER CODE BEGIN DebugMonitor_IRQn 1 */

  /* USER CODE END DebugMonitor_IRQn 1 */
}
 8001e22:	bf00      	nop
 8001e24:	46bd      	mov	sp, r7
 8001e26:	f85d 7b04 	ldr.w	r7, [sp], #4
 8001e2a:	4770      	bx	lr

08001e2c <PendSV_Handler>:

/**
  * @brief This function handles Pendable request for system service.
  */
void PendSV_Handler(void)
{
 8001e2c:	b480      	push	{r7}
 8001e2e:	af00      	add	r7, sp, #0

  /* USER CODE END PendSV_IRQn 0 */
  /* USER CODE BEGIN PendSV_IRQn 1 */

  /* USER CODE END PendSV_IRQn 1 */
}
 8001e30:	bf00      	nop
 8001e32:	46bd      	mov	sp, r7
 8001e34:	f85d 7b04 	ldr.w	r7, [sp], #4
 8001e38:	4770      	bx	lr

08001e3a <SysTick_Handler>:

/**
  * @brief This function handles System tick timer.
  */
void SysTick_Handler(void)
{
 8001e3a:	b580      	push	{r7, lr}
 8001e3c:	af00      	add	r7, sp, #0
  /* USER CODE BEGIN SysTick_IRQn 0 */

  /* USER CODE END SysTick_IRQn 0 */
  HAL_IncTick();
 8001e3e:	f000 f945 	bl	80020cc <HAL_IncTick>
  /* USER CODE BEGIN SysTick_IRQn 1 */

  /* USER CODE END SysTick_IRQn 1 */
}
 8001e42:	bf00      	nop
 8001e44:	bd80      	pop	{r7, pc}
	...

08001e48 <USART1_IRQHandler>:

/**
  * @brief This function handles USART1 global interrupt.
  */
void USART1_IRQHandler(void)
{
 8001e48:	b580      	push	{r7, lr}
 8001e4a:	af00      	add	r7, sp, #0
  /* USER CODE BEGIN USART1_IRQn 0 */

  /* USER CODE END USART1_IRQn 0 */
  HAL_UART_IRQHandler(&huart1);
 8001e4c:	4802      	ldr	r0, [pc, #8]	@ (8001e58 <USART1_IRQHandler+0x10>)
 8001e4e:	f002 fa59 	bl	8004304 <HAL_UART_IRQHandler>
  /* USER CODE BEGIN USART1_IRQn 1 */

  /* USER CODE END USART1_IRQn 1 */
}
 8001e52:	bf00      	nop
 8001e54:	bd80      	pop	{r7, pc}
 8001e56:	bf00      	nop
 8001e58:	20000248 	.word	0x20000248

08001e5c <_getpid>:
void initialise_monitor_handles()
{
}

int _getpid(void)
{
 8001e5c:	b480      	push	{r7}
 8001e5e:	af00      	add	r7, sp, #0
  return 1;
 8001e60:	2301      	movs	r3, #1
}
 8001e62:	4618      	mov	r0, r3
 8001e64:	46bd      	mov	sp, r7
 8001e66:	f85d 7b04 	ldr.w	r7, [sp], #4
 8001e6a:	4770      	bx	lr

08001e6c <_kill>:

int _kill(int pid, int sig)
{
 8001e6c:	b580      	push	{r7, lr}
 8001e6e:	b082      	sub	sp, #8
 8001e70:	af00      	add	r7, sp, #0
 8001e72:	6078      	str	r0, [r7, #4]
 8001e74:	6039      	str	r1, [r7, #0]
  (void)pid;
  (void)sig;
  errno = EINVAL;
 8001e76:	f004 ff37 	bl	8006ce8 <__errno>
 8001e7a:	4603      	mov	r3, r0
 8001e7c:	2216      	movs	r2, #22
 8001e7e:	601a      	str	r2, [r3, #0]
  return -1;
 8001e80:	f04f 33ff 	mov.w	r3, #4294967295
}
 8001e84:	4618      	mov	r0, r3
 8001e86:	3708      	adds	r7, #8
 8001e88:	46bd      	mov	sp, r7
 8001e8a:	bd80      	pop	{r7, pc}

08001e8c <_exit>:

void _exit (int status)
{
 8001e8c:	b580      	push	{r7, lr}
 8001e8e:	b082      	sub	sp, #8
 8001e90:	af00      	add	r7, sp, #0
 8001e92:	6078      	str	r0, [r7, #4]
  _kill(status, -1);
 8001e94:	f04f 31ff 	mov.w	r1, #4294967295
 8001e98:	6878      	ldr	r0, [r7, #4]
 8001e9a:	f7ff ffe7 	bl	8001e6c <_kill>
  while (1) {}    /* Make sure we hang here */
 8001e9e:	bf00      	nop
 8001ea0:	e7fd      	b.n	8001e9e <_exit+0x12>

08001ea2 <_read>:
}

__attribute__((weak)) int _read(int file, char *ptr, int len)
{
 8001ea2:	b580      	push	{r7, lr}
 8001ea4:	b086      	sub	sp, #24
 8001ea6:	af00      	add	r7, sp, #0
 8001ea8:	60f8      	str	r0, [r7, #12]
 8001eaa:	60b9      	str	r1, [r7, #8]
 8001eac:	607a      	str	r2, [r7, #4]
  (void)file;
  int DataIdx;

  for (DataIdx = 0; DataIdx < len; DataIdx++)
 8001eae:	2300      	movs	r3, #0
 8001eb0:	617b      	str	r3, [r7, #20]
 8001eb2:	e00a      	b.n	8001eca <_read+0x28>
  {
    *ptr++ = __io_getchar();
 8001eb4:	f3af 8000 	nop.w
 8001eb8:	4601      	mov	r1, r0
 8001eba:	68bb      	ldr	r3, [r7, #8]
 8001ebc:	1c5a      	adds	r2, r3, #1
 8001ebe:	60ba      	str	r2, [r7, #8]
 8001ec0:	b2ca      	uxtb	r2, r1
 8001ec2:	701a      	strb	r2, [r3, #0]
  for (DataIdx = 0; DataIdx < len; DataIdx++)
 8001ec4:	697b      	ldr	r3, [r7, #20]
 8001ec6:	3301      	adds	r3, #1
 8001ec8:	617b      	str	r3, [r7, #20]
 8001eca:	697a      	ldr	r2, [r7, #20]
 8001ecc:	687b      	ldr	r3, [r7, #4]
 8001ece:	429a      	cmp	r2, r3
 8001ed0:	dbf0      	blt.n	8001eb4 <_read+0x12>
  }

  return len;
 8001ed2:	687b      	ldr	r3, [r7, #4]
}
 8001ed4:	4618      	mov	r0, r3
 8001ed6:	3718      	adds	r7, #24
 8001ed8:	46bd      	mov	sp, r7
 8001eda:	bd80      	pop	{r7, pc}

08001edc <_close>:
  }
  return len;
}

int _close(int file)
{
 8001edc:	b480      	push	{r7}
 8001ede:	b083      	sub	sp, #12
 8001ee0:	af00      	add	r7, sp, #0
 8001ee2:	6078      	str	r0, [r7, #4]
  (void)file;
  return -1;
 8001ee4:	f04f 33ff 	mov.w	r3, #4294967295
}
 8001ee8:	4618      	mov	r0, r3
 8001eea:	370c      	adds	r7, #12
 8001eec:	46bd      	mov	sp, r7
 8001eee:	f85d 7b04 	ldr.w	r7, [sp], #4
 8001ef2:	4770      	bx	lr

08001ef4 <_fstat>:


int _fstat(int file, struct stat *st)
{
 8001ef4:	b480      	push	{r7}
 8001ef6:	b083      	sub	sp, #12
 8001ef8:	af00      	add	r7, sp, #0
 8001efa:	6078      	str	r0, [r7, #4]
 8001efc:	6039      	str	r1, [r7, #0]
  (void)file;
  st->st_mode = S_IFCHR;
 8001efe:	683b      	ldr	r3, [r7, #0]
 8001f00:	f44f 5200 	mov.w	r2, #8192	@ 0x2000
 8001f04:	605a      	str	r2, [r3, #4]
  return 0;
 8001f06:	2300      	movs	r3, #0
}
 8001f08:	4618      	mov	r0, r3
 8001f0a:	370c      	adds	r7, #12
 8001f0c:	46bd      	mov	sp, r7
 8001f0e:	f85d 7b04 	ldr.w	r7, [sp], #4
 8001f12:	4770      	bx	lr

08001f14 <_isatty>:

int _isatty(int file)
{
 8001f14:	b480      	push	{r7}
 8001f16:	b083      	sub	sp, #12
 8001f18:	af00      	add	r7, sp, #0
 8001f1a:	6078      	str	r0, [r7, #4]
  (void)file;
  return 1;
 8001f1c:	2301      	movs	r3, #1
}
 8001f1e:	4618      	mov	r0, r3
 8001f20:	370c      	adds	r7, #12
 8001f22:	46bd      	mov	sp, r7
 8001f24:	f85d 7b04 	ldr.w	r7, [sp], #4
 8001f28:	4770      	bx	lr

08001f2a <_lseek>:

int _lseek(int file, int ptr, int dir)
{
 8001f2a:	b480      	push	{r7}
 8001f2c:	b085      	sub	sp, #20
 8001f2e:	af00      	add	r7, sp, #0
 8001f30:	60f8      	str	r0, [r7, #12]
 8001f32:	60b9      	str	r1, [r7, #8]
 8001f34:	607a      	str	r2, [r7, #4]
  (void)file;
  (void)ptr;
  (void)dir;
  return 0;
 8001f36:	2300      	movs	r3, #0
}
 8001f38:	4618      	mov	r0, r3
 8001f3a:	3714      	adds	r7, #20
 8001f3c:	46bd      	mov	sp, r7
 8001f3e:	f85d 7b04 	ldr.w	r7, [sp], #4
 8001f42:	4770      	bx	lr

08001f44 <_sbrk>:
 *
 * @param incr Memory size
 * @return Pointer to allocated memory
 */
void *_sbrk(ptrdiff_t incr)
{
 8001f44:	b580      	push	{r7, lr}
 8001f46:	b086      	sub	sp, #24
 8001f48:	af00      	add	r7, sp, #0
 8001f4a:	6078      	str	r0, [r7, #4]
  extern uint8_t _end; /* Symbol defined in the linker script */
  extern uint8_t _estack; /* Symbol defined in the linker script */
  extern uint32_t _Min_Stack_Size; /* Symbol defined in the linker script */
  const uint32_t stack_limit = (uint32_t)&_estack - (uint32_t)&_Min_Stack_Size;
 8001f4c:	4a14      	ldr	r2, [pc, #80]	@ (8001fa0 <_sbrk+0x5c>)
 8001f4e:	4b15      	ldr	r3, [pc, #84]	@ (8001fa4 <_sbrk+0x60>)
 8001f50:	1ad3      	subs	r3, r2, r3
 8001f52:	617b      	str	r3, [r7, #20]
  const uint8_t *max_heap = (uint8_t *)stack_limit;
 8001f54:	697b      	ldr	r3, [r7, #20]
 8001f56:	613b      	str	r3, [r7, #16]
  uint8_t *prev_heap_end;

  /* Initialize heap end at first call */
  if (NULL == __sbrk_heap_end)
 8001f58:	4b13      	ldr	r3, [pc, #76]	@ (8001fa8 <_sbrk+0x64>)
 8001f5a:	681b      	ldr	r3, [r3, #0]
 8001f5c:	2b00      	cmp	r3, #0
 8001f5e:	d102      	bne.n	8001f66 <_sbrk+0x22>
  {
    __sbrk_heap_end = &_end;
 8001f60:	4b11      	ldr	r3, [pc, #68]	@ (8001fa8 <_sbrk+0x64>)
 8001f62:	4a12      	ldr	r2, [pc, #72]	@ (8001fac <_sbrk+0x68>)
 8001f64:	601a      	str	r2, [r3, #0]
  }

  /* Protect heap from growing into the reserved MSP stack */
  if (__sbrk_heap_end + incr > max_heap)
 8001f66:	4b10      	ldr	r3, [pc, #64]	@ (8001fa8 <_sbrk+0x64>)
 8001f68:	681a      	ldr	r2, [r3, #0]
 8001f6a:	687b      	ldr	r3, [r7, #4]
 8001f6c:	4413      	add	r3, r2
 8001f6e:	693a      	ldr	r2, [r7, #16]
 8001f70:	429a      	cmp	r2, r3
 8001f72:	d207      	bcs.n	8001f84 <_sbrk+0x40>
  {
    errno = ENOMEM;
 8001f74:	f004 feb8 	bl	8006ce8 <__errno>
 8001f78:	4603      	mov	r3, r0
 8001f7a:	220c      	movs	r2, #12
 8001f7c:	601a      	str	r2, [r3, #0]
    return (void *)-1;
 8001f7e:	f04f 33ff 	mov.w	r3, #4294967295
 8001f82:	e009      	b.n	8001f98 <_sbrk+0x54>
  }

  prev_heap_end = __sbrk_heap_end;
 8001f84:	4b08      	ldr	r3, [pc, #32]	@ (8001fa8 <_sbrk+0x64>)
 8001f86:	681b      	ldr	r3, [r3, #0]
 8001f88:	60fb      	str	r3, [r7, #12]
  __sbrk_heap_end += incr;
 8001f8a:	4b07      	ldr	r3, [pc, #28]	@ (8001fa8 <_sbrk+0x64>)
 8001f8c:	681a      	ldr	r2, [r3, #0]
 8001f8e:	687b      	ldr	r3, [r7, #4]
 8001f90:	4413      	add	r3, r2
 8001f92:	4a05      	ldr	r2, [pc, #20]	@ (8001fa8 <_sbrk+0x64>)
 8001f94:	6013      	str	r3, [r2, #0]

  return (void *)prev_heap_end;
 8001f96:	68fb      	ldr	r3, [r7, #12]
}
 8001f98:	4618      	mov	r0, r3
 8001f9a:	3718      	adds	r7, #24
 8001f9c:	46bd      	mov	sp, r7
 8001f9e:	bd80      	pop	{r7, pc}
 8001fa0:	20010000 	.word	0x20010000
 8001fa4:	00000400 	.word	0x00000400
 8001fa8:	20000394 	.word	0x20000394
 8001fac:	200004e8 	.word	0x200004e8

08001fb0 <SystemInit>:
  *         configuration.
  * @param  None
  * @retval None
  */
void SystemInit(void)
{
 8001fb0:	b480      	push	{r7}
 8001fb2:	af00      	add	r7, sp, #0
  /* FPU settings ------------------------------------------------------------*/
  #if (__FPU_PRESENT == 1) && (__FPU_USED == 1)
    SCB->CPACR |= ((3UL << 10*2)|(3UL << 11*2));  /* set CP10 and CP11 Full Access */
 8001fb4:	4b06      	ldr	r3, [pc, #24]	@ (8001fd0 <SystemInit+0x20>)
 8001fb6:	f8d3 3088 	ldr.w	r3, [r3, #136]	@ 0x88
 8001fba:	4a05      	ldr	r2, [pc, #20]	@ (8001fd0 <SystemInit+0x20>)
 8001fbc:	f443 0370 	orr.w	r3, r3, #15728640	@ 0xf00000
 8001fc0:	f8c2 3088 	str.w	r3, [r2, #136]	@ 0x88

  /* Configure the Vector Table location -------------------------------------*/
#if defined(USER_VECT_TAB_ADDRESS)
  SCB->VTOR = VECT_TAB_BASE_ADDRESS | VECT_TAB_OFFSET; /* Vector Table Relocation in Internal SRAM */
#endif /* USER_VECT_TAB_ADDRESS */
}
 8001fc4:	bf00      	nop
 8001fc6:	46bd      	mov	sp, r7
 8001fc8:	f85d 7b04 	ldr.w	r7, [sp], #4
 8001fcc:	4770      	bx	lr
 8001fce:	bf00      	nop
 8001fd0:	e000ed00 	.word	0xe000ed00

08001fd4 <Reset_Handler>:

    .section  .text.Reset_Handler
  .weak  Reset_Handler
  .type  Reset_Handler, %function
Reset_Handler:  
  ldr   sp, =_estack      /* set stack pointer */
 8001fd4:	f8df d034 	ldr.w	sp, [pc, #52]	@ 800200c <LoopFillZerobss+0xe>
  
/* Call the clock system initialization function.*/
  bl  SystemInit  
 8001fd8:	f7ff ffea 	bl	8001fb0 <SystemInit>

/* Copy the data segment initializers from flash to SRAM */  
  ldr r0, =_sdata
 8001fdc:	480c      	ldr	r0, [pc, #48]	@ (8002010 <LoopFillZerobss+0x12>)
  ldr r1, =_edata
 8001fde:	490d      	ldr	r1, [pc, #52]	@ (8002014 <LoopFillZerobss+0x16>)
  ldr r2, =_sidata
 8001fe0:	4a0d      	ldr	r2, [pc, #52]	@ (8002018 <LoopFillZerobss+0x1a>)
  movs r3, #0
 8001fe2:	2300      	movs	r3, #0
  b LoopCopyDataInit
 8001fe4:	e002      	b.n	8001fec <LoopCopyDataInit>

08001fe6 <CopyDataInit>:

CopyDataInit:
  ldr r4, [r2, r3]
 8001fe6:	58d4      	ldr	r4, [r2, r3]
  str r4, [r0, r3]
 8001fe8:	50c4      	str	r4, [r0, r3]
  adds r3, r3, #4
 8001fea:	3304      	adds	r3, #4

08001fec <LoopCopyDataInit>:

LoopCopyDataInit:
  adds r4, r0, r3
 8001fec:	18c4      	adds	r4, r0, r3
  cmp r4, r1
 8001fee:	428c      	cmp	r4, r1
  bcc CopyDataInit
 8001ff0:	d3f9      	bcc.n	8001fe6 <CopyDataInit>
  
/* Zero fill the bss segment. */
  ldr r2, =_sbss
 8001ff2:	4a0a      	ldr	r2, [pc, #40]	@ (800201c <LoopFillZerobss+0x1e>)
  ldr r4, =_ebss
 8001ff4:	4c0a      	ldr	r4, [pc, #40]	@ (8002020 <LoopFillZerobss+0x22>)
  movs r3, #0
 8001ff6:	2300      	movs	r3, #0
  b LoopFillZerobss
 8001ff8:	e001      	b.n	8001ffe <LoopFillZerobss>

08001ffa <FillZerobss>:

FillZerobss:
  str  r3, [r2]
 8001ffa:	6013      	str	r3, [r2, #0]
  adds r2, r2, #4
 8001ffc:	3204      	adds	r2, #4

08001ffe <LoopFillZerobss>:

LoopFillZerobss:
  cmp r2, r4
 8001ffe:	42a2      	cmp	r2, r4
  bcc FillZerobss
 8002000:	d3fb      	bcc.n	8001ffa <FillZerobss>

/* Call static constructors */
    bl __libc_init_array
 8002002:	f004 fe77 	bl	8006cf4 <__libc_init_array>
/* Call the application's entry point.*/
  bl  main
 8002006:	f7ff f813 	bl	8001030 <main>
  bx  lr    
 800200a:	4770      	bx	lr
  ldr   sp, =_estack      /* set stack pointer */
 800200c:	20010000 	.word	0x20010000
  ldr r0, =_sdata
 8002010:	20000000 	.word	0x20000000
  ldr r1, =_edata
 8002014:	200001d8 	.word	0x200001d8
  ldr r2, =_sidata
 8002018:	08009798 	.word	0x08009798
  ldr r2, =_sbss
 800201c:	200001d8 	.word	0x200001d8
  ldr r4, =_ebss
 8002020:	200004e8 	.word	0x200004e8

08002024 <ADC_IRQHandler>:
 * @retval None       
*/
    .section  .text.Default_Handler,"ax",%progbits
Default_Handler:
Infinite_Loop:
  b  Infinite_Loop
 8002024:	e7fe      	b.n	8002024 <ADC_IRQHandler>
	...

08002028 <HAL_Init>:
  *         need to ensure that the SysTick time base is always set to 1 millisecond
  *         to have correct HAL operation.
  * @retval HAL status
  */
HAL_StatusTypeDef HAL_Init(void)
{
 8002028:	b580      	push	{r7, lr}
 800202a:	af00      	add	r7, sp, #0
  /* Configure Flash prefetch, Instruction cache, Data cache */ 
#if (INSTRUCTION_CACHE_ENABLE != 0U)
  __HAL_FLASH_INSTRUCTION_CACHE_ENABLE();
 800202c:	4b0e      	ldr	r3, [pc, #56]	@ (8002068 <HAL_Init+0x40>)
 800202e:	681b      	ldr	r3, [r3, #0]
 8002030:	4a0d      	ldr	r2, [pc, #52]	@ (8002068 <HAL_Init+0x40>)
 8002032:	f443 7300 	orr.w	r3, r3, #512	@ 0x200
 8002036:	6013      	str	r3, [r2, #0]
#endif /* INSTRUCTION_CACHE_ENABLE */

#if (DATA_CACHE_ENABLE != 0U)
  __HAL_FLASH_DATA_CACHE_ENABLE();
 8002038:	4b0b      	ldr	r3, [pc, #44]	@ (8002068 <HAL_Init+0x40>)
 800203a:	681b      	ldr	r3, [r3, #0]
 800203c:	4a0a      	ldr	r2, [pc, #40]	@ (8002068 <HAL_Init+0x40>)
 800203e:	f443 6380 	orr.w	r3, r3, #1024	@ 0x400
 8002042:	6013      	str	r3, [r2, #0]
#endif /* DATA_CACHE_ENABLE */

#if (PREFETCH_ENABLE != 0U)
  __HAL_FLASH_PREFETCH_BUFFER_ENABLE();
 8002044:	4b08      	ldr	r3, [pc, #32]	@ (8002068 <HAL_Init+0x40>)
 8002046:	681b      	ldr	r3, [r3, #0]
 8002048:	4a07      	ldr	r2, [pc, #28]	@ (8002068 <HAL_Init+0x40>)
 800204a:	f443 7380 	orr.w	r3, r3, #256	@ 0x100
 800204e:	6013      	str	r3, [r2, #0]
#endif /* PREFETCH_ENABLE */

  /* Set Interrupt Group Priority */
  HAL_NVIC_SetPriorityGrouping(NVIC_PRIORITYGROUP_4);
 8002050:	2003      	movs	r0, #3
 8002052:	f000 f94f 	bl	80022f4 <HAL_NVIC_SetPriorityGrouping>

  /* Use systick as time base source and configure 1ms tick (default clock after Reset is HSI) */
  HAL_InitTick(TICK_INT_PRIORITY);
 8002056:	200f      	movs	r0, #15
 8002058:	f000 f808 	bl	800206c <HAL_InitTick>

  /* Init the low level hardware */
  HAL_MspInit();
 800205c:	f7ff fdd0 	bl	8001c00 <HAL_MspInit>

  /* Return function status */
  return HAL_OK;
 8002060:	2300      	movs	r3, #0
}
 8002062:	4618      	mov	r0, r3
 8002064:	bd80      	pop	{r7, pc}
 8002066:	bf00      	nop
 8002068:	40023c00 	.word	0x40023c00

0800206c <HAL_InitTick>:
  *       implementation  in user file.
  * @param TickPriority Tick interrupt priority.
  * @retval HAL status
  */
__weak HAL_StatusTypeDef HAL_InitTick(uint32_t TickPriority)
{
 800206c:	b580      	push	{r7, lr}
 800206e:	b082      	sub	sp, #8
 8002070:	af00      	add	r7, sp, #0
 8002072:	6078      	str	r0, [r7, #4]
  /* Configure the SysTick to have interrupt in 1ms time basis*/
  if (HAL_SYSTICK_Config(SystemCoreClock / (1000U / uwTickFreq)) > 0U)
 8002074:	4b12      	ldr	r3, [pc, #72]	@ (80020c0 <HAL_InitTick+0x54>)
 8002076:	681a      	ldr	r2, [r3, #0]
 8002078:	4b12      	ldr	r3, [pc, #72]	@ (80020c4 <HAL_InitTick+0x58>)
 800207a:	781b      	ldrb	r3, [r3, #0]
 800207c:	4619      	mov	r1, r3
 800207e:	f44f 737a 	mov.w	r3, #1000	@ 0x3e8
 8002082:	fbb3 f3f1 	udiv	r3, r3, r1
 8002086:	fbb2 f3f3 	udiv	r3, r2, r3
 800208a:	4618      	mov	r0, r3
 800208c:	f000 f967 	bl	800235e <HAL_SYSTICK_Config>
 8002090:	4603      	mov	r3, r0
 8002092:	2b00      	cmp	r3, #0
 8002094:	d001      	beq.n	800209a <HAL_InitTick+0x2e>
  {
    return HAL_ERROR;
 8002096:	2301      	movs	r3, #1
 8002098:	e00e      	b.n	80020b8 <HAL_InitTick+0x4c>
  }

  /* Configure the SysTick IRQ priority */
  if (TickPriority < (1UL << __NVIC_PRIO_BITS))
 800209a:	687b      	ldr	r3, [r7, #4]
 800209c:	2b0f      	cmp	r3, #15
 800209e:	d80a      	bhi.n	80020b6 <HAL_InitTick+0x4a>
  {
    HAL_NVIC_SetPriority(SysTick_IRQn, TickPriority, 0U);
 80020a0:	2200      	movs	r2, #0
 80020a2:	6879      	ldr	r1, [r7, #4]
 80020a4:	f04f 30ff 	mov.w	r0, #4294967295
 80020a8:	f000 f92f 	bl	800230a <HAL_NVIC_SetPriority>
    uwTickPrio = TickPriority;
 80020ac:	4a06      	ldr	r2, [pc, #24]	@ (80020c8 <HAL_InitTick+0x5c>)
 80020ae:	687b      	ldr	r3, [r7, #4]
 80020b0:	6013      	str	r3, [r2, #0]
  {
    return HAL_ERROR;
  }

  /* Return function status */
  return HAL_OK;
 80020b2:	2300      	movs	r3, #0
 80020b4:	e000      	b.n	80020b8 <HAL_InitTick+0x4c>
    return HAL_ERROR;
 80020b6:	2301      	movs	r3, #1
}
 80020b8:	4618      	mov	r0, r3
 80020ba:	3708      	adds	r7, #8
 80020bc:	46bd      	mov	sp, r7
 80020be:	bd80      	pop	{r7, pc}
 80020c0:	20000004 	.word	0x20000004
 80020c4:	2000000c 	.word	0x2000000c
 80020c8:	20000008 	.word	0x20000008

080020cc <HAL_IncTick>:
 * @note This function is declared as __weak to be overwritten in case of other 
  *      implementations in user file.
  * @retval None
  */
__weak void HAL_IncTick(void)
{
 80020cc:	b480      	push	{r7}
 80020ce:	af00      	add	r7, sp, #0
  uwTick += uwTickFreq;
 80020d0:	4b06      	ldr	r3, [pc, #24]	@ (80020ec <HAL_IncTick+0x20>)
 80020d2:	781b      	ldrb	r3, [r3, #0]
 80020d4:	461a      	mov	r2, r3
 80020d6:	4b06      	ldr	r3, [pc, #24]	@ (80020f0 <HAL_IncTick+0x24>)
 80020d8:	681b      	ldr	r3, [r3, #0]
 80020da:	4413      	add	r3, r2
 80020dc:	4a04      	ldr	r2, [pc, #16]	@ (80020f0 <HAL_IncTick+0x24>)
 80020de:	6013      	str	r3, [r2, #0]
}
 80020e0:	bf00      	nop
 80020e2:	46bd      	mov	sp, r7
 80020e4:	f85d 7b04 	ldr.w	r7, [sp], #4
 80020e8:	4770      	bx	lr
 80020ea:	bf00      	nop
 80020ec:	2000000c 	.word	0x2000000c
 80020f0:	20000398 	.word	0x20000398

080020f4 <HAL_GetTick>:
  * @note This function is declared as __weak to be overwritten in case of other 
  *       implementations in user file.
  * @retval tick value
  */
__weak uint32_t HAL_GetTick(void)
{
 80020f4:	b480      	push	{r7}
 80020f6:	af00      	add	r7, sp, #0
  return uwTick;
 80020f8:	4b03      	ldr	r3, [pc, #12]	@ (8002108 <HAL_GetTick+0x14>)
 80020fa:	681b      	ldr	r3, [r3, #0]
}
 80020fc:	4618      	mov	r0, r3
 80020fe:	46bd      	mov	sp, r7
 8002100:	f85d 7b04 	ldr.w	r7, [sp], #4
 8002104:	4770      	bx	lr
 8002106:	bf00      	nop
 8002108:	20000398 	.word	0x20000398

0800210c <HAL_Delay>:
  *       implementations in user file.
  * @param Delay specifies the delay time length, in milliseconds.
  * @retval None
  */
__weak void HAL_Delay(uint32_t Delay)
{
 800210c:	b580      	push	{r7, lr}
 800210e:	b084      	sub	sp, #16
 8002110:	af00      	add	r7, sp, #0
 8002112:	6078      	str	r0, [r7, #4]
  uint32_t tickstart = HAL_GetTick();
 8002114:	f7ff ffee 	bl	80020f4 <HAL_GetTick>
 8002118:	60b8      	str	r0, [r7, #8]
  uint32_t wait = Delay;
 800211a:	687b      	ldr	r3, [r7, #4]
 800211c:	60fb      	str	r3, [r7, #12]

  /* Add a freq to guarantee minimum wait */
  if (wait < HAL_MAX_DELAY)
 800211e:	68fb      	ldr	r3, [r7, #12]
 8002120:	f1b3 3fff 	cmp.w	r3, #4294967295
 8002124:	d005      	beq.n	8002132 <HAL_Delay+0x26>
  {
    wait += (uint32_t)(uwTickFreq);
 8002126:	4b0a      	ldr	r3, [pc, #40]	@ (8002150 <HAL_Delay+0x44>)
 8002128:	781b      	ldrb	r3, [r3, #0]
 800212a:	461a      	mov	r2, r3
 800212c:	68fb      	ldr	r3, [r7, #12]
 800212e:	4413      	add	r3, r2
 8002130:	60fb      	str	r3, [r7, #12]
  }

  while((HAL_GetTick() - tickstart) < wait)
 8002132:	bf00      	nop
 8002134:	f7ff ffde 	bl	80020f4 <HAL_GetTick>
 8002138:	4602      	mov	r2, r0
 800213a:	68bb      	ldr	r3, [r7, #8]
 800213c:	1ad3      	subs	r3, r2, r3
 800213e:	68fa      	ldr	r2, [r7, #12]
 8002140:	429a      	cmp	r2, r3
 8002142:	d8f7      	bhi.n	8002134 <HAL_Delay+0x28>
  {
  }
}
 8002144:	bf00      	nop
 8002146:	bf00      	nop
 8002148:	3710      	adds	r7, #16
 800214a:	46bd      	mov	sp, r7
 800214c:	bd80      	pop	{r7, pc}
 800214e:	bf00      	nop
 8002150:	2000000c 	.word	0x2000000c

08002154 <__NVIC_SetPriorityGrouping>:
           In case of a conflict between priority grouping and available
           priority bits (__NVIC_PRIO_BITS), the smallest possible priority group is set.
  \param [in]      PriorityGroup  Priority grouping field.
 */
__STATIC_INLINE void __NVIC_SetPriorityGrouping(uint32_t PriorityGroup)
{
 8002154:	b480      	push	{r7}
 8002156:	b085      	sub	sp, #20
 8002158:	af00      	add	r7, sp, #0
 800215a:	6078      	str	r0, [r7, #4]
  uint32_t reg_value;
  uint32_t PriorityGroupTmp = (PriorityGroup & (uint32_t)0x07UL);             /* only values 0..7 are used          */
 800215c:	687b      	ldr	r3, [r7, #4]
 800215e:	f003 0307 	and.w	r3, r3, #7
 8002162:	60fb      	str	r3, [r7, #12]

  reg_value  =  SCB->AIRCR;                                                   /* read old register configuration    */
 8002164:	4b0c      	ldr	r3, [pc, #48]	@ (8002198 <__NVIC_SetPriorityGrouping+0x44>)
 8002166:	68db      	ldr	r3, [r3, #12]
 8002168:	60bb      	str	r3, [r7, #8]
  reg_value &= ~((uint32_t)(SCB_AIRCR_VECTKEY_Msk | SCB_AIRCR_PRIGROUP_Msk)); /* clear bits to change               */
 800216a:	68ba      	ldr	r2, [r7, #8]
 800216c:	f64f 03ff 	movw	r3, #63743	@ 0xf8ff
 8002170:	4013      	ands	r3, r2
 8002172:	60bb      	str	r3, [r7, #8]
  reg_value  =  (reg_value                                   |
                ((uint32_t)0x5FAUL << SCB_AIRCR_VECTKEY_Pos) |
                (PriorityGroupTmp << SCB_AIRCR_PRIGROUP_Pos)  );              /* Insert write key and priority group */
 8002174:	68fb      	ldr	r3, [r7, #12]
 8002176:	021a      	lsls	r2, r3, #8
                ((uint32_t)0x5FAUL << SCB_AIRCR_VECTKEY_Pos) |
 8002178:	68bb      	ldr	r3, [r7, #8]
 800217a:	4313      	orrs	r3, r2
  reg_value  =  (reg_value                                   |
 800217c:	f043 63bf 	orr.w	r3, r3, #100139008	@ 0x5f80000
 8002180:	f443 3300 	orr.w	r3, r3, #131072	@ 0x20000
 8002184:	60bb      	str	r3, [r7, #8]
  SCB->AIRCR =  reg_value;
 8002186:	4a04      	ldr	r2, [pc, #16]	@ (8002198 <__NVIC_SetPriorityGrouping+0x44>)
 8002188:	68bb      	ldr	r3, [r7, #8]
 800218a:	60d3      	str	r3, [r2, #12]
}
 800218c:	bf00      	nop
 800218e:	3714      	adds	r7, #20
 8002190:	46bd      	mov	sp, r7
 8002192:	f85d 7b04 	ldr.w	r7, [sp], #4
 8002196:	4770      	bx	lr
 8002198:	e000ed00 	.word	0xe000ed00

0800219c <__NVIC_GetPriorityGrouping>:
  \brief   Get Priority Grouping
  \details Reads the priority grouping field from the NVIC Interrupt Controller.
  \return                Priority grouping field (SCB->AIRCR [10:8] PRIGROUP field).
 */
__STATIC_INLINE uint32_t __NVIC_GetPriorityGrouping(void)
{
 800219c:	b480      	push	{r7}
 800219e:	af00      	add	r7, sp, #0
  return ((uint32_t)((SCB->AIRCR & SCB_AIRCR_PRIGROUP_Msk) >> SCB_AIRCR_PRIGROUP_Pos));
 80021a0:	4b04      	ldr	r3, [pc, #16]	@ (80021b4 <__NVIC_GetPriorityGrouping+0x18>)
 80021a2:	68db      	ldr	r3, [r3, #12]
 80021a4:	0a1b      	lsrs	r3, r3, #8
 80021a6:	f003 0307 	and.w	r3, r3, #7
}
 80021aa:	4618      	mov	r0, r3
 80021ac:	46bd      	mov	sp, r7
 80021ae:	f85d 7b04 	ldr.w	r7, [sp], #4
 80021b2:	4770      	bx	lr
 80021b4:	e000ed00 	.word	0xe000ed00

080021b8 <__NVIC_EnableIRQ>:
  \details Enables a device specific interrupt in the NVIC interrupt controller.
  \param [in]      IRQn  Device specific interrupt number.
  \note    IRQn must not be negative.
 */
__STATIC_INLINE void __NVIC_EnableIRQ(IRQn_Type IRQn)
{
 80021b8:	b480      	push	{r7}
 80021ba:	b083      	sub	sp, #12
 80021bc:	af00      	add	r7, sp, #0
 80021be:	4603      	mov	r3, r0
 80021c0:	71fb      	strb	r3, [r7, #7]
  if ((int32_t)(IRQn) >= 0)
 80021c2:	f997 3007 	ldrsb.w	r3, [r7, #7]
 80021c6:	2b00      	cmp	r3, #0
 80021c8:	db0b      	blt.n	80021e2 <__NVIC_EnableIRQ+0x2a>
  {
    __COMPILER_BARRIER();
    NVIC->ISER[(((uint32_t)IRQn) >> 5UL)] = (uint32_t)(1UL << (((uint32_t)IRQn) & 0x1FUL));
 80021ca:	79fb      	ldrb	r3, [r7, #7]
 80021cc:	f003 021f 	and.w	r2, r3, #31
 80021d0:	4907      	ldr	r1, [pc, #28]	@ (80021f0 <__NVIC_EnableIRQ+0x38>)
 80021d2:	f997 3007 	ldrsb.w	r3, [r7, #7]
 80021d6:	095b      	lsrs	r3, r3, #5
 80021d8:	2001      	movs	r0, #1
 80021da:	fa00 f202 	lsl.w	r2, r0, r2
 80021de:	f841 2023 	str.w	r2, [r1, r3, lsl #2]
    __COMPILER_BARRIER();
  }
}
 80021e2:	bf00      	nop
 80021e4:	370c      	adds	r7, #12
 80021e6:	46bd      	mov	sp, r7
 80021e8:	f85d 7b04 	ldr.w	r7, [sp], #4
 80021ec:	4770      	bx	lr
 80021ee:	bf00      	nop
 80021f0:	e000e100 	.word	0xe000e100

080021f4 <__NVIC_SetPriority>:
  \param [in]      IRQn  Interrupt number.
  \param [in]  priority  Priority to set.
  \note    The priority cannot be set for every processor exception.
 */
__STATIC_INLINE void __NVIC_SetPriority(IRQn_Type IRQn, uint32_t priority)
{
 80021f4:	b480      	push	{r7}
 80021f6:	b083      	sub	sp, #12
 80021f8:	af00      	add	r7, sp, #0
 80021fa:	4603      	mov	r3, r0
 80021fc:	6039      	str	r1, [r7, #0]
 80021fe:	71fb      	strb	r3, [r7, #7]
  if ((int32_t)(IRQn) >= 0)
 8002200:	f997 3007 	ldrsb.w	r3, [r7, #7]
 8002204:	2b00      	cmp	r3, #0
 8002206:	db0a      	blt.n	800221e <__NVIC_SetPriority+0x2a>
  {
    NVIC->IP[((uint32_t)IRQn)]               = (uint8_t)((priority << (8U - __NVIC_PRIO_BITS)) & (uint32_t)0xFFUL);
 8002208:	683b      	ldr	r3, [r7, #0]
 800220a:	b2da      	uxtb	r2, r3
 800220c:	490c      	ldr	r1, [pc, #48]	@ (8002240 <__NVIC_SetPriority+0x4c>)
 800220e:	f997 3007 	ldrsb.w	r3, [r7, #7]
 8002212:	0112      	lsls	r2, r2, #4
 8002214:	b2d2      	uxtb	r2, r2
 8002216:	440b      	add	r3, r1
 8002218:	f883 2300 	strb.w	r2, [r3, #768]	@ 0x300
  }
  else
  {
    SCB->SHP[(((uint32_t)IRQn) & 0xFUL)-4UL] = (uint8_t)((priority << (8U - __NVIC_PRIO_BITS)) & (uint32_t)0xFFUL);
  }
}
 800221c:	e00a      	b.n	8002234 <__NVIC_SetPriority+0x40>
    SCB->SHP[(((uint32_t)IRQn) & 0xFUL)-4UL] = (uint8_t)((priority << (8U - __NVIC_PRIO_BITS)) & (uint32_t)0xFFUL);
 800221e:	683b      	ldr	r3, [r7, #0]
 8002220:	b2da      	uxtb	r2, r3
 8002222:	4908      	ldr	r1, [pc, #32]	@ (8002244 <__NVIC_SetPriority+0x50>)
 8002224:	79fb      	ldrb	r3, [r7, #7]
 8002226:	f003 030f 	and.w	r3, r3, #15
 800222a:	3b04      	subs	r3, #4
 800222c:	0112      	lsls	r2, r2, #4
 800222e:	b2d2      	uxtb	r2, r2
 8002230:	440b      	add	r3, r1
 8002232:	761a      	strb	r2, [r3, #24]
}
 8002234:	bf00      	nop
 8002236:	370c      	adds	r7, #12
 8002238:	46bd      	mov	sp, r7
 800223a:	f85d 7b04 	ldr.w	r7, [sp], #4
 800223e:	4770      	bx	lr
 8002240:	e000e100 	.word	0xe000e100
 8002244:	e000ed00 	.word	0xe000ed00

08002248 <NVIC_EncodePriority>:
  \param [in]   PreemptPriority  Preemptive priority value (starting from 0).
  \param [in]       SubPriority  Subpriority value (starting from 0).
  \return                        Encoded priority. Value can be used in the function \ref NVIC_SetPriority().
 */
__STATIC_INLINE uint32_t NVIC_EncodePriority (uint32_t PriorityGroup, uint32_t PreemptPriority, uint32_t SubPriority)
{
 8002248:	b480      	push	{r7}
 800224a:	b089      	sub	sp, #36	@ 0x24
 800224c:	af00      	add	r7, sp, #0
 800224e:	60f8      	str	r0, [r7, #12]
 8002250:	60b9      	str	r1, [r7, #8]
 8002252:	607a      	str	r2, [r7, #4]
  uint32_t PriorityGroupTmp = (PriorityGroup & (uint32_t)0x07UL);   /* only values 0..7 are used          */
 8002254:	68fb      	ldr	r3, [r7, #12]
 8002256:	f003 0307 	and.w	r3, r3, #7
 800225a:	61fb      	str	r3, [r7, #28]
  uint32_t PreemptPriorityBits;
  uint32_t SubPriorityBits;

  PreemptPriorityBits = ((7UL - PriorityGroupTmp) > (uint32_t)(__NVIC_PRIO_BITS)) ? (uint32_t)(__NVIC_PRIO_BITS) : (uint32_t)(7UL - PriorityGroupTmp);
 800225c:	69fb      	ldr	r3, [r7, #28]
 800225e:	f1c3 0307 	rsb	r3, r3, #7
 8002262:	2b04      	cmp	r3, #4
 8002264:	bf28      	it	cs
 8002266:	2304      	movcs	r3, #4
 8002268:	61bb      	str	r3, [r7, #24]
  SubPriorityBits     = ((PriorityGroupTmp + (uint32_t)(__NVIC_PRIO_BITS)) < (uint32_t)7UL) ? (uint32_t)0UL : (uint32_t)((PriorityGroupTmp - 7UL) + (uint32_t)(__NVIC_PRIO_BITS));
 800226a:	69fb      	ldr	r3, [r7, #28]
 800226c:	3304      	adds	r3, #4
 800226e:	2b06      	cmp	r3, #6
 8002270:	d902      	bls.n	8002278 <NVIC_EncodePriority+0x30>
 8002272:	69fb      	ldr	r3, [r7, #28]
 8002274:	3b03      	subs	r3, #3
 8002276:	e000      	b.n	800227a <NVIC_EncodePriority+0x32>
 8002278:	2300      	movs	r3, #0
 800227a:	617b      	str	r3, [r7, #20]

  return (
           ((PreemptPriority & (uint32_t)((1UL << (PreemptPriorityBits)) - 1UL)) << SubPriorityBits) |
 800227c:	f04f 32ff 	mov.w	r2, #4294967295
 8002280:	69bb      	ldr	r3, [r7, #24]
 8002282:	fa02 f303 	lsl.w	r3, r2, r3
 8002286:	43da      	mvns	r2, r3
 8002288:	68bb      	ldr	r3, [r7, #8]
 800228a:	401a      	ands	r2, r3
 800228c:	697b      	ldr	r3, [r7, #20]
 800228e:	409a      	lsls	r2, r3
           ((SubPriority     & (uint32_t)((1UL << (SubPriorityBits    )) - 1UL)))
 8002290:	f04f 31ff 	mov.w	r1, #4294967295
 8002294:	697b      	ldr	r3, [r7, #20]
 8002296:	fa01 f303 	lsl.w	r3, r1, r3
 800229a:	43d9      	mvns	r1, r3
 800229c:	687b      	ldr	r3, [r7, #4]
 800229e:	400b      	ands	r3, r1
           ((PreemptPriority & (uint32_t)((1UL << (PreemptPriorityBits)) - 1UL)) << SubPriorityBits) |
 80022a0:	4313      	orrs	r3, r2
         );
}
 80022a2:	4618      	mov	r0, r3
 80022a4:	3724      	adds	r7, #36	@ 0x24
 80022a6:	46bd      	mov	sp, r7
 80022a8:	f85d 7b04 	ldr.w	r7, [sp], #4
 80022ac:	4770      	bx	lr
	...

080022b0 <SysTick_Config>:
  \note    When the variable <b>__Vendor_SysTickConfig</b> is set to 1, then the
           function <b>SysTick_Config</b> is not included. In this case, the file <b><i>device</i>.h</b>
           must contain a vendor-specific implementation of this function.
 */
__STATIC_INLINE uint32_t SysTick_Config(uint32_t ticks)
{
 80022b0:	b580      	push	{r7, lr}
 80022b2:	b082      	sub	sp, #8
 80022b4:	af00      	add	r7, sp, #0
 80022b6:	6078      	str	r0, [r7, #4]
  if ((ticks - 1UL) > SysTick_LOAD_RELOAD_Msk)
 80022b8:	687b      	ldr	r3, [r7, #4]
 80022ba:	3b01      	subs	r3, #1
 80022bc:	f1b3 7f80 	cmp.w	r3, #16777216	@ 0x1000000
 80022c0:	d301      	bcc.n	80022c6 <SysTick_Config+0x16>
  {
    return (1UL);                                                   /* Reload value impossible */
 80022c2:	2301      	movs	r3, #1
 80022c4:	e00f      	b.n	80022e6 <SysTick_Config+0x36>
  }

  SysTick->LOAD  = (uint32_t)(ticks - 1UL);                         /* set reload register */
 80022c6:	4a0a      	ldr	r2, [pc, #40]	@ (80022f0 <SysTick_Config+0x40>)
 80022c8:	687b      	ldr	r3, [r7, #4]
 80022ca:	3b01      	subs	r3, #1
 80022cc:	6053      	str	r3, [r2, #4]
  NVIC_SetPriority (SysTick_IRQn, (1UL << __NVIC_PRIO_BITS) - 1UL); /* set Priority for Systick Interrupt */
 80022ce:	210f      	movs	r1, #15
 80022d0:	f04f 30ff 	mov.w	r0, #4294967295
 80022d4:	f7ff ff8e 	bl	80021f4 <__NVIC_SetPriority>
  SysTick->VAL   = 0UL;                                             /* Load the SysTick Counter Value */
 80022d8:	4b05      	ldr	r3, [pc, #20]	@ (80022f0 <SysTick_Config+0x40>)
 80022da:	2200      	movs	r2, #0
 80022dc:	609a      	str	r2, [r3, #8]
  SysTick->CTRL  = SysTick_CTRL_CLKSOURCE_Msk |
 80022de:	4b04      	ldr	r3, [pc, #16]	@ (80022f0 <SysTick_Config+0x40>)
 80022e0:	2207      	movs	r2, #7
 80022e2:	601a      	str	r2, [r3, #0]
                   SysTick_CTRL_TICKINT_Msk   |
                   SysTick_CTRL_ENABLE_Msk;                         /* Enable SysTick IRQ and SysTick Timer */
  return (0UL);                                                     /* Function successful */
 80022e4:	2300      	movs	r3, #0
}
 80022e6:	4618      	mov	r0, r3
 80022e8:	3708      	adds	r7, #8
 80022ea:	46bd      	mov	sp, r7
 80022ec:	bd80      	pop	{r7, pc}
 80022ee:	bf00      	nop
 80022f0:	e000e010 	.word	0xe000e010

080022f4 <HAL_NVIC_SetPriorityGrouping>:
  * @note   When the NVIC_PriorityGroup_0 is selected, IRQ preemption is no more possible. 
  *         The pending IRQ priority will be managed only by the subpriority. 
  * @retval None
  */
void HAL_NVIC_SetPriorityGrouping(uint32_t PriorityGroup)
{
 80022f4:	b580      	push	{r7, lr}
 80022f6:	b082      	sub	sp, #8
 80022f8:	af00      	add	r7, sp, #0
 80022fa:	6078      	str	r0, [r7, #4]
  /* Check the parameters */
  assert_param(IS_NVIC_PRIORITY_GROUP(PriorityGroup));
  
  /* Set the PRIGROUP[10:8] bits according to the PriorityGroup parameter value */
  NVIC_SetPriorityGrouping(PriorityGroup);
 80022fc:	6878      	ldr	r0, [r7, #4]
 80022fe:	f7ff ff29 	bl	8002154 <__NVIC_SetPriorityGrouping>
}
 8002302:	bf00      	nop
 8002304:	3708      	adds	r7, #8
 8002306:	46bd      	mov	sp, r7
 8002308:	bd80      	pop	{r7, pc}

0800230a <HAL_NVIC_SetPriority>:
  *         This parameter can be a value between 0 and 15
  *         A lower priority value indicates a higher priority.          
  * @retval None
  */
void HAL_NVIC_SetPriority(IRQn_Type IRQn, uint32_t PreemptPriority, uint32_t SubPriority)
{ 
 800230a:	b580      	push	{r7, lr}
 800230c:	b086      	sub	sp, #24
 800230e:	af00      	add	r7, sp, #0
 8002310:	4603      	mov	r3, r0
 8002312:	60b9      	str	r1, [r7, #8]
 8002314:	607a      	str	r2, [r7, #4]
 8002316:	73fb      	strb	r3, [r7, #15]
  uint32_t prioritygroup = 0x00U;
 8002318:	2300      	movs	r3, #0
 800231a:	617b      	str	r3, [r7, #20]
  
  /* Check the parameters */
  assert_param(IS_NVIC_SUB_PRIORITY(SubPriority));
  assert_param(IS_NVIC_PREEMPTION_PRIORITY(PreemptPriority));
  
  prioritygroup = NVIC_GetPriorityGrouping();
 800231c:	f7ff ff3e 	bl	800219c <__NVIC_GetPriorityGrouping>
 8002320:	6178      	str	r0, [r7, #20]
  
  NVIC_SetPriority(IRQn, NVIC_EncodePriority(prioritygroup, PreemptPriority, SubPriority));
 8002322:	687a      	ldr	r2, [r7, #4]
 8002324:	68b9      	ldr	r1, [r7, #8]
 8002326:	6978      	ldr	r0, [r7, #20]
 8002328:	f7ff ff8e 	bl	8002248 <NVIC_EncodePriority>
 800232c:	4602      	mov	r2, r0
 800232e:	f997 300f 	ldrsb.w	r3, [r7, #15]
 8002332:	4611      	mov	r1, r2
 8002334:	4618      	mov	r0, r3
 8002336:	f7ff ff5d 	bl	80021f4 <__NVIC_SetPriority>
}
 800233a:	bf00      	nop
 800233c:	3718      	adds	r7, #24
 800233e:	46bd      	mov	sp, r7
 8002340:	bd80      	pop	{r7, pc}

08002342 <HAL_NVIC_EnableIRQ>:
  *         This parameter can be an enumerator of IRQn_Type enumeration
  *         (For the complete STM32 Devices IRQ Channels list, please refer to the appropriate CMSIS device file (stm32f4xxxx.h))
  * @retval None
  */
void HAL_NVIC_EnableIRQ(IRQn_Type IRQn)
{
 8002342:	b580      	push	{r7, lr}
 8002344:	b082      	sub	sp, #8
 8002346:	af00      	add	r7, sp, #0
 8002348:	4603      	mov	r3, r0
 800234a:	71fb      	strb	r3, [r7, #7]
  /* Check the parameters */
  assert_param(IS_NVIC_DEVICE_IRQ(IRQn));
  
  /* Enable interrupt */
  NVIC_EnableIRQ(IRQn);
 800234c:	f997 3007 	ldrsb.w	r3, [r7, #7]
 8002350:	4618      	mov	r0, r3
 8002352:	f7ff ff31 	bl	80021b8 <__NVIC_EnableIRQ>
}
 8002356:	bf00      	nop
 8002358:	3708      	adds	r7, #8
 800235a:	46bd      	mov	sp, r7
 800235c:	bd80      	pop	{r7, pc}

0800235e <HAL_SYSTICK_Config>:
  * @param  TicksNumb Specifies the ticks Number of ticks between two interrupts.
  * @retval status:  - 0  Function succeeded.
  *                  - 1  Function failed.
  */
uint32_t HAL_SYSTICK_Config(uint32_t TicksNumb)
{
 800235e:	b580      	push	{r7, lr}
 8002360:	b082      	sub	sp, #8
 8002362:	af00      	add	r7, sp, #0
 8002364:	6078      	str	r0, [r7, #4]
   return SysTick_Config(TicksNumb);
 8002366:	6878      	ldr	r0, [r7, #4]
 8002368:	f7ff ffa2 	bl	80022b0 <SysTick_Config>
 800236c:	4603      	mov	r3, r0
}
 800236e:	4618      	mov	r0, r3
 8002370:	3708      	adds	r7, #8
 8002372:	46bd      	mov	sp, r7
 8002374:	bd80      	pop	{r7, pc}

08002376 <HAL_DMA_Abort>:
  *        and the Stream will be effectively disabled only after the transfer of
  *        this single data is finished.  
  * @retval HAL status
  */
HAL_StatusTypeDef HAL_DMA_Abort(DMA_HandleTypeDef *hdma)
{
 8002376:	b580      	push	{r7, lr}
 8002378:	b084      	sub	sp, #16
 800237a:	af00      	add	r7, sp, #0
 800237c:	6078      	str	r0, [r7, #4]
  /* calculate DMA base and stream number */
  DMA_Base_Registers *regs = (DMA_Base_Registers *)hdma->StreamBaseAddress;
 800237e:	687b      	ldr	r3, [r7, #4]
 8002380:	6d9b      	ldr	r3, [r3, #88]	@ 0x58
 8002382:	60fb      	str	r3, [r7, #12]
  
  uint32_t tickstart = HAL_GetTick();
 8002384:	f7ff feb6 	bl	80020f4 <HAL_GetTick>
 8002388:	60b8      	str	r0, [r7, #8]
  
  if(hdma->State != HAL_DMA_STATE_BUSY)
 800238a:	687b      	ldr	r3, [r7, #4]
 800238c:	f893 3035 	ldrb.w	r3, [r3, #53]	@ 0x35
 8002390:	b2db      	uxtb	r3, r3
 8002392:	2b02      	cmp	r3, #2
 8002394:	d008      	beq.n	80023a8 <HAL_DMA_Abort+0x32>
  {
    hdma->ErrorCode = HAL_DMA_ERROR_NO_XFER;
 8002396:	687b      	ldr	r3, [r7, #4]
 8002398:	2280      	movs	r2, #128	@ 0x80
 800239a:	655a      	str	r2, [r3, #84]	@ 0x54
    
    /* Process Unlocked */
    __HAL_UNLOCK(hdma);
 800239c:	687b      	ldr	r3, [r7, #4]
 800239e:	2200      	movs	r2, #0
 80023a0:	f883 2034 	strb.w	r2, [r3, #52]	@ 0x34
    
    return HAL_ERROR;
 80023a4:	2301      	movs	r3, #1
 80023a6:	e052      	b.n	800244e <HAL_DMA_Abort+0xd8>
  }
  else
  {
    /* Disable all the transfer interrupts */
    hdma->Instance->CR  &= ~(DMA_IT_TC | DMA_IT_TE | DMA_IT_DME);
 80023a8:	687b      	ldr	r3, [r7, #4]
 80023aa:	681b      	ldr	r3, [r3, #0]
 80023ac:	681a      	ldr	r2, [r3, #0]
 80023ae:	687b      	ldr	r3, [r7, #4]
 80023b0:	681b      	ldr	r3, [r3, #0]
 80023b2:	f022 0216 	bic.w	r2, r2, #22
 80023b6:	601a      	str	r2, [r3, #0]
    hdma->Instance->FCR &= ~(DMA_IT_FE);
 80023b8:	687b      	ldr	r3, [r7, #4]
 80023ba:	681b      	ldr	r3, [r3, #0]
 80023bc:	695a      	ldr	r2, [r3, #20]
 80023be:	687b      	ldr	r3, [r7, #4]
 80023c0:	681b      	ldr	r3, [r3, #0]
 80023c2:	f022 0280 	bic.w	r2, r2, #128	@ 0x80
 80023c6:	615a      	str	r2, [r3, #20]
    
    if((hdma->XferHalfCpltCallback != NULL) || (hdma->XferM1HalfCpltCallback != NULL))
 80023c8:	687b      	ldr	r3, [r7, #4]
 80023ca:	6c1b      	ldr	r3, [r3, #64]	@ 0x40
 80023cc:	2b00      	cmp	r3, #0
 80023ce:	d103      	bne.n	80023d8 <HAL_DMA_Abort+0x62>
 80023d0:	687b      	ldr	r3, [r7, #4]
 80023d2:	6c9b      	ldr	r3, [r3, #72]	@ 0x48
 80023d4:	2b00      	cmp	r3, #0
 80023d6:	d007      	beq.n	80023e8 <HAL_DMA_Abort+0x72>
    {
      hdma->Instance->CR  &= ~(DMA_IT_HT);
 80023d8:	687b      	ldr	r3, [r7, #4]
 80023da:	681b      	ldr	r3, [r3, #0]
 80023dc:	681a      	ldr	r2, [r3, #0]
 80023de:	687b      	ldr	r3, [r7, #4]
 80023e0:	681b      	ldr	r3, [r3, #0]
 80023e2:	f022 0208 	bic.w	r2, r2, #8
 80023e6:	601a      	str	r2, [r3, #0]
    }
    
    /* Disable the stream */
    __HAL_DMA_DISABLE(hdma);
 80023e8:	687b      	ldr	r3, [r7, #4]
 80023ea:	681b      	ldr	r3, [r3, #0]
 80023ec:	681a      	ldr	r2, [r3, #0]
 80023ee:	687b      	ldr	r3, [r7, #4]
 80023f0:	681b      	ldr	r3, [r3, #0]
 80023f2:	f022 0201 	bic.w	r2, r2, #1
 80023f6:	601a      	str	r2, [r3, #0]
    
    /* Check if the DMA Stream is effectively disabled */
    while((hdma->Instance->CR & DMA_SxCR_EN) != RESET)
 80023f8:	e013      	b.n	8002422 <HAL_DMA_Abort+0xac>
    {
      /* Check for the Timeout */
      if((HAL_GetTick() - tickstart ) > HAL_TIMEOUT_DMA_ABORT)
 80023fa:	f7ff fe7b 	bl	80020f4 <HAL_GetTick>
 80023fe:	4602      	mov	r2, r0
 8002400:	68bb      	ldr	r3, [r7, #8]
 8002402:	1ad3      	subs	r3, r2, r3
 8002404:	2b05      	cmp	r3, #5
 8002406:	d90c      	bls.n	8002422 <HAL_DMA_Abort+0xac>
      {
        /* Update error code */
        hdma->ErrorCode = HAL_DMA_ERROR_TIMEOUT;
 8002408:	687b      	ldr	r3, [r7, #4]
 800240a:	2220      	movs	r2, #32
 800240c:	655a      	str	r2, [r3, #84]	@ 0x54
        
        /* Change the DMA state */
        hdma->State = HAL_DMA_STATE_TIMEOUT;
 800240e:	687b      	ldr	r3, [r7, #4]
 8002410:	2203      	movs	r2, #3
 8002412:	f883 2035 	strb.w	r2, [r3, #53]	@ 0x35
        
        /* Process Unlocked */
        __HAL_UNLOCK(hdma);
 8002416:	687b      	ldr	r3, [r7, #4]
 8002418:	2200      	movs	r2, #0
 800241a:	f883 2034 	strb.w	r2, [r3, #52]	@ 0x34
        
        return HAL_TIMEOUT;
 800241e:	2303      	movs	r3, #3
 8002420:	e015      	b.n	800244e <HAL_DMA_Abort+0xd8>
    while((hdma->Instance->CR & DMA_SxCR_EN) != RESET)
 8002422:	687b      	ldr	r3, [r7, #4]
 8002424:	681b      	ldr	r3, [r3, #0]
 8002426:	681b      	ldr	r3, [r3, #0]
 8002428:	f003 0301 	and.w	r3, r3, #1
 800242c:	2b00      	cmp	r3, #0
 800242e:	d1e4      	bne.n	80023fa <HAL_DMA_Abort+0x84>
      }
    }
    
    /* Clear all interrupt flags at correct offset within the register */
    regs->IFCR = 0x3FU << hdma->StreamIndex;
 8002430:	687b      	ldr	r3, [r7, #4]
 8002432:	6ddb      	ldr	r3, [r3, #92]	@ 0x5c
 8002434:	223f      	movs	r2, #63	@ 0x3f
 8002436:	409a      	lsls	r2, r3
 8002438:	68fb      	ldr	r3, [r7, #12]
 800243a:	609a      	str	r2, [r3, #8]
    
    /* Change the DMA state*/
    hdma->State = HAL_DMA_STATE_READY;
 800243c:	687b      	ldr	r3, [r7, #4]
 800243e:	2201      	movs	r2, #1
 8002440:	f883 2035 	strb.w	r2, [r3, #53]	@ 0x35
    
    /* Process Unlocked */
    __HAL_UNLOCK(hdma);
 8002444:	687b      	ldr	r3, [r7, #4]
 8002446:	2200      	movs	r2, #0
 8002448:	f883 2034 	strb.w	r2, [r3, #52]	@ 0x34
  }
  return HAL_OK;
 800244c:	2300      	movs	r3, #0
}
 800244e:	4618      	mov	r0, r3
 8002450:	3710      	adds	r7, #16
 8002452:	46bd      	mov	sp, r7
 8002454:	bd80      	pop	{r7, pc}

08002456 <HAL_DMA_Abort_IT>:
  * @param  hdma   pointer to a DMA_HandleTypeDef structure that contains
  *                 the configuration information for the specified DMA Stream.
  * @retval HAL status
  */
HAL_StatusTypeDef HAL_DMA_Abort_IT(DMA_HandleTypeDef *hdma)
{
 8002456:	b480      	push	{r7}
 8002458:	b083      	sub	sp, #12
 800245a:	af00      	add	r7, sp, #0
 800245c:	6078      	str	r0, [r7, #4]
  if(hdma->State != HAL_DMA_STATE_BUSY)
 800245e:	687b      	ldr	r3, [r7, #4]
 8002460:	f893 3035 	ldrb.w	r3, [r3, #53]	@ 0x35
 8002464:	b2db      	uxtb	r3, r3
 8002466:	2b02      	cmp	r3, #2
 8002468:	d004      	beq.n	8002474 <HAL_DMA_Abort_IT+0x1e>
  {
    hdma->ErrorCode = HAL_DMA_ERROR_NO_XFER;
 800246a:	687b      	ldr	r3, [r7, #4]
 800246c:	2280      	movs	r2, #128	@ 0x80
 800246e:	655a      	str	r2, [r3, #84]	@ 0x54
    return HAL_ERROR;
 8002470:	2301      	movs	r3, #1
 8002472:	e00c      	b.n	800248e <HAL_DMA_Abort_IT+0x38>
  }
  else
  {
    /* Set Abort State  */
    hdma->State = HAL_DMA_STATE_ABORT;
 8002474:	687b      	ldr	r3, [r7, #4]
 8002476:	2205      	movs	r2, #5
 8002478:	f883 2035 	strb.w	r2, [r3, #53]	@ 0x35
    
    /* Disable the stream */
    __HAL_DMA_DISABLE(hdma);
 800247c:	687b      	ldr	r3, [r7, #4]
 800247e:	681b      	ldr	r3, [r3, #0]
 8002480:	681a      	ldr	r2, [r3, #0]
 8002482:	687b      	ldr	r3, [r7, #4]
 8002484:	681b      	ldr	r3, [r3, #0]
 8002486:	f022 0201 	bic.w	r2, r2, #1
 800248a:	601a      	str	r2, [r3, #0]
  }

  return HAL_OK;
 800248c:	2300      	movs	r3, #0
}
 800248e:	4618      	mov	r0, r3
 8002490:	370c      	adds	r7, #12
 8002492:	46bd      	mov	sp, r7
 8002494:	f85d 7b04 	ldr.w	r7, [sp], #4
 8002498:	4770      	bx	lr
	...

0800249c <HAL_GPIO_Init>:
  * @param  GPIO_Init pointer to a GPIO_InitTypeDef structure that contains
  *         the configuration information for the specified GPIO peripheral.
  * @retval None
  */
void HAL_GPIO_Init(GPIO_TypeDef  *GPIOx, GPIO_InitTypeDef *GPIO_Init)
{
 800249c:	b480      	push	{r7}
 800249e:	b089      	sub	sp, #36	@ 0x24
 80024a0:	af00      	add	r7, sp, #0
 80024a2:	6078      	str	r0, [r7, #4]
 80024a4:	6039      	str	r1, [r7, #0]
  uint32_t position;
  uint32_t ioposition = 0x00U;
 80024a6:	2300      	movs	r3, #0
 80024a8:	617b      	str	r3, [r7, #20]
  uint32_t iocurrent = 0x00U;
 80024aa:	2300      	movs	r3, #0
 80024ac:	613b      	str	r3, [r7, #16]
  uint32_t temp = 0x00U;
 80024ae:	2300      	movs	r3, #0
 80024b0:	61bb      	str	r3, [r7, #24]
  assert_param(IS_GPIO_ALL_INSTANCE(GPIOx));
  assert_param(IS_GPIO_PIN(GPIO_Init->Pin));
  assert_param(IS_GPIO_MODE(GPIO_Init->Mode));

  /* Configure the port pins */
  for(position = 0U; position < GPIO_NUMBER; position++)
 80024b2:	2300      	movs	r3, #0
 80024b4:	61fb      	str	r3, [r7, #28]
 80024b6:	e159      	b.n	800276c <HAL_GPIO_Init+0x2d0>
  {
    /* Get the IO position */
    ioposition = 0x01U << position;
 80024b8:	2201      	movs	r2, #1
 80024ba:	69fb      	ldr	r3, [r7, #28]
 80024bc:	fa02 f303 	lsl.w	r3, r2, r3
 80024c0:	617b      	str	r3, [r7, #20]
    /* Get the current IO position */
    iocurrent = (uint32_t)(GPIO_Init->Pin) & ioposition;
 80024c2:	683b      	ldr	r3, [r7, #0]
 80024c4:	681b      	ldr	r3, [r3, #0]
 80024c6:	697a      	ldr	r2, [r7, #20]
 80024c8:	4013      	ands	r3, r2
 80024ca:	613b      	str	r3, [r7, #16]

    if(iocurrent == ioposition)
 80024cc:	693a      	ldr	r2, [r7, #16]
 80024ce:	697b      	ldr	r3, [r7, #20]
 80024d0:	429a      	cmp	r2, r3
 80024d2:	f040 8148 	bne.w	8002766 <HAL_GPIO_Init+0x2ca>
    {
      /*--------------------- GPIO Mode Configuration ------------------------*/
      /* In case of Output or Alternate function mode selection */
      if(((GPIO_Init->Mode & GPIO_MODE) == MODE_OUTPUT) || \
 80024d6:	683b      	ldr	r3, [r7, #0]
 80024d8:	685b      	ldr	r3, [r3, #4]
 80024da:	f003 0303 	and.w	r3, r3, #3
 80024de:	2b01      	cmp	r3, #1
 80024e0:	d005      	beq.n	80024ee <HAL_GPIO_Init+0x52>
          (GPIO_Init->Mode & GPIO_MODE) == MODE_AF)
 80024e2:	683b      	ldr	r3, [r7, #0]
 80024e4:	685b      	ldr	r3, [r3, #4]
 80024e6:	f003 0303 	and.w	r3, r3, #3
      if(((GPIO_Init->Mode & GPIO_MODE) == MODE_OUTPUT) || \
 80024ea:	2b02      	cmp	r3, #2
 80024ec:	d130      	bne.n	8002550 <HAL_GPIO_Init+0xb4>
      {
        /* Check the Speed parameter */
        assert_param(IS_GPIO_SPEED(GPIO_Init->Speed));
        /* Configure the IO Speed */
        temp = GPIOx->OSPEEDR; 
 80024ee:	687b      	ldr	r3, [r7, #4]
 80024f0:	689b      	ldr	r3, [r3, #8]
 80024f2:	61bb      	str	r3, [r7, #24]
        temp &= ~(GPIO_OSPEEDER_OSPEEDR0 << (position * 2U));
 80024f4:	69fb      	ldr	r3, [r7, #28]
 80024f6:	005b      	lsls	r3, r3, #1
 80024f8:	2203      	movs	r2, #3
 80024fa:	fa02 f303 	lsl.w	r3, r2, r3
 80024fe:	43db      	mvns	r3, r3
 8002500:	69ba      	ldr	r2, [r7, #24]
 8002502:	4013      	ands	r3, r2
 8002504:	61bb      	str	r3, [r7, #24]
        temp |= (GPIO_Init->Speed << (position * 2U));
 8002506:	683b      	ldr	r3, [r7, #0]
 8002508:	68da      	ldr	r2, [r3, #12]
 800250a:	69fb      	ldr	r3, [r7, #28]
 800250c:	005b      	lsls	r3, r3, #1
 800250e:	fa02 f303 	lsl.w	r3, r2, r3
 8002512:	69ba      	ldr	r2, [r7, #24]
 8002514:	4313      	orrs	r3, r2
 8002516:	61bb      	str	r3, [r7, #24]
        GPIOx->OSPEEDR = temp;
 8002518:	687b      	ldr	r3, [r7, #4]
 800251a:	69ba      	ldr	r2, [r7, #24]
 800251c:	609a      	str	r2, [r3, #8]

        /* Configure the IO Output Type */
        temp = GPIOx->OTYPER;
 800251e:	687b      	ldr	r3, [r7, #4]
 8002520:	685b      	ldr	r3, [r3, #4]
 8002522:	61bb      	str	r3, [r7, #24]
        temp &= ~(GPIO_OTYPER_OT_0 << position) ;
 8002524:	2201      	movs	r2, #1
 8002526:	69fb      	ldr	r3, [r7, #28]
 8002528:	fa02 f303 	lsl.w	r3, r2, r3
 800252c:	43db      	mvns	r3, r3
 800252e:	69ba      	ldr	r2, [r7, #24]
 8002530:	4013      	ands	r3, r2
 8002532:	61bb      	str	r3, [r7, #24]
        temp |= (((GPIO_Init->Mode & OUTPUT_TYPE) >> OUTPUT_TYPE_Pos) << position);
 8002534:	683b      	ldr	r3, [r7, #0]
 8002536:	685b      	ldr	r3, [r3, #4]
 8002538:	091b      	lsrs	r3, r3, #4
 800253a:	f003 0201 	and.w	r2, r3, #1
 800253e:	69fb      	ldr	r3, [r7, #28]
 8002540:	fa02 f303 	lsl.w	r3, r2, r3
 8002544:	69ba      	ldr	r2, [r7, #24]
 8002546:	4313      	orrs	r3, r2
 8002548:	61bb      	str	r3, [r7, #24]
        GPIOx->OTYPER = temp;
 800254a:	687b      	ldr	r3, [r7, #4]
 800254c:	69ba      	ldr	r2, [r7, #24]
 800254e:	605a      	str	r2, [r3, #4]
       }

      if((GPIO_Init->Mode & GPIO_MODE) != MODE_ANALOG)
 8002550:	683b      	ldr	r3, [r7, #0]
 8002552:	685b      	ldr	r3, [r3, #4]
 8002554:	f003 0303 	and.w	r3, r3, #3
 8002558:	2b03      	cmp	r3, #3
 800255a:	d017      	beq.n	800258c <HAL_GPIO_Init+0xf0>
      {
        /* Check the parameters */
        assert_param(IS_GPIO_PULL(GPIO_Init->Pull));
        
        /* Activate the Pull-up or Pull down resistor for the current IO */
        temp = GPIOx->PUPDR;
 800255c:	687b      	ldr	r3, [r7, #4]
 800255e:	68db      	ldr	r3, [r3, #12]
 8002560:	61bb      	str	r3, [r7, #24]
        temp &= ~(GPIO_PUPDR_PUPDR0 << (position * 2U));
 8002562:	69fb      	ldr	r3, [r7, #28]
 8002564:	005b      	lsls	r3, r3, #1
 8002566:	2203      	movs	r2, #3
 8002568:	fa02 f303 	lsl.w	r3, r2, r3
 800256c:	43db      	mvns	r3, r3
 800256e:	69ba      	ldr	r2, [r7, #24]
 8002570:	4013      	ands	r3, r2
 8002572:	61bb      	str	r3, [r7, #24]
        temp |= ((GPIO_Init->Pull) << (position * 2U));
 8002574:	683b      	ldr	r3, [r7, #0]
 8002576:	689a      	ldr	r2, [r3, #8]
 8002578:	69fb      	ldr	r3, [r7, #28]
 800257a:	005b      	lsls	r3, r3, #1
 800257c:	fa02 f303 	lsl.w	r3, r2, r3
 8002580:	69ba      	ldr	r2, [r7, #24]
 8002582:	4313      	orrs	r3, r2
 8002584:	61bb      	str	r3, [r7, #24]
        GPIOx->PUPDR = temp;
 8002586:	687b      	ldr	r3, [r7, #4]
 8002588:	69ba      	ldr	r2, [r7, #24]
 800258a:	60da      	str	r2, [r3, #12]
      }

      /* In case of Alternate function mode selection */
      if((GPIO_Init->Mode & GPIO_MODE) == MODE_AF)
 800258c:	683b      	ldr	r3, [r7, #0]
 800258e:	685b      	ldr	r3, [r3, #4]
 8002590:	f003 0303 	and.w	r3, r3, #3
 8002594:	2b02      	cmp	r3, #2
 8002596:	d123      	bne.n	80025e0 <HAL_GPIO_Init+0x144>
      {
        /* Check the Alternate function parameter */
        assert_param(IS_GPIO_AF(GPIO_Init->Alternate));
        /* Configure Alternate function mapped with the current IO */
        temp = GPIOx->AFR[position >> 3U];
 8002598:	69fb      	ldr	r3, [r7, #28]
 800259a:	08da      	lsrs	r2, r3, #3
 800259c:	687b      	ldr	r3, [r7, #4]
 800259e:	3208      	adds	r2, #8
 80025a0:	f853 3022 	ldr.w	r3, [r3, r2, lsl #2]
 80025a4:	61bb      	str	r3, [r7, #24]
        temp &= ~(0xFU << ((uint32_t)(position & 0x07U) * 4U)) ;
 80025a6:	69fb      	ldr	r3, [r7, #28]
 80025a8:	f003 0307 	and.w	r3, r3, #7
 80025ac:	009b      	lsls	r3, r3, #2
 80025ae:	220f      	movs	r2, #15
 80025b0:	fa02 f303 	lsl.w	r3, r2, r3
 80025b4:	43db      	mvns	r3, r3
 80025b6:	69ba      	ldr	r2, [r7, #24]
 80025b8:	4013      	ands	r3, r2
 80025ba:	61bb      	str	r3, [r7, #24]
        temp |= ((uint32_t)(GPIO_Init->Alternate) << (((uint32_t)position & 0x07U) * 4U));
 80025bc:	683b      	ldr	r3, [r7, #0]
 80025be:	691a      	ldr	r2, [r3, #16]
 80025c0:	69fb      	ldr	r3, [r7, #28]
 80025c2:	f003 0307 	and.w	r3, r3, #7
 80025c6:	009b      	lsls	r3, r3, #2
 80025c8:	fa02 f303 	lsl.w	r3, r2, r3
 80025cc:	69ba      	ldr	r2, [r7, #24]
 80025ce:	4313      	orrs	r3, r2
 80025d0:	61bb      	str	r3, [r7, #24]
        GPIOx->AFR[position >> 3U] = temp;
 80025d2:	69fb      	ldr	r3, [r7, #28]
 80025d4:	08da      	lsrs	r2, r3, #3
 80025d6:	687b      	ldr	r3, [r7, #4]
 80025d8:	3208      	adds	r2, #8
 80025da:	69b9      	ldr	r1, [r7, #24]
 80025dc:	f843 1022 	str.w	r1, [r3, r2, lsl #2]
      }

      /* Configure IO Direction mode (Input, Output, Alternate or Analog) */
      temp = GPIOx->MODER;
 80025e0:	687b      	ldr	r3, [r7, #4]
 80025e2:	681b      	ldr	r3, [r3, #0]
 80025e4:	61bb      	str	r3, [r7, #24]
      temp &= ~(GPIO_MODER_MODER0 << (position * 2U));
 80025e6:	69fb      	ldr	r3, [r7, #28]
 80025e8:	005b      	lsls	r3, r3, #1
 80025ea:	2203      	movs	r2, #3
 80025ec:	fa02 f303 	lsl.w	r3, r2, r3
 80025f0:	43db      	mvns	r3, r3
 80025f2:	69ba      	ldr	r2, [r7, #24]
 80025f4:	4013      	ands	r3, r2
 80025f6:	61bb      	str	r3, [r7, #24]
      temp |= ((GPIO_Init->Mode & GPIO_MODE) << (position * 2U));
 80025f8:	683b      	ldr	r3, [r7, #0]
 80025fa:	685b      	ldr	r3, [r3, #4]
 80025fc:	f003 0203 	and.w	r2, r3, #3
 8002600:	69fb      	ldr	r3, [r7, #28]
 8002602:	005b      	lsls	r3, r3, #1
 8002604:	fa02 f303 	lsl.w	r3, r2, r3
 8002608:	69ba      	ldr	r2, [r7, #24]
 800260a:	4313      	orrs	r3, r2
 800260c:	61bb      	str	r3, [r7, #24]
      GPIOx->MODER = temp;
 800260e:	687b      	ldr	r3, [r7, #4]
 8002610:	69ba      	ldr	r2, [r7, #24]
 8002612:	601a      	str	r2, [r3, #0]

      /*--------------------- EXTI Mode Configuration ------------------------*/
      /* Configure the External Interrupt or event for the current IO */
      if((GPIO_Init->Mode & EXTI_MODE) != 0x00U)
 8002614:	683b      	ldr	r3, [r7, #0]
 8002616:	685b      	ldr	r3, [r3, #4]
 8002618:	f403 3340 	and.w	r3, r3, #196608	@ 0x30000
 800261c:	2b00      	cmp	r3, #0
 800261e:	f000 80a2 	beq.w	8002766 <HAL_GPIO_Init+0x2ca>
      {
        /* Enable SYSCFG Clock */
        __HAL_RCC_SYSCFG_CLK_ENABLE();
 8002622:	2300      	movs	r3, #0
 8002624:	60fb      	str	r3, [r7, #12]
 8002626:	4b57      	ldr	r3, [pc, #348]	@ (8002784 <HAL_GPIO_Init+0x2e8>)
 8002628:	6c5b      	ldr	r3, [r3, #68]	@ 0x44
 800262a:	4a56      	ldr	r2, [pc, #344]	@ (8002784 <HAL_GPIO_Init+0x2e8>)
 800262c:	f443 4380 	orr.w	r3, r3, #16384	@ 0x4000
 8002630:	6453      	str	r3, [r2, #68]	@ 0x44
 8002632:	4b54      	ldr	r3, [pc, #336]	@ (8002784 <HAL_GPIO_Init+0x2e8>)
 8002634:	6c5b      	ldr	r3, [r3, #68]	@ 0x44
 8002636:	f403 4380 	and.w	r3, r3, #16384	@ 0x4000
 800263a:	60fb      	str	r3, [r7, #12]
 800263c:	68fb      	ldr	r3, [r7, #12]

        temp = SYSCFG->EXTICR[position >> 2U];
 800263e:	4a52      	ldr	r2, [pc, #328]	@ (8002788 <HAL_GPIO_Init+0x2ec>)
 8002640:	69fb      	ldr	r3, [r7, #28]
 8002642:	089b      	lsrs	r3, r3, #2
 8002644:	3302      	adds	r3, #2
 8002646:	f852 3023 	ldr.w	r3, [r2, r3, lsl #2]
 800264a:	61bb      	str	r3, [r7, #24]
        temp &= ~(0x0FU << (4U * (position & 0x03U)));
 800264c:	69fb      	ldr	r3, [r7, #28]
 800264e:	f003 0303 	and.w	r3, r3, #3
 8002652:	009b      	lsls	r3, r3, #2
 8002654:	220f      	movs	r2, #15
 8002656:	fa02 f303 	lsl.w	r3, r2, r3
 800265a:	43db      	mvns	r3, r3
 800265c:	69ba      	ldr	r2, [r7, #24]
 800265e:	4013      	ands	r3, r2
 8002660:	61bb      	str	r3, [r7, #24]
        temp |= ((uint32_t)(GPIO_GET_INDEX(GPIOx)) << (4U * (position & 0x03U)));
 8002662:	687b      	ldr	r3, [r7, #4]
 8002664:	4a49      	ldr	r2, [pc, #292]	@ (800278c <HAL_GPIO_Init+0x2f0>)
 8002666:	4293      	cmp	r3, r2
 8002668:	d019      	beq.n	800269e <HAL_GPIO_Init+0x202>
 800266a:	687b      	ldr	r3, [r7, #4]
 800266c:	4a48      	ldr	r2, [pc, #288]	@ (8002790 <HAL_GPIO_Init+0x2f4>)
 800266e:	4293      	cmp	r3, r2
 8002670:	d013      	beq.n	800269a <HAL_GPIO_Init+0x1fe>
 8002672:	687b      	ldr	r3, [r7, #4]
 8002674:	4a47      	ldr	r2, [pc, #284]	@ (8002794 <HAL_GPIO_Init+0x2f8>)
 8002676:	4293      	cmp	r3, r2
 8002678:	d00d      	beq.n	8002696 <HAL_GPIO_Init+0x1fa>
 800267a:	687b      	ldr	r3, [r7, #4]
 800267c:	4a46      	ldr	r2, [pc, #280]	@ (8002798 <HAL_GPIO_Init+0x2fc>)
 800267e:	4293      	cmp	r3, r2
 8002680:	d007      	beq.n	8002692 <HAL_GPIO_Init+0x1f6>
 8002682:	687b      	ldr	r3, [r7, #4]
 8002684:	4a45      	ldr	r2, [pc, #276]	@ (800279c <HAL_GPIO_Init+0x300>)
 8002686:	4293      	cmp	r3, r2
 8002688:	d101      	bne.n	800268e <HAL_GPIO_Init+0x1f2>
 800268a:	2304      	movs	r3, #4
 800268c:	e008      	b.n	80026a0 <HAL_GPIO_Init+0x204>
 800268e:	2307      	movs	r3, #7
 8002690:	e006      	b.n	80026a0 <HAL_GPIO_Init+0x204>
 8002692:	2303      	movs	r3, #3
 8002694:	e004      	b.n	80026a0 <HAL_GPIO_Init+0x204>
 8002696:	2302      	movs	r3, #2
 8002698:	e002      	b.n	80026a0 <HAL_GPIO_Init+0x204>
 800269a:	2301      	movs	r3, #1
 800269c:	e000      	b.n	80026a0 <HAL_GPIO_Init+0x204>
 800269e:	2300      	movs	r3, #0
 80026a0:	69fa      	ldr	r2, [r7, #28]
 80026a2:	f002 0203 	and.w	r2, r2, #3
 80026a6:	0092      	lsls	r2, r2, #2
 80026a8:	4093      	lsls	r3, r2
 80026aa:	69ba      	ldr	r2, [r7, #24]
 80026ac:	4313      	orrs	r3, r2
 80026ae:	61bb      	str	r3, [r7, #24]
        SYSCFG->EXTICR[position >> 2U] = temp;
 80026b0:	4935      	ldr	r1, [pc, #212]	@ (8002788 <HAL_GPIO_Init+0x2ec>)
 80026b2:	69fb      	ldr	r3, [r7, #28]
 80026b4:	089b      	lsrs	r3, r3, #2
 80026b6:	3302      	adds	r3, #2
 80026b8:	69ba      	ldr	r2, [r7, #24]
 80026ba:	f841 2023 	str.w	r2, [r1, r3, lsl #2]

        /* Clear Rising Falling edge configuration */
        temp = EXTI->RTSR;
 80026be:	4b38      	ldr	r3, [pc, #224]	@ (80027a0 <HAL_GPIO_Init+0x304>)
 80026c0:	689b      	ldr	r3, [r3, #8]
 80026c2:	61bb      	str	r3, [r7, #24]
        temp &= ~((uint32_t)iocurrent);
 80026c4:	693b      	ldr	r3, [r7, #16]
 80026c6:	43db      	mvns	r3, r3
 80026c8:	69ba      	ldr	r2, [r7, #24]
 80026ca:	4013      	ands	r3, r2
 80026cc:	61bb      	str	r3, [r7, #24]
        if((GPIO_Init->Mode & TRIGGER_RISING) != 0x00U)
 80026ce:	683b      	ldr	r3, [r7, #0]
 80026d0:	685b      	ldr	r3, [r3, #4]
 80026d2:	f403 1380 	and.w	r3, r3, #1048576	@ 0x100000
 80026d6:	2b00      	cmp	r3, #0
 80026d8:	d003      	beq.n	80026e2 <HAL_GPIO_Init+0x246>
        {
          temp |= iocurrent;
 80026da:	69ba      	ldr	r2, [r7, #24]
 80026dc:	693b      	ldr	r3, [r7, #16]
 80026de:	4313      	orrs	r3, r2
 80026e0:	61bb      	str	r3, [r7, #24]
        }
        EXTI->RTSR = temp;
 80026e2:	4a2f      	ldr	r2, [pc, #188]	@ (80027a0 <HAL_GPIO_Init+0x304>)
 80026e4:	69bb      	ldr	r3, [r7, #24]
 80026e6:	6093      	str	r3, [r2, #8]

        temp = EXTI->FTSR;
 80026e8:	4b2d      	ldr	r3, [pc, #180]	@ (80027a0 <HAL_GPIO_Init+0x304>)
 80026ea:	68db      	ldr	r3, [r3, #12]
 80026ec:	61bb      	str	r3, [r7, #24]
        temp &= ~((uint32_t)iocurrent);
 80026ee:	693b      	ldr	r3, [r7, #16]
 80026f0:	43db      	mvns	r3, r3
 80026f2:	69ba      	ldr	r2, [r7, #24]
 80026f4:	4013      	ands	r3, r2
 80026f6:	61bb      	str	r3, [r7, #24]
        if((GPIO_Init->Mode & TRIGGER_FALLING) != 0x00U)
 80026f8:	683b      	ldr	r3, [r7, #0]
 80026fa:	685b      	ldr	r3, [r3, #4]
 80026fc:	f403 1300 	and.w	r3, r3, #2097152	@ 0x200000
 8002700:	2b00      	cmp	r3, #0
 8002702:	d003      	beq.n	800270c <HAL_GPIO_Init+0x270>
        {
          temp |= iocurrent;
 8002704:	69ba      	ldr	r2, [r7, #24]
 8002706:	693b      	ldr	r3, [r7, #16]
 8002708:	4313      	orrs	r3, r2
 800270a:	61bb      	str	r3, [r7, #24]
        }
        EXTI->FTSR = temp;
 800270c:	4a24      	ldr	r2, [pc, #144]	@ (80027a0 <HAL_GPIO_Init+0x304>)
 800270e:	69bb      	ldr	r3, [r7, #24]
 8002710:	60d3      	str	r3, [r2, #12]

        temp = EXTI->EMR;
 8002712:	4b23      	ldr	r3, [pc, #140]	@ (80027a0 <HAL_GPIO_Init+0x304>)
 8002714:	685b      	ldr	r3, [r3, #4]
 8002716:	61bb      	str	r3, [r7, #24]
        temp &= ~((uint32_t)iocurrent);
 8002718:	693b      	ldr	r3, [r7, #16]
 800271a:	43db      	mvns	r3, r3
 800271c:	69ba      	ldr	r2, [r7, #24]
 800271e:	4013      	ands	r3, r2
 8002720:	61bb      	str	r3, [r7, #24]
        if((GPIO_Init->Mode & EXTI_EVT) != 0x00U)
 8002722:	683b      	ldr	r3, [r7, #0]
 8002724:	685b      	ldr	r3, [r3, #4]
 8002726:	f403 3300 	and.w	r3, r3, #131072	@ 0x20000
 800272a:	2b00      	cmp	r3, #0
 800272c:	d003      	beq.n	8002736 <HAL_GPIO_Init+0x29a>
        {
          temp |= iocurrent;
 800272e:	69ba      	ldr	r2, [r7, #24]
 8002730:	693b      	ldr	r3, [r7, #16]
 8002732:	4313      	orrs	r3, r2
 8002734:	61bb      	str	r3, [r7, #24]
        }
        EXTI->EMR = temp;
 8002736:	4a1a      	ldr	r2, [pc, #104]	@ (80027a0 <HAL_GPIO_Init+0x304>)
 8002738:	69bb      	ldr	r3, [r7, #24]
 800273a:	6053      	str	r3, [r2, #4]

        /* Clear EXTI line configuration */
        temp = EXTI->IMR;
 800273c:	4b18      	ldr	r3, [pc, #96]	@ (80027a0 <HAL_GPIO_Init+0x304>)
 800273e:	681b      	ldr	r3, [r3, #0]
 8002740:	61bb      	str	r3, [r7, #24]
        temp &= ~((uint32_t)iocurrent);
 8002742:	693b      	ldr	r3, [r7, #16]
 8002744:	43db      	mvns	r3, r3
 8002746:	69ba      	ldr	r2, [r7, #24]
 8002748:	4013      	ands	r3, r2
 800274a:	61bb      	str	r3, [r7, #24]
        if((GPIO_Init->Mode & EXTI_IT) != 0x00U)
 800274c:	683b      	ldr	r3, [r7, #0]
 800274e:	685b      	ldr	r3, [r3, #4]
 8002750:	f403 3380 	and.w	r3, r3, #65536	@ 0x10000
 8002754:	2b00      	cmp	r3, #0
 8002756:	d003      	beq.n	8002760 <HAL_GPIO_Init+0x2c4>
        {
          temp |= iocurrent;
 8002758:	69ba      	ldr	r2, [r7, #24]
 800275a:	693b      	ldr	r3, [r7, #16]
 800275c:	4313      	orrs	r3, r2
 800275e:	61bb      	str	r3, [r7, #24]
        }
        EXTI->IMR = temp;
 8002760:	4a0f      	ldr	r2, [pc, #60]	@ (80027a0 <HAL_GPIO_Init+0x304>)
 8002762:	69bb      	ldr	r3, [r7, #24]
 8002764:	6013      	str	r3, [r2, #0]
  for(position = 0U; position < GPIO_NUMBER; position++)
 8002766:	69fb      	ldr	r3, [r7, #28]
 8002768:	3301      	adds	r3, #1
 800276a:	61fb      	str	r3, [r7, #28]
 800276c:	69fb      	ldr	r3, [r7, #28]
 800276e:	2b0f      	cmp	r3, #15
 8002770:	f67f aea2 	bls.w	80024b8 <HAL_GPIO_Init+0x1c>
      }
    }
  }
}
 8002774:	bf00      	nop
 8002776:	bf00      	nop
 8002778:	3724      	adds	r7, #36	@ 0x24
 800277a:	46bd      	mov	sp, r7
 800277c:	f85d 7b04 	ldr.w	r7, [sp], #4
 8002780:	4770      	bx	lr
 8002782:	bf00      	nop
 8002784:	40023800 	.word	0x40023800
 8002788:	40013800 	.word	0x40013800
 800278c:	40020000 	.word	0x40020000
 8002790:	40020400 	.word	0x40020400
 8002794:	40020800 	.word	0x40020800
 8002798:	40020c00 	.word	0x40020c00
 800279c:	40021000 	.word	0x40021000
 80027a0:	40013c00 	.word	0x40013c00

080027a4 <HAL_GPIO_WritePin>:
  *            @arg GPIO_PIN_RESET: to clear the port pin
  *            @arg GPIO_PIN_SET: to set the port pin
  * @retval None
  */
void HAL_GPIO_WritePin(GPIO_TypeDef* GPIOx, uint16_t GPIO_Pin, GPIO_PinState PinState)
{
 80027a4:	b480      	push	{r7}
 80027a6:	b083      	sub	sp, #12
 80027a8:	af00      	add	r7, sp, #0
 80027aa:	6078      	str	r0, [r7, #4]
 80027ac:	460b      	mov	r3, r1
 80027ae:	807b      	strh	r3, [r7, #2]
 80027b0:	4613      	mov	r3, r2
 80027b2:	707b      	strb	r3, [r7, #1]
  /* Check the parameters */
  assert_param(IS_GPIO_PIN(GPIO_Pin));
  assert_param(IS_GPIO_PIN_ACTION(PinState));

  if(PinState != GPIO_PIN_RESET)
 80027b4:	787b      	ldrb	r3, [r7, #1]
 80027b6:	2b00      	cmp	r3, #0
 80027b8:	d003      	beq.n	80027c2 <HAL_GPIO_WritePin+0x1e>
  {
    GPIOx->BSRR = GPIO_Pin;
 80027ba:	887a      	ldrh	r2, [r7, #2]
 80027bc:	687b      	ldr	r3, [r7, #4]
 80027be:	619a      	str	r2, [r3, #24]
  }
  else
  {
    GPIOx->BSRR = (uint32_t)GPIO_Pin << 16U;
  }
}
 80027c0:	e003      	b.n	80027ca <HAL_GPIO_WritePin+0x26>
    GPIOx->BSRR = (uint32_t)GPIO_Pin << 16U;
 80027c2:	887b      	ldrh	r3, [r7, #2]
 80027c4:	041a      	lsls	r2, r3, #16
 80027c6:	687b      	ldr	r3, [r7, #4]
 80027c8:	619a      	str	r2, [r3, #24]
}
 80027ca:	bf00      	nop
 80027cc:	370c      	adds	r7, #12
 80027ce:	46bd      	mov	sp, r7
 80027d0:	f85d 7b04 	ldr.w	r7, [sp], #4
 80027d4:	4770      	bx	lr

080027d6 <HAL_GPIO_TogglePin>:
  *                      x can be (A..I) to select the GPIO peripheral for STM32F40XX and STM32F427X devices.
  * @param  GPIO_Pin Specifies the pins to be toggled.
  * @retval None
  */
void HAL_GPIO_TogglePin(GPIO_TypeDef* GPIOx, uint16_t GPIO_Pin)
{
 80027d6:	b480      	push	{r7}
 80027d8:	b085      	sub	sp, #20
 80027da:	af00      	add	r7, sp, #0
 80027dc:	6078      	str	r0, [r7, #4]
 80027de:	460b      	mov	r3, r1
 80027e0:	807b      	strh	r3, [r7, #2]

  /* Check the parameters */
  assert_param(IS_GPIO_PIN(GPIO_Pin));

  /* get current Output Data Register value */
  odr = GPIOx->ODR;
 80027e2:	687b      	ldr	r3, [r7, #4]
 80027e4:	695b      	ldr	r3, [r3, #20]
 80027e6:	60fb      	str	r3, [r7, #12]

  /* Set selected pins that were at low level, and reset ones that were high */
  GPIOx->BSRR = ((odr & GPIO_Pin) << GPIO_NUMBER) | (~odr & GPIO_Pin);
 80027e8:	887a      	ldrh	r2, [r7, #2]
 80027ea:	68fb      	ldr	r3, [r7, #12]
 80027ec:	4013      	ands	r3, r2
 80027ee:	041a      	lsls	r2, r3, #16
 80027f0:	68fb      	ldr	r3, [r7, #12]
 80027f2:	43d9      	mvns	r1, r3
 80027f4:	887b      	ldrh	r3, [r7, #2]
 80027f6:	400b      	ands	r3, r1
 80027f8:	431a      	orrs	r2, r3
 80027fa:	687b      	ldr	r3, [r7, #4]
 80027fc:	619a      	str	r2, [r3, #24]
}
 80027fe:	bf00      	nop
 8002800:	3714      	adds	r7, #20
 8002802:	46bd      	mov	sp, r7
 8002804:	f85d 7b04 	ldr.w	r7, [sp], #4
 8002808:	4770      	bx	lr
	...

0800280c <HAL_I2C_Init>:
  * @param  hi2c Pointer to a I2C_HandleTypeDef structure that contains
  *                the configuration information for the specified I2C.
  * @retval HAL status
  */
HAL_StatusTypeDef HAL_I2C_Init(I2C_HandleTypeDef *hi2c)
{
 800280c:	b580      	push	{r7, lr}
 800280e:	b084      	sub	sp, #16
 8002810:	af00      	add	r7, sp, #0
 8002812:	6078      	str	r0, [r7, #4]
  uint32_t freqrange;
  uint32_t pclk1;

  /* Check the I2C handle allocation */
  if (hi2c == NULL)
 8002814:	687b      	ldr	r3, [r7, #4]
 8002816:	2b00      	cmp	r3, #0
 8002818:	d101      	bne.n	800281e <HAL_I2C_Init+0x12>
  {
    return HAL_ERROR;
 800281a:	2301      	movs	r3, #1
 800281c:	e12b      	b.n	8002a76 <HAL_I2C_Init+0x26a>
  assert_param(IS_I2C_DUAL_ADDRESS(hi2c->Init.DualAddressMode));
  assert_param(IS_I2C_OWN_ADDRESS2(hi2c->Init.OwnAddress2));
  assert_param(IS_I2C_GENERAL_CALL(hi2c->Init.GeneralCallMode));
  assert_param(IS_I2C_NO_STRETCH(hi2c->Init.NoStretchMode));

  if (hi2c->State == HAL_I2C_STATE_RESET)
 800281e:	687b      	ldr	r3, [r7, #4]
 8002820:	f893 303d 	ldrb.w	r3, [r3, #61]	@ 0x3d
 8002824:	b2db      	uxtb	r3, r3
 8002826:	2b00      	cmp	r3, #0
 8002828:	d106      	bne.n	8002838 <HAL_I2C_Init+0x2c>
  {
    /* Allocate lock resource and initialize it */
    hi2c->Lock = HAL_UNLOCKED;
 800282a:	687b      	ldr	r3, [r7, #4]
 800282c:	2200      	movs	r2, #0
 800282e:	f883 203c 	strb.w	r2, [r3, #60]	@ 0x3c

    /* Init the low level hardware : GPIO, CLOCK, NVIC */
    hi2c->MspInitCallback(hi2c);
#else
    /* Init the low level hardware : GPIO, CLOCK, NVIC */
    HAL_I2C_MspInit(hi2c);
 8002832:	6878      	ldr	r0, [r7, #4]
 8002834:	f7ff fa0c 	bl	8001c50 <HAL_I2C_MspInit>
#endif /* USE_HAL_I2C_REGISTER_CALLBACKS */
  }

  hi2c->State = HAL_I2C_STATE_BUSY;
 8002838:	687b      	ldr	r3, [r7, #4]
 800283a:	2224      	movs	r2, #36	@ 0x24
 800283c:	f883 203d 	strb.w	r2, [r3, #61]	@ 0x3d

  /* Disable the selected I2C peripheral */
  __HAL_I2C_DISABLE(hi2c);
 8002840:	687b      	ldr	r3, [r7, #4]
 8002842:	681b      	ldr	r3, [r3, #0]
 8002844:	681a      	ldr	r2, [r3, #0]
 8002846:	687b      	ldr	r3, [r7, #4]
 8002848:	681b      	ldr	r3, [r3, #0]
 800284a:	f022 0201 	bic.w	r2, r2, #1
 800284e:	601a      	str	r2, [r3, #0]

  /*Reset I2C*/
  hi2c->Instance->CR1 |= I2C_CR1_SWRST;
 8002850:	687b      	ldr	r3, [r7, #4]
 8002852:	681b      	ldr	r3, [r3, #0]
 8002854:	681a      	ldr	r2, [r3, #0]
 8002856:	687b      	ldr	r3, [r7, #4]
 8002858:	681b      	ldr	r3, [r3, #0]
 800285a:	f442 4200 	orr.w	r2, r2, #32768	@ 0x8000
 800285e:	601a      	str	r2, [r3, #0]
  hi2c->Instance->CR1 &= ~I2C_CR1_SWRST;
 8002860:	687b      	ldr	r3, [r7, #4]
 8002862:	681b      	ldr	r3, [r3, #0]
 8002864:	681a      	ldr	r2, [r3, #0]
 8002866:	687b      	ldr	r3, [r7, #4]
 8002868:	681b      	ldr	r3, [r3, #0]
 800286a:	f422 4200 	bic.w	r2, r2, #32768	@ 0x8000
 800286e:	601a      	str	r2, [r3, #0]

  /* Get PCLK1 frequency */
  pclk1 = HAL_RCC_GetPCLK1Freq();
 8002870:	f001 fc20 	bl	80040b4 <HAL_RCC_GetPCLK1Freq>
 8002874:	60f8      	str	r0, [r7, #12]

  /* Check the minimum allowed PCLK1 frequency */
  if (I2C_MIN_PCLK_FREQ(pclk1, hi2c->Init.ClockSpeed) == 1U)
 8002876:	687b      	ldr	r3, [r7, #4]
 8002878:	685b      	ldr	r3, [r3, #4]
 800287a:	4a81      	ldr	r2, [pc, #516]	@ (8002a80 <HAL_I2C_Init+0x274>)
 800287c:	4293      	cmp	r3, r2
 800287e:	d807      	bhi.n	8002890 <HAL_I2C_Init+0x84>
 8002880:	68fb      	ldr	r3, [r7, #12]
 8002882:	4a80      	ldr	r2, [pc, #512]	@ (8002a84 <HAL_I2C_Init+0x278>)
 8002884:	4293      	cmp	r3, r2
 8002886:	bf94      	ite	ls
 8002888:	2301      	movls	r3, #1
 800288a:	2300      	movhi	r3, #0
 800288c:	b2db      	uxtb	r3, r3
 800288e:	e006      	b.n	800289e <HAL_I2C_Init+0x92>
 8002890:	68fb      	ldr	r3, [r7, #12]
 8002892:	4a7d      	ldr	r2, [pc, #500]	@ (8002a88 <HAL_I2C_Init+0x27c>)
 8002894:	4293      	cmp	r3, r2
 8002896:	bf94      	ite	ls
 8002898:	2301      	movls	r3, #1
 800289a:	2300      	movhi	r3, #0
 800289c:	b2db      	uxtb	r3, r3
 800289e:	2b00      	cmp	r3, #0
 80028a0:	d001      	beq.n	80028a6 <HAL_I2C_Init+0x9a>
  {
    return HAL_ERROR;
 80028a2:	2301      	movs	r3, #1
 80028a4:	e0e7      	b.n	8002a76 <HAL_I2C_Init+0x26a>
  }

  /* Calculate frequency range */
  freqrange = I2C_FREQRANGE(pclk1);
 80028a6:	68fb      	ldr	r3, [r7, #12]
 80028a8:	4a78      	ldr	r2, [pc, #480]	@ (8002a8c <HAL_I2C_Init+0x280>)
 80028aa:	fba2 2303 	umull	r2, r3, r2, r3
 80028ae:	0c9b      	lsrs	r3, r3, #18
 80028b0:	60bb      	str	r3, [r7, #8]

  /*---------------------------- I2Cx CR2 Configuration ----------------------*/
  /* Configure I2Cx: Frequency range */
  MODIFY_REG(hi2c->Instance->CR2, I2C_CR2_FREQ, freqrange);
 80028b2:	687b      	ldr	r3, [r7, #4]
 80028b4:	681b      	ldr	r3, [r3, #0]
 80028b6:	685b      	ldr	r3, [r3, #4]
 80028b8:	f023 013f 	bic.w	r1, r3, #63	@ 0x3f
 80028bc:	687b      	ldr	r3, [r7, #4]
 80028be:	681b      	ldr	r3, [r3, #0]
 80028c0:	68ba      	ldr	r2, [r7, #8]
 80028c2:	430a      	orrs	r2, r1
 80028c4:	605a      	str	r2, [r3, #4]

  /*---------------------------- I2Cx TRISE Configuration --------------------*/
  /* Configure I2Cx: Rise Time */
  MODIFY_REG(hi2c->Instance->TRISE, I2C_TRISE_TRISE, I2C_RISE_TIME(freqrange, hi2c->Init.ClockSpeed));
 80028c6:	687b      	ldr	r3, [r7, #4]
 80028c8:	681b      	ldr	r3, [r3, #0]
 80028ca:	6a1b      	ldr	r3, [r3, #32]
 80028cc:	f023 013f 	bic.w	r1, r3, #63	@ 0x3f
 80028d0:	687b      	ldr	r3, [r7, #4]
 80028d2:	685b      	ldr	r3, [r3, #4]
 80028d4:	4a6a      	ldr	r2, [pc, #424]	@ (8002a80 <HAL_I2C_Init+0x274>)
 80028d6:	4293      	cmp	r3, r2
 80028d8:	d802      	bhi.n	80028e0 <HAL_I2C_Init+0xd4>
 80028da:	68bb      	ldr	r3, [r7, #8]
 80028dc:	3301      	adds	r3, #1
 80028de:	e009      	b.n	80028f4 <HAL_I2C_Init+0xe8>
 80028e0:	68bb      	ldr	r3, [r7, #8]
 80028e2:	f44f 7296 	mov.w	r2, #300	@ 0x12c
 80028e6:	fb02 f303 	mul.w	r3, r2, r3
 80028ea:	4a69      	ldr	r2, [pc, #420]	@ (8002a90 <HAL_I2C_Init+0x284>)
 80028ec:	fba2 2303 	umull	r2, r3, r2, r3
 80028f0:	099b      	lsrs	r3, r3, #6
 80028f2:	3301      	adds	r3, #1
 80028f4:	687a      	ldr	r2, [r7, #4]
 80028f6:	6812      	ldr	r2, [r2, #0]
 80028f8:	430b      	orrs	r3, r1
 80028fa:	6213      	str	r3, [r2, #32]

  /*---------------------------- I2Cx CCR Configuration ----------------------*/
  /* Configure I2Cx: Speed */
  MODIFY_REG(hi2c->Instance->CCR, (I2C_CCR_FS | I2C_CCR_DUTY | I2C_CCR_CCR), I2C_SPEED(pclk1, hi2c->Init.ClockSpeed, hi2c->Init.DutyCycle));
 80028fc:	687b      	ldr	r3, [r7, #4]
 80028fe:	681b      	ldr	r3, [r3, #0]
 8002900:	69db      	ldr	r3, [r3, #28]
 8002902:	f423 424f 	bic.w	r2, r3, #52992	@ 0xcf00
 8002906:	f022 02ff 	bic.w	r2, r2, #255	@ 0xff
 800290a:	687b      	ldr	r3, [r7, #4]
 800290c:	685b      	ldr	r3, [r3, #4]
 800290e:	495c      	ldr	r1, [pc, #368]	@ (8002a80 <HAL_I2C_Init+0x274>)
 8002910:	428b      	cmp	r3, r1
 8002912:	d819      	bhi.n	8002948 <HAL_I2C_Init+0x13c>
 8002914:	68fb      	ldr	r3, [r7, #12]
 8002916:	1e59      	subs	r1, r3, #1
 8002918:	687b      	ldr	r3, [r7, #4]
 800291a:	685b      	ldr	r3, [r3, #4]
 800291c:	005b      	lsls	r3, r3, #1
 800291e:	fbb1 f3f3 	udiv	r3, r1, r3
 8002922:	1c59      	adds	r1, r3, #1
 8002924:	f640 73fc 	movw	r3, #4092	@ 0xffc
 8002928:	400b      	ands	r3, r1
 800292a:	2b00      	cmp	r3, #0
 800292c:	d00a      	beq.n	8002944 <HAL_I2C_Init+0x138>
 800292e:	68fb      	ldr	r3, [r7, #12]
 8002930:	1e59      	subs	r1, r3, #1
 8002932:	687b      	ldr	r3, [r7, #4]
 8002934:	685b      	ldr	r3, [r3, #4]
 8002936:	005b      	lsls	r3, r3, #1
 8002938:	fbb1 f3f3 	udiv	r3, r1, r3
 800293c:	3301      	adds	r3, #1
 800293e:	f3c3 030b 	ubfx	r3, r3, #0, #12
 8002942:	e051      	b.n	80029e8 <HAL_I2C_Init+0x1dc>
 8002944:	2304      	movs	r3, #4
 8002946:	e04f      	b.n	80029e8 <HAL_I2C_Init+0x1dc>
 8002948:	687b      	ldr	r3, [r7, #4]
 800294a:	689b      	ldr	r3, [r3, #8]
 800294c:	2b00      	cmp	r3, #0
 800294e:	d111      	bne.n	8002974 <HAL_I2C_Init+0x168>
 8002950:	68fb      	ldr	r3, [r7, #12]
 8002952:	1e58      	subs	r0, r3, #1
 8002954:	687b      	ldr	r3, [r7, #4]
 8002956:	6859      	ldr	r1, [r3, #4]
 8002958:	460b      	mov	r3, r1
 800295a:	005b      	lsls	r3, r3, #1
 800295c:	440b      	add	r3, r1
 800295e:	fbb0 f3f3 	udiv	r3, r0, r3
 8002962:	3301      	adds	r3, #1
 8002964:	f3c3 030b 	ubfx	r3, r3, #0, #12
 8002968:	2b00      	cmp	r3, #0
 800296a:	bf0c      	ite	eq
 800296c:	2301      	moveq	r3, #1
 800296e:	2300      	movne	r3, #0
 8002970:	b2db      	uxtb	r3, r3
 8002972:	e012      	b.n	800299a <HAL_I2C_Init+0x18e>
 8002974:	68fb      	ldr	r3, [r7, #12]
 8002976:	1e58      	subs	r0, r3, #1
 8002978:	687b      	ldr	r3, [r7, #4]
 800297a:	6859      	ldr	r1, [r3, #4]
 800297c:	460b      	mov	r3, r1
 800297e:	009b      	lsls	r3, r3, #2
 8002980:	440b      	add	r3, r1
 8002982:	0099      	lsls	r1, r3, #2
 8002984:	440b      	add	r3, r1
 8002986:	fbb0 f3f3 	udiv	r3, r0, r3
 800298a:	3301      	adds	r3, #1
 800298c:	f3c3 030b 	ubfx	r3, r3, #0, #12
 8002990:	2b00      	cmp	r3, #0
 8002992:	bf0c      	ite	eq
 8002994:	2301      	moveq	r3, #1
 8002996:	2300      	movne	r3, #0
 8002998:	b2db      	uxtb	r3, r3
 800299a:	2b00      	cmp	r3, #0
 800299c:	d001      	beq.n	80029a2 <HAL_I2C_Init+0x196>
 800299e:	2301      	movs	r3, #1
 80029a0:	e022      	b.n	80029e8 <HAL_I2C_Init+0x1dc>
 80029a2:	687b      	ldr	r3, [r7, #4]
 80029a4:	689b      	ldr	r3, [r3, #8]
 80029a6:	2b00      	cmp	r3, #0
 80029a8:	d10e      	bne.n	80029c8 <HAL_I2C_Init+0x1bc>
 80029aa:	68fb      	ldr	r3, [r7, #12]
 80029ac:	1e58      	subs	r0, r3, #1
 80029ae:	687b      	ldr	r3, [r7, #4]
 80029b0:	6859      	ldr	r1, [r3, #4]
 80029b2:	460b      	mov	r3, r1
 80029b4:	005b      	lsls	r3, r3, #1
 80029b6:	440b      	add	r3, r1
 80029b8:	fbb0 f3f3 	udiv	r3, r0, r3
 80029bc:	3301      	adds	r3, #1
 80029be:	f3c3 030b 	ubfx	r3, r3, #0, #12
 80029c2:	f443 4300 	orr.w	r3, r3, #32768	@ 0x8000
 80029c6:	e00f      	b.n	80029e8 <HAL_I2C_Init+0x1dc>
 80029c8:	68fb      	ldr	r3, [r7, #12]
 80029ca:	1e58      	subs	r0, r3, #1
 80029cc:	687b      	ldr	r3, [r7, #4]
 80029ce:	6859      	ldr	r1, [r3, #4]
 80029d0:	460b      	mov	r3, r1
 80029d2:	009b      	lsls	r3, r3, #2
 80029d4:	440b      	add	r3, r1
 80029d6:	0099      	lsls	r1, r3, #2
 80029d8:	440b      	add	r3, r1
 80029da:	fbb0 f3f3 	udiv	r3, r0, r3
 80029de:	3301      	adds	r3, #1
 80029e0:	f3c3 030b 	ubfx	r3, r3, #0, #12
 80029e4:	f443 4340 	orr.w	r3, r3, #49152	@ 0xc000
 80029e8:	6879      	ldr	r1, [r7, #4]
 80029ea:	6809      	ldr	r1, [r1, #0]
 80029ec:	4313      	orrs	r3, r2
 80029ee:	61cb      	str	r3, [r1, #28]

  /*---------------------------- I2Cx CR1 Configuration ----------------------*/
  /* Configure I2Cx: Generalcall and NoStretch mode */
  MODIFY_REG(hi2c->Instance->CR1, (I2C_CR1_ENGC | I2C_CR1_NOSTRETCH), (hi2c->Init.GeneralCallMode | hi2c->Init.NoStretchMode));
 80029f0:	687b      	ldr	r3, [r7, #4]
 80029f2:	681b      	ldr	r3, [r3, #0]
 80029f4:	681b      	ldr	r3, [r3, #0]
 80029f6:	f023 01c0 	bic.w	r1, r3, #192	@ 0xc0
 80029fa:	687b      	ldr	r3, [r7, #4]
 80029fc:	69da      	ldr	r2, [r3, #28]
 80029fe:	687b      	ldr	r3, [r7, #4]
 8002a00:	6a1b      	ldr	r3, [r3, #32]
 8002a02:	431a      	orrs	r2, r3
 8002a04:	687b      	ldr	r3, [r7, #4]
 8002a06:	681b      	ldr	r3, [r3, #0]
 8002a08:	430a      	orrs	r2, r1
 8002a0a:	601a      	str	r2, [r3, #0]

  /*---------------------------- I2Cx OAR1 Configuration ---------------------*/
  /* Configure I2Cx: Own Address1 and addressing mode */
  MODIFY_REG(hi2c->Instance->OAR1, (I2C_OAR1_ADDMODE | I2C_OAR1_ADD8_9 | I2C_OAR1_ADD1_7 | I2C_OAR1_ADD0), (hi2c->Init.AddressingMode | hi2c->Init.OwnAddress1));
 8002a0c:	687b      	ldr	r3, [r7, #4]
 8002a0e:	681b      	ldr	r3, [r3, #0]
 8002a10:	689b      	ldr	r3, [r3, #8]
 8002a12:	f423 4303 	bic.w	r3, r3, #33536	@ 0x8300
 8002a16:	f023 03ff 	bic.w	r3, r3, #255	@ 0xff
 8002a1a:	687a      	ldr	r2, [r7, #4]
 8002a1c:	6911      	ldr	r1, [r2, #16]
 8002a1e:	687a      	ldr	r2, [r7, #4]
 8002a20:	68d2      	ldr	r2, [r2, #12]
 8002a22:	4311      	orrs	r1, r2
 8002a24:	687a      	ldr	r2, [r7, #4]
 8002a26:	6812      	ldr	r2, [r2, #0]
 8002a28:	430b      	orrs	r3, r1
 8002a2a:	6093      	str	r3, [r2, #8]

  /*---------------------------- I2Cx OAR2 Configuration ---------------------*/
  /* Configure I2Cx: Dual mode and Own Address2 */
  MODIFY_REG(hi2c->Instance->OAR2, (I2C_OAR2_ENDUAL | I2C_OAR2_ADD2), (hi2c->Init.DualAddressMode | hi2c->Init.OwnAddress2));
 8002a2c:	687b      	ldr	r3, [r7, #4]
 8002a2e:	681b      	ldr	r3, [r3, #0]
 8002a30:	68db      	ldr	r3, [r3, #12]
 8002a32:	f023 01ff 	bic.w	r1, r3, #255	@ 0xff
 8002a36:	687b      	ldr	r3, [r7, #4]
 8002a38:	695a      	ldr	r2, [r3, #20]
 8002a3a:	687b      	ldr	r3, [r7, #4]
 8002a3c:	699b      	ldr	r3, [r3, #24]
 8002a3e:	431a      	orrs	r2, r3
 8002a40:	687b      	ldr	r3, [r7, #4]
 8002a42:	681b      	ldr	r3, [r3, #0]
 8002a44:	430a      	orrs	r2, r1
 8002a46:	60da      	str	r2, [r3, #12]

  /* Enable the selected I2C peripheral */
  __HAL_I2C_ENABLE(hi2c);
 8002a48:	687b      	ldr	r3, [r7, #4]
 8002a4a:	681b      	ldr	r3, [r3, #0]
 8002a4c:	681a      	ldr	r2, [r3, #0]
 8002a4e:	687b      	ldr	r3, [r7, #4]
 8002a50:	681b      	ldr	r3, [r3, #0]
 8002a52:	f042 0201 	orr.w	r2, r2, #1
 8002a56:	601a      	str	r2, [r3, #0]

  hi2c->ErrorCode = HAL_I2C_ERROR_NONE;
 8002a58:	687b      	ldr	r3, [r7, #4]
 8002a5a:	2200      	movs	r2, #0
 8002a5c:	641a      	str	r2, [r3, #64]	@ 0x40
  hi2c->State = HAL_I2C_STATE_READY;
 8002a5e:	687b      	ldr	r3, [r7, #4]
 8002a60:	2220      	movs	r2, #32
 8002a62:	f883 203d 	strb.w	r2, [r3, #61]	@ 0x3d
  hi2c->PreviousState = I2C_STATE_NONE;
 8002a66:	687b      	ldr	r3, [r7, #4]
 8002a68:	2200      	movs	r2, #0
 8002a6a:	631a      	str	r2, [r3, #48]	@ 0x30
  hi2c->Mode = HAL_I2C_MODE_NONE;
 8002a6c:	687b      	ldr	r3, [r7, #4]
 8002a6e:	2200      	movs	r2, #0
 8002a70:	f883 203e 	strb.w	r2, [r3, #62]	@ 0x3e

  return HAL_OK;
 8002a74:	2300      	movs	r3, #0
}
 8002a76:	4618      	mov	r0, r3
 8002a78:	3710      	adds	r7, #16
 8002a7a:	46bd      	mov	sp, r7
 8002a7c:	bd80      	pop	{r7, pc}
 8002a7e:	bf00      	nop
 8002a80:	000186a0 	.word	0x000186a0
 8002a84:	001e847f 	.word	0x001e847f
 8002a88:	003d08ff 	.word	0x003d08ff
 8002a8c:	431bde83 	.word	0x431bde83
 8002a90:	10624dd3 	.word	0x10624dd3

08002a94 <HAL_I2C_Mem_Write>:
  * @param  Size Amount of data to be sent
  * @param  Timeout Timeout duration
  * @retval HAL status
  */
HAL_StatusTypeDef HAL_I2C_Mem_Write(I2C_HandleTypeDef *hi2c, uint16_t DevAddress, uint16_t MemAddress, uint16_t MemAddSize, uint8_t *pData, uint16_t Size, uint32_t Timeout)
{
 8002a94:	b580      	push	{r7, lr}
 8002a96:	b088      	sub	sp, #32
 8002a98:	af02      	add	r7, sp, #8
 8002a9a:	60f8      	str	r0, [r7, #12]
 8002a9c:	4608      	mov	r0, r1
 8002a9e:	4611      	mov	r1, r2
 8002aa0:	461a      	mov	r2, r3
 8002aa2:	4603      	mov	r3, r0
 8002aa4:	817b      	strh	r3, [r7, #10]
 8002aa6:	460b      	mov	r3, r1
 8002aa8:	813b      	strh	r3, [r7, #8]
 8002aaa:	4613      	mov	r3, r2
 8002aac:	80fb      	strh	r3, [r7, #6]
  /* Init tickstart for timeout management*/
  uint32_t tickstart = HAL_GetTick();
 8002aae:	f7ff fb21 	bl	80020f4 <HAL_GetTick>
 8002ab2:	6178      	str	r0, [r7, #20]

  /* Check the parameters */
  assert_param(IS_I2C_MEMADD_SIZE(MemAddSize));

  if (hi2c->State == HAL_I2C_STATE_READY)
 8002ab4:	68fb      	ldr	r3, [r7, #12]
 8002ab6:	f893 303d 	ldrb.w	r3, [r3, #61]	@ 0x3d
 8002aba:	b2db      	uxtb	r3, r3
 8002abc:	2b20      	cmp	r3, #32
 8002abe:	f040 80d9 	bne.w	8002c74 <HAL_I2C_Mem_Write+0x1e0>
  {
    /* Wait until BUSY flag is reset */
    if (I2C_WaitOnFlagUntilTimeout(hi2c, I2C_FLAG_BUSY, SET, I2C_TIMEOUT_BUSY_FLAG, tickstart) != HAL_OK)
 8002ac2:	697b      	ldr	r3, [r7, #20]
 8002ac4:	9300      	str	r3, [sp, #0]
 8002ac6:	2319      	movs	r3, #25
 8002ac8:	2201      	movs	r2, #1
 8002aca:	496d      	ldr	r1, [pc, #436]	@ (8002c80 <HAL_I2C_Mem_Write+0x1ec>)
 8002acc:	68f8      	ldr	r0, [r7, #12]
 8002ace:	f000 fc8b 	bl	80033e8 <I2C_WaitOnFlagUntilTimeout>
 8002ad2:	4603      	mov	r3, r0
 8002ad4:	2b00      	cmp	r3, #0
 8002ad6:	d001      	beq.n	8002adc <HAL_I2C_Mem_Write+0x48>
    {
      return HAL_BUSY;
 8002ad8:	2302      	movs	r3, #2
 8002ada:	e0cc      	b.n	8002c76 <HAL_I2C_Mem_Write+0x1e2>
    }

    /* Process Locked */
    __HAL_LOCK(hi2c);
 8002adc:	68fb      	ldr	r3, [r7, #12]
 8002ade:	f893 303c 	ldrb.w	r3, [r3, #60]	@ 0x3c
 8002ae2:	2b01      	cmp	r3, #1
 8002ae4:	d101      	bne.n	8002aea <HAL_I2C_Mem_Write+0x56>
 8002ae6:	2302      	movs	r3, #2
 8002ae8:	e0c5      	b.n	8002c76 <HAL_I2C_Mem_Write+0x1e2>
 8002aea:	68fb      	ldr	r3, [r7, #12]
 8002aec:	2201      	movs	r2, #1
 8002aee:	f883 203c 	strb.w	r2, [r3, #60]	@ 0x3c

    /* Check if the I2C is already enabled */
    if ((hi2c->Instance->CR1 & I2C_CR1_PE) != I2C_CR1_PE)
 8002af2:	68fb      	ldr	r3, [r7, #12]
 8002af4:	681b      	ldr	r3, [r3, #0]
 8002af6:	681b      	ldr	r3, [r3, #0]
 8002af8:	f003 0301 	and.w	r3, r3, #1
 8002afc:	2b01      	cmp	r3, #1
 8002afe:	d007      	beq.n	8002b10 <HAL_I2C_Mem_Write+0x7c>
    {
      /* Enable I2C peripheral */
      __HAL_I2C_ENABLE(hi2c);
 8002b00:	68fb      	ldr	r3, [r7, #12]
 8002b02:	681b      	ldr	r3, [r3, #0]
 8002b04:	681a      	ldr	r2, [r3, #0]
 8002b06:	68fb      	ldr	r3, [r7, #12]
 8002b08:	681b      	ldr	r3, [r3, #0]
 8002b0a:	f042 0201 	orr.w	r2, r2, #1
 8002b0e:	601a      	str	r2, [r3, #0]
    }

    /* Disable Pos */
    CLEAR_BIT(hi2c->Instance->CR1, I2C_CR1_POS);
 8002b10:	68fb      	ldr	r3, [r7, #12]
 8002b12:	681b      	ldr	r3, [r3, #0]
 8002b14:	681a      	ldr	r2, [r3, #0]
 8002b16:	68fb      	ldr	r3, [r7, #12]
 8002b18:	681b      	ldr	r3, [r3, #0]
 8002b1a:	f422 6200 	bic.w	r2, r2, #2048	@ 0x800
 8002b1e:	601a      	str	r2, [r3, #0]

    hi2c->State     = HAL_I2C_STATE_BUSY_TX;
 8002b20:	68fb      	ldr	r3, [r7, #12]
 8002b22:	2221      	movs	r2, #33	@ 0x21
 8002b24:	f883 203d 	strb.w	r2, [r3, #61]	@ 0x3d
    hi2c->Mode      = HAL_I2C_MODE_MEM;
 8002b28:	68fb      	ldr	r3, [r7, #12]
 8002b2a:	2240      	movs	r2, #64	@ 0x40
 8002b2c:	f883 203e 	strb.w	r2, [r3, #62]	@ 0x3e
    hi2c->ErrorCode = HAL_I2C_ERROR_NONE;
 8002b30:	68fb      	ldr	r3, [r7, #12]
 8002b32:	2200      	movs	r2, #0
 8002b34:	641a      	str	r2, [r3, #64]	@ 0x40

    /* Prepare transfer parameters */
    hi2c->pBuffPtr    = pData;
 8002b36:	68fb      	ldr	r3, [r7, #12]
 8002b38:	6a3a      	ldr	r2, [r7, #32]
 8002b3a:	625a      	str	r2, [r3, #36]	@ 0x24
    hi2c->XferCount   = Size;
 8002b3c:	68fb      	ldr	r3, [r7, #12]
 8002b3e:	8cba      	ldrh	r2, [r7, #36]	@ 0x24
 8002b40:	855a      	strh	r2, [r3, #42]	@ 0x2a
    hi2c->XferSize    = hi2c->XferCount;
 8002b42:	68fb      	ldr	r3, [r7, #12]
 8002b44:	8d5b      	ldrh	r3, [r3, #42]	@ 0x2a
 8002b46:	b29a      	uxth	r2, r3
 8002b48:	68fb      	ldr	r3, [r7, #12]
 8002b4a:	851a      	strh	r2, [r3, #40]	@ 0x28
    hi2c->XferOptions = I2C_NO_OPTION_FRAME;
 8002b4c:	68fb      	ldr	r3, [r7, #12]
 8002b4e:	4a4d      	ldr	r2, [pc, #308]	@ (8002c84 <HAL_I2C_Mem_Write+0x1f0>)
 8002b50:	62da      	str	r2, [r3, #44]	@ 0x2c

    /* Send Slave Address and Memory Address */
    if (I2C_RequestMemoryWrite(hi2c, DevAddress, MemAddress, MemAddSize, Timeout, tickstart) != HAL_OK)
 8002b52:	88f8      	ldrh	r0, [r7, #6]
 8002b54:	893a      	ldrh	r2, [r7, #8]
 8002b56:	8979      	ldrh	r1, [r7, #10]
 8002b58:	697b      	ldr	r3, [r7, #20]
 8002b5a:	9301      	str	r3, [sp, #4]
 8002b5c:	6abb      	ldr	r3, [r7, #40]	@ 0x28
 8002b5e:	9300      	str	r3, [sp, #0]
 8002b60:	4603      	mov	r3, r0
 8002b62:	68f8      	ldr	r0, [r7, #12]
 8002b64:	f000 fac2 	bl	80030ec <I2C_RequestMemoryWrite>
 8002b68:	4603      	mov	r3, r0
 8002b6a:	2b00      	cmp	r3, #0
 8002b6c:	d052      	beq.n	8002c14 <HAL_I2C_Mem_Write+0x180>
    {
      return HAL_ERROR;
 8002b6e:	2301      	movs	r3, #1
 8002b70:	e081      	b.n	8002c76 <HAL_I2C_Mem_Write+0x1e2>
    }

    while (hi2c->XferSize > 0U)
    {
      /* Wait until TXE flag is set */
      if (I2C_WaitOnTXEFlagUntilTimeout(hi2c, Timeout, tickstart) != HAL_OK)
 8002b72:	697a      	ldr	r2, [r7, #20]
 8002b74:	6ab9      	ldr	r1, [r7, #40]	@ 0x28
 8002b76:	68f8      	ldr	r0, [r7, #12]
 8002b78:	f000 fd50 	bl	800361c <I2C_WaitOnTXEFlagUntilTimeout>
 8002b7c:	4603      	mov	r3, r0
 8002b7e:	2b00      	cmp	r3, #0
 8002b80:	d00d      	beq.n	8002b9e <HAL_I2C_Mem_Write+0x10a>
      {
        if (hi2c->ErrorCode == HAL_I2C_ERROR_AF)
 8002b82:	68fb      	ldr	r3, [r7, #12]
 8002b84:	6c1b      	ldr	r3, [r3, #64]	@ 0x40
 8002b86:	2b04      	cmp	r3, #4
 8002b88:	d107      	bne.n	8002b9a <HAL_I2C_Mem_Write+0x106>
        {
          /* Generate Stop */
          SET_BIT(hi2c->Instance->CR1, I2C_CR1_STOP);
 8002b8a:	68fb      	ldr	r3, [r7, #12]
 8002b8c:	681b      	ldr	r3, [r3, #0]
 8002b8e:	681a      	ldr	r2, [r3, #0]
 8002b90:	68fb      	ldr	r3, [r7, #12]
 8002b92:	681b      	ldr	r3, [r3, #0]
 8002b94:	f442 7200 	orr.w	r2, r2, #512	@ 0x200
 8002b98:	601a      	str	r2, [r3, #0]
        }
        return HAL_ERROR;
 8002b9a:	2301      	movs	r3, #1
 8002b9c:	e06b      	b.n	8002c76 <HAL_I2C_Mem_Write+0x1e2>
      }

      /* Write data to DR */
      hi2c->Instance->DR = *hi2c->pBuffPtr;
 8002b9e:	68fb      	ldr	r3, [r7, #12]
 8002ba0:	6a5b      	ldr	r3, [r3, #36]	@ 0x24
 8002ba2:	781a      	ldrb	r2, [r3, #0]
 8002ba4:	68fb      	ldr	r3, [r7, #12]
 8002ba6:	681b      	ldr	r3, [r3, #0]
 8002ba8:	611a      	str	r2, [r3, #16]

      /* Increment Buffer pointer */
      hi2c->pBuffPtr++;
 8002baa:	68fb      	ldr	r3, [r7, #12]
 8002bac:	6a5b      	ldr	r3, [r3, #36]	@ 0x24
 8002bae:	1c5a      	adds	r2, r3, #1
 8002bb0:	68fb      	ldr	r3, [r7, #12]
 8002bb2:	625a      	str	r2, [r3, #36]	@ 0x24

      /* Update counter */
      hi2c->XferSize--;
 8002bb4:	68fb      	ldr	r3, [r7, #12]
 8002bb6:	8d1b      	ldrh	r3, [r3, #40]	@ 0x28
 8002bb8:	3b01      	subs	r3, #1
 8002bba:	b29a      	uxth	r2, r3
 8002bbc:	68fb      	ldr	r3, [r7, #12]
 8002bbe:	851a      	strh	r2, [r3, #40]	@ 0x28
      hi2c->XferCount--;
 8002bc0:	68fb      	ldr	r3, [r7, #12]
 8002bc2:	8d5b      	ldrh	r3, [r3, #42]	@ 0x2a
 8002bc4:	b29b      	uxth	r3, r3
 8002bc6:	3b01      	subs	r3, #1
 8002bc8:	b29a      	uxth	r2, r3
 8002bca:	68fb      	ldr	r3, [r7, #12]
 8002bcc:	855a      	strh	r2, [r3, #42]	@ 0x2a

      if ((__HAL_I2C_GET_FLAG(hi2c, I2C_FLAG_BTF) == SET) && (hi2c->XferSize != 0U))
 8002bce:	68fb      	ldr	r3, [r7, #12]
 8002bd0:	681b      	ldr	r3, [r3, #0]
 8002bd2:	695b      	ldr	r3, [r3, #20]
 8002bd4:	f003 0304 	and.w	r3, r3, #4
 8002bd8:	2b04      	cmp	r3, #4
 8002bda:	d11b      	bne.n	8002c14 <HAL_I2C_Mem_Write+0x180>
 8002bdc:	68fb      	ldr	r3, [r7, #12]
 8002bde:	8d1b      	ldrh	r3, [r3, #40]	@ 0x28
 8002be0:	2b00      	cmp	r3, #0
 8002be2:	d017      	beq.n	8002c14 <HAL_I2C_Mem_Write+0x180>
      {
        /* Write data to DR */
        hi2c->Instance->DR = *hi2c->pBuffPtr;
 8002be4:	68fb      	ldr	r3, [r7, #12]
 8002be6:	6a5b      	ldr	r3, [r3, #36]	@ 0x24
 8002be8:	781a      	ldrb	r2, [r3, #0]
 8002bea:	68fb      	ldr	r3, [r7, #12]
 8002bec:	681b      	ldr	r3, [r3, #0]
 8002bee:	611a      	str	r2, [r3, #16]

        /* Increment Buffer pointer */
        hi2c->pBuffPtr++;
 8002bf0:	68fb      	ldr	r3, [r7, #12]
 8002bf2:	6a5b      	ldr	r3, [r3, #36]	@ 0x24
 8002bf4:	1c5a      	adds	r2, r3, #1
 8002bf6:	68fb      	ldr	r3, [r7, #12]
 8002bf8:	625a      	str	r2, [r3, #36]	@ 0x24

        /* Update counter */
        hi2c->XferSize--;
 8002bfa:	68fb      	ldr	r3, [r7, #12]
 8002bfc:	8d1b      	ldrh	r3, [r3, #40]	@ 0x28
 8002bfe:	3b01      	subs	r3, #1
 8002c00:	b29a      	uxth	r2, r3
 8002c02:	68fb      	ldr	r3, [r7, #12]
 8002c04:	851a      	strh	r2, [r3, #40]	@ 0x28
        hi2c->XferCount--;
 8002c06:	68fb      	ldr	r3, [r7, #12]
 8002c08:	8d5b      	ldrh	r3, [r3, #42]	@ 0x2a
 8002c0a:	b29b      	uxth	r3, r3
 8002c0c:	3b01      	subs	r3, #1
 8002c0e:	b29a      	uxth	r2, r3
 8002c10:	68fb      	ldr	r3, [r7, #12]
 8002c12:	855a      	strh	r2, [r3, #42]	@ 0x2a
    while (hi2c->XferSize > 0U)
 8002c14:	68fb      	ldr	r3, [r7, #12]
 8002c16:	8d1b      	ldrh	r3, [r3, #40]	@ 0x28
 8002c18:	2b00      	cmp	r3, #0
 8002c1a:	d1aa      	bne.n	8002b72 <HAL_I2C_Mem_Write+0xde>
      }
    }

    /* Wait until BTF flag is set */
    if (I2C_WaitOnBTFFlagUntilTimeout(hi2c, Timeout, tickstart) != HAL_OK)
 8002c1c:	697a      	ldr	r2, [r7, #20]
 8002c1e:	6ab9      	ldr	r1, [r7, #40]	@ 0x28
 8002c20:	68f8      	ldr	r0, [r7, #12]
 8002c22:	f000 fd43 	bl	80036ac <I2C_WaitOnBTFFlagUntilTimeout>
 8002c26:	4603      	mov	r3, r0
 8002c28:	2b00      	cmp	r3, #0
 8002c2a:	d00d      	beq.n	8002c48 <HAL_I2C_Mem_Write+0x1b4>
    {
      if (hi2c->ErrorCode == HAL_I2C_ERROR_AF)
 8002c2c:	68fb      	ldr	r3, [r7, #12]
 8002c2e:	6c1b      	ldr	r3, [r3, #64]	@ 0x40
 8002c30:	2b04      	cmp	r3, #4
 8002c32:	d107      	bne.n	8002c44 <HAL_I2C_Mem_Write+0x1b0>
      {
        /* Generate Stop */
        SET_BIT(hi2c->Instance->CR1, I2C_CR1_STOP);
 8002c34:	68fb      	ldr	r3, [r7, #12]
 8002c36:	681b      	ldr	r3, [r3, #0]
 8002c38:	681a      	ldr	r2, [r3, #0]
 8002c3a:	68fb      	ldr	r3, [r7, #12]
 8002c3c:	681b      	ldr	r3, [r3, #0]
 8002c3e:	f442 7200 	orr.w	r2, r2, #512	@ 0x200
 8002c42:	601a      	str	r2, [r3, #0]
      }
      return HAL_ERROR;
 8002c44:	2301      	movs	r3, #1
 8002c46:	e016      	b.n	8002c76 <HAL_I2C_Mem_Write+0x1e2>
    }

    /* Generate Stop */
    SET_BIT(hi2c->Instance->CR1, I2C_CR1_STOP);
 8002c48:	68fb      	ldr	r3, [r7, #12]
 8002c4a:	681b      	ldr	r3, [r3, #0]
 8002c4c:	681a      	ldr	r2, [r3, #0]
 8002c4e:	68fb      	ldr	r3, [r7, #12]
 8002c50:	681b      	ldr	r3, [r3, #0]
 8002c52:	f442 7200 	orr.w	r2, r2, #512	@ 0x200
 8002c56:	601a      	str	r2, [r3, #0]

    hi2c->State = HAL_I2C_STATE_READY;
 8002c58:	68fb      	ldr	r3, [r7, #12]
 8002c5a:	2220      	movs	r2, #32
 8002c5c:	f883 203d 	strb.w	r2, [r3, #61]	@ 0x3d
    hi2c->Mode = HAL_I2C_MODE_NONE;
 8002c60:	68fb      	ldr	r3, [r7, #12]
 8002c62:	2200      	movs	r2, #0
 8002c64:	f883 203e 	strb.w	r2, [r3, #62]	@ 0x3e

    /* Process Unlocked */
    __HAL_UNLOCK(hi2c);
 8002c68:	68fb      	ldr	r3, [r7, #12]
 8002c6a:	2200      	movs	r2, #0
 8002c6c:	f883 203c 	strb.w	r2, [r3, #60]	@ 0x3c

    return HAL_OK;
 8002c70:	2300      	movs	r3, #0
 8002c72:	e000      	b.n	8002c76 <HAL_I2C_Mem_Write+0x1e2>
  }
  else
  {
    return HAL_BUSY;
 8002c74:	2302      	movs	r3, #2
  }
}
 8002c76:	4618      	mov	r0, r3
 8002c78:	3718      	adds	r7, #24
 8002c7a:	46bd      	mov	sp, r7
 8002c7c:	bd80      	pop	{r7, pc}
 8002c7e:	bf00      	nop
 8002c80:	00100002 	.word	0x00100002
 8002c84:	ffff0000 	.word	0xffff0000

08002c88 <HAL_I2C_Mem_Read>:
  * @param  Size Amount of data to be sent
  * @param  Timeout Timeout duration
  * @retval HAL status
  */
HAL_StatusTypeDef HAL_I2C_Mem_Read(I2C_HandleTypeDef *hi2c, uint16_t DevAddress, uint16_t MemAddress, uint16_t MemAddSize, uint8_t *pData, uint16_t Size, uint32_t Timeout)
{
 8002c88:	b580      	push	{r7, lr}
 8002c8a:	b08c      	sub	sp, #48	@ 0x30
 8002c8c:	af02      	add	r7, sp, #8
 8002c8e:	60f8      	str	r0, [r7, #12]
 8002c90:	4608      	mov	r0, r1
 8002c92:	4611      	mov	r1, r2
 8002c94:	461a      	mov	r2, r3
 8002c96:	4603      	mov	r3, r0
 8002c98:	817b      	strh	r3, [r7, #10]
 8002c9a:	460b      	mov	r3, r1
 8002c9c:	813b      	strh	r3, [r7, #8]
 8002c9e:	4613      	mov	r3, r2
 8002ca0:	80fb      	strh	r3, [r7, #6]
  /* Init tickstart for timeout management*/
  uint32_t tickstart = HAL_GetTick();
 8002ca2:	f7ff fa27 	bl	80020f4 <HAL_GetTick>
 8002ca6:	6278      	str	r0, [r7, #36]	@ 0x24

  /* Check the parameters */
  assert_param(IS_I2C_MEMADD_SIZE(MemAddSize));

  if (hi2c->State == HAL_I2C_STATE_READY)
 8002ca8:	68fb      	ldr	r3, [r7, #12]
 8002caa:	f893 303d 	ldrb.w	r3, [r3, #61]	@ 0x3d
 8002cae:	b2db      	uxtb	r3, r3
 8002cb0:	2b20      	cmp	r3, #32
 8002cb2:	f040 8214 	bne.w	80030de <HAL_I2C_Mem_Read+0x456>
  {
    /* Wait until BUSY flag is reset */
    if (I2C_WaitOnFlagUntilTimeout(hi2c, I2C_FLAG_BUSY, SET, I2C_TIMEOUT_BUSY_FLAG, tickstart) != HAL_OK)
 8002cb6:	6a7b      	ldr	r3, [r7, #36]	@ 0x24
 8002cb8:	9300      	str	r3, [sp, #0]
 8002cba:	2319      	movs	r3, #25
 8002cbc:	2201      	movs	r2, #1
 8002cbe:	497b      	ldr	r1, [pc, #492]	@ (8002eac <HAL_I2C_Mem_Read+0x224>)
 8002cc0:	68f8      	ldr	r0, [r7, #12]
 8002cc2:	f000 fb91 	bl	80033e8 <I2C_WaitOnFlagUntilTimeout>
 8002cc6:	4603      	mov	r3, r0
 8002cc8:	2b00      	cmp	r3, #0
 8002cca:	d001      	beq.n	8002cd0 <HAL_I2C_Mem_Read+0x48>
    {
      return HAL_BUSY;
 8002ccc:	2302      	movs	r3, #2
 8002cce:	e207      	b.n	80030e0 <HAL_I2C_Mem_Read+0x458>
    }

    /* Process Locked */
    __HAL_LOCK(hi2c);
 8002cd0:	68fb      	ldr	r3, [r7, #12]
 8002cd2:	f893 303c 	ldrb.w	r3, [r3, #60]	@ 0x3c
 8002cd6:	2b01      	cmp	r3, #1
 8002cd8:	d101      	bne.n	8002cde <HAL_I2C_Mem_Read+0x56>
 8002cda:	2302      	movs	r3, #2
 8002cdc:	e200      	b.n	80030e0 <HAL_I2C_Mem_Read+0x458>
 8002cde:	68fb      	ldr	r3, [r7, #12]
 8002ce0:	2201      	movs	r2, #1
 8002ce2:	f883 203c 	strb.w	r2, [r3, #60]	@ 0x3c

    /* Check if the I2C is already enabled */
    if ((hi2c->Instance->CR1 & I2C_CR1_PE) != I2C_CR1_PE)
 8002ce6:	68fb      	ldr	r3, [r7, #12]
 8002ce8:	681b      	ldr	r3, [r3, #0]
 8002cea:	681b      	ldr	r3, [r3, #0]
 8002cec:	f003 0301 	and.w	r3, r3, #1
 8002cf0:	2b01      	cmp	r3, #1
 8002cf2:	d007      	beq.n	8002d04 <HAL_I2C_Mem_Read+0x7c>
    {
      /* Enable I2C peripheral */
      __HAL_I2C_ENABLE(hi2c);
 8002cf4:	68fb      	ldr	r3, [r7, #12]
 8002cf6:	681b      	ldr	r3, [r3, #0]
 8002cf8:	681a      	ldr	r2, [r3, #0]
 8002cfa:	68fb      	ldr	r3, [r7, #12]
 8002cfc:	681b      	ldr	r3, [r3, #0]
 8002cfe:	f042 0201 	orr.w	r2, r2, #1
 8002d02:	601a      	str	r2, [r3, #0]
    }

    /* Disable Pos */
    CLEAR_BIT(hi2c->Instance->CR1, I2C_CR1_POS);
 8002d04:	68fb      	ldr	r3, [r7, #12]
 8002d06:	681b      	ldr	r3, [r3, #0]
 8002d08:	681a      	ldr	r2, [r3, #0]
 8002d0a:	68fb      	ldr	r3, [r7, #12]
 8002d0c:	681b      	ldr	r3, [r3, #0]
 8002d0e:	f422 6200 	bic.w	r2, r2, #2048	@ 0x800
 8002d12:	601a      	str	r2, [r3, #0]

    hi2c->State     = HAL_I2C_STATE_BUSY_RX;
 8002d14:	68fb      	ldr	r3, [r7, #12]
 8002d16:	2222      	movs	r2, #34	@ 0x22
 8002d18:	f883 203d 	strb.w	r2, [r3, #61]	@ 0x3d
    hi2c->Mode      = HAL_I2C_MODE_MEM;
 8002d1c:	68fb      	ldr	r3, [r7, #12]
 8002d1e:	2240      	movs	r2, #64	@ 0x40
 8002d20:	f883 203e 	strb.w	r2, [r3, #62]	@ 0x3e
    hi2c->ErrorCode = HAL_I2C_ERROR_NONE;
 8002d24:	68fb      	ldr	r3, [r7, #12]
 8002d26:	2200      	movs	r2, #0
 8002d28:	641a      	str	r2, [r3, #64]	@ 0x40

    /* Prepare transfer parameters */
    hi2c->pBuffPtr    = pData;
 8002d2a:	68fb      	ldr	r3, [r7, #12]
 8002d2c:	6b3a      	ldr	r2, [r7, #48]	@ 0x30
 8002d2e:	625a      	str	r2, [r3, #36]	@ 0x24
    hi2c->XferCount   = Size;
 8002d30:	68fb      	ldr	r3, [r7, #12]
 8002d32:	8eba      	ldrh	r2, [r7, #52]	@ 0x34
 8002d34:	855a      	strh	r2, [r3, #42]	@ 0x2a
    hi2c->XferSize    = hi2c->XferCount;
 8002d36:	68fb      	ldr	r3, [r7, #12]
 8002d38:	8d5b      	ldrh	r3, [r3, #42]	@ 0x2a
 8002d3a:	b29a      	uxth	r2, r3
 8002d3c:	68fb      	ldr	r3, [r7, #12]
 8002d3e:	851a      	strh	r2, [r3, #40]	@ 0x28
    hi2c->XferOptions = I2C_NO_OPTION_FRAME;
 8002d40:	68fb      	ldr	r3, [r7, #12]
 8002d42:	4a5b      	ldr	r2, [pc, #364]	@ (8002eb0 <HAL_I2C_Mem_Read+0x228>)
 8002d44:	62da      	str	r2, [r3, #44]	@ 0x2c

    /* Send Slave Address and Memory Address */
    if (I2C_RequestMemoryRead(hi2c, DevAddress, MemAddress, MemAddSize, Timeout, tickstart) != HAL_OK)
 8002d46:	88f8      	ldrh	r0, [r7, #6]
 8002d48:	893a      	ldrh	r2, [r7, #8]
 8002d4a:	8979      	ldrh	r1, [r7, #10]
 8002d4c:	6a7b      	ldr	r3, [r7, #36]	@ 0x24
 8002d4e:	9301      	str	r3, [sp, #4]
 8002d50:	6bbb      	ldr	r3, [r7, #56]	@ 0x38
 8002d52:	9300      	str	r3, [sp, #0]
 8002d54:	4603      	mov	r3, r0
 8002d56:	68f8      	ldr	r0, [r7, #12]
 8002d58:	f000 fa5e 	bl	8003218 <I2C_RequestMemoryRead>
 8002d5c:	4603      	mov	r3, r0
 8002d5e:	2b00      	cmp	r3, #0
 8002d60:	d001      	beq.n	8002d66 <HAL_I2C_Mem_Read+0xde>
    {
      return HAL_ERROR;
 8002d62:	2301      	movs	r3, #1
 8002d64:	e1bc      	b.n	80030e0 <HAL_I2C_Mem_Read+0x458>
    }

    if (hi2c->XferSize == 0U)
 8002d66:	68fb      	ldr	r3, [r7, #12]
 8002d68:	8d1b      	ldrh	r3, [r3, #40]	@ 0x28
 8002d6a:	2b00      	cmp	r3, #0
 8002d6c:	d113      	bne.n	8002d96 <HAL_I2C_Mem_Read+0x10e>
    {
      /* Clear ADDR flag */
      __HAL_I2C_CLEAR_ADDRFLAG(hi2c);
 8002d6e:	2300      	movs	r3, #0
 8002d70:	623b      	str	r3, [r7, #32]
 8002d72:	68fb      	ldr	r3, [r7, #12]
 8002d74:	681b      	ldr	r3, [r3, #0]
 8002d76:	695b      	ldr	r3, [r3, #20]
 8002d78:	623b      	str	r3, [r7, #32]
 8002d7a:	68fb      	ldr	r3, [r7, #12]
 8002d7c:	681b      	ldr	r3, [r3, #0]
 8002d7e:	699b      	ldr	r3, [r3, #24]
 8002d80:	623b      	str	r3, [r7, #32]
 8002d82:	6a3b      	ldr	r3, [r7, #32]

      /* Generate Stop */
      SET_BIT(hi2c->Instance->CR1, I2C_CR1_STOP);
 8002d84:	68fb      	ldr	r3, [r7, #12]
 8002d86:	681b      	ldr	r3, [r3, #0]
 8002d88:	681a      	ldr	r2, [r3, #0]
 8002d8a:	68fb      	ldr	r3, [r7, #12]
 8002d8c:	681b      	ldr	r3, [r3, #0]
 8002d8e:	f442 7200 	orr.w	r2, r2, #512	@ 0x200
 8002d92:	601a      	str	r2, [r3, #0]
 8002d94:	e190      	b.n	80030b8 <HAL_I2C_Mem_Read+0x430>
    }
    else if (hi2c->XferSize == 1U)
 8002d96:	68fb      	ldr	r3, [r7, #12]
 8002d98:	8d1b      	ldrh	r3, [r3, #40]	@ 0x28
 8002d9a:	2b01      	cmp	r3, #1
 8002d9c:	d11b      	bne.n	8002dd6 <HAL_I2C_Mem_Read+0x14e>
    {
      /* Disable Acknowledge */
      CLEAR_BIT(hi2c->Instance->CR1, I2C_CR1_ACK);
 8002d9e:	68fb      	ldr	r3, [r7, #12]
 8002da0:	681b      	ldr	r3, [r3, #0]
 8002da2:	681a      	ldr	r2, [r3, #0]
 8002da4:	68fb      	ldr	r3, [r7, #12]
 8002da6:	681b      	ldr	r3, [r3, #0]
 8002da8:	f422 6280 	bic.w	r2, r2, #1024	@ 0x400
 8002dac:	601a      	str	r2, [r3, #0]

      /* Clear ADDR flag */
      __HAL_I2C_CLEAR_ADDRFLAG(hi2c);
 8002dae:	2300      	movs	r3, #0
 8002db0:	61fb      	str	r3, [r7, #28]
 8002db2:	68fb      	ldr	r3, [r7, #12]
 8002db4:	681b      	ldr	r3, [r3, #0]
 8002db6:	695b      	ldr	r3, [r3, #20]
 8002db8:	61fb      	str	r3, [r7, #28]
 8002dba:	68fb      	ldr	r3, [r7, #12]
 8002dbc:	681b      	ldr	r3, [r3, #0]
 8002dbe:	699b      	ldr	r3, [r3, #24]
 8002dc0:	61fb      	str	r3, [r7, #28]
 8002dc2:	69fb      	ldr	r3, [r7, #28]

      /* Generate Stop */
      SET_BIT(hi2c->Instance->CR1, I2C_CR1_STOP);
 8002dc4:	68fb      	ldr	r3, [r7, #12]
 8002dc6:	681b      	ldr	r3, [r3, #0]
 8002dc8:	681a      	ldr	r2, [r3, #0]
 8002dca:	68fb      	ldr	r3, [r7, #12]
 8002dcc:	681b      	ldr	r3, [r3, #0]
 8002dce:	f442 7200 	orr.w	r2, r2, #512	@ 0x200
 8002dd2:	601a      	str	r2, [r3, #0]
 8002dd4:	e170      	b.n	80030b8 <HAL_I2C_Mem_Read+0x430>
    }
    else if (hi2c->XferSize == 2U)
 8002dd6:	68fb      	ldr	r3, [r7, #12]
 8002dd8:	8d1b      	ldrh	r3, [r3, #40]	@ 0x28
 8002dda:	2b02      	cmp	r3, #2
 8002ddc:	d11b      	bne.n	8002e16 <HAL_I2C_Mem_Read+0x18e>
    {
      /* Disable Acknowledge */
      CLEAR_BIT(hi2c->Instance->CR1, I2C_CR1_ACK);
 8002dde:	68fb      	ldr	r3, [r7, #12]
 8002de0:	681b      	ldr	r3, [r3, #0]
 8002de2:	681a      	ldr	r2, [r3, #0]
 8002de4:	68fb      	ldr	r3, [r7, #12]
 8002de6:	681b      	ldr	r3, [r3, #0]
 8002de8:	f422 6280 	bic.w	r2, r2, #1024	@ 0x400
 8002dec:	601a      	str	r2, [r3, #0]

      /* Enable Pos */
      SET_BIT(hi2c->Instance->CR1, I2C_CR1_POS);
 8002dee:	68fb      	ldr	r3, [r7, #12]
 8002df0:	681b      	ldr	r3, [r3, #0]
 8002df2:	681a      	ldr	r2, [r3, #0]
 8002df4:	68fb      	ldr	r3, [r7, #12]
 8002df6:	681b      	ldr	r3, [r3, #0]
 8002df8:	f442 6200 	orr.w	r2, r2, #2048	@ 0x800
 8002dfc:	601a      	str	r2, [r3, #0]

      /* Clear ADDR flag */
      __HAL_I2C_CLEAR_ADDRFLAG(hi2c);
 8002dfe:	2300      	movs	r3, #0
 8002e00:	61bb      	str	r3, [r7, #24]
 8002e02:	68fb      	ldr	r3, [r7, #12]
 8002e04:	681b      	ldr	r3, [r3, #0]
 8002e06:	695b      	ldr	r3, [r3, #20]
 8002e08:	61bb      	str	r3, [r7, #24]
 8002e0a:	68fb      	ldr	r3, [r7, #12]
 8002e0c:	681b      	ldr	r3, [r3, #0]
 8002e0e:	699b      	ldr	r3, [r3, #24]
 8002e10:	61bb      	str	r3, [r7, #24]
 8002e12:	69bb      	ldr	r3, [r7, #24]
 8002e14:	e150      	b.n	80030b8 <HAL_I2C_Mem_Read+0x430>
    }
    else
    {
      /* Clear ADDR flag */
      __HAL_I2C_CLEAR_ADDRFLAG(hi2c);
 8002e16:	2300      	movs	r3, #0
 8002e18:	617b      	str	r3, [r7, #20]
 8002e1a:	68fb      	ldr	r3, [r7, #12]
 8002e1c:	681b      	ldr	r3, [r3, #0]
 8002e1e:	695b      	ldr	r3, [r3, #20]
 8002e20:	617b      	str	r3, [r7, #20]
 8002e22:	68fb      	ldr	r3, [r7, #12]
 8002e24:	681b      	ldr	r3, [r3, #0]
 8002e26:	699b      	ldr	r3, [r3, #24]
 8002e28:	617b      	str	r3, [r7, #20]
 8002e2a:	697b      	ldr	r3, [r7, #20]
    }

    while (hi2c->XferSize > 0U)
 8002e2c:	e144      	b.n	80030b8 <HAL_I2C_Mem_Read+0x430>
    {
      if (hi2c->XferSize <= 3U)
 8002e2e:	68fb      	ldr	r3, [r7, #12]
 8002e30:	8d1b      	ldrh	r3, [r3, #40]	@ 0x28
 8002e32:	2b03      	cmp	r3, #3
 8002e34:	f200 80f1 	bhi.w	800301a <HAL_I2C_Mem_Read+0x392>
      {
        /* One byte */
        if (hi2c->XferSize == 1U)
 8002e38:	68fb      	ldr	r3, [r7, #12]
 8002e3a:	8d1b      	ldrh	r3, [r3, #40]	@ 0x28
 8002e3c:	2b01      	cmp	r3, #1
 8002e3e:	d123      	bne.n	8002e88 <HAL_I2C_Mem_Read+0x200>
        {
          /* Wait until RXNE flag is set */
          if (I2C_WaitOnRXNEFlagUntilTimeout(hi2c, Timeout, tickstart) != HAL_OK)
 8002e40:	6a7a      	ldr	r2, [r7, #36]	@ 0x24
 8002e42:	6bb9      	ldr	r1, [r7, #56]	@ 0x38
 8002e44:	68f8      	ldr	r0, [r7, #12]
 8002e46:	f000 fc79 	bl	800373c <I2C_WaitOnRXNEFlagUntilTimeout>
 8002e4a:	4603      	mov	r3, r0
 8002e4c:	2b00      	cmp	r3, #0
 8002e4e:	d001      	beq.n	8002e54 <HAL_I2C_Mem_Read+0x1cc>
          {
            return HAL_ERROR;
 8002e50:	2301      	movs	r3, #1
 8002e52:	e145      	b.n	80030e0 <HAL_I2C_Mem_Read+0x458>
          }

          /* Read data from DR */
          *hi2c->pBuffPtr = (uint8_t)hi2c->Instance->DR;
 8002e54:	68fb      	ldr	r3, [r7, #12]
 8002e56:	681b      	ldr	r3, [r3, #0]
 8002e58:	691a      	ldr	r2, [r3, #16]
 8002e5a:	68fb      	ldr	r3, [r7, #12]
 8002e5c:	6a5b      	ldr	r3, [r3, #36]	@ 0x24
 8002e5e:	b2d2      	uxtb	r2, r2
 8002e60:	701a      	strb	r2, [r3, #0]

          /* Increment Buffer pointer */
          hi2c->pBuffPtr++;
 8002e62:	68fb      	ldr	r3, [r7, #12]
 8002e64:	6a5b      	ldr	r3, [r3, #36]	@ 0x24
 8002e66:	1c5a      	adds	r2, r3, #1
 8002e68:	68fb      	ldr	r3, [r7, #12]
 8002e6a:	625a      	str	r2, [r3, #36]	@ 0x24

          /* Update counter */
          hi2c->XferSize--;
 8002e6c:	68fb      	ldr	r3, [r7, #12]
 8002e6e:	8d1b      	ldrh	r3, [r3, #40]	@ 0x28
 8002e70:	3b01      	subs	r3, #1
 8002e72:	b29a      	uxth	r2, r3
 8002e74:	68fb      	ldr	r3, [r7, #12]
 8002e76:	851a      	strh	r2, [r3, #40]	@ 0x28
          hi2c->XferCount--;
 8002e78:	68fb      	ldr	r3, [r7, #12]
 8002e7a:	8d5b      	ldrh	r3, [r3, #42]	@ 0x2a
 8002e7c:	b29b      	uxth	r3, r3
 8002e7e:	3b01      	subs	r3, #1
 8002e80:	b29a      	uxth	r2, r3
 8002e82:	68fb      	ldr	r3, [r7, #12]
 8002e84:	855a      	strh	r2, [r3, #42]	@ 0x2a
 8002e86:	e117      	b.n	80030b8 <HAL_I2C_Mem_Read+0x430>
        }
        /* Two bytes */
        else if (hi2c->XferSize == 2U)
 8002e88:	68fb      	ldr	r3, [r7, #12]
 8002e8a:	8d1b      	ldrh	r3, [r3, #40]	@ 0x28
 8002e8c:	2b02      	cmp	r3, #2
 8002e8e:	d14e      	bne.n	8002f2e <HAL_I2C_Mem_Read+0x2a6>
        {
          /* Wait until BTF flag is set */
          if (I2C_WaitOnFlagUntilTimeout(hi2c, I2C_FLAG_BTF, RESET, Timeout, tickstart) != HAL_OK)
 8002e90:	6a7b      	ldr	r3, [r7, #36]	@ 0x24
 8002e92:	9300      	str	r3, [sp, #0]
 8002e94:	6bbb      	ldr	r3, [r7, #56]	@ 0x38
 8002e96:	2200      	movs	r2, #0
 8002e98:	4906      	ldr	r1, [pc, #24]	@ (8002eb4 <HAL_I2C_Mem_Read+0x22c>)
 8002e9a:	68f8      	ldr	r0, [r7, #12]
 8002e9c:	f000 faa4 	bl	80033e8 <I2C_WaitOnFlagUntilTimeout>
 8002ea0:	4603      	mov	r3, r0
 8002ea2:	2b00      	cmp	r3, #0
 8002ea4:	d008      	beq.n	8002eb8 <HAL_I2C_Mem_Read+0x230>
          {
            return HAL_ERROR;
 8002ea6:	2301      	movs	r3, #1
 8002ea8:	e11a      	b.n	80030e0 <HAL_I2C_Mem_Read+0x458>
 8002eaa:	bf00      	nop
 8002eac:	00100002 	.word	0x00100002
 8002eb0:	ffff0000 	.word	0xffff0000
 8002eb4:	00010004 	.word	0x00010004
          }

          /* Generate Stop */
          SET_BIT(hi2c->Instance->CR1, I2C_CR1_STOP);
 8002eb8:	68fb      	ldr	r3, [r7, #12]
 8002eba:	681b      	ldr	r3, [r3, #0]
 8002ebc:	681a      	ldr	r2, [r3, #0]
 8002ebe:	68fb      	ldr	r3, [r7, #12]
 8002ec0:	681b      	ldr	r3, [r3, #0]
 8002ec2:	f442 7200 	orr.w	r2, r2, #512	@ 0x200
 8002ec6:	601a      	str	r2, [r3, #0]

          /* Read data from DR */
          *hi2c->pBuffPtr = (uint8_t)hi2c->Instance->DR;
 8002ec8:	68fb      	ldr	r3, [r7, #12]
 8002eca:	681b      	ldr	r3, [r3, #0]
 8002ecc:	691a      	ldr	r2, [r3, #16]
 8002ece:	68fb      	ldr	r3, [r7, #12]
 8002ed0:	6a5b      	ldr	r3, [r3, #36]	@ 0x24
 8002ed2:	b2d2      	uxtb	r2, r2
 8002ed4:	701a      	strb	r2, [r3, #0]

          /* Increment Buffer pointer */
          hi2c->pBuffPtr++;
 8002ed6:	68fb      	ldr	r3, [r7, #12]
 8002ed8:	6a5b      	ldr	r3, [r3, #36]	@ 0x24
 8002eda:	1c5a      	adds	r2, r3, #1
 8002edc:	68fb      	ldr	r3, [r7, #12]
 8002ede:	625a      	str	r2, [r3, #36]	@ 0x24

          /* Update counter */
          hi2c->XferSize--;
 8002ee0:	68fb      	ldr	r3, [r7, #12]
 8002ee2:	8d1b      	ldrh	r3, [r3, #40]	@ 0x28
 8002ee4:	3b01      	subs	r3, #1
 8002ee6:	b29a      	uxth	r2, r3
 8002ee8:	68fb      	ldr	r3, [r7, #12]
 8002eea:	851a      	strh	r2, [r3, #40]	@ 0x28
          hi2c->XferCount--;
 8002eec:	68fb      	ldr	r3, [r7, #12]
 8002eee:	8d5b      	ldrh	r3, [r3, #42]	@ 0x2a
 8002ef0:	b29b      	uxth	r3, r3
 8002ef2:	3b01      	subs	r3, #1
 8002ef4:	b29a      	uxth	r2, r3
 8002ef6:	68fb      	ldr	r3, [r7, #12]
 8002ef8:	855a      	strh	r2, [r3, #42]	@ 0x2a

          /* Read data from DR */
          *hi2c->pBuffPtr = (uint8_t)hi2c->Instance->DR;
 8002efa:	68fb      	ldr	r3, [r7, #12]
 8002efc:	681b      	ldr	r3, [r3, #0]
 8002efe:	691a      	ldr	r2, [r3, #16]
 8002f00:	68fb      	ldr	r3, [r7, #12]
 8002f02:	6a5b      	ldr	r3, [r3, #36]	@ 0x24
 8002f04:	b2d2      	uxtb	r2, r2
 8002f06:	701a      	strb	r2, [r3, #0]

          /* Increment Buffer pointer */
          hi2c->pBuffPtr++;
 8002f08:	68fb      	ldr	r3, [r7, #12]
 8002f0a:	6a5b      	ldr	r3, [r3, #36]	@ 0x24
 8002f0c:	1c5a      	adds	r2, r3, #1
 8002f0e:	68fb      	ldr	r3, [r7, #12]
 8002f10:	625a      	str	r2, [r3, #36]	@ 0x24

          /* Update counter */
          hi2c->XferSize--;
 8002f12:	68fb      	ldr	r3, [r7, #12]
 8002f14:	8d1b      	ldrh	r3, [r3, #40]	@ 0x28
 8002f16:	3b01      	subs	r3, #1
 8002f18:	b29a      	uxth	r2, r3
 8002f1a:	68fb      	ldr	r3, [r7, #12]
 8002f1c:	851a      	strh	r2, [r3, #40]	@ 0x28
          hi2c->XferCount--;
 8002f1e:	68fb      	ldr	r3, [r7, #12]
 8002f20:	8d5b      	ldrh	r3, [r3, #42]	@ 0x2a
 8002f22:	b29b      	uxth	r3, r3
 8002f24:	3b01      	subs	r3, #1
 8002f26:	b29a      	uxth	r2, r3
 8002f28:	68fb      	ldr	r3, [r7, #12]
 8002f2a:	855a      	strh	r2, [r3, #42]	@ 0x2a
 8002f2c:	e0c4      	b.n	80030b8 <HAL_I2C_Mem_Read+0x430>
        }
        /* 3 Last bytes */
        else
        {
          /* Wait until BTF flag is set */
          if (I2C_WaitOnFlagUntilTimeout(hi2c, I2C_FLAG_BTF, RESET, Timeout, tickstart) != HAL_OK)
 8002f2e:	6a7b      	ldr	r3, [r7, #36]	@ 0x24
 8002f30:	9300      	str	r3, [sp, #0]
 8002f32:	6bbb      	ldr	r3, [r7, #56]	@ 0x38
 8002f34:	2200      	movs	r2, #0
 8002f36:	496c      	ldr	r1, [pc, #432]	@ (80030e8 <HAL_I2C_Mem_Read+0x460>)
 8002f38:	68f8      	ldr	r0, [r7, #12]
 8002f3a:	f000 fa55 	bl	80033e8 <I2C_WaitOnFlagUntilTimeout>
 8002f3e:	4603      	mov	r3, r0
 8002f40:	2b00      	cmp	r3, #0
 8002f42:	d001      	beq.n	8002f48 <HAL_I2C_Mem_Read+0x2c0>
          {
            return HAL_ERROR;
 8002f44:	2301      	movs	r3, #1
 8002f46:	e0cb      	b.n	80030e0 <HAL_I2C_Mem_Read+0x458>
          }

          /* Disable Acknowledge */
          CLEAR_BIT(hi2c->Instance->CR1, I2C_CR1_ACK);
 8002f48:	68fb      	ldr	r3, [r7, #12]
 8002f4a:	681b      	ldr	r3, [r3, #0]
 8002f4c:	681a      	ldr	r2, [r3, #0]
 8002f4e:	68fb      	ldr	r3, [r7, #12]
 8002f50:	681b      	ldr	r3, [r3, #0]
 8002f52:	f422 6280 	bic.w	r2, r2, #1024	@ 0x400
 8002f56:	601a      	str	r2, [r3, #0]

          /* Read data from DR */
          *hi2c->pBuffPtr = (uint8_t)hi2c->Instance->DR;
 8002f58:	68fb      	ldr	r3, [r7, #12]
 8002f5a:	681b      	ldr	r3, [r3, #0]
 8002f5c:	691a      	ldr	r2, [r3, #16]
 8002f5e:	68fb      	ldr	r3, [r7, #12]
 8002f60:	6a5b      	ldr	r3, [r3, #36]	@ 0x24
 8002f62:	b2d2      	uxtb	r2, r2
 8002f64:	701a      	strb	r2, [r3, #0]

          /* Increment Buffer pointer */
          hi2c->pBuffPtr++;
 8002f66:	68fb      	ldr	r3, [r7, #12]
 8002f68:	6a5b      	ldr	r3, [r3, #36]	@ 0x24
 8002f6a:	1c5a      	adds	r2, r3, #1
 8002f6c:	68fb      	ldr	r3, [r7, #12]
 8002f6e:	625a      	str	r2, [r3, #36]	@ 0x24

          /* Update counter */
          hi2c->XferSize--;
 8002f70:	68fb      	ldr	r3, [r7, #12]
 8002f72:	8d1b      	ldrh	r3, [r3, #40]	@ 0x28
 8002f74:	3b01      	subs	r3, #1
 8002f76:	b29a      	uxth	r2, r3
 8002f78:	68fb      	ldr	r3, [r7, #12]
 8002f7a:	851a      	strh	r2, [r3, #40]	@ 0x28
          hi2c->XferCount--;
 8002f7c:	68fb      	ldr	r3, [r7, #12]
 8002f7e:	8d5b      	ldrh	r3, [r3, #42]	@ 0x2a
 8002f80:	b29b      	uxth	r3, r3
 8002f82:	3b01      	subs	r3, #1
 8002f84:	b29a      	uxth	r2, r3
 8002f86:	68fb      	ldr	r3, [r7, #12]
 8002f88:	855a      	strh	r2, [r3, #42]	@ 0x2a

          /* Wait until BTF flag is set */
          if (I2C_WaitOnFlagUntilTimeout(hi2c, I2C_FLAG_BTF, RESET, Timeout, tickstart) != HAL_OK)
 8002f8a:	6a7b      	ldr	r3, [r7, #36]	@ 0x24
 8002f8c:	9300      	str	r3, [sp, #0]
 8002f8e:	6bbb      	ldr	r3, [r7, #56]	@ 0x38
 8002f90:	2200      	movs	r2, #0
 8002f92:	4955      	ldr	r1, [pc, #340]	@ (80030e8 <HAL_I2C_Mem_Read+0x460>)
 8002f94:	68f8      	ldr	r0, [r7, #12]
 8002f96:	f000 fa27 	bl	80033e8 <I2C_WaitOnFlagUntilTimeout>
 8002f9a:	4603      	mov	r3, r0
 8002f9c:	2b00      	cmp	r3, #0
 8002f9e:	d001      	beq.n	8002fa4 <HAL_I2C_Mem_Read+0x31c>
          {
            return HAL_ERROR;
 8002fa0:	2301      	movs	r3, #1
 8002fa2:	e09d      	b.n	80030e0 <HAL_I2C_Mem_Read+0x458>
          }

          /* Generate Stop */
          SET_BIT(hi2c->Instance->CR1, I2C_CR1_STOP);
 8002fa4:	68fb      	ldr	r3, [r7, #12]
 8002fa6:	681b      	ldr	r3, [r3, #0]
 8002fa8:	681a      	ldr	r2, [r3, #0]
 8002faa:	68fb      	ldr	r3, [r7, #12]
 8002fac:	681b      	ldr	r3, [r3, #0]
 8002fae:	f442 7200 	orr.w	r2, r2, #512	@ 0x200
 8002fb2:	601a      	str	r2, [r3, #0]

          /* Read data from DR */
          *hi2c->pBuffPtr = (uint8_t)hi2c->Instance->DR;
 8002fb4:	68fb      	ldr	r3, [r7, #12]
 8002fb6:	681b      	ldr	r3, [r3, #0]
 8002fb8:	691a      	ldr	r2, [r3, #16]
 8002fba:	68fb      	ldr	r3, [r7, #12]
 8002fbc:	6a5b      	ldr	r3, [r3, #36]	@ 0x24
 8002fbe:	b2d2      	uxtb	r2, r2
 8002fc0:	701a      	strb	r2, [r3, #0]

          /* Increment Buffer pointer */
          hi2c->pBuffPtr++;
 8002fc2:	68fb      	ldr	r3, [r7, #12]
 8002fc4:	6a5b      	ldr	r3, [r3, #36]	@ 0x24
 8002fc6:	1c5a      	adds	r2, r3, #1
 8002fc8:	68fb      	ldr	r3, [r7, #12]
 8002fca:	625a      	str	r2, [r3, #36]	@ 0x24

          /* Update counter */
          hi2c->XferSize--;
 8002fcc:	68fb      	ldr	r3, [r7, #12]
 8002fce:	8d1b      	ldrh	r3, [r3, #40]	@ 0x28
 8002fd0:	3b01      	subs	r3, #1
 8002fd2:	b29a      	uxth	r2, r3
 8002fd4:	68fb      	ldr	r3, [r7, #12]
 8002fd6:	851a      	strh	r2, [r3, #40]	@ 0x28
          hi2c->XferCount--;
 8002fd8:	68fb      	ldr	r3, [r7, #12]
 8002fda:	8d5b      	ldrh	r3, [r3, #42]	@ 0x2a
 8002fdc:	b29b      	uxth	r3, r3
 8002fde:	3b01      	subs	r3, #1
 8002fe0:	b29a      	uxth	r2, r3
 8002fe2:	68fb      	ldr	r3, [r7, #12]
 8002fe4:	855a      	strh	r2, [r3, #42]	@ 0x2a

          /* Read data from DR */
          *hi2c->pBuffPtr = (uint8_t)hi2c->Instance->DR;
 8002fe6:	68fb      	ldr	r3, [r7, #12]
 8002fe8:	681b      	ldr	r3, [r3, #0]
 8002fea:	691a      	ldr	r2, [r3, #16]
 8002fec:	68fb      	ldr	r3, [r7, #12]
 8002fee:	6a5b      	ldr	r3, [r3, #36]	@ 0x24
 8002ff0:	b2d2      	uxtb	r2, r2
 8002ff2:	701a      	strb	r2, [r3, #0]

          /* Increment Buffer pointer */
          hi2c->pBuffPtr++;
 8002ff4:	68fb      	ldr	r3, [r7, #12]
 8002ff6:	6a5b      	ldr	r3, [r3, #36]	@ 0x24
 8002ff8:	1c5a      	adds	r2, r3, #1
 8002ffa:	68fb      	ldr	r3, [r7, #12]
 8002ffc:	625a      	str	r2, [r3, #36]	@ 0x24

          /* Update counter */
          hi2c->XferSize--;
 8002ffe:	68fb      	ldr	r3, [r7, #12]
 8003000:	8d1b      	ldrh	r3, [r3, #40]	@ 0x28
 8003002:	3b01      	subs	r3, #1
 8003004:	b29a      	uxth	r2, r3
 8003006:	68fb      	ldr	r3, [r7, #12]
 8003008:	851a      	strh	r2, [r3, #40]	@ 0x28
          hi2c->XferCount--;
 800300a:	68fb      	ldr	r3, [r7, #12]
 800300c:	8d5b      	ldrh	r3, [r3, #42]	@ 0x2a
 800300e:	b29b      	uxth	r3, r3
 8003010:	3b01      	subs	r3, #1
 8003012:	b29a      	uxth	r2, r3
 8003014:	68fb      	ldr	r3, [r7, #12]
 8003016:	855a      	strh	r2, [r3, #42]	@ 0x2a
 8003018:	e04e      	b.n	80030b8 <HAL_I2C_Mem_Read+0x430>
        }
      }
      else
      {
        /* Wait until RXNE flag is set */
        if (I2C_WaitOnRXNEFlagUntilTimeout(hi2c, Timeout, tickstart) != HAL_OK)
 800301a:	6a7a      	ldr	r2, [r7, #36]	@ 0x24
 800301c:	6bb9      	ldr	r1, [r7, #56]	@ 0x38
 800301e:	68f8      	ldr	r0, [r7, #12]
 8003020:	f000 fb8c 	bl	800373c <I2C_WaitOnRXNEFlagUntilTimeout>
 8003024:	4603      	mov	r3, r0
 8003026:	2b00      	cmp	r3, #0
 8003028:	d001      	beq.n	800302e <HAL_I2C_Mem_Read+0x3a6>
        {
          return HAL_ERROR;
 800302a:	2301      	movs	r3, #1
 800302c:	e058      	b.n	80030e0 <HAL_I2C_Mem_Read+0x458>
        }

        /* Read data from DR */
        *hi2c->pBuffPtr = (uint8_t)hi2c->Instance->DR;
 800302e:	68fb      	ldr	r3, [r7, #12]
 8003030:	681b      	ldr	r3, [r3, #0]
 8003032:	691a      	ldr	r2, [r3, #16]
 8003034:	68fb      	ldr	r3, [r7, #12]
 8003036:	6a5b      	ldr	r3, [r3, #36]	@ 0x24
 8003038:	b2d2      	uxtb	r2, r2
 800303a:	701a      	strb	r2, [r3, #0]

        /* Increment Buffer pointer */
        hi2c->pBuffPtr++;
 800303c:	68fb      	ldr	r3, [r7, #12]
 800303e:	6a5b      	ldr	r3, [r3, #36]	@ 0x24
 8003040:	1c5a      	adds	r2, r3, #1
 8003042:	68fb      	ldr	r3, [r7, #12]
 8003044:	625a      	str	r2, [r3, #36]	@ 0x24

        /* Update counter */
        hi2c->XferSize--;
 8003046:	68fb      	ldr	r3, [r7, #12]
 8003048:	8d1b      	ldrh	r3, [r3, #40]	@ 0x28
 800304a:	3b01      	subs	r3, #1
 800304c:	b29a      	uxth	r2, r3
 800304e:	68fb      	ldr	r3, [r7, #12]
 8003050:	851a      	strh	r2, [r3, #40]	@ 0x28
        hi2c->XferCount--;
 8003052:	68fb      	ldr	r3, [r7, #12]
 8003054:	8d5b      	ldrh	r3, [r3, #42]	@ 0x2a
 8003056:	b29b      	uxth	r3, r3
 8003058:	3b01      	subs	r3, #1
 800305a:	b29a      	uxth	r2, r3
 800305c:	68fb      	ldr	r3, [r7, #12]
 800305e:	855a      	strh	r2, [r3, #42]	@ 0x2a

        if (__HAL_I2C_GET_FLAG(hi2c, I2C_FLAG_BTF) == SET)
 8003060:	68fb      	ldr	r3, [r7, #12]
 8003062:	681b      	ldr	r3, [r3, #0]
 8003064:	695b      	ldr	r3, [r3, #20]
 8003066:	f003 0304 	and.w	r3, r3, #4
 800306a:	2b04      	cmp	r3, #4
 800306c:	d124      	bne.n	80030b8 <HAL_I2C_Mem_Read+0x430>
        {
          if (hi2c->XferSize == 3U)
 800306e:	68fb      	ldr	r3, [r7, #12]
 8003070:	8d1b      	ldrh	r3, [r3, #40]	@ 0x28
 8003072:	2b03      	cmp	r3, #3
 8003074:	d107      	bne.n	8003086 <HAL_I2C_Mem_Read+0x3fe>
          {
            /* Disable Acknowledge */
            CLEAR_BIT(hi2c->Instance->CR1, I2C_CR1_ACK);
 8003076:	68fb      	ldr	r3, [r7, #12]
 8003078:	681b      	ldr	r3, [r3, #0]
 800307a:	681a      	ldr	r2, [r3, #0]
 800307c:	68fb      	ldr	r3, [r7, #12]
 800307e:	681b      	ldr	r3, [r3, #0]
 8003080:	f422 6280 	bic.w	r2, r2, #1024	@ 0x400
 8003084:	601a      	str	r2, [r3, #0]
          }
          /* Read data from DR */
          *hi2c->pBuffPtr = (uint8_t)hi2c->Instance->DR;
 8003086:	68fb      	ldr	r3, [r7, #12]
 8003088:	681b      	ldr	r3, [r3, #0]
 800308a:	691a      	ldr	r2, [r3, #16]
 800308c:	68fb      	ldr	r3, [r7, #12]
 800308e:	6a5b      	ldr	r3, [r3, #36]	@ 0x24
 8003090:	b2d2      	uxtb	r2, r2
 8003092:	701a      	strb	r2, [r3, #0]

          /* Increment Buffer pointer */
          hi2c->pBuffPtr++;
 8003094:	68fb      	ldr	r3, [r7, #12]
 8003096:	6a5b      	ldr	r3, [r3, #36]	@ 0x24
 8003098:	1c5a      	adds	r2, r3, #1
 800309a:	68fb      	ldr	r3, [r7, #12]
 800309c:	625a      	str	r2, [r3, #36]	@ 0x24

          /* Update counter */
          hi2c->XferSize--;
 800309e:	68fb      	ldr	r3, [r7, #12]
 80030a0:	8d1b      	ldrh	r3, [r3, #40]	@ 0x28
 80030a2:	3b01      	subs	r3, #1
 80030a4:	b29a      	uxth	r2, r3
 80030a6:	68fb      	ldr	r3, [r7, #12]
 80030a8:	851a      	strh	r2, [r3, #40]	@ 0x28
          hi2c->XferCount--;
 80030aa:	68fb      	ldr	r3, [r7, #12]
 80030ac:	8d5b      	ldrh	r3, [r3, #42]	@ 0x2a
 80030ae:	b29b      	uxth	r3, r3
 80030b0:	3b01      	subs	r3, #1
 80030b2:	b29a      	uxth	r2, r3
 80030b4:	68fb      	ldr	r3, [r7, #12]
 80030b6:	855a      	strh	r2, [r3, #42]	@ 0x2a
    while (hi2c->XferSize > 0U)
 80030b8:	68fb      	ldr	r3, [r7, #12]
 80030ba:	8d1b      	ldrh	r3, [r3, #40]	@ 0x28
 80030bc:	2b00      	cmp	r3, #0
 80030be:	f47f aeb6 	bne.w	8002e2e <HAL_I2C_Mem_Read+0x1a6>
        }
      }
    }

    hi2c->State = HAL_I2C_STATE_READY;
 80030c2:	68fb      	ldr	r3, [r7, #12]
 80030c4:	2220      	movs	r2, #32
 80030c6:	f883 203d 	strb.w	r2, [r3, #61]	@ 0x3d
    hi2c->Mode = HAL_I2C_MODE_NONE;
 80030ca:	68fb      	ldr	r3, [r7, #12]
 80030cc:	2200      	movs	r2, #0
 80030ce:	f883 203e 	strb.w	r2, [r3, #62]	@ 0x3e

    /* Process Unlocked */
    __HAL_UNLOCK(hi2c);
 80030d2:	68fb      	ldr	r3, [r7, #12]
 80030d4:	2200      	movs	r2, #0
 80030d6:	f883 203c 	strb.w	r2, [r3, #60]	@ 0x3c

    return HAL_OK;
 80030da:	2300      	movs	r3, #0
 80030dc:	e000      	b.n	80030e0 <HAL_I2C_Mem_Read+0x458>
  }
  else
  {
    return HAL_BUSY;
 80030de:	2302      	movs	r3, #2
  }
}
 80030e0:	4618      	mov	r0, r3
 80030e2:	3728      	adds	r7, #40	@ 0x28
 80030e4:	46bd      	mov	sp, r7
 80030e6:	bd80      	pop	{r7, pc}
 80030e8:	00010004 	.word	0x00010004

080030ec <I2C_RequestMemoryWrite>:
  * @param  Timeout Timeout duration
  * @param  Tickstart Tick start value
  * @retval HAL status
  */
static HAL_StatusTypeDef I2C_RequestMemoryWrite(I2C_HandleTypeDef *hi2c, uint16_t DevAddress, uint16_t MemAddress, uint16_t MemAddSize, uint32_t Timeout, uint32_t Tickstart)
{
 80030ec:	b580      	push	{r7, lr}
 80030ee:	b088      	sub	sp, #32
 80030f0:	af02      	add	r7, sp, #8
 80030f2:	60f8      	str	r0, [r7, #12]
 80030f4:	4608      	mov	r0, r1
 80030f6:	4611      	mov	r1, r2
 80030f8:	461a      	mov	r2, r3
 80030fa:	4603      	mov	r3, r0
 80030fc:	817b      	strh	r3, [r7, #10]
 80030fe:	460b      	mov	r3, r1
 8003100:	813b      	strh	r3, [r7, #8]
 8003102:	4613      	mov	r3, r2
 8003104:	80fb      	strh	r3, [r7, #6]
  /* Generate Start */
  SET_BIT(hi2c->Instance->CR1, I2C_CR1_START);
 8003106:	68fb      	ldr	r3, [r7, #12]
 8003108:	681b      	ldr	r3, [r3, #0]
 800310a:	681a      	ldr	r2, [r3, #0]
 800310c:	68fb      	ldr	r3, [r7, #12]
 800310e:	681b      	ldr	r3, [r3, #0]
 8003110:	f442 7280 	orr.w	r2, r2, #256	@ 0x100
 8003114:	601a      	str	r2, [r3, #0]

  /* Wait until SB flag is set */
  if (I2C_WaitOnFlagUntilTimeout(hi2c, I2C_FLAG_SB, RESET, Timeout, Tickstart) != HAL_OK)
 8003116:	6a7b      	ldr	r3, [r7, #36]	@ 0x24
 8003118:	9300      	str	r3, [sp, #0]
 800311a:	6a3b      	ldr	r3, [r7, #32]
 800311c:	2200      	movs	r2, #0
 800311e:	f04f 1101 	mov.w	r1, #65537	@ 0x10001
 8003122:	68f8      	ldr	r0, [r7, #12]
 8003124:	f000 f960 	bl	80033e8 <I2C_WaitOnFlagUntilTimeout>
 8003128:	4603      	mov	r3, r0
 800312a:	2b00      	cmp	r3, #0
 800312c:	d00d      	beq.n	800314a <I2C_RequestMemoryWrite+0x5e>
  {
    if (READ_BIT(hi2c->Instance->CR1, I2C_CR1_START) == I2C_CR1_START)
 800312e:	68fb      	ldr	r3, [r7, #12]
 8003130:	681b      	ldr	r3, [r3, #0]
 8003132:	681b      	ldr	r3, [r3, #0]
 8003134:	f403 7380 	and.w	r3, r3, #256	@ 0x100
 8003138:	f5b3 7f80 	cmp.w	r3, #256	@ 0x100
 800313c:	d103      	bne.n	8003146 <I2C_RequestMemoryWrite+0x5a>
    {
      hi2c->ErrorCode = HAL_I2C_WRONG_START;
 800313e:	68fb      	ldr	r3, [r7, #12]
 8003140:	f44f 7200 	mov.w	r2, #512	@ 0x200
 8003144:	641a      	str	r2, [r3, #64]	@ 0x40
    }
    return HAL_TIMEOUT;
 8003146:	2303      	movs	r3, #3
 8003148:	e05f      	b.n	800320a <I2C_RequestMemoryWrite+0x11e>
  }

  /* Send slave address */
  hi2c->Instance->DR = I2C_7BIT_ADD_WRITE(DevAddress);
 800314a:	897b      	ldrh	r3, [r7, #10]
 800314c:	b2db      	uxtb	r3, r3
 800314e:	461a      	mov	r2, r3
 8003150:	68fb      	ldr	r3, [r7, #12]
 8003152:	681b      	ldr	r3, [r3, #0]
 8003154:	f002 02fe 	and.w	r2, r2, #254	@ 0xfe
 8003158:	611a      	str	r2, [r3, #16]

  /* Wait until ADDR flag is set */
  if (I2C_WaitOnMasterAddressFlagUntilTimeout(hi2c, I2C_FLAG_ADDR, Timeout, Tickstart) != HAL_OK)
 800315a:	6a7b      	ldr	r3, [r7, #36]	@ 0x24
 800315c:	6a3a      	ldr	r2, [r7, #32]
 800315e:	492d      	ldr	r1, [pc, #180]	@ (8003214 <I2C_RequestMemoryWrite+0x128>)
 8003160:	68f8      	ldr	r0, [r7, #12]
 8003162:	f000 f9bb 	bl	80034dc <I2C_WaitOnMasterAddressFlagUntilTimeout>
 8003166:	4603      	mov	r3, r0
 8003168:	2b00      	cmp	r3, #0
 800316a:	d001      	beq.n	8003170 <I2C_RequestMemoryWrite+0x84>
  {
    return HAL_ERROR;
 800316c:	2301      	movs	r3, #1
 800316e:	e04c      	b.n	800320a <I2C_RequestMemoryWrite+0x11e>
  }

  /* Clear ADDR flag */
  __HAL_I2C_CLEAR_ADDRFLAG(hi2c);
 8003170:	2300      	movs	r3, #0
 8003172:	617b      	str	r3, [r7, #20]
 8003174:	68fb      	ldr	r3, [r7, #12]
 8003176:	681b      	ldr	r3, [r3, #0]
 8003178:	695b      	ldr	r3, [r3, #20]
 800317a:	617b      	str	r3, [r7, #20]
 800317c:	68fb      	ldr	r3, [r7, #12]
 800317e:	681b      	ldr	r3, [r3, #0]
 8003180:	699b      	ldr	r3, [r3, #24]
 8003182:	617b      	str	r3, [r7, #20]
 8003184:	697b      	ldr	r3, [r7, #20]

  /* Wait until TXE flag is set */
  if (I2C_WaitOnTXEFlagUntilTimeout(hi2c, Timeout, Tickstart) != HAL_OK)
 8003186:	6a7a      	ldr	r2, [r7, #36]	@ 0x24
 8003188:	6a39      	ldr	r1, [r7, #32]
 800318a:	68f8      	ldr	r0, [r7, #12]
 800318c:	f000 fa46 	bl	800361c <I2C_WaitOnTXEFlagUntilTimeout>
 8003190:	4603      	mov	r3, r0
 8003192:	2b00      	cmp	r3, #0
 8003194:	d00d      	beq.n	80031b2 <I2C_RequestMemoryWrite+0xc6>
  {
    if (hi2c->ErrorCode == HAL_I2C_ERROR_AF)
 8003196:	68fb      	ldr	r3, [r7, #12]
 8003198:	6c1b      	ldr	r3, [r3, #64]	@ 0x40
 800319a:	2b04      	cmp	r3, #4
 800319c:	d107      	bne.n	80031ae <I2C_RequestMemoryWrite+0xc2>
    {
      /* Generate Stop */
      SET_BIT(hi2c->Instance->CR1, I2C_CR1_STOP);
 800319e:	68fb      	ldr	r3, [r7, #12]
 80031a0:	681b      	ldr	r3, [r3, #0]
 80031a2:	681a      	ldr	r2, [r3, #0]
 80031a4:	68fb      	ldr	r3, [r7, #12]
 80031a6:	681b      	ldr	r3, [r3, #0]
 80031a8:	f442 7200 	orr.w	r2, r2, #512	@ 0x200
 80031ac:	601a      	str	r2, [r3, #0]
    }
    return HAL_ERROR;
 80031ae:	2301      	movs	r3, #1
 80031b0:	e02b      	b.n	800320a <I2C_RequestMemoryWrite+0x11e>
  }

  /* If Memory address size is 8Bit */
  if (MemAddSize == I2C_MEMADD_SIZE_8BIT)
 80031b2:	88fb      	ldrh	r3, [r7, #6]
 80031b4:	2b01      	cmp	r3, #1
 80031b6:	d105      	bne.n	80031c4 <I2C_RequestMemoryWrite+0xd8>
  {
    /* Send Memory Address */
    hi2c->Instance->DR = I2C_MEM_ADD_LSB(MemAddress);
 80031b8:	893b      	ldrh	r3, [r7, #8]
 80031ba:	b2da      	uxtb	r2, r3
 80031bc:	68fb      	ldr	r3, [r7, #12]
 80031be:	681b      	ldr	r3, [r3, #0]
 80031c0:	611a      	str	r2, [r3, #16]
 80031c2:	e021      	b.n	8003208 <I2C_RequestMemoryWrite+0x11c>
  }
  /* If Memory address size is 16Bit */
  else
  {
    /* Send MSB of Memory Address */
    hi2c->Instance->DR = I2C_MEM_ADD_MSB(MemAddress);
 80031c4:	893b      	ldrh	r3, [r7, #8]
 80031c6:	0a1b      	lsrs	r3, r3, #8
 80031c8:	b29b      	uxth	r3, r3
 80031ca:	b2da      	uxtb	r2, r3
 80031cc:	68fb      	ldr	r3, [r7, #12]
 80031ce:	681b      	ldr	r3, [r3, #0]
 80031d0:	611a      	str	r2, [r3, #16]

    /* Wait until TXE flag is set */
    if (I2C_WaitOnTXEFlagUntilTimeout(hi2c, Timeout, Tickstart) != HAL_OK)
 80031d2:	6a7a      	ldr	r2, [r7, #36]	@ 0x24
 80031d4:	6a39      	ldr	r1, [r7, #32]
 80031d6:	68f8      	ldr	r0, [r7, #12]
 80031d8:	f000 fa20 	bl	800361c <I2C_WaitOnTXEFlagUntilTimeout>
 80031dc:	4603      	mov	r3, r0
 80031de:	2b00      	cmp	r3, #0
 80031e0:	d00d      	beq.n	80031fe <I2C_RequestMemoryWrite+0x112>
    {
      if (hi2c->ErrorCode == HAL_I2C_ERROR_AF)
 80031e2:	68fb      	ldr	r3, [r7, #12]
 80031e4:	6c1b      	ldr	r3, [r3, #64]	@ 0x40
 80031e6:	2b04      	cmp	r3, #4
 80031e8:	d107      	bne.n	80031fa <I2C_RequestMemoryWrite+0x10e>
      {
        /* Generate Stop */
        SET_BIT(hi2c->Instance->CR1, I2C_CR1_STOP);
 80031ea:	68fb      	ldr	r3, [r7, #12]
 80031ec:	681b      	ldr	r3, [r3, #0]
 80031ee:	681a      	ldr	r2, [r3, #0]
 80031f0:	68fb      	ldr	r3, [r7, #12]
 80031f2:	681b      	ldr	r3, [r3, #0]
 80031f4:	f442 7200 	orr.w	r2, r2, #512	@ 0x200
 80031f8:	601a      	str	r2, [r3, #0]
      }
      return HAL_ERROR;
 80031fa:	2301      	movs	r3, #1
 80031fc:	e005      	b.n	800320a <I2C_RequestMemoryWrite+0x11e>
    }

    /* Send LSB of Memory Address */
    hi2c->Instance->DR = I2C_MEM_ADD_LSB(MemAddress);
 80031fe:	893b      	ldrh	r3, [r7, #8]
 8003200:	b2da      	uxtb	r2, r3
 8003202:	68fb      	ldr	r3, [r7, #12]
 8003204:	681b      	ldr	r3, [r3, #0]
 8003206:	611a      	str	r2, [r3, #16]
  }

  return HAL_OK;
 8003208:	2300      	movs	r3, #0
}
 800320a:	4618      	mov	r0, r3
 800320c:	3718      	adds	r7, #24
 800320e:	46bd      	mov	sp, r7
 8003210:	bd80      	pop	{r7, pc}
 8003212:	bf00      	nop
 8003214:	00010002 	.word	0x00010002

08003218 <I2C_RequestMemoryRead>:
  * @param  Timeout Timeout duration
  * @param  Tickstart Tick start value
  * @retval HAL status
  */
static HAL_StatusTypeDef I2C_RequestMemoryRead(I2C_HandleTypeDef *hi2c, uint16_t DevAddress, uint16_t MemAddress, uint16_t MemAddSize, uint32_t Timeout, uint32_t Tickstart)
{
 8003218:	b580      	push	{r7, lr}
 800321a:	b088      	sub	sp, #32
 800321c:	af02      	add	r7, sp, #8
 800321e:	60f8      	str	r0, [r7, #12]
 8003220:	4608      	mov	r0, r1
 8003222:	4611      	mov	r1, r2
 8003224:	461a      	mov	r2, r3
 8003226:	4603      	mov	r3, r0
 8003228:	817b      	strh	r3, [r7, #10]
 800322a:	460b      	mov	r3, r1
 800322c:	813b      	strh	r3, [r7, #8]
 800322e:	4613      	mov	r3, r2
 8003230:	80fb      	strh	r3, [r7, #6]
  /* Enable Acknowledge */
  SET_BIT(hi2c->Instance->CR1, I2C_CR1_ACK);
 8003232:	68fb      	ldr	r3, [r7, #12]
 8003234:	681b      	ldr	r3, [r3, #0]
 8003236:	681a      	ldr	r2, [r3, #0]
 8003238:	68fb      	ldr	r3, [r7, #12]
 800323a:	681b      	ldr	r3, [r3, #0]
 800323c:	f442 6280 	orr.w	r2, r2, #1024	@ 0x400
 8003240:	601a      	str	r2, [r3, #0]

  /* Generate Start */
  SET_BIT(hi2c->Instance->CR1, I2C_CR1_START);
 8003242:	68fb      	ldr	r3, [r7, #12]
 8003244:	681b      	ldr	r3, [r3, #0]
 8003246:	681a      	ldr	r2, [r3, #0]
 8003248:	68fb      	ldr	r3, [r7, #12]
 800324a:	681b      	ldr	r3, [r3, #0]
 800324c:	f442 7280 	orr.w	r2, r2, #256	@ 0x100
 8003250:	601a      	str	r2, [r3, #0]

  /* Wait until SB flag is set */
  if (I2C_WaitOnFlagUntilTimeout(hi2c, I2C_FLAG_SB, RESET, Timeout, Tickstart) != HAL_OK)
 8003252:	6a7b      	ldr	r3, [r7, #36]	@ 0x24
 8003254:	9300      	str	r3, [sp, #0]
 8003256:	6a3b      	ldr	r3, [r7, #32]
 8003258:	2200      	movs	r2, #0
 800325a:	f04f 1101 	mov.w	r1, #65537	@ 0x10001
 800325e:	68f8      	ldr	r0, [r7, #12]
 8003260:	f000 f8c2 	bl	80033e8 <I2C_WaitOnFlagUntilTimeout>
 8003264:	4603      	mov	r3, r0
 8003266:	2b00      	cmp	r3, #0
 8003268:	d00d      	beq.n	8003286 <I2C_RequestMemoryRead+0x6e>
  {
    if (READ_BIT(hi2c->Instance->CR1, I2C_CR1_START) == I2C_CR1_START)
 800326a:	68fb      	ldr	r3, [r7, #12]
 800326c:	681b      	ldr	r3, [r3, #0]
 800326e:	681b      	ldr	r3, [r3, #0]
 8003270:	f403 7380 	and.w	r3, r3, #256	@ 0x100
 8003274:	f5b3 7f80 	cmp.w	r3, #256	@ 0x100
 8003278:	d103      	bne.n	8003282 <I2C_RequestMemoryRead+0x6a>
    {
      hi2c->ErrorCode = HAL_I2C_WRONG_START;
 800327a:	68fb      	ldr	r3, [r7, #12]
 800327c:	f44f 7200 	mov.w	r2, #512	@ 0x200
 8003280:	641a      	str	r2, [r3, #64]	@ 0x40
    }
    return HAL_TIMEOUT;
 8003282:	2303      	movs	r3, #3
 8003284:	e0aa      	b.n	80033dc <I2C_RequestMemoryRead+0x1c4>
  }

  /* Send slave address */
  hi2c->Instance->DR = I2C_7BIT_ADD_WRITE(DevAddress);
 8003286:	897b      	ldrh	r3, [r7, #10]
 8003288:	b2db      	uxtb	r3, r3
 800328a:	461a      	mov	r2, r3
 800328c:	68fb      	ldr	r3, [r7, #12]
 800328e:	681b      	ldr	r3, [r3, #0]
 8003290:	f002 02fe 	and.w	r2, r2, #254	@ 0xfe
 8003294:	611a      	str	r2, [r3, #16]

  /* Wait until ADDR flag is set */
  if (I2C_WaitOnMasterAddressFlagUntilTimeout(hi2c, I2C_FLAG_ADDR, Timeout, Tickstart) != HAL_OK)
 8003296:	6a7b      	ldr	r3, [r7, #36]	@ 0x24
 8003298:	6a3a      	ldr	r2, [r7, #32]
 800329a:	4952      	ldr	r1, [pc, #328]	@ (80033e4 <I2C_RequestMemoryRead+0x1cc>)
 800329c:	68f8      	ldr	r0, [r7, #12]
 800329e:	f000 f91d 	bl	80034dc <I2C_WaitOnMasterAddressFlagUntilTimeout>
 80032a2:	4603      	mov	r3, r0
 80032a4:	2b00      	cmp	r3, #0
 80032a6:	d001      	beq.n	80032ac <I2C_RequestMemoryRead+0x94>
  {
    return HAL_ERROR;
 80032a8:	2301      	movs	r3, #1
 80032aa:	e097      	b.n	80033dc <I2C_RequestMemoryRead+0x1c4>
  }

  /* Clear ADDR flag */
  __HAL_I2C_CLEAR_ADDRFLAG(hi2c);
 80032ac:	2300      	movs	r3, #0
 80032ae:	617b      	str	r3, [r7, #20]
 80032b0:	68fb      	ldr	r3, [r7, #12]
 80032b2:	681b      	ldr	r3, [r3, #0]
 80032b4:	695b      	ldr	r3, [r3, #20]
 80032b6:	617b      	str	r3, [r7, #20]
 80032b8:	68fb      	ldr	r3, [r7, #12]
 80032ba:	681b      	ldr	r3, [r3, #0]
 80032bc:	699b      	ldr	r3, [r3, #24]
 80032be:	617b      	str	r3, [r7, #20]
 80032c0:	697b      	ldr	r3, [r7, #20]

  /* Wait until TXE flag is set */
  if (I2C_WaitOnTXEFlagUntilTimeout(hi2c, Timeout, Tickstart) != HAL_OK)
 80032c2:	6a7a      	ldr	r2, [r7, #36]	@ 0x24
 80032c4:	6a39      	ldr	r1, [r7, #32]
 80032c6:	68f8      	ldr	r0, [r7, #12]
 80032c8:	f000 f9a8 	bl	800361c <I2C_WaitOnTXEFlagUntilTimeout>
 80032cc:	4603      	mov	r3, r0
 80032ce:	2b00      	cmp	r3, #0
 80032d0:	d00d      	beq.n	80032ee <I2C_RequestMemoryRead+0xd6>
  {
    if (hi2c->ErrorCode == HAL_I2C_ERROR_AF)
 80032d2:	68fb      	ldr	r3, [r7, #12]
 80032d4:	6c1b      	ldr	r3, [r3, #64]	@ 0x40
 80032d6:	2b04      	cmp	r3, #4
 80032d8:	d107      	bne.n	80032ea <I2C_RequestMemoryRead+0xd2>
    {
      /* Generate Stop */
      SET_BIT(hi2c->Instance->CR1, I2C_CR1_STOP);
 80032da:	68fb      	ldr	r3, [r7, #12]
 80032dc:	681b      	ldr	r3, [r3, #0]
 80032de:	681a      	ldr	r2, [r3, #0]
 80032e0:	68fb      	ldr	r3, [r7, #12]
 80032e2:	681b      	ldr	r3, [r3, #0]
 80032e4:	f442 7200 	orr.w	r2, r2, #512	@ 0x200
 80032e8:	601a      	str	r2, [r3, #0]
    }
    return HAL_ERROR;
 80032ea:	2301      	movs	r3, #1
 80032ec:	e076      	b.n	80033dc <I2C_RequestMemoryRead+0x1c4>
  }

  /* If Memory address size is 8Bit */
  if (MemAddSize == I2C_MEMADD_SIZE_8BIT)
 80032ee:	88fb      	ldrh	r3, [r7, #6]
 80032f0:	2b01      	cmp	r3, #1
 80032f2:	d105      	bne.n	8003300 <I2C_RequestMemoryRead+0xe8>
  {
    /* Send Memory Address */
    hi2c->Instance->DR = I2C_MEM_ADD_LSB(MemAddress);
 80032f4:	893b      	ldrh	r3, [r7, #8]
 80032f6:	b2da      	uxtb	r2, r3
 80032f8:	68fb      	ldr	r3, [r7, #12]
 80032fa:	681b      	ldr	r3, [r3, #0]
 80032fc:	611a      	str	r2, [r3, #16]
 80032fe:	e021      	b.n	8003344 <I2C_RequestMemoryRead+0x12c>
  }
  /* If Memory address size is 16Bit */
  else
  {
    /* Send MSB of Memory Address */
    hi2c->Instance->DR = I2C_MEM_ADD_MSB(MemAddress);
 8003300:	893b      	ldrh	r3, [r7, #8]
 8003302:	0a1b      	lsrs	r3, r3, #8
 8003304:	b29b      	uxth	r3, r3
 8003306:	b2da      	uxtb	r2, r3
 8003308:	68fb      	ldr	r3, [r7, #12]
 800330a:	681b      	ldr	r3, [r3, #0]
 800330c:	611a      	str	r2, [r3, #16]

    /* Wait until TXE flag is set */
    if (I2C_WaitOnTXEFlagUntilTimeout(hi2c, Timeout, Tickstart) != HAL_OK)
 800330e:	6a7a      	ldr	r2, [r7, #36]	@ 0x24
 8003310:	6a39      	ldr	r1, [r7, #32]
 8003312:	68f8      	ldr	r0, [r7, #12]
 8003314:	f000 f982 	bl	800361c <I2C_WaitOnTXEFlagUntilTimeout>
 8003318:	4603      	mov	r3, r0
 800331a:	2b00      	cmp	r3, #0
 800331c:	d00d      	beq.n	800333a <I2C_RequestMemoryRead+0x122>
    {
      if (hi2c->ErrorCode == HAL_I2C_ERROR_AF)
 800331e:	68fb      	ldr	r3, [r7, #12]
 8003320:	6c1b      	ldr	r3, [r3, #64]	@ 0x40
 8003322:	2b04      	cmp	r3, #4
 8003324:	d107      	bne.n	8003336 <I2C_RequestMemoryRead+0x11e>
      {
        /* Generate Stop */
        SET_BIT(hi2c->Instance->CR1, I2C_CR1_STOP);
 8003326:	68fb      	ldr	r3, [r7, #12]
 8003328:	681b      	ldr	r3, [r3, #0]
 800332a:	681a      	ldr	r2, [r3, #0]
 800332c:	68fb      	ldr	r3, [r7, #12]
 800332e:	681b      	ldr	r3, [r3, #0]
 8003330:	f442 7200 	orr.w	r2, r2, #512	@ 0x200
 8003334:	601a      	str	r2, [r3, #0]
      }
      return HAL_ERROR;
 8003336:	2301      	movs	r3, #1
 8003338:	e050      	b.n	80033dc <I2C_RequestMemoryRead+0x1c4>
    }

    /* Send LSB of Memory Address */
    hi2c->Instance->DR = I2C_MEM_ADD_LSB(MemAddress);
 800333a:	893b      	ldrh	r3, [r7, #8]
 800333c:	b2da      	uxtb	r2, r3
 800333e:	68fb      	ldr	r3, [r7, #12]
 8003340:	681b      	ldr	r3, [r3, #0]
 8003342:	611a      	str	r2, [r3, #16]
  }

  /* Wait until TXE flag is set */
  if (I2C_WaitOnTXEFlagUntilTimeout(hi2c, Timeout, Tickstart) != HAL_OK)
 8003344:	6a7a      	ldr	r2, [r7, #36]	@ 0x24
 8003346:	6a39      	ldr	r1, [r7, #32]
 8003348:	68f8      	ldr	r0, [r7, #12]
 800334a:	f000 f967 	bl	800361c <I2C_WaitOnTXEFlagUntilTimeout>
 800334e:	4603      	mov	r3, r0
 8003350:	2b00      	cmp	r3, #0
 8003352:	d00d      	beq.n	8003370 <I2C_RequestMemoryRead+0x158>
  {
    if (hi2c->ErrorCode == HAL_I2C_ERROR_AF)
 8003354:	68fb      	ldr	r3, [r7, #12]
 8003356:	6c1b      	ldr	r3, [r3, #64]	@ 0x40
 8003358:	2b04      	cmp	r3, #4
 800335a:	d107      	bne.n	800336c <I2C_RequestMemoryRead+0x154>
    {
      /* Generate Stop */
      SET_BIT(hi2c->Instance->CR1, I2C_CR1_STOP);
 800335c:	68fb      	ldr	r3, [r7, #12]
 800335e:	681b      	ldr	r3, [r3, #0]
 8003360:	681a      	ldr	r2, [r3, #0]
 8003362:	68fb      	ldr	r3, [r7, #12]
 8003364:	681b      	ldr	r3, [r3, #0]
 8003366:	f442 7200 	orr.w	r2, r2, #512	@ 0x200
 800336a:	601a      	str	r2, [r3, #0]
    }
    return HAL_ERROR;
 800336c:	2301      	movs	r3, #1
 800336e:	e035      	b.n	80033dc <I2C_RequestMemoryRead+0x1c4>
  }

  /* Generate Restart */
  SET_BIT(hi2c->Instance->CR1, I2C_CR1_START);
 8003370:	68fb      	ldr	r3, [r7, #12]
 8003372:	681b      	ldr	r3, [r3, #0]
 8003374:	681a      	ldr	r2, [r3, #0]
 8003376:	68fb      	ldr	r3, [r7, #12]
 8003378:	681b      	ldr	r3, [r3, #0]
 800337a:	f442 7280 	orr.w	r2, r2, #256	@ 0x100
 800337e:	601a      	str	r2, [r3, #0]

  /* Wait until SB flag is set */
  if (I2C_WaitOnFlagUntilTimeout(hi2c, I2C_FLAG_SB, RESET, Timeout, Tickstart) != HAL_OK)
 8003380:	6a7b      	ldr	r3, [r7, #36]	@ 0x24
 8003382:	9300      	str	r3, [sp, #0]
 8003384:	6a3b      	ldr	r3, [r7, #32]
 8003386:	2200      	movs	r2, #0
 8003388:	f04f 1101 	mov.w	r1, #65537	@ 0x10001
 800338c:	68f8      	ldr	r0, [r7, #12]
 800338e:	f000 f82b 	bl	80033e8 <I2C_WaitOnFlagUntilTimeout>
 8003392:	4603      	mov	r3, r0
 8003394:	2b00      	cmp	r3, #0
 8003396:	d00d      	beq.n	80033b4 <I2C_RequestMemoryRead+0x19c>
  {
    if (READ_BIT(hi2c->Instance->CR1, I2C_CR1_START) == I2C_CR1_START)
 8003398:	68fb      	ldr	r3, [r7, #12]
 800339a:	681b      	ldr	r3, [r3, #0]
 800339c:	681b      	ldr	r3, [r3, #0]
 800339e:	f403 7380 	and.w	r3, r3, #256	@ 0x100
 80033a2:	f5b3 7f80 	cmp.w	r3, #256	@ 0x100
 80033a6:	d103      	bne.n	80033b0 <I2C_RequestMemoryRead+0x198>
    {
      hi2c->ErrorCode = HAL_I2C_WRONG_START;
 80033a8:	68fb      	ldr	r3, [r7, #12]
 80033aa:	f44f 7200 	mov.w	r2, #512	@ 0x200
 80033ae:	641a      	str	r2, [r3, #64]	@ 0x40
    }
    return HAL_TIMEOUT;
 80033b0:	2303      	movs	r3, #3
 80033b2:	e013      	b.n	80033dc <I2C_RequestMemoryRead+0x1c4>
  }

  /* Send slave address */
  hi2c->Instance->DR = I2C_7BIT_ADD_READ(DevAddress);
 80033b4:	897b      	ldrh	r3, [r7, #10]
 80033b6:	b2db      	uxtb	r3, r3
 80033b8:	f043 0301 	orr.w	r3, r3, #1
 80033bc:	b2da      	uxtb	r2, r3
 80033be:	68fb      	ldr	r3, [r7, #12]
 80033c0:	681b      	ldr	r3, [r3, #0]
 80033c2:	611a      	str	r2, [r3, #16]

  /* Wait until ADDR flag is set */
  if (I2C_WaitOnMasterAddressFlagUntilTimeout(hi2c, I2C_FLAG_ADDR, Timeout, Tickstart) != HAL_OK)
 80033c4:	6a7b      	ldr	r3, [r7, #36]	@ 0x24
 80033c6:	6a3a      	ldr	r2, [r7, #32]
 80033c8:	4906      	ldr	r1, [pc, #24]	@ (80033e4 <I2C_RequestMemoryRead+0x1cc>)
 80033ca:	68f8      	ldr	r0, [r7, #12]
 80033cc:	f000 f886 	bl	80034dc <I2C_WaitOnMasterAddressFlagUntilTimeout>
 80033d0:	4603      	mov	r3, r0
 80033d2:	2b00      	cmp	r3, #0
 80033d4:	d001      	beq.n	80033da <I2C_RequestMemoryRead+0x1c2>
  {
    return HAL_ERROR;
 80033d6:	2301      	movs	r3, #1
 80033d8:	e000      	b.n	80033dc <I2C_RequestMemoryRead+0x1c4>
  }

  return HAL_OK;
 80033da:	2300      	movs	r3, #0
}
 80033dc:	4618      	mov	r0, r3
 80033de:	3718      	adds	r7, #24
 80033e0:	46bd      	mov	sp, r7
 80033e2:	bd80      	pop	{r7, pc}
 80033e4:	00010002 	.word	0x00010002

080033e8 <I2C_WaitOnFlagUntilTimeout>:
  * @param  Timeout Timeout duration
  * @param  Tickstart Tick start value
  * @retval HAL status
  */
static HAL_StatusTypeDef I2C_WaitOnFlagUntilTimeout(I2C_HandleTypeDef *hi2c, uint32_t Flag, FlagStatus Status, uint32_t Timeout, uint32_t Tickstart)
{
 80033e8:	b580      	push	{r7, lr}
 80033ea:	b084      	sub	sp, #16
 80033ec:	af00      	add	r7, sp, #0
 80033ee:	60f8      	str	r0, [r7, #12]
 80033f0:	60b9      	str	r1, [r7, #8]
 80033f2:	603b      	str	r3, [r7, #0]
 80033f4:	4613      	mov	r3, r2
 80033f6:	71fb      	strb	r3, [r7, #7]
  /* Wait until flag is set */
  while (__HAL_I2C_GET_FLAG(hi2c, Flag) == Status)
 80033f8:	e048      	b.n	800348c <I2C_WaitOnFlagUntilTimeout+0xa4>
  {
    /* Check for the Timeout */
    if (Timeout != HAL_MAX_DELAY)
 80033fa:	683b      	ldr	r3, [r7, #0]
 80033fc:	f1b3 3fff 	cmp.w	r3, #4294967295
 8003400:	d044      	beq.n	800348c <I2C_WaitOnFlagUntilTimeout+0xa4>
    {
      if (((HAL_GetTick() - Tickstart) > Timeout) || (Timeout == 0U))
 8003402:	f7fe fe77 	bl	80020f4 <HAL_GetTick>
 8003406:	4602      	mov	r2, r0
 8003408:	69bb      	ldr	r3, [r7, #24]
 800340a:	1ad3      	subs	r3, r2, r3
 800340c:	683a      	ldr	r2, [r7, #0]
 800340e:	429a      	cmp	r2, r3
 8003410:	d302      	bcc.n	8003418 <I2C_WaitOnFlagUntilTimeout+0x30>
 8003412:	683b      	ldr	r3, [r7, #0]
 8003414:	2b00      	cmp	r3, #0
 8003416:	d139      	bne.n	800348c <I2C_WaitOnFlagUntilTimeout+0xa4>
      {
        if ((__HAL_I2C_GET_FLAG(hi2c, Flag) == Status))
 8003418:	68bb      	ldr	r3, [r7, #8]
 800341a:	0c1b      	lsrs	r3, r3, #16
 800341c:	b2db      	uxtb	r3, r3
 800341e:	2b01      	cmp	r3, #1
 8003420:	d10d      	bne.n	800343e <I2C_WaitOnFlagUntilTimeout+0x56>
 8003422:	68fb      	ldr	r3, [r7, #12]
 8003424:	681b      	ldr	r3, [r3, #0]
 8003426:	695b      	ldr	r3, [r3, #20]
 8003428:	43da      	mvns	r2, r3
 800342a:	68bb      	ldr	r3, [r7, #8]
 800342c:	4013      	ands	r3, r2
 800342e:	b29b      	uxth	r3, r3
 8003430:	2b00      	cmp	r3, #0
 8003432:	bf0c      	ite	eq
 8003434:	2301      	moveq	r3, #1
 8003436:	2300      	movne	r3, #0
 8003438:	b2db      	uxtb	r3, r3
 800343a:	461a      	mov	r2, r3
 800343c:	e00c      	b.n	8003458 <I2C_WaitOnFlagUntilTimeout+0x70>
 800343e:	68fb      	ldr	r3, [r7, #12]
 8003440:	681b      	ldr	r3, [r3, #0]
 8003442:	699b      	ldr	r3, [r3, #24]
 8003444:	43da      	mvns	r2, r3
 8003446:	68bb      	ldr	r3, [r7, #8]
 8003448:	4013      	ands	r3, r2
 800344a:	b29b      	uxth	r3, r3
 800344c:	2b00      	cmp	r3, #0
 800344e:	bf0c      	ite	eq
 8003450:	2301      	moveq	r3, #1
 8003452:	2300      	movne	r3, #0
 8003454:	b2db      	uxtb	r3, r3
 8003456:	461a      	mov	r2, r3
 8003458:	79fb      	ldrb	r3, [r7, #7]
 800345a:	429a      	cmp	r2, r3
 800345c:	d116      	bne.n	800348c <I2C_WaitOnFlagUntilTimeout+0xa4>
        {
          hi2c->PreviousState     = I2C_STATE_NONE;
 800345e:	68fb      	ldr	r3, [r7, #12]
 8003460:	2200      	movs	r2, #0
 8003462:	631a      	str	r2, [r3, #48]	@ 0x30
          hi2c->State             = HAL_I2C_STATE_READY;
 8003464:	68fb      	ldr	r3, [r7, #12]
 8003466:	2220      	movs	r2, #32
 8003468:	f883 203d 	strb.w	r2, [r3, #61]	@ 0x3d
          hi2c->Mode              = HAL_I2C_MODE_NONE;
 800346c:	68fb      	ldr	r3, [r7, #12]
 800346e:	2200      	movs	r2, #0
 8003470:	f883 203e 	strb.w	r2, [r3, #62]	@ 0x3e
          hi2c->ErrorCode         |= HAL_I2C_ERROR_TIMEOUT;
 8003474:	68fb      	ldr	r3, [r7, #12]
 8003476:	6c1b      	ldr	r3, [r3, #64]	@ 0x40
 8003478:	f043 0220 	orr.w	r2, r3, #32
 800347c:	68fb      	ldr	r3, [r7, #12]
 800347e:	641a      	str	r2, [r3, #64]	@ 0x40

          /* Process Unlocked */
          __HAL_UNLOCK(hi2c);
 8003480:	68fb      	ldr	r3, [r7, #12]
 8003482:	2200      	movs	r2, #0
 8003484:	f883 203c 	strb.w	r2, [r3, #60]	@ 0x3c

          return HAL_ERROR;
 8003488:	2301      	movs	r3, #1
 800348a:	e023      	b.n	80034d4 <I2C_WaitOnFlagUntilTimeout+0xec>
  while (__HAL_I2C_GET_FLAG(hi2c, Flag) == Status)
 800348c:	68bb      	ldr	r3, [r7, #8]
 800348e:	0c1b      	lsrs	r3, r3, #16
 8003490:	b2db      	uxtb	r3, r3
 8003492:	2b01      	cmp	r3, #1
 8003494:	d10d      	bne.n	80034b2 <I2C_WaitOnFlagUntilTimeout+0xca>
 8003496:	68fb      	ldr	r3, [r7, #12]
 8003498:	681b      	ldr	r3, [r3, #0]
 800349a:	695b      	ldr	r3, [r3, #20]
 800349c:	43da      	mvns	r2, r3
 800349e:	68bb      	ldr	r3, [r7, #8]
 80034a0:	4013      	ands	r3, r2
 80034a2:	b29b      	uxth	r3, r3
 80034a4:	2b00      	cmp	r3, #0
 80034a6:	bf0c      	ite	eq
 80034a8:	2301      	moveq	r3, #1
 80034aa:	2300      	movne	r3, #0
 80034ac:	b2db      	uxtb	r3, r3
 80034ae:	461a      	mov	r2, r3
 80034b0:	e00c      	b.n	80034cc <I2C_WaitOnFlagUntilTimeout+0xe4>
 80034b2:	68fb      	ldr	r3, [r7, #12]
 80034b4:	681b      	ldr	r3, [r3, #0]
 80034b6:	699b      	ldr	r3, [r3, #24]
 80034b8:	43da      	mvns	r2, r3
 80034ba:	68bb      	ldr	r3, [r7, #8]
 80034bc:	4013      	ands	r3, r2
 80034be:	b29b      	uxth	r3, r3
 80034c0:	2b00      	cmp	r3, #0
 80034c2:	bf0c      	ite	eq
 80034c4:	2301      	moveq	r3, #1
 80034c6:	2300      	movne	r3, #0
 80034c8:	b2db      	uxtb	r3, r3
 80034ca:	461a      	mov	r2, r3
 80034cc:	79fb      	ldrb	r3, [r7, #7]
 80034ce:	429a      	cmp	r2, r3
 80034d0:	d093      	beq.n	80033fa <I2C_WaitOnFlagUntilTimeout+0x12>
        }
      }
    }
  }
  return HAL_OK;
 80034d2:	2300      	movs	r3, #0
}
 80034d4:	4618      	mov	r0, r3
 80034d6:	3710      	adds	r7, #16
 80034d8:	46bd      	mov	sp, r7
 80034da:	bd80      	pop	{r7, pc}

080034dc <I2C_WaitOnMasterAddressFlagUntilTimeout>:
  * @param  Timeout Timeout duration
  * @param  Tickstart Tick start value
  * @retval HAL status
  */
static HAL_StatusTypeDef I2C_WaitOnMasterAddressFlagUntilTimeout(I2C_HandleTypeDef *hi2c, uint32_t Flag, uint32_t Timeout, uint32_t Tickstart)
{
 80034dc:	b580      	push	{r7, lr}
 80034de:	b084      	sub	sp, #16
 80034e0:	af00      	add	r7, sp, #0
 80034e2:	60f8      	str	r0, [r7, #12]
 80034e4:	60b9      	str	r1, [r7, #8]
 80034e6:	607a      	str	r2, [r7, #4]
 80034e8:	603b      	str	r3, [r7, #0]
  while (__HAL_I2C_GET_FLAG(hi2c, Flag) == RESET)
 80034ea:	e071      	b.n	80035d0 <I2C_WaitOnMasterAddressFlagUntilTimeout+0xf4>
  {
    if (__HAL_I2C_GET_FLAG(hi2c, I2C_FLAG_AF) == SET)
 80034ec:	68fb      	ldr	r3, [r7, #12]
 80034ee:	681b      	ldr	r3, [r3, #0]
 80034f0:	695b      	ldr	r3, [r3, #20]
 80034f2:	f403 6380 	and.w	r3, r3, #1024	@ 0x400
 80034f6:	f5b3 6f80 	cmp.w	r3, #1024	@ 0x400
 80034fa:	d123      	bne.n	8003544 <I2C_WaitOnMasterAddressFlagUntilTimeout+0x68>
    {
      /* Generate Stop */
      SET_BIT(hi2c->Instance->CR1, I2C_CR1_STOP);
 80034fc:	68fb      	ldr	r3, [r7, #12]
 80034fe:	681b      	ldr	r3, [r3, #0]
 8003500:	681a      	ldr	r2, [r3, #0]
 8003502:	68fb      	ldr	r3, [r7, #12]
 8003504:	681b      	ldr	r3, [r3, #0]
 8003506:	f442 7200 	orr.w	r2, r2, #512	@ 0x200
 800350a:	601a      	str	r2, [r3, #0]

      /* Clear AF Flag */
      __HAL_I2C_CLEAR_FLAG(hi2c, I2C_FLAG_AF);
 800350c:	68fb      	ldr	r3, [r7, #12]
 800350e:	681b      	ldr	r3, [r3, #0]
 8003510:	f46f 6280 	mvn.w	r2, #1024	@ 0x400
 8003514:	615a      	str	r2, [r3, #20]

      hi2c->PreviousState       = I2C_STATE_NONE;
 8003516:	68fb      	ldr	r3, [r7, #12]
 8003518:	2200      	movs	r2, #0
 800351a:	631a      	str	r2, [r3, #48]	@ 0x30
      hi2c->State               = HAL_I2C_STATE_READY;
 800351c:	68fb      	ldr	r3, [r7, #12]
 800351e:	2220      	movs	r2, #32
 8003520:	f883 203d 	strb.w	r2, [r3, #61]	@ 0x3d
      hi2c->Mode                = HAL_I2C_MODE_NONE;
 8003524:	68fb      	ldr	r3, [r7, #12]
 8003526:	2200      	movs	r2, #0
 8003528:	f883 203e 	strb.w	r2, [r3, #62]	@ 0x3e
      hi2c->ErrorCode           |= HAL_I2C_ERROR_AF;
 800352c:	68fb      	ldr	r3, [r7, #12]
 800352e:	6c1b      	ldr	r3, [r3, #64]	@ 0x40
 8003530:	f043 0204 	orr.w	r2, r3, #4
 8003534:	68fb      	ldr	r3, [r7, #12]
 8003536:	641a      	str	r2, [r3, #64]	@ 0x40

      /* Process Unlocked */
      __HAL_UNLOCK(hi2c);
 8003538:	68fb      	ldr	r3, [r7, #12]
 800353a:	2200      	movs	r2, #0
 800353c:	f883 203c 	strb.w	r2, [r3, #60]	@ 0x3c

      return HAL_ERROR;
 8003540:	2301      	movs	r3, #1
 8003542:	e067      	b.n	8003614 <I2C_WaitOnMasterAddressFlagUntilTimeout+0x138>
    }

    /* Check for the Timeout */
    if (Timeout != HAL_MAX_DELAY)
 8003544:	687b      	ldr	r3, [r7, #4]
 8003546:	f1b3 3fff 	cmp.w	r3, #4294967295
 800354a:	d041      	beq.n	80035d0 <I2C_WaitOnMasterAddressFlagUntilTimeout+0xf4>
    {
      if (((HAL_GetTick() - Tickstart) > Timeout) || (Timeout == 0U))
 800354c:	f7fe fdd2 	bl	80020f4 <HAL_GetTick>
 8003550:	4602      	mov	r2, r0
 8003552:	683b      	ldr	r3, [r7, #0]
 8003554:	1ad3      	subs	r3, r2, r3
 8003556:	687a      	ldr	r2, [r7, #4]
 8003558:	429a      	cmp	r2, r3
 800355a:	d302      	bcc.n	8003562 <I2C_WaitOnMasterAddressFlagUntilTimeout+0x86>
 800355c:	687b      	ldr	r3, [r7, #4]
 800355e:	2b00      	cmp	r3, #0
 8003560:	d136      	bne.n	80035d0 <I2C_WaitOnMasterAddressFlagUntilTimeout+0xf4>
      {
        if ((__HAL_I2C_GET_FLAG(hi2c, Flag) == RESET))
 8003562:	68bb      	ldr	r3, [r7, #8]
 8003564:	0c1b      	lsrs	r3, r3, #16
 8003566:	b2db      	uxtb	r3, r3
 8003568:	2b01      	cmp	r3, #1
 800356a:	d10c      	bne.n	8003586 <I2C_WaitOnMasterAddressFlagUntilTimeout+0xaa>
 800356c:	68fb      	ldr	r3, [r7, #12]
 800356e:	681b      	ldr	r3, [r3, #0]
 8003570:	695b      	ldr	r3, [r3, #20]
 8003572:	43da      	mvns	r2, r3
 8003574:	68bb      	ldr	r3, [r7, #8]
 8003576:	4013      	ands	r3, r2
 8003578:	b29b      	uxth	r3, r3
 800357a:	2b00      	cmp	r3, #0
 800357c:	bf14      	ite	ne
 800357e:	2301      	movne	r3, #1
 8003580:	2300      	moveq	r3, #0
 8003582:	b2db      	uxtb	r3, r3
 8003584:	e00b      	b.n	800359e <I2C_WaitOnMasterAddressFlagUntilTimeout+0xc2>
 8003586:	68fb      	ldr	r3, [r7, #12]
 8003588:	681b      	ldr	r3, [r3, #0]
 800358a:	699b      	ldr	r3, [r3, #24]
 800358c:	43da      	mvns	r2, r3
 800358e:	68bb      	ldr	r3, [r7, #8]
 8003590:	4013      	ands	r3, r2
 8003592:	b29b      	uxth	r3, r3
 8003594:	2b00      	cmp	r3, #0
 8003596:	bf14      	ite	ne
 8003598:	2301      	movne	r3, #1
 800359a:	2300      	moveq	r3, #0
 800359c:	b2db      	uxtb	r3, r3
 800359e:	2b00      	cmp	r3, #0
 80035a0:	d016      	beq.n	80035d0 <I2C_WaitOnMasterAddressFlagUntilTimeout+0xf4>
        {
          hi2c->PreviousState       = I2C_STATE_NONE;
 80035a2:	68fb      	ldr	r3, [r7, #12]
 80035a4:	2200      	movs	r2, #0
 80035a6:	631a      	str	r2, [r3, #48]	@ 0x30
          hi2c->State               = HAL_I2C_STATE_READY;
 80035a8:	68fb      	ldr	r3, [r7, #12]
 80035aa:	2220      	movs	r2, #32
 80035ac:	f883 203d 	strb.w	r2, [r3, #61]	@ 0x3d
          hi2c->Mode                = HAL_I2C_MODE_NONE;
 80035b0:	68fb      	ldr	r3, [r7, #12]
 80035b2:	2200      	movs	r2, #0
 80035b4:	f883 203e 	strb.w	r2, [r3, #62]	@ 0x3e
          hi2c->ErrorCode           |= HAL_I2C_ERROR_TIMEOUT;
 80035b8:	68fb      	ldr	r3, [r7, #12]
 80035ba:	6c1b      	ldr	r3, [r3, #64]	@ 0x40
 80035bc:	f043 0220 	orr.w	r2, r3, #32
 80035c0:	68fb      	ldr	r3, [r7, #12]
 80035c2:	641a      	str	r2, [r3, #64]	@ 0x40

          /* Process Unlocked */
          __HAL_UNLOCK(hi2c);
 80035c4:	68fb      	ldr	r3, [r7, #12]
 80035c6:	2200      	movs	r2, #0
 80035c8:	f883 203c 	strb.w	r2, [r3, #60]	@ 0x3c

          return HAL_ERROR;
 80035cc:	2301      	movs	r3, #1
 80035ce:	e021      	b.n	8003614 <I2C_WaitOnMasterAddressFlagUntilTimeout+0x138>
  while (__HAL_I2C_GET_FLAG(hi2c, Flag) == RESET)
 80035d0:	68bb      	ldr	r3, [r7, #8]
 80035d2:	0c1b      	lsrs	r3, r3, #16
 80035d4:	b2db      	uxtb	r3, r3
 80035d6:	2b01      	cmp	r3, #1
 80035d8:	d10c      	bne.n	80035f4 <I2C_WaitOnMasterAddressFlagUntilTimeout+0x118>
 80035da:	68fb      	ldr	r3, [r7, #12]
 80035dc:	681b      	ldr	r3, [r3, #0]
 80035de:	695b      	ldr	r3, [r3, #20]
 80035e0:	43da      	mvns	r2, r3
 80035e2:	68bb      	ldr	r3, [r7, #8]
 80035e4:	4013      	ands	r3, r2
 80035e6:	b29b      	uxth	r3, r3
 80035e8:	2b00      	cmp	r3, #0
 80035ea:	bf14      	ite	ne
 80035ec:	2301      	movne	r3, #1
 80035ee:	2300      	moveq	r3, #0
 80035f0:	b2db      	uxtb	r3, r3
 80035f2:	e00b      	b.n	800360c <I2C_WaitOnMasterAddressFlagUntilTimeout+0x130>
 80035f4:	68fb      	ldr	r3, [r7, #12]
 80035f6:	681b      	ldr	r3, [r3, #0]
 80035f8:	699b      	ldr	r3, [r3, #24]
 80035fa:	43da      	mvns	r2, r3
 80035fc:	68bb      	ldr	r3, [r7, #8]
 80035fe:	4013      	ands	r3, r2
 8003600:	b29b      	uxth	r3, r3
 8003602:	2b00      	cmp	r3, #0
 8003604:	bf14      	ite	ne
 8003606:	2301      	movne	r3, #1
 8003608:	2300      	moveq	r3, #0
 800360a:	b2db      	uxtb	r3, r3
 800360c:	2b00      	cmp	r3, #0
 800360e:	f47f af6d 	bne.w	80034ec <I2C_WaitOnMasterAddressFlagUntilTimeout+0x10>
        }
      }
    }
  }
  return HAL_OK;
 8003612:	2300      	movs	r3, #0
}
 8003614:	4618      	mov	r0, r3
 8003616:	3710      	adds	r7, #16
 8003618:	46bd      	mov	sp, r7
 800361a:	bd80      	pop	{r7, pc}

0800361c <I2C_WaitOnTXEFlagUntilTimeout>:
  * @param  Timeout Timeout duration
  * @param  Tickstart Tick start value
  * @retval HAL status
  */
static HAL_StatusTypeDef I2C_WaitOnTXEFlagUntilTimeout(I2C_HandleTypeDef *hi2c, uint32_t Timeout, uint32_t Tickstart)
{
 800361c:	b580      	push	{r7, lr}
 800361e:	b084      	sub	sp, #16
 8003620:	af00      	add	r7, sp, #0
 8003622:	60f8      	str	r0, [r7, #12]
 8003624:	60b9      	str	r1, [r7, #8]
 8003626:	607a      	str	r2, [r7, #4]
  while (__HAL_I2C_GET_FLAG(hi2c, I2C_FLAG_TXE) == RESET)
 8003628:	e034      	b.n	8003694 <I2C_WaitOnTXEFlagUntilTimeout+0x78>
  {
    /* Check if a NACK is detected */
    if (I2C_IsAcknowledgeFailed(hi2c) != HAL_OK)
 800362a:	68f8      	ldr	r0, [r7, #12]
 800362c:	f000 f8e3 	bl	80037f6 <I2C_IsAcknowledgeFailed>
 8003630:	4603      	mov	r3, r0
 8003632:	2b00      	cmp	r3, #0
 8003634:	d001      	beq.n	800363a <I2C_WaitOnTXEFlagUntilTimeout+0x1e>
    {
      return HAL_ERROR;
 8003636:	2301      	movs	r3, #1
 8003638:	e034      	b.n	80036a4 <I2C_WaitOnTXEFlagUntilTimeout+0x88>
    }

    /* Check for the Timeout */
    if (Timeout != HAL_MAX_DELAY)
 800363a:	68bb      	ldr	r3, [r7, #8]
 800363c:	f1b3 3fff 	cmp.w	r3, #4294967295
 8003640:	d028      	beq.n	8003694 <I2C_WaitOnTXEFlagUntilTimeout+0x78>
    {
      if (((HAL_GetTick() - Tickstart) > Timeout) || (Timeout == 0U))
 8003642:	f7fe fd57 	bl	80020f4 <HAL_GetTick>
 8003646:	4602      	mov	r2, r0
 8003648:	687b      	ldr	r3, [r7, #4]
 800364a:	1ad3      	subs	r3, r2, r3
 800364c:	68ba      	ldr	r2, [r7, #8]
 800364e:	429a      	cmp	r2, r3
 8003650:	d302      	bcc.n	8003658 <I2C_WaitOnTXEFlagUntilTimeout+0x3c>
 8003652:	68bb      	ldr	r3, [r7, #8]
 8003654:	2b00      	cmp	r3, #0
 8003656:	d11d      	bne.n	8003694 <I2C_WaitOnTXEFlagUntilTimeout+0x78>
      {
        if ((__HAL_I2C_GET_FLAG(hi2c, I2C_FLAG_TXE) == RESET))
 8003658:	68fb      	ldr	r3, [r7, #12]
 800365a:	681b      	ldr	r3, [r3, #0]
 800365c:	695b      	ldr	r3, [r3, #20]
 800365e:	f003 0380 	and.w	r3, r3, #128	@ 0x80
 8003662:	2b80      	cmp	r3, #128	@ 0x80
 8003664:	d016      	beq.n	8003694 <I2C_WaitOnTXEFlagUntilTimeout+0x78>
        {
          hi2c->PreviousState       = I2C_STATE_NONE;
 8003666:	68fb      	ldr	r3, [r7, #12]
 8003668:	2200      	movs	r2, #0
 800366a:	631a      	str	r2, [r3, #48]	@ 0x30
          hi2c->State               = HAL_I2C_STATE_READY;
 800366c:	68fb      	ldr	r3, [r7, #12]
 800366e:	2220      	movs	r2, #32
 8003670:	f883 203d 	strb.w	r2, [r3, #61]	@ 0x3d
          hi2c->Mode                = HAL_I2C_MODE_NONE;
 8003674:	68fb      	ldr	r3, [r7, #12]
 8003676:	2200      	movs	r2, #0
 8003678:	f883 203e 	strb.w	r2, [r3, #62]	@ 0x3e
          hi2c->ErrorCode           |= HAL_I2C_ERROR_TIMEOUT;
 800367c:	68fb      	ldr	r3, [r7, #12]
 800367e:	6c1b      	ldr	r3, [r3, #64]	@ 0x40
 8003680:	f043 0220 	orr.w	r2, r3, #32
 8003684:	68fb      	ldr	r3, [r7, #12]
 8003686:	641a      	str	r2, [r3, #64]	@ 0x40

          /* Process Unlocked */
          __HAL_UNLOCK(hi2c);
 8003688:	68fb      	ldr	r3, [r7, #12]
 800368a:	2200      	movs	r2, #0
 800368c:	f883 203c 	strb.w	r2, [r3, #60]	@ 0x3c

          return HAL_ERROR;
 8003690:	2301      	movs	r3, #1
 8003692:	e007      	b.n	80036a4 <I2C_WaitOnTXEFlagUntilTimeout+0x88>
  while (__HAL_I2C_GET_FLAG(hi2c, I2C_FLAG_TXE) == RESET)
 8003694:	68fb      	ldr	r3, [r7, #12]
 8003696:	681b      	ldr	r3, [r3, #0]
 8003698:	695b      	ldr	r3, [r3, #20]
 800369a:	f003 0380 	and.w	r3, r3, #128	@ 0x80
 800369e:	2b80      	cmp	r3, #128	@ 0x80
 80036a0:	d1c3      	bne.n	800362a <I2C_WaitOnTXEFlagUntilTimeout+0xe>
        }
      }
    }
  }
  return HAL_OK;
 80036a2:	2300      	movs	r3, #0
}
 80036a4:	4618      	mov	r0, r3
 80036a6:	3710      	adds	r7, #16
 80036a8:	46bd      	mov	sp, r7
 80036aa:	bd80      	pop	{r7, pc}

080036ac <I2C_WaitOnBTFFlagUntilTimeout>:
  * @param  Timeout Timeout duration
  * @param  Tickstart Tick start value
  * @retval HAL status
  */
static HAL_StatusTypeDef I2C_WaitOnBTFFlagUntilTimeout(I2C_HandleTypeDef *hi2c, uint32_t Timeout, uint32_t Tickstart)
{
 80036ac:	b580      	push	{r7, lr}
 80036ae:	b084      	sub	sp, #16
 80036b0:	af00      	add	r7, sp, #0
 80036b2:	60f8      	str	r0, [r7, #12]
 80036b4:	60b9      	str	r1, [r7, #8]
 80036b6:	607a      	str	r2, [r7, #4]
  while (__HAL_I2C_GET_FLAG(hi2c, I2C_FLAG_BTF) == RESET)
 80036b8:	e034      	b.n	8003724 <I2C_WaitOnBTFFlagUntilTimeout+0x78>
  {
    /* Check if a NACK is detected */
    if (I2C_IsAcknowledgeFailed(hi2c) != HAL_OK)
 80036ba:	68f8      	ldr	r0, [r7, #12]
 80036bc:	f000 f89b 	bl	80037f6 <I2C_IsAcknowledgeFailed>
 80036c0:	4603      	mov	r3, r0
 80036c2:	2b00      	cmp	r3, #0
 80036c4:	d001      	beq.n	80036ca <I2C_WaitOnBTFFlagUntilTimeout+0x1e>
    {
      return HAL_ERROR;
 80036c6:	2301      	movs	r3, #1
 80036c8:	e034      	b.n	8003734 <I2C_WaitOnBTFFlagUntilTimeout+0x88>
    }

    /* Check for the Timeout */
    if (Timeout != HAL_MAX_DELAY)
 80036ca:	68bb      	ldr	r3, [r7, #8]
 80036cc:	f1b3 3fff 	cmp.w	r3, #4294967295
 80036d0:	d028      	beq.n	8003724 <I2C_WaitOnBTFFlagUntilTimeout+0x78>
    {
      if (((HAL_GetTick() - Tickstart) > Timeout) || (Timeout == 0U))
 80036d2:	f7fe fd0f 	bl	80020f4 <HAL_GetTick>
 80036d6:	4602      	mov	r2, r0
 80036d8:	687b      	ldr	r3, [r7, #4]
 80036da:	1ad3      	subs	r3, r2, r3
 80036dc:	68ba      	ldr	r2, [r7, #8]
 80036de:	429a      	cmp	r2, r3
 80036e0:	d302      	bcc.n	80036e8 <I2C_WaitOnBTFFlagUntilTimeout+0x3c>
 80036e2:	68bb      	ldr	r3, [r7, #8]
 80036e4:	2b00      	cmp	r3, #0
 80036e6:	d11d      	bne.n	8003724 <I2C_WaitOnBTFFlagUntilTimeout+0x78>
      {
        if ((__HAL_I2C_GET_FLAG(hi2c, I2C_FLAG_BTF) == RESET))
 80036e8:	68fb      	ldr	r3, [r7, #12]
 80036ea:	681b      	ldr	r3, [r3, #0]
 80036ec:	695b      	ldr	r3, [r3, #20]
 80036ee:	f003 0304 	and.w	r3, r3, #4
 80036f2:	2b04      	cmp	r3, #4
 80036f4:	d016      	beq.n	8003724 <I2C_WaitOnBTFFlagUntilTimeout+0x78>
        {
          hi2c->PreviousState       = I2C_STATE_NONE;
 80036f6:	68fb      	ldr	r3, [r7, #12]
 80036f8:	2200      	movs	r2, #0
 80036fa:	631a      	str	r2, [r3, #48]	@ 0x30
          hi2c->State               = HAL_I2C_STATE_READY;
 80036fc:	68fb      	ldr	r3, [r7, #12]
 80036fe:	2220      	movs	r2, #32
 8003700:	f883 203d 	strb.w	r2, [r3, #61]	@ 0x3d
          hi2c->Mode                = HAL_I2C_MODE_NONE;
 8003704:	68fb      	ldr	r3, [r7, #12]
 8003706:	2200      	movs	r2, #0
 8003708:	f883 203e 	strb.w	r2, [r3, #62]	@ 0x3e
          hi2c->ErrorCode           |= HAL_I2C_ERROR_TIMEOUT;
 800370c:	68fb      	ldr	r3, [r7, #12]
 800370e:	6c1b      	ldr	r3, [r3, #64]	@ 0x40
 8003710:	f043 0220 	orr.w	r2, r3, #32
 8003714:	68fb      	ldr	r3, [r7, #12]
 8003716:	641a      	str	r2, [r3, #64]	@ 0x40

          /* Process Unlocked */
          __HAL_UNLOCK(hi2c);
 8003718:	68fb      	ldr	r3, [r7, #12]
 800371a:	2200      	movs	r2, #0
 800371c:	f883 203c 	strb.w	r2, [r3, #60]	@ 0x3c

          return HAL_ERROR;
 8003720:	2301      	movs	r3, #1
 8003722:	e007      	b.n	8003734 <I2C_WaitOnBTFFlagUntilTimeout+0x88>
  while (__HAL_I2C_GET_FLAG(hi2c, I2C_FLAG_BTF) == RESET)
 8003724:	68fb      	ldr	r3, [r7, #12]
 8003726:	681b      	ldr	r3, [r3, #0]
 8003728:	695b      	ldr	r3, [r3, #20]
 800372a:	f003 0304 	and.w	r3, r3, #4
 800372e:	2b04      	cmp	r3, #4
 8003730:	d1c3      	bne.n	80036ba <I2C_WaitOnBTFFlagUntilTimeout+0xe>
        }
      }
    }
  }
  return HAL_OK;
 8003732:	2300      	movs	r3, #0
}
 8003734:	4618      	mov	r0, r3
 8003736:	3710      	adds	r7, #16
 8003738:	46bd      	mov	sp, r7
 800373a:	bd80      	pop	{r7, pc}

0800373c <I2C_WaitOnRXNEFlagUntilTimeout>:
  * @param  Timeout Timeout duration
  * @param  Tickstart Tick start value
  * @retval HAL status
  */
static HAL_StatusTypeDef I2C_WaitOnRXNEFlagUntilTimeout(I2C_HandleTypeDef *hi2c, uint32_t Timeout, uint32_t Tickstart)
{
 800373c:	b580      	push	{r7, lr}
 800373e:	b084      	sub	sp, #16
 8003740:	af00      	add	r7, sp, #0
 8003742:	60f8      	str	r0, [r7, #12]
 8003744:	60b9      	str	r1, [r7, #8]
 8003746:	607a      	str	r2, [r7, #4]

  while (__HAL_I2C_GET_FLAG(hi2c, I2C_FLAG_RXNE) == RESET)
 8003748:	e049      	b.n	80037de <I2C_WaitOnRXNEFlagUntilTimeout+0xa2>
  {
    /* Check if a STOPF is detected */
    if (__HAL_I2C_GET_FLAG(hi2c, I2C_FLAG_STOPF) == SET)
 800374a:	68fb      	ldr	r3, [r7, #12]
 800374c:	681b      	ldr	r3, [r3, #0]
 800374e:	695b      	ldr	r3, [r3, #20]
 8003750:	f003 0310 	and.w	r3, r3, #16
 8003754:	2b10      	cmp	r3, #16
 8003756:	d119      	bne.n	800378c <I2C_WaitOnRXNEFlagUntilTimeout+0x50>
    {
      /* Clear STOP Flag */
      __HAL_I2C_CLEAR_FLAG(hi2c, I2C_FLAG_STOPF);
 8003758:	68fb      	ldr	r3, [r7, #12]
 800375a:	681b      	ldr	r3, [r3, #0]
 800375c:	f06f 0210 	mvn.w	r2, #16
 8003760:	615a      	str	r2, [r3, #20]

      hi2c->PreviousState       = I2C_STATE_NONE;
 8003762:	68fb      	ldr	r3, [r7, #12]
 8003764:	2200      	movs	r2, #0
 8003766:	631a      	str	r2, [r3, #48]	@ 0x30
      hi2c->State               = HAL_I2C_STATE_READY;
 8003768:	68fb      	ldr	r3, [r7, #12]
 800376a:	2220      	movs	r2, #32
 800376c:	f883 203d 	strb.w	r2, [r3, #61]	@ 0x3d
      hi2c->Mode                = HAL_I2C_MODE_NONE;
 8003770:	68fb      	ldr	r3, [r7, #12]
 8003772:	2200      	movs	r2, #0
 8003774:	f883 203e 	strb.w	r2, [r3, #62]	@ 0x3e
      hi2c->ErrorCode           |= HAL_I2C_ERROR_NONE;
 8003778:	68fb      	ldr	r3, [r7, #12]
 800377a:	6c1a      	ldr	r2, [r3, #64]	@ 0x40
 800377c:	68fb      	ldr	r3, [r7, #12]
 800377e:	641a      	str	r2, [r3, #64]	@ 0x40

      /* Process Unlocked */
      __HAL_UNLOCK(hi2c);
 8003780:	68fb      	ldr	r3, [r7, #12]
 8003782:	2200      	movs	r2, #0
 8003784:	f883 203c 	strb.w	r2, [r3, #60]	@ 0x3c

      return HAL_ERROR;
 8003788:	2301      	movs	r3, #1
 800378a:	e030      	b.n	80037ee <I2C_WaitOnRXNEFlagUntilTimeout+0xb2>
    }

    /* Check for the Timeout */
    if (((HAL_GetTick() - Tickstart) > Timeout) || (Timeout == 0U))
 800378c:	f7fe fcb2 	bl	80020f4 <HAL_GetTick>
 8003790:	4602      	mov	r2, r0
 8003792:	687b      	ldr	r3, [r7, #4]
 8003794:	1ad3      	subs	r3, r2, r3
 8003796:	68ba      	ldr	r2, [r7, #8]
 8003798:	429a      	cmp	r2, r3
 800379a:	d302      	bcc.n	80037a2 <I2C_WaitOnRXNEFlagUntilTimeout+0x66>
 800379c:	68bb      	ldr	r3, [r7, #8]
 800379e:	2b00      	cmp	r3, #0
 80037a0:	d11d      	bne.n	80037de <I2C_WaitOnRXNEFlagUntilTimeout+0xa2>
    {
      if ((__HAL_I2C_GET_FLAG(hi2c, I2C_FLAG_RXNE) == RESET))
 80037a2:	68fb      	ldr	r3, [r7, #12]
 80037a4:	681b      	ldr	r3, [r3, #0]
 80037a6:	695b      	ldr	r3, [r3, #20]
 80037a8:	f003 0340 	and.w	r3, r3, #64	@ 0x40
 80037ac:	2b40      	cmp	r3, #64	@ 0x40
 80037ae:	d016      	beq.n	80037de <I2C_WaitOnRXNEFlagUntilTimeout+0xa2>
      {
        hi2c->PreviousState       = I2C_STATE_NONE;
 80037b0:	68fb      	ldr	r3, [r7, #12]
 80037b2:	2200      	movs	r2, #0
 80037b4:	631a      	str	r2, [r3, #48]	@ 0x30
        hi2c->State               = HAL_I2C_STATE_READY;
 80037b6:	68fb      	ldr	r3, [r7, #12]
 80037b8:	2220      	movs	r2, #32
 80037ba:	f883 203d 	strb.w	r2, [r3, #61]	@ 0x3d
        hi2c->Mode                = HAL_I2C_MODE_NONE;
 80037be:	68fb      	ldr	r3, [r7, #12]
 80037c0:	2200      	movs	r2, #0
 80037c2:	f883 203e 	strb.w	r2, [r3, #62]	@ 0x3e
        hi2c->ErrorCode           |= HAL_I2C_ERROR_TIMEOUT;
 80037c6:	68fb      	ldr	r3, [r7, #12]
 80037c8:	6c1b      	ldr	r3, [r3, #64]	@ 0x40
 80037ca:	f043 0220 	orr.w	r2, r3, #32
 80037ce:	68fb      	ldr	r3, [r7, #12]
 80037d0:	641a      	str	r2, [r3, #64]	@ 0x40

        /* Process Unlocked */
        __HAL_UNLOCK(hi2c);
 80037d2:	68fb      	ldr	r3, [r7, #12]
 80037d4:	2200      	movs	r2, #0
 80037d6:	f883 203c 	strb.w	r2, [r3, #60]	@ 0x3c

        return HAL_ERROR;
 80037da:	2301      	movs	r3, #1
 80037dc:	e007      	b.n	80037ee <I2C_WaitOnRXNEFlagUntilTimeout+0xb2>
  while (__HAL_I2C_GET_FLAG(hi2c, I2C_FLAG_RXNE) == RESET)
 80037de:	68fb      	ldr	r3, [r7, #12]
 80037e0:	681b      	ldr	r3, [r3, #0]
 80037e2:	695b      	ldr	r3, [r3, #20]
 80037e4:	f003 0340 	and.w	r3, r3, #64	@ 0x40
 80037e8:	2b40      	cmp	r3, #64	@ 0x40
 80037ea:	d1ae      	bne.n	800374a <I2C_WaitOnRXNEFlagUntilTimeout+0xe>
      }
    }
  }
  return HAL_OK;
 80037ec:	2300      	movs	r3, #0
}
 80037ee:	4618      	mov	r0, r3
 80037f0:	3710      	adds	r7, #16
 80037f2:	46bd      	mov	sp, r7
 80037f4:	bd80      	pop	{r7, pc}

080037f6 <I2C_IsAcknowledgeFailed>:
  * @param  hi2c Pointer to a I2C_HandleTypeDef structure that contains
  *                the configuration information for the specified I2C.
  * @retval HAL status
  */
static HAL_StatusTypeDef I2C_IsAcknowledgeFailed(I2C_HandleTypeDef *hi2c)
{
 80037f6:	b480      	push	{r7}
 80037f8:	b083      	sub	sp, #12
 80037fa:	af00      	add	r7, sp, #0
 80037fc:	6078      	str	r0, [r7, #4]
  if (__HAL_I2C_GET_FLAG(hi2c, I2C_FLAG_AF) == SET)
 80037fe:	687b      	ldr	r3, [r7, #4]
 8003800:	681b      	ldr	r3, [r3, #0]
 8003802:	695b      	ldr	r3, [r3, #20]
 8003804:	f403 6380 	and.w	r3, r3, #1024	@ 0x400
 8003808:	f5b3 6f80 	cmp.w	r3, #1024	@ 0x400
 800380c:	d11b      	bne.n	8003846 <I2C_IsAcknowledgeFailed+0x50>
  {
    /* Clear NACKF Flag */
    __HAL_I2C_CLEAR_FLAG(hi2c, I2C_FLAG_AF);
 800380e:	687b      	ldr	r3, [r7, #4]
 8003810:	681b      	ldr	r3, [r3, #0]
 8003812:	f46f 6280 	mvn.w	r2, #1024	@ 0x400
 8003816:	615a      	str	r2, [r3, #20]

    hi2c->PreviousState       = I2C_STATE_NONE;
 8003818:	687b      	ldr	r3, [r7, #4]
 800381a:	2200      	movs	r2, #0
 800381c:	631a      	str	r2, [r3, #48]	@ 0x30
    hi2c->State               = HAL_I2C_STATE_READY;
 800381e:	687b      	ldr	r3, [r7, #4]
 8003820:	2220      	movs	r2, #32
 8003822:	f883 203d 	strb.w	r2, [r3, #61]	@ 0x3d
    hi2c->Mode                = HAL_I2C_MODE_NONE;
 8003826:	687b      	ldr	r3, [r7, #4]
 8003828:	2200      	movs	r2, #0
 800382a:	f883 203e 	strb.w	r2, [r3, #62]	@ 0x3e
    hi2c->ErrorCode           |= HAL_I2C_ERROR_AF;
 800382e:	687b      	ldr	r3, [r7, #4]
 8003830:	6c1b      	ldr	r3, [r3, #64]	@ 0x40
 8003832:	f043 0204 	orr.w	r2, r3, #4
 8003836:	687b      	ldr	r3, [r7, #4]
 8003838:	641a      	str	r2, [r3, #64]	@ 0x40

    /* Process Unlocked */
    __HAL_UNLOCK(hi2c);
 800383a:	687b      	ldr	r3, [r7, #4]
 800383c:	2200      	movs	r2, #0
 800383e:	f883 203c 	strb.w	r2, [r3, #60]	@ 0x3c

    return HAL_ERROR;
 8003842:	2301      	movs	r3, #1
 8003844:	e000      	b.n	8003848 <I2C_IsAcknowledgeFailed+0x52>
  }
  return HAL_OK;
 8003846:	2300      	movs	r3, #0
}
 8003848:	4618      	mov	r0, r3
 800384a:	370c      	adds	r7, #12
 800384c:	46bd      	mov	sp, r7
 800384e:	f85d 7b04 	ldr.w	r7, [sp], #4
 8003852:	4770      	bx	lr

08003854 <HAL_RCC_OscConfig>:
  *         supported by this API. User should request a transition to HSE Off
  *         first and then HSE On or HSE Bypass.
  * @retval HAL status
  */
__weak HAL_StatusTypeDef HAL_RCC_OscConfig(const RCC_OscInitTypeDef  *RCC_OscInitStruct)
{
 8003854:	b580      	push	{r7, lr}
 8003856:	b086      	sub	sp, #24
 8003858:	af00      	add	r7, sp, #0
 800385a:	6078      	str	r0, [r7, #4]
  uint32_t tickstart;
  uint32_t pll_config;
  /* Check Null pointer */
  if (RCC_OscInitStruct == NULL)
 800385c:	687b      	ldr	r3, [r7, #4]
 800385e:	2b00      	cmp	r3, #0
 8003860:	d101      	bne.n	8003866 <HAL_RCC_OscConfig+0x12>
  {
    return HAL_ERROR;
 8003862:	2301      	movs	r3, #1
 8003864:	e267      	b.n	8003d36 <HAL_RCC_OscConfig+0x4e2>
  }

  /* Check the parameters */
  assert_param(IS_RCC_OSCILLATORTYPE(RCC_OscInitStruct->OscillatorType));
  /*------------------------------- HSE Configuration ------------------------*/
  if (((RCC_OscInitStruct->OscillatorType) & RCC_OSCILLATORTYPE_HSE) == RCC_OSCILLATORTYPE_HSE)
 8003866:	687b      	ldr	r3, [r7, #4]
 8003868:	681b      	ldr	r3, [r3, #0]
 800386a:	f003 0301 	and.w	r3, r3, #1
 800386e:	2b00      	cmp	r3, #0
 8003870:	d075      	beq.n	800395e <HAL_RCC_OscConfig+0x10a>
  {
    /* Check the parameters */
    assert_param(IS_RCC_HSE(RCC_OscInitStruct->HSEState));
    /* When the HSE is used as system clock or clock source for PLL in these cases HSE will not disabled */
    if ((__HAL_RCC_GET_SYSCLK_SOURCE() == RCC_CFGR_SWS_HSE) || \
 8003872:	4b88      	ldr	r3, [pc, #544]	@ (8003a94 <HAL_RCC_OscConfig+0x240>)
 8003874:	689b      	ldr	r3, [r3, #8]
 8003876:	f003 030c 	and.w	r3, r3, #12
 800387a:	2b04      	cmp	r3, #4
 800387c:	d00c      	beq.n	8003898 <HAL_RCC_OscConfig+0x44>
        ((__HAL_RCC_GET_SYSCLK_SOURCE() == RCC_CFGR_SWS_PLL) && ((RCC->PLLCFGR & RCC_PLLCFGR_PLLSRC) == RCC_PLLCFGR_PLLSRC_HSE)))
 800387e:	4b85      	ldr	r3, [pc, #532]	@ (8003a94 <HAL_RCC_OscConfig+0x240>)
 8003880:	689b      	ldr	r3, [r3, #8]
 8003882:	f003 030c 	and.w	r3, r3, #12
    if ((__HAL_RCC_GET_SYSCLK_SOURCE() == RCC_CFGR_SWS_HSE) || \
 8003886:	2b08      	cmp	r3, #8
 8003888:	d112      	bne.n	80038b0 <HAL_RCC_OscConfig+0x5c>
        ((__HAL_RCC_GET_SYSCLK_SOURCE() == RCC_CFGR_SWS_PLL) && ((RCC->PLLCFGR & RCC_PLLCFGR_PLLSRC) == RCC_PLLCFGR_PLLSRC_HSE)))
 800388a:	4b82      	ldr	r3, [pc, #520]	@ (8003a94 <HAL_RCC_OscConfig+0x240>)
 800388c:	685b      	ldr	r3, [r3, #4]
 800388e:	f403 0380 	and.w	r3, r3, #4194304	@ 0x400000
 8003892:	f5b3 0f80 	cmp.w	r3, #4194304	@ 0x400000
 8003896:	d10b      	bne.n	80038b0 <HAL_RCC_OscConfig+0x5c>
    {
      if ((__HAL_RCC_GET_FLAG(RCC_FLAG_HSERDY) != RESET) && (RCC_OscInitStruct->HSEState == RCC_HSE_OFF))
 8003898:	4b7e      	ldr	r3, [pc, #504]	@ (8003a94 <HAL_RCC_OscConfig+0x240>)
 800389a:	681b      	ldr	r3, [r3, #0]
 800389c:	f403 3300 	and.w	r3, r3, #131072	@ 0x20000
 80038a0:	2b00      	cmp	r3, #0
 80038a2:	d05b      	beq.n	800395c <HAL_RCC_OscConfig+0x108>
 80038a4:	687b      	ldr	r3, [r7, #4]
 80038a6:	685b      	ldr	r3, [r3, #4]
 80038a8:	2b00      	cmp	r3, #0
 80038aa:	d157      	bne.n	800395c <HAL_RCC_OscConfig+0x108>
      {
        return HAL_ERROR;
 80038ac:	2301      	movs	r3, #1
 80038ae:	e242      	b.n	8003d36 <HAL_RCC_OscConfig+0x4e2>
      }
    }
    else
    {
      /* Set the new HSE configuration ---------------------------------------*/
      __HAL_RCC_HSE_CONFIG(RCC_OscInitStruct->HSEState);
 80038b0:	687b      	ldr	r3, [r7, #4]
 80038b2:	685b      	ldr	r3, [r3, #4]
 80038b4:	f5b3 3f80 	cmp.w	r3, #65536	@ 0x10000
 80038b8:	d106      	bne.n	80038c8 <HAL_RCC_OscConfig+0x74>
 80038ba:	4b76      	ldr	r3, [pc, #472]	@ (8003a94 <HAL_RCC_OscConfig+0x240>)
 80038bc:	681b      	ldr	r3, [r3, #0]
 80038be:	4a75      	ldr	r2, [pc, #468]	@ (8003a94 <HAL_RCC_OscConfig+0x240>)
 80038c0:	f443 3380 	orr.w	r3, r3, #65536	@ 0x10000
 80038c4:	6013      	str	r3, [r2, #0]
 80038c6:	e01d      	b.n	8003904 <HAL_RCC_OscConfig+0xb0>
 80038c8:	687b      	ldr	r3, [r7, #4]
 80038ca:	685b      	ldr	r3, [r3, #4]
 80038cc:	f5b3 2fa0 	cmp.w	r3, #327680	@ 0x50000
 80038d0:	d10c      	bne.n	80038ec <HAL_RCC_OscConfig+0x98>
 80038d2:	4b70      	ldr	r3, [pc, #448]	@ (8003a94 <HAL_RCC_OscConfig+0x240>)
 80038d4:	681b      	ldr	r3, [r3, #0]
 80038d6:	4a6f      	ldr	r2, [pc, #444]	@ (8003a94 <HAL_RCC_OscConfig+0x240>)
 80038d8:	f443 2380 	orr.w	r3, r3, #262144	@ 0x40000
 80038dc:	6013      	str	r3, [r2, #0]
 80038de:	4b6d      	ldr	r3, [pc, #436]	@ (8003a94 <HAL_RCC_OscConfig+0x240>)
 80038e0:	681b      	ldr	r3, [r3, #0]
 80038e2:	4a6c      	ldr	r2, [pc, #432]	@ (8003a94 <HAL_RCC_OscConfig+0x240>)
 80038e4:	f443 3380 	orr.w	r3, r3, #65536	@ 0x10000
 80038e8:	6013      	str	r3, [r2, #0]
 80038ea:	e00b      	b.n	8003904 <HAL_RCC_OscConfig+0xb0>
 80038ec:	4b69      	ldr	r3, [pc, #420]	@ (8003a94 <HAL_RCC_OscConfig+0x240>)
 80038ee:	681b      	ldr	r3, [r3, #0]
 80038f0:	4a68      	ldr	r2, [pc, #416]	@ (8003a94 <HAL_RCC_OscConfig+0x240>)
 80038f2:	f423 3380 	bic.w	r3, r3, #65536	@ 0x10000
 80038f6:	6013      	str	r3, [r2, #0]
 80038f8:	4b66      	ldr	r3, [pc, #408]	@ (8003a94 <HAL_RCC_OscConfig+0x240>)
 80038fa:	681b      	ldr	r3, [r3, #0]
 80038fc:	4a65      	ldr	r2, [pc, #404]	@ (8003a94 <HAL_RCC_OscConfig+0x240>)
 80038fe:	f423 2380 	bic.w	r3, r3, #262144	@ 0x40000
 8003902:	6013      	str	r3, [r2, #0]

      /* Check the HSE State */
      if ((RCC_OscInitStruct->HSEState) != RCC_HSE_OFF)
 8003904:	687b      	ldr	r3, [r7, #4]
 8003906:	685b      	ldr	r3, [r3, #4]
 8003908:	2b00      	cmp	r3, #0
 800390a:	d013      	beq.n	8003934 <HAL_RCC_OscConfig+0xe0>
      {
        /* Get Start Tick */
        tickstart = HAL_GetTick();
 800390c:	f7fe fbf2 	bl	80020f4 <HAL_GetTick>
 8003910:	6138      	str	r0, [r7, #16]

        /* Wait till HSE is ready */
        while (__HAL_RCC_GET_FLAG(RCC_FLAG_HSERDY) == RESET)
 8003912:	e008      	b.n	8003926 <HAL_RCC_OscConfig+0xd2>
        {
          if ((HAL_GetTick() - tickstart) > HSE_TIMEOUT_VALUE)
 8003914:	f7fe fbee 	bl	80020f4 <HAL_GetTick>
 8003918:	4602      	mov	r2, r0
 800391a:	693b      	ldr	r3, [r7, #16]
 800391c:	1ad3      	subs	r3, r2, r3
 800391e:	2b64      	cmp	r3, #100	@ 0x64
 8003920:	d901      	bls.n	8003926 <HAL_RCC_OscConfig+0xd2>
          {
            return HAL_TIMEOUT;
 8003922:	2303      	movs	r3, #3
 8003924:	e207      	b.n	8003d36 <HAL_RCC_OscConfig+0x4e2>
        while (__HAL_RCC_GET_FLAG(RCC_FLAG_HSERDY) == RESET)
 8003926:	4b5b      	ldr	r3, [pc, #364]	@ (8003a94 <HAL_RCC_OscConfig+0x240>)
 8003928:	681b      	ldr	r3, [r3, #0]
 800392a:	f403 3300 	and.w	r3, r3, #131072	@ 0x20000
 800392e:	2b00      	cmp	r3, #0
 8003930:	d0f0      	beq.n	8003914 <HAL_RCC_OscConfig+0xc0>
 8003932:	e014      	b.n	800395e <HAL_RCC_OscConfig+0x10a>
        }
      }
      else
      {
        /* Get Start Tick */
        tickstart = HAL_GetTick();
 8003934:	f7fe fbde 	bl	80020f4 <HAL_GetTick>
 8003938:	6138      	str	r0, [r7, #16]

        /* Wait till HSE is bypassed or disabled */
        while (__HAL_RCC_GET_FLAG(RCC_FLAG_HSERDY) != RESET)
 800393a:	e008      	b.n	800394e <HAL_RCC_OscConfig+0xfa>
        {
          if ((HAL_GetTick() - tickstart) > HSE_TIMEOUT_VALUE)
 800393c:	f7fe fbda 	bl	80020f4 <HAL_GetTick>
 8003940:	4602      	mov	r2, r0
 8003942:	693b      	ldr	r3, [r7, #16]
 8003944:	1ad3      	subs	r3, r2, r3
 8003946:	2b64      	cmp	r3, #100	@ 0x64
 8003948:	d901      	bls.n	800394e <HAL_RCC_OscConfig+0xfa>
          {
            return HAL_TIMEOUT;
 800394a:	2303      	movs	r3, #3
 800394c:	e1f3      	b.n	8003d36 <HAL_RCC_OscConfig+0x4e2>
        while (__HAL_RCC_GET_FLAG(RCC_FLAG_HSERDY) != RESET)
 800394e:	4b51      	ldr	r3, [pc, #324]	@ (8003a94 <HAL_RCC_OscConfig+0x240>)
 8003950:	681b      	ldr	r3, [r3, #0]
 8003952:	f403 3300 	and.w	r3, r3, #131072	@ 0x20000
 8003956:	2b00      	cmp	r3, #0
 8003958:	d1f0      	bne.n	800393c <HAL_RCC_OscConfig+0xe8>
 800395a:	e000      	b.n	800395e <HAL_RCC_OscConfig+0x10a>
      if ((__HAL_RCC_GET_FLAG(RCC_FLAG_HSERDY) != RESET) && (RCC_OscInitStruct->HSEState == RCC_HSE_OFF))
 800395c:	bf00      	nop
        }
      }
    }
  }
  /*----------------------------- HSI Configuration --------------------------*/
  if (((RCC_OscInitStruct->OscillatorType) & RCC_OSCILLATORTYPE_HSI) == RCC_OSCILLATORTYPE_HSI)
 800395e:	687b      	ldr	r3, [r7, #4]
 8003960:	681b      	ldr	r3, [r3, #0]
 8003962:	f003 0302 	and.w	r3, r3, #2
 8003966:	2b00      	cmp	r3, #0
 8003968:	d063      	beq.n	8003a32 <HAL_RCC_OscConfig+0x1de>
    /* Check the parameters */
    assert_param(IS_RCC_HSI(RCC_OscInitStruct->HSIState));
    assert_param(IS_RCC_CALIBRATION_VALUE(RCC_OscInitStruct->HSICalibrationValue));

    /* Check if HSI is used as system clock or as PLL source when PLL is selected as system clock */
    if ((__HAL_RCC_GET_SYSCLK_SOURCE() == RCC_CFGR_SWS_HSI) || \
 800396a:	4b4a      	ldr	r3, [pc, #296]	@ (8003a94 <HAL_RCC_OscConfig+0x240>)
 800396c:	689b      	ldr	r3, [r3, #8]
 800396e:	f003 030c 	and.w	r3, r3, #12
 8003972:	2b00      	cmp	r3, #0
 8003974:	d00b      	beq.n	800398e <HAL_RCC_OscConfig+0x13a>
        ((__HAL_RCC_GET_SYSCLK_SOURCE() == RCC_CFGR_SWS_PLL) && ((RCC->PLLCFGR & RCC_PLLCFGR_PLLSRC) == RCC_PLLCFGR_PLLSRC_HSI)))
 8003976:	4b47      	ldr	r3, [pc, #284]	@ (8003a94 <HAL_RCC_OscConfig+0x240>)
 8003978:	689b      	ldr	r3, [r3, #8]
 800397a:	f003 030c 	and.w	r3, r3, #12
    if ((__HAL_RCC_GET_SYSCLK_SOURCE() == RCC_CFGR_SWS_HSI) || \
 800397e:	2b08      	cmp	r3, #8
 8003980:	d11c      	bne.n	80039bc <HAL_RCC_OscConfig+0x168>
        ((__HAL_RCC_GET_SYSCLK_SOURCE() == RCC_CFGR_SWS_PLL) && ((RCC->PLLCFGR & RCC_PLLCFGR_PLLSRC) == RCC_PLLCFGR_PLLSRC_HSI)))
 8003982:	4b44      	ldr	r3, [pc, #272]	@ (8003a94 <HAL_RCC_OscConfig+0x240>)
 8003984:	685b      	ldr	r3, [r3, #4]
 8003986:	f403 0380 	and.w	r3, r3, #4194304	@ 0x400000
 800398a:	2b00      	cmp	r3, #0
 800398c:	d116      	bne.n	80039bc <HAL_RCC_OscConfig+0x168>
    {
      /* When HSI is used as system clock it will not disabled */
      if ((__HAL_RCC_GET_FLAG(RCC_FLAG_HSIRDY) != RESET) && (RCC_OscInitStruct->HSIState != RCC_HSI_ON))
 800398e:	4b41      	ldr	r3, [pc, #260]	@ (8003a94 <HAL_RCC_OscConfig+0x240>)
 8003990:	681b      	ldr	r3, [r3, #0]
 8003992:	f003 0302 	and.w	r3, r3, #2
 8003996:	2b00      	cmp	r3, #0
 8003998:	d005      	beq.n	80039a6 <HAL_RCC_OscConfig+0x152>
 800399a:	687b      	ldr	r3, [r7, #4]
 800399c:	68db      	ldr	r3, [r3, #12]
 800399e:	2b01      	cmp	r3, #1
 80039a0:	d001      	beq.n	80039a6 <HAL_RCC_OscConfig+0x152>
      {
        return HAL_ERROR;
 80039a2:	2301      	movs	r3, #1
 80039a4:	e1c7      	b.n	8003d36 <HAL_RCC_OscConfig+0x4e2>
      }
      /* Otherwise, just the calibration is allowed */
      else
      {
        /* Adjusts the Internal High Speed oscillator (HSI) calibration value.*/
        __HAL_RCC_HSI_CALIBRATIONVALUE_ADJUST(RCC_OscInitStruct->HSICalibrationValue);
 80039a6:	4b3b      	ldr	r3, [pc, #236]	@ (8003a94 <HAL_RCC_OscConfig+0x240>)
 80039a8:	681b      	ldr	r3, [r3, #0]
 80039aa:	f023 02f8 	bic.w	r2, r3, #248	@ 0xf8
 80039ae:	687b      	ldr	r3, [r7, #4]
 80039b0:	691b      	ldr	r3, [r3, #16]
 80039b2:	00db      	lsls	r3, r3, #3
 80039b4:	4937      	ldr	r1, [pc, #220]	@ (8003a94 <HAL_RCC_OscConfig+0x240>)
 80039b6:	4313      	orrs	r3, r2
 80039b8:	600b      	str	r3, [r1, #0]
      if ((__HAL_RCC_GET_FLAG(RCC_FLAG_HSIRDY) != RESET) && (RCC_OscInitStruct->HSIState != RCC_HSI_ON))
 80039ba:	e03a      	b.n	8003a32 <HAL_RCC_OscConfig+0x1de>
      }
    }
    else
    {
      /* Check the HSI State */
      if ((RCC_OscInitStruct->HSIState) != RCC_HSI_OFF)
 80039bc:	687b      	ldr	r3, [r7, #4]
 80039be:	68db      	ldr	r3, [r3, #12]
 80039c0:	2b00      	cmp	r3, #0
 80039c2:	d020      	beq.n	8003a06 <HAL_RCC_OscConfig+0x1b2>
      {
        /* Enable the Internal High Speed oscillator (HSI). */
        __HAL_RCC_HSI_ENABLE();
 80039c4:	4b34      	ldr	r3, [pc, #208]	@ (8003a98 <HAL_RCC_OscConfig+0x244>)
 80039c6:	2201      	movs	r2, #1
 80039c8:	601a      	str	r2, [r3, #0]

        /* Get Start Tick*/
        tickstart = HAL_GetTick();
 80039ca:	f7fe fb93 	bl	80020f4 <HAL_GetTick>
 80039ce:	6138      	str	r0, [r7, #16]

        /* Wait till HSI is ready */
        while (__HAL_RCC_GET_FLAG(RCC_FLAG_HSIRDY) == RESET)
 80039d0:	e008      	b.n	80039e4 <HAL_RCC_OscConfig+0x190>
        {
          if ((HAL_GetTick() - tickstart) > HSI_TIMEOUT_VALUE)
 80039d2:	f7fe fb8f 	bl	80020f4 <HAL_GetTick>
 80039d6:	4602      	mov	r2, r0
 80039d8:	693b      	ldr	r3, [r7, #16]
 80039da:	1ad3      	subs	r3, r2, r3
 80039dc:	2b02      	cmp	r3, #2
 80039de:	d901      	bls.n	80039e4 <HAL_RCC_OscConfig+0x190>
          {
            return HAL_TIMEOUT;
 80039e0:	2303      	movs	r3, #3
 80039e2:	e1a8      	b.n	8003d36 <HAL_RCC_OscConfig+0x4e2>
        while (__HAL_RCC_GET_FLAG(RCC_FLAG_HSIRDY) == RESET)
 80039e4:	4b2b      	ldr	r3, [pc, #172]	@ (8003a94 <HAL_RCC_OscConfig+0x240>)
 80039e6:	681b      	ldr	r3, [r3, #0]
 80039e8:	f003 0302 	and.w	r3, r3, #2
 80039ec:	2b00      	cmp	r3, #0
 80039ee:	d0f0      	beq.n	80039d2 <HAL_RCC_OscConfig+0x17e>
          }
        }

        /* Adjusts the Internal High Speed oscillator (HSI) calibration value. */
        __HAL_RCC_HSI_CALIBRATIONVALUE_ADJUST(RCC_OscInitStruct->HSICalibrationValue);
 80039f0:	4b28      	ldr	r3, [pc, #160]	@ (8003a94 <HAL_RCC_OscConfig+0x240>)
 80039f2:	681b      	ldr	r3, [r3, #0]
 80039f4:	f023 02f8 	bic.w	r2, r3, #248	@ 0xf8
 80039f8:	687b      	ldr	r3, [r7, #4]
 80039fa:	691b      	ldr	r3, [r3, #16]
 80039fc:	00db      	lsls	r3, r3, #3
 80039fe:	4925      	ldr	r1, [pc, #148]	@ (8003a94 <HAL_RCC_OscConfig+0x240>)
 8003a00:	4313      	orrs	r3, r2
 8003a02:	600b      	str	r3, [r1, #0]
 8003a04:	e015      	b.n	8003a32 <HAL_RCC_OscConfig+0x1de>
      }
      else
      {
        /* Disable the Internal High Speed oscillator (HSI). */
        __HAL_RCC_HSI_DISABLE();
 8003a06:	4b24      	ldr	r3, [pc, #144]	@ (8003a98 <HAL_RCC_OscConfig+0x244>)
 8003a08:	2200      	movs	r2, #0
 8003a0a:	601a      	str	r2, [r3, #0]

        /* Get Start Tick*/
        tickstart = HAL_GetTick();
 8003a0c:	f7fe fb72 	bl	80020f4 <HAL_GetTick>
 8003a10:	6138      	str	r0, [r7, #16]

        /* Wait till HSI is ready */
        while (__HAL_RCC_GET_FLAG(RCC_FLAG_HSIRDY) != RESET)
 8003a12:	e008      	b.n	8003a26 <HAL_RCC_OscConfig+0x1d2>
        {
          if ((HAL_GetTick() - tickstart) > HSI_TIMEOUT_VALUE)
 8003a14:	f7fe fb6e 	bl	80020f4 <HAL_GetTick>
 8003a18:	4602      	mov	r2, r0
 8003a1a:	693b      	ldr	r3, [r7, #16]
 8003a1c:	1ad3      	subs	r3, r2, r3
 8003a1e:	2b02      	cmp	r3, #2
 8003a20:	d901      	bls.n	8003a26 <HAL_RCC_OscConfig+0x1d2>
          {
            return HAL_TIMEOUT;
 8003a22:	2303      	movs	r3, #3
 8003a24:	e187      	b.n	8003d36 <HAL_RCC_OscConfig+0x4e2>
        while (__HAL_RCC_GET_FLAG(RCC_FLAG_HSIRDY) != RESET)
 8003a26:	4b1b      	ldr	r3, [pc, #108]	@ (8003a94 <HAL_RCC_OscConfig+0x240>)
 8003a28:	681b      	ldr	r3, [r3, #0]
 8003a2a:	f003 0302 	and.w	r3, r3, #2
 8003a2e:	2b00      	cmp	r3, #0
 8003a30:	d1f0      	bne.n	8003a14 <HAL_RCC_OscConfig+0x1c0>
        }
      }
    }
  }
  /*------------------------------ LSI Configuration -------------------------*/
  if (((RCC_OscInitStruct->OscillatorType) & RCC_OSCILLATORTYPE_LSI) == RCC_OSCILLATORTYPE_LSI)
 8003a32:	687b      	ldr	r3, [r7, #4]
 8003a34:	681b      	ldr	r3, [r3, #0]
 8003a36:	f003 0308 	and.w	r3, r3, #8
 8003a3a:	2b00      	cmp	r3, #0
 8003a3c:	d036      	beq.n	8003aac <HAL_RCC_OscConfig+0x258>
  {
    /* Check the parameters */
    assert_param(IS_RCC_LSI(RCC_OscInitStruct->LSIState));

    /* Check the LSI State */
    if ((RCC_OscInitStruct->LSIState) != RCC_LSI_OFF)
 8003a3e:	687b      	ldr	r3, [r7, #4]
 8003a40:	695b      	ldr	r3, [r3, #20]
 8003a42:	2b00      	cmp	r3, #0
 8003a44:	d016      	beq.n	8003a74 <HAL_RCC_OscConfig+0x220>
    {
      /* Enable the Internal Low Speed oscillator (LSI). */
      __HAL_RCC_LSI_ENABLE();
 8003a46:	4b15      	ldr	r3, [pc, #84]	@ (8003a9c <HAL_RCC_OscConfig+0x248>)
 8003a48:	2201      	movs	r2, #1
 8003a4a:	601a      	str	r2, [r3, #0]

      /* Get Start Tick*/
      tickstart = HAL_GetTick();
 8003a4c:	f7fe fb52 	bl	80020f4 <HAL_GetTick>
 8003a50:	6138      	str	r0, [r7, #16]

      /* Wait till LSI is ready */
      while (__HAL_RCC_GET_FLAG(RCC_FLAG_LSIRDY) == RESET)
 8003a52:	e008      	b.n	8003a66 <HAL_RCC_OscConfig+0x212>
      {
        if ((HAL_GetTick() - tickstart) > LSI_TIMEOUT_VALUE)
 8003a54:	f7fe fb4e 	bl	80020f4 <HAL_GetTick>
 8003a58:	4602      	mov	r2, r0
 8003a5a:	693b      	ldr	r3, [r7, #16]
 8003a5c:	1ad3      	subs	r3, r2, r3
 8003a5e:	2b02      	cmp	r3, #2
 8003a60:	d901      	bls.n	8003a66 <HAL_RCC_OscConfig+0x212>
        {
          return HAL_TIMEOUT;
 8003a62:	2303      	movs	r3, #3
 8003a64:	e167      	b.n	8003d36 <HAL_RCC_OscConfig+0x4e2>
      while (__HAL_RCC_GET_FLAG(RCC_FLAG_LSIRDY) == RESET)
 8003a66:	4b0b      	ldr	r3, [pc, #44]	@ (8003a94 <HAL_RCC_OscConfig+0x240>)
 8003a68:	6f5b      	ldr	r3, [r3, #116]	@ 0x74
 8003a6a:	f003 0302 	and.w	r3, r3, #2
 8003a6e:	2b00      	cmp	r3, #0
 8003a70:	d0f0      	beq.n	8003a54 <HAL_RCC_OscConfig+0x200>
 8003a72:	e01b      	b.n	8003aac <HAL_RCC_OscConfig+0x258>
      }
    }
    else
    {
      /* Disable the Internal Low Speed oscillator (LSI). */
      __HAL_RCC_LSI_DISABLE();
 8003a74:	4b09      	ldr	r3, [pc, #36]	@ (8003a9c <HAL_RCC_OscConfig+0x248>)
 8003a76:	2200      	movs	r2, #0
 8003a78:	601a      	str	r2, [r3, #0]

      /* Get Start Tick */
      tickstart = HAL_GetTick();
 8003a7a:	f7fe fb3b 	bl	80020f4 <HAL_GetTick>
 8003a7e:	6138      	str	r0, [r7, #16]

      /* Wait till LSI is ready */
      while (__HAL_RCC_GET_FLAG(RCC_FLAG_LSIRDY) != RESET)
 8003a80:	e00e      	b.n	8003aa0 <HAL_RCC_OscConfig+0x24c>
      {
        if ((HAL_GetTick() - tickstart) > LSI_TIMEOUT_VALUE)
 8003a82:	f7fe fb37 	bl	80020f4 <HAL_GetTick>
 8003a86:	4602      	mov	r2, r0
 8003a88:	693b      	ldr	r3, [r7, #16]
 8003a8a:	1ad3      	subs	r3, r2, r3
 8003a8c:	2b02      	cmp	r3, #2
 8003a8e:	d907      	bls.n	8003aa0 <HAL_RCC_OscConfig+0x24c>
        {
          return HAL_TIMEOUT;
 8003a90:	2303      	movs	r3, #3
 8003a92:	e150      	b.n	8003d36 <HAL_RCC_OscConfig+0x4e2>
 8003a94:	40023800 	.word	0x40023800
 8003a98:	42470000 	.word	0x42470000
 8003a9c:	42470e80 	.word	0x42470e80
      while (__HAL_RCC_GET_FLAG(RCC_FLAG_LSIRDY) != RESET)
 8003aa0:	4b88      	ldr	r3, [pc, #544]	@ (8003cc4 <HAL_RCC_OscConfig+0x470>)
 8003aa2:	6f5b      	ldr	r3, [r3, #116]	@ 0x74
 8003aa4:	f003 0302 	and.w	r3, r3, #2
 8003aa8:	2b00      	cmp	r3, #0
 8003aaa:	d1ea      	bne.n	8003a82 <HAL_RCC_OscConfig+0x22e>
        }
      }
    }
  }
  /*------------------------------ LSE Configuration -------------------------*/
  if (((RCC_OscInitStruct->OscillatorType) & RCC_OSCILLATORTYPE_LSE) == RCC_OSCILLATORTYPE_LSE)
 8003aac:	687b      	ldr	r3, [r7, #4]
 8003aae:	681b      	ldr	r3, [r3, #0]
 8003ab0:	f003 0304 	and.w	r3, r3, #4
 8003ab4:	2b00      	cmp	r3, #0
 8003ab6:	f000 8097 	beq.w	8003be8 <HAL_RCC_OscConfig+0x394>
  {
    FlagStatus       pwrclkchanged = RESET;
 8003aba:	2300      	movs	r3, #0
 8003abc:	75fb      	strb	r3, [r7, #23]
    /* Check the parameters */
    assert_param(IS_RCC_LSE(RCC_OscInitStruct->LSEState));

    /* Update LSE configuration in Backup Domain control register    */
    /* Requires to enable write access to Backup Domain of necessary */
    if (__HAL_RCC_PWR_IS_CLK_DISABLED())
 8003abe:	4b81      	ldr	r3, [pc, #516]	@ (8003cc4 <HAL_RCC_OscConfig+0x470>)
 8003ac0:	6c1b      	ldr	r3, [r3, #64]	@ 0x40
 8003ac2:	f003 5380 	and.w	r3, r3, #268435456	@ 0x10000000
 8003ac6:	2b00      	cmp	r3, #0
 8003ac8:	d10f      	bne.n	8003aea <HAL_RCC_OscConfig+0x296>
    {
      __HAL_RCC_PWR_CLK_ENABLE();
 8003aca:	2300      	movs	r3, #0
 8003acc:	60bb      	str	r3, [r7, #8]
 8003ace:	4b7d      	ldr	r3, [pc, #500]	@ (8003cc4 <HAL_RCC_OscConfig+0x470>)
 8003ad0:	6c1b      	ldr	r3, [r3, #64]	@ 0x40
 8003ad2:	4a7c      	ldr	r2, [pc, #496]	@ (8003cc4 <HAL_RCC_OscConfig+0x470>)
 8003ad4:	f043 5380 	orr.w	r3, r3, #268435456	@ 0x10000000
 8003ad8:	6413      	str	r3, [r2, #64]	@ 0x40
 8003ada:	4b7a      	ldr	r3, [pc, #488]	@ (8003cc4 <HAL_RCC_OscConfig+0x470>)
 8003adc:	6c1b      	ldr	r3, [r3, #64]	@ 0x40
 8003ade:	f003 5380 	and.w	r3, r3, #268435456	@ 0x10000000
 8003ae2:	60bb      	str	r3, [r7, #8]
 8003ae4:	68bb      	ldr	r3, [r7, #8]
      pwrclkchanged = SET;
 8003ae6:	2301      	movs	r3, #1
 8003ae8:	75fb      	strb	r3, [r7, #23]
    }

    if (HAL_IS_BIT_CLR(PWR->CR, PWR_CR_DBP))
 8003aea:	4b77      	ldr	r3, [pc, #476]	@ (8003cc8 <HAL_RCC_OscConfig+0x474>)
 8003aec:	681b      	ldr	r3, [r3, #0]
 8003aee:	f403 7380 	and.w	r3, r3, #256	@ 0x100
 8003af2:	2b00      	cmp	r3, #0
 8003af4:	d118      	bne.n	8003b28 <HAL_RCC_OscConfig+0x2d4>
    {
      /* Enable write access to Backup domain */
      SET_BIT(PWR->CR, PWR_CR_DBP);
 8003af6:	4b74      	ldr	r3, [pc, #464]	@ (8003cc8 <HAL_RCC_OscConfig+0x474>)
 8003af8:	681b      	ldr	r3, [r3, #0]
 8003afa:	4a73      	ldr	r2, [pc, #460]	@ (8003cc8 <HAL_RCC_OscConfig+0x474>)
 8003afc:	f443 7380 	orr.w	r3, r3, #256	@ 0x100
 8003b00:	6013      	str	r3, [r2, #0]

      /* Wait for Backup domain Write protection disable */
      tickstart = HAL_GetTick();
 8003b02:	f7fe faf7 	bl	80020f4 <HAL_GetTick>
 8003b06:	6138      	str	r0, [r7, #16]

      while (HAL_IS_BIT_CLR(PWR->CR, PWR_CR_DBP))
 8003b08:	e008      	b.n	8003b1c <HAL_RCC_OscConfig+0x2c8>
      {
        if ((HAL_GetTick() - tickstart) > RCC_DBP_TIMEOUT_VALUE)
 8003b0a:	f7fe faf3 	bl	80020f4 <HAL_GetTick>
 8003b0e:	4602      	mov	r2, r0
 8003b10:	693b      	ldr	r3, [r7, #16]
 8003b12:	1ad3      	subs	r3, r2, r3
 8003b14:	2b02      	cmp	r3, #2
 8003b16:	d901      	bls.n	8003b1c <HAL_RCC_OscConfig+0x2c8>
        {
          return HAL_TIMEOUT;
 8003b18:	2303      	movs	r3, #3
 8003b1a:	e10c      	b.n	8003d36 <HAL_RCC_OscConfig+0x4e2>
      while (HAL_IS_BIT_CLR(PWR->CR, PWR_CR_DBP))
 8003b1c:	4b6a      	ldr	r3, [pc, #424]	@ (8003cc8 <HAL_RCC_OscConfig+0x474>)
 8003b1e:	681b      	ldr	r3, [r3, #0]
 8003b20:	f403 7380 	and.w	r3, r3, #256	@ 0x100
 8003b24:	2b00      	cmp	r3, #0
 8003b26:	d0f0      	beq.n	8003b0a <HAL_RCC_OscConfig+0x2b6>
        }
      }
    }

    /* Set the new LSE configuration -----------------------------------------*/
    __HAL_RCC_LSE_CONFIG(RCC_OscInitStruct->LSEState);
 8003b28:	687b      	ldr	r3, [r7, #4]
 8003b2a:	689b      	ldr	r3, [r3, #8]
 8003b2c:	2b01      	cmp	r3, #1
 8003b2e:	d106      	bne.n	8003b3e <HAL_RCC_OscConfig+0x2ea>
 8003b30:	4b64      	ldr	r3, [pc, #400]	@ (8003cc4 <HAL_RCC_OscConfig+0x470>)
 8003b32:	6f1b      	ldr	r3, [r3, #112]	@ 0x70
 8003b34:	4a63      	ldr	r2, [pc, #396]	@ (8003cc4 <HAL_RCC_OscConfig+0x470>)
 8003b36:	f043 0301 	orr.w	r3, r3, #1
 8003b3a:	6713      	str	r3, [r2, #112]	@ 0x70
 8003b3c:	e01c      	b.n	8003b78 <HAL_RCC_OscConfig+0x324>
 8003b3e:	687b      	ldr	r3, [r7, #4]
 8003b40:	689b      	ldr	r3, [r3, #8]
 8003b42:	2b05      	cmp	r3, #5
 8003b44:	d10c      	bne.n	8003b60 <HAL_RCC_OscConfig+0x30c>
 8003b46:	4b5f      	ldr	r3, [pc, #380]	@ (8003cc4 <HAL_RCC_OscConfig+0x470>)
 8003b48:	6f1b      	ldr	r3, [r3, #112]	@ 0x70
 8003b4a:	4a5e      	ldr	r2, [pc, #376]	@ (8003cc4 <HAL_RCC_OscConfig+0x470>)
 8003b4c:	f043 0304 	orr.w	r3, r3, #4
 8003b50:	6713      	str	r3, [r2, #112]	@ 0x70
 8003b52:	4b5c      	ldr	r3, [pc, #368]	@ (8003cc4 <HAL_RCC_OscConfig+0x470>)
 8003b54:	6f1b      	ldr	r3, [r3, #112]	@ 0x70
 8003b56:	4a5b      	ldr	r2, [pc, #364]	@ (8003cc4 <HAL_RCC_OscConfig+0x470>)
 8003b58:	f043 0301 	orr.w	r3, r3, #1
 8003b5c:	6713      	str	r3, [r2, #112]	@ 0x70
 8003b5e:	e00b      	b.n	8003b78 <HAL_RCC_OscConfig+0x324>
 8003b60:	4b58      	ldr	r3, [pc, #352]	@ (8003cc4 <HAL_RCC_OscConfig+0x470>)
 8003b62:	6f1b      	ldr	r3, [r3, #112]	@ 0x70
 8003b64:	4a57      	ldr	r2, [pc, #348]	@ (8003cc4 <HAL_RCC_OscConfig+0x470>)
 8003b66:	f023 0301 	bic.w	r3, r3, #1
 8003b6a:	6713      	str	r3, [r2, #112]	@ 0x70
 8003b6c:	4b55      	ldr	r3, [pc, #340]	@ (8003cc4 <HAL_RCC_OscConfig+0x470>)
 8003b6e:	6f1b      	ldr	r3, [r3, #112]	@ 0x70
 8003b70:	4a54      	ldr	r2, [pc, #336]	@ (8003cc4 <HAL_RCC_OscConfig+0x470>)
 8003b72:	f023 0304 	bic.w	r3, r3, #4
 8003b76:	6713      	str	r3, [r2, #112]	@ 0x70
    /* Check the LSE State */
    if ((RCC_OscInitStruct->LSEState) != RCC_LSE_OFF)
 8003b78:	687b      	ldr	r3, [r7, #4]
 8003b7a:	689b      	ldr	r3, [r3, #8]
 8003b7c:	2b00      	cmp	r3, #0
 8003b7e:	d015      	beq.n	8003bac <HAL_RCC_OscConfig+0x358>
    {
      /* Get Start Tick*/
      tickstart = HAL_GetTick();
 8003b80:	f7fe fab8 	bl	80020f4 <HAL_GetTick>
 8003b84:	6138      	str	r0, [r7, #16]

      /* Wait till LSE is ready */
      while (__HAL_RCC_GET_FLAG(RCC_FLAG_LSERDY) == RESET)
 8003b86:	e00a      	b.n	8003b9e <HAL_RCC_OscConfig+0x34a>
      {
        if ((HAL_GetTick() - tickstart) > RCC_LSE_TIMEOUT_VALUE)
 8003b88:	f7fe fab4 	bl	80020f4 <HAL_GetTick>
 8003b8c:	4602      	mov	r2, r0
 8003b8e:	693b      	ldr	r3, [r7, #16]
 8003b90:	1ad3      	subs	r3, r2, r3
 8003b92:	f241 3288 	movw	r2, #5000	@ 0x1388
 8003b96:	4293      	cmp	r3, r2
 8003b98:	d901      	bls.n	8003b9e <HAL_RCC_OscConfig+0x34a>
        {
          return HAL_TIMEOUT;
 8003b9a:	2303      	movs	r3, #3
 8003b9c:	e0cb      	b.n	8003d36 <HAL_RCC_OscConfig+0x4e2>
      while (__HAL_RCC_GET_FLAG(RCC_FLAG_LSERDY) == RESET)
 8003b9e:	4b49      	ldr	r3, [pc, #292]	@ (8003cc4 <HAL_RCC_OscConfig+0x470>)
 8003ba0:	6f1b      	ldr	r3, [r3, #112]	@ 0x70
 8003ba2:	f003 0302 	and.w	r3, r3, #2
 8003ba6:	2b00      	cmp	r3, #0
 8003ba8:	d0ee      	beq.n	8003b88 <HAL_RCC_OscConfig+0x334>
 8003baa:	e014      	b.n	8003bd6 <HAL_RCC_OscConfig+0x382>
      }
    }
    else
    {
      /* Get Start Tick */
      tickstart = HAL_GetTick();
 8003bac:	f7fe faa2 	bl	80020f4 <HAL_GetTick>
 8003bb0:	6138      	str	r0, [r7, #16]

      /* Wait till LSE is ready */
      while (__HAL_RCC_GET_FLAG(RCC_FLAG_LSERDY) != RESET)
 8003bb2:	e00a      	b.n	8003bca <HAL_RCC_OscConfig+0x376>
      {
        if ((HAL_GetTick() - tickstart) > RCC_LSE_TIMEOUT_VALUE)
 8003bb4:	f7fe fa9e 	bl	80020f4 <HAL_GetTick>
 8003bb8:	4602      	mov	r2, r0
 8003bba:	693b      	ldr	r3, [r7, #16]
 8003bbc:	1ad3      	subs	r3, r2, r3
 8003bbe:	f241 3288 	movw	r2, #5000	@ 0x1388
 8003bc2:	4293      	cmp	r3, r2
 8003bc4:	d901      	bls.n	8003bca <HAL_RCC_OscConfig+0x376>
        {
          return HAL_TIMEOUT;
 8003bc6:	2303      	movs	r3, #3
 8003bc8:	e0b5      	b.n	8003d36 <HAL_RCC_OscConfig+0x4e2>
      while (__HAL_RCC_GET_FLAG(RCC_FLAG_LSERDY) != RESET)
 8003bca:	4b3e      	ldr	r3, [pc, #248]	@ (8003cc4 <HAL_RCC_OscConfig+0x470>)
 8003bcc:	6f1b      	ldr	r3, [r3, #112]	@ 0x70
 8003bce:	f003 0302 	and.w	r3, r3, #2
 8003bd2:	2b00      	cmp	r3, #0
 8003bd4:	d1ee      	bne.n	8003bb4 <HAL_RCC_OscConfig+0x360>
        }
      }
    }

    /* Restore clock configuration if changed */
    if (pwrclkchanged == SET)
 8003bd6:	7dfb      	ldrb	r3, [r7, #23]
 8003bd8:	2b01      	cmp	r3, #1
 8003bda:	d105      	bne.n	8003be8 <HAL_RCC_OscConfig+0x394>
    {
      __HAL_RCC_PWR_CLK_DISABLE();
 8003bdc:	4b39      	ldr	r3, [pc, #228]	@ (8003cc4 <HAL_RCC_OscConfig+0x470>)
 8003bde:	6c1b      	ldr	r3, [r3, #64]	@ 0x40
 8003be0:	4a38      	ldr	r2, [pc, #224]	@ (8003cc4 <HAL_RCC_OscConfig+0x470>)
 8003be2:	f023 5380 	bic.w	r3, r3, #268435456	@ 0x10000000
 8003be6:	6413      	str	r3, [r2, #64]	@ 0x40
    }
  }
  /*-------------------------------- PLL Configuration -----------------------*/
  /* Check the parameters */
  assert_param(IS_RCC_PLL(RCC_OscInitStruct->PLL.PLLState));
  if ((RCC_OscInitStruct->PLL.PLLState) != RCC_PLL_NONE)
 8003be8:	687b      	ldr	r3, [r7, #4]
 8003bea:	699b      	ldr	r3, [r3, #24]
 8003bec:	2b00      	cmp	r3, #0
 8003bee:	f000 80a1 	beq.w	8003d34 <HAL_RCC_OscConfig+0x4e0>
  {
    /* Check if the PLL is used as system clock or not */
    if (__HAL_RCC_GET_SYSCLK_SOURCE() != RCC_CFGR_SWS_PLL)
 8003bf2:	4b34      	ldr	r3, [pc, #208]	@ (8003cc4 <HAL_RCC_OscConfig+0x470>)
 8003bf4:	689b      	ldr	r3, [r3, #8]
 8003bf6:	f003 030c 	and.w	r3, r3, #12
 8003bfa:	2b08      	cmp	r3, #8
 8003bfc:	d05c      	beq.n	8003cb8 <HAL_RCC_OscConfig+0x464>
    {
      if ((RCC_OscInitStruct->PLL.PLLState) == RCC_PLL_ON)
 8003bfe:	687b      	ldr	r3, [r7, #4]
 8003c00:	699b      	ldr	r3, [r3, #24]
 8003c02:	2b02      	cmp	r3, #2
 8003c04:	d141      	bne.n	8003c8a <HAL_RCC_OscConfig+0x436>
        assert_param(IS_RCC_PLLN_VALUE(RCC_OscInitStruct->PLL.PLLN));
        assert_param(IS_RCC_PLLP_VALUE(RCC_OscInitStruct->PLL.PLLP));
        assert_param(IS_RCC_PLLQ_VALUE(RCC_OscInitStruct->PLL.PLLQ));

        /* Disable the main PLL. */
        __HAL_RCC_PLL_DISABLE();
 8003c06:	4b31      	ldr	r3, [pc, #196]	@ (8003ccc <HAL_RCC_OscConfig+0x478>)
 8003c08:	2200      	movs	r2, #0
 8003c0a:	601a      	str	r2, [r3, #0]

        /* Get Start Tick */
        tickstart = HAL_GetTick();
 8003c0c:	f7fe fa72 	bl	80020f4 <HAL_GetTick>
 8003c10:	6138      	str	r0, [r7, #16]

        /* Wait till PLL is disabled */
        while (__HAL_RCC_GET_FLAG(RCC_FLAG_PLLRDY) != RESET)
 8003c12:	e008      	b.n	8003c26 <HAL_RCC_OscConfig+0x3d2>
        {
          if ((HAL_GetTick() - tickstart) > PLL_TIMEOUT_VALUE)
 8003c14:	f7fe fa6e 	bl	80020f4 <HAL_GetTick>
 8003c18:	4602      	mov	r2, r0
 8003c1a:	693b      	ldr	r3, [r7, #16]
 8003c1c:	1ad3      	subs	r3, r2, r3
 8003c1e:	2b02      	cmp	r3, #2
 8003c20:	d901      	bls.n	8003c26 <HAL_RCC_OscConfig+0x3d2>
          {
            return HAL_TIMEOUT;
 8003c22:	2303      	movs	r3, #3
 8003c24:	e087      	b.n	8003d36 <HAL_RCC_OscConfig+0x4e2>
        while (__HAL_RCC_GET_FLAG(RCC_FLAG_PLLRDY) != RESET)
 8003c26:	4b27      	ldr	r3, [pc, #156]	@ (8003cc4 <HAL_RCC_OscConfig+0x470>)
 8003c28:	681b      	ldr	r3, [r3, #0]
 8003c2a:	f003 7300 	and.w	r3, r3, #33554432	@ 0x2000000
 8003c2e:	2b00      	cmp	r3, #0
 8003c30:	d1f0      	bne.n	8003c14 <HAL_RCC_OscConfig+0x3c0>
          }
        }

        /* Configure the main PLL clock source, multiplication and division factors. */
        WRITE_REG(RCC->PLLCFGR, (RCC_OscInitStruct->PLL.PLLSource                                            | \
 8003c32:	687b      	ldr	r3, [r7, #4]
 8003c34:	69da      	ldr	r2, [r3, #28]
 8003c36:	687b      	ldr	r3, [r7, #4]
 8003c38:	6a1b      	ldr	r3, [r3, #32]
 8003c3a:	431a      	orrs	r2, r3
 8003c3c:	687b      	ldr	r3, [r7, #4]
 8003c3e:	6a5b      	ldr	r3, [r3, #36]	@ 0x24
 8003c40:	019b      	lsls	r3, r3, #6
 8003c42:	431a      	orrs	r2, r3
 8003c44:	687b      	ldr	r3, [r7, #4]
 8003c46:	6a9b      	ldr	r3, [r3, #40]	@ 0x28
 8003c48:	085b      	lsrs	r3, r3, #1
 8003c4a:	3b01      	subs	r3, #1
 8003c4c:	041b      	lsls	r3, r3, #16
 8003c4e:	431a      	orrs	r2, r3
 8003c50:	687b      	ldr	r3, [r7, #4]
 8003c52:	6adb      	ldr	r3, [r3, #44]	@ 0x2c
 8003c54:	061b      	lsls	r3, r3, #24
 8003c56:	491b      	ldr	r1, [pc, #108]	@ (8003cc4 <HAL_RCC_OscConfig+0x470>)
 8003c58:	4313      	orrs	r3, r2
 8003c5a:	604b      	str	r3, [r1, #4]
                                 RCC_OscInitStruct->PLL.PLLM                                                 | \
                                 (RCC_OscInitStruct->PLL.PLLN << RCC_PLLCFGR_PLLN_Pos)             | \
                                 (((RCC_OscInitStruct->PLL.PLLP >> 1U) - 1U) << RCC_PLLCFGR_PLLP_Pos) | \
                                 (RCC_OscInitStruct->PLL.PLLQ << RCC_PLLCFGR_PLLQ_Pos)));
        /* Enable the main PLL. */
        __HAL_RCC_PLL_ENABLE();
 8003c5c:	4b1b      	ldr	r3, [pc, #108]	@ (8003ccc <HAL_RCC_OscConfig+0x478>)
 8003c5e:	2201      	movs	r2, #1
 8003c60:	601a      	str	r2, [r3, #0]

        /* Get Start Tick */
        tickstart = HAL_GetTick();
 8003c62:	f7fe fa47 	bl	80020f4 <HAL_GetTick>
 8003c66:	6138      	str	r0, [r7, #16]

        /* Wait till PLL is ready */
        while (__HAL_RCC_GET_FLAG(RCC_FLAG_PLLRDY) == RESET)
 8003c68:	e008      	b.n	8003c7c <HAL_RCC_OscConfig+0x428>
        {
          if ((HAL_GetTick() - tickstart) > PLL_TIMEOUT_VALUE)
 8003c6a:	f7fe fa43 	bl	80020f4 <HAL_GetTick>
 8003c6e:	4602      	mov	r2, r0
 8003c70:	693b      	ldr	r3, [r7, #16]
 8003c72:	1ad3      	subs	r3, r2, r3
 8003c74:	2b02      	cmp	r3, #2
 8003c76:	d901      	bls.n	8003c7c <HAL_RCC_OscConfig+0x428>
          {
            return HAL_TIMEOUT;
 8003c78:	2303      	movs	r3, #3
 8003c7a:	e05c      	b.n	8003d36 <HAL_RCC_OscConfig+0x4e2>
        while (__HAL_RCC_GET_FLAG(RCC_FLAG_PLLRDY) == RESET)
 8003c7c:	4b11      	ldr	r3, [pc, #68]	@ (8003cc4 <HAL_RCC_OscConfig+0x470>)
 8003c7e:	681b      	ldr	r3, [r3, #0]
 8003c80:	f003 7300 	and.w	r3, r3, #33554432	@ 0x2000000
 8003c84:	2b00      	cmp	r3, #0
 8003c86:	d0f0      	beq.n	8003c6a <HAL_RCC_OscConfig+0x416>
 8003c88:	e054      	b.n	8003d34 <HAL_RCC_OscConfig+0x4e0>
        }
      }
      else
      {
        /* Disable the main PLL. */
        __HAL_RCC_PLL_DISABLE();
 8003c8a:	4b10      	ldr	r3, [pc, #64]	@ (8003ccc <HAL_RCC_OscConfig+0x478>)
 8003c8c:	2200      	movs	r2, #0
 8003c8e:	601a      	str	r2, [r3, #0]

        /* Get Start Tick */
        tickstart = HAL_GetTick();
 8003c90:	f7fe fa30 	bl	80020f4 <HAL_GetTick>
 8003c94:	6138      	str	r0, [r7, #16]

        /* Wait till PLL is disabled */
        while (__HAL_RCC_GET_FLAG(RCC_FLAG_PLLRDY) != RESET)
 8003c96:	e008      	b.n	8003caa <HAL_RCC_OscConfig+0x456>
        {
          if ((HAL_GetTick() - tickstart) > PLL_TIMEOUT_VALUE)
 8003c98:	f7fe fa2c 	bl	80020f4 <HAL_GetTick>
 8003c9c:	4602      	mov	r2, r0
 8003c9e:	693b      	ldr	r3, [r7, #16]
 8003ca0:	1ad3      	subs	r3, r2, r3
 8003ca2:	2b02      	cmp	r3, #2
 8003ca4:	d901      	bls.n	8003caa <HAL_RCC_OscConfig+0x456>
          {
            return HAL_TIMEOUT;
 8003ca6:	2303      	movs	r3, #3
 8003ca8:	e045      	b.n	8003d36 <HAL_RCC_OscConfig+0x4e2>
        while (__HAL_RCC_GET_FLAG(RCC_FLAG_PLLRDY) != RESET)
 8003caa:	4b06      	ldr	r3, [pc, #24]	@ (8003cc4 <HAL_RCC_OscConfig+0x470>)
 8003cac:	681b      	ldr	r3, [r3, #0]
 8003cae:	f003 7300 	and.w	r3, r3, #33554432	@ 0x2000000
 8003cb2:	2b00      	cmp	r3, #0
 8003cb4:	d1f0      	bne.n	8003c98 <HAL_RCC_OscConfig+0x444>
 8003cb6:	e03d      	b.n	8003d34 <HAL_RCC_OscConfig+0x4e0>
      }
    }
    else
    {
      /* Check if there is a request to disable the PLL used as System clock source */
      if ((RCC_OscInitStruct->PLL.PLLState) == RCC_PLL_OFF)
 8003cb8:	687b      	ldr	r3, [r7, #4]
 8003cba:	699b      	ldr	r3, [r3, #24]
 8003cbc:	2b01      	cmp	r3, #1
 8003cbe:	d107      	bne.n	8003cd0 <HAL_RCC_OscConfig+0x47c>
      {
        return HAL_ERROR;
 8003cc0:	2301      	movs	r3, #1
 8003cc2:	e038      	b.n	8003d36 <HAL_RCC_OscConfig+0x4e2>
 8003cc4:	40023800 	.word	0x40023800
 8003cc8:	40007000 	.word	0x40007000
 8003ccc:	42470060 	.word	0x42470060
      }
      else
      {
        /* Do not return HAL_ERROR if request repeats the current configuration */
        pll_config = RCC->PLLCFGR;
 8003cd0:	4b1b      	ldr	r3, [pc, #108]	@ (8003d40 <HAL_RCC_OscConfig+0x4ec>)
 8003cd2:	685b      	ldr	r3, [r3, #4]
 8003cd4:	60fb      	str	r3, [r7, #12]
            (READ_BIT(pll_config, RCC_PLLCFGR_PLLN) != (RCC_OscInitStruct->PLL.PLLN) << RCC_PLLCFGR_PLLN_Pos) ||
            (READ_BIT(pll_config, RCC_PLLCFGR_PLLP) != (((RCC_OscInitStruct->PLL.PLLP >> 1U) - 1U)) << RCC_PLLCFGR_PLLP_Pos) ||
            (READ_BIT(pll_config, RCC_PLLCFGR_PLLQ) != (RCC_OscInitStruct->PLL.PLLQ << RCC_PLLCFGR_PLLQ_Pos)) ||
            (READ_BIT(pll_config, RCC_PLLCFGR_PLLR) != (RCC_OscInitStruct->PLL.PLLR << RCC_PLLCFGR_PLLR_Pos)))
#else
        if (((RCC_OscInitStruct->PLL.PLLState) == RCC_PLL_OFF) ||
 8003cd6:	687b      	ldr	r3, [r7, #4]
 8003cd8:	699b      	ldr	r3, [r3, #24]
 8003cda:	2b01      	cmp	r3, #1
 8003cdc:	d028      	beq.n	8003d30 <HAL_RCC_OscConfig+0x4dc>
            (READ_BIT(pll_config, RCC_PLLCFGR_PLLSRC) != RCC_OscInitStruct->PLL.PLLSource) ||
 8003cde:	68fb      	ldr	r3, [r7, #12]
 8003ce0:	f403 0280 	and.w	r2, r3, #4194304	@ 0x400000
 8003ce4:	687b      	ldr	r3, [r7, #4]
 8003ce6:	69db      	ldr	r3, [r3, #28]
        if (((RCC_OscInitStruct->PLL.PLLState) == RCC_PLL_OFF) ||
 8003ce8:	429a      	cmp	r2, r3
 8003cea:	d121      	bne.n	8003d30 <HAL_RCC_OscConfig+0x4dc>
            (READ_BIT(pll_config, RCC_PLLCFGR_PLLM) != (RCC_OscInitStruct->PLL.PLLM) << RCC_PLLCFGR_PLLM_Pos) ||
 8003cec:	68fb      	ldr	r3, [r7, #12]
 8003cee:	f003 023f 	and.w	r2, r3, #63	@ 0x3f
 8003cf2:	687b      	ldr	r3, [r7, #4]
 8003cf4:	6a1b      	ldr	r3, [r3, #32]
            (READ_BIT(pll_config, RCC_PLLCFGR_PLLSRC) != RCC_OscInitStruct->PLL.PLLSource) ||
 8003cf6:	429a      	cmp	r2, r3
 8003cf8:	d11a      	bne.n	8003d30 <HAL_RCC_OscConfig+0x4dc>
            (READ_BIT(pll_config, RCC_PLLCFGR_PLLN) != (RCC_OscInitStruct->PLL.PLLN) << RCC_PLLCFGR_PLLN_Pos) ||
 8003cfa:	68fa      	ldr	r2, [r7, #12]
 8003cfc:	f647 73c0 	movw	r3, #32704	@ 0x7fc0
 8003d00:	4013      	ands	r3, r2
 8003d02:	687a      	ldr	r2, [r7, #4]
 8003d04:	6a52      	ldr	r2, [r2, #36]	@ 0x24
 8003d06:	0192      	lsls	r2, r2, #6
            (READ_BIT(pll_config, RCC_PLLCFGR_PLLM) != (RCC_OscInitStruct->PLL.PLLM) << RCC_PLLCFGR_PLLM_Pos) ||
 8003d08:	4293      	cmp	r3, r2
 8003d0a:	d111      	bne.n	8003d30 <HAL_RCC_OscConfig+0x4dc>
            (READ_BIT(pll_config, RCC_PLLCFGR_PLLP) != (((RCC_OscInitStruct->PLL.PLLP >> 1U) - 1U)) << RCC_PLLCFGR_PLLP_Pos) ||
 8003d0c:	68fb      	ldr	r3, [r7, #12]
 8003d0e:	f403 3240 	and.w	r2, r3, #196608	@ 0x30000
 8003d12:	687b      	ldr	r3, [r7, #4]
 8003d14:	6a9b      	ldr	r3, [r3, #40]	@ 0x28
 8003d16:	085b      	lsrs	r3, r3, #1
 8003d18:	3b01      	subs	r3, #1
 8003d1a:	041b      	lsls	r3, r3, #16
            (READ_BIT(pll_config, RCC_PLLCFGR_PLLN) != (RCC_OscInitStruct->PLL.PLLN) << RCC_PLLCFGR_PLLN_Pos) ||
 8003d1c:	429a      	cmp	r2, r3
 8003d1e:	d107      	bne.n	8003d30 <HAL_RCC_OscConfig+0x4dc>
            (READ_BIT(pll_config, RCC_PLLCFGR_PLLQ) != (RCC_OscInitStruct->PLL.PLLQ << RCC_PLLCFGR_PLLQ_Pos)))
 8003d20:	68fb      	ldr	r3, [r7, #12]
 8003d22:	f003 6270 	and.w	r2, r3, #251658240	@ 0xf000000
 8003d26:	687b      	ldr	r3, [r7, #4]
 8003d28:	6adb      	ldr	r3, [r3, #44]	@ 0x2c
 8003d2a:	061b      	lsls	r3, r3, #24
            (READ_BIT(pll_config, RCC_PLLCFGR_PLLP) != (((RCC_OscInitStruct->PLL.PLLP >> 1U) - 1U)) << RCC_PLLCFGR_PLLP_Pos) ||
 8003d2c:	429a      	cmp	r2, r3
 8003d2e:	d001      	beq.n	8003d34 <HAL_RCC_OscConfig+0x4e0>
#endif /* RCC_PLLCFGR_PLLR */
        {
          return HAL_ERROR;
 8003d30:	2301      	movs	r3, #1
 8003d32:	e000      	b.n	8003d36 <HAL_RCC_OscConfig+0x4e2>
        }
      }
    }
  }
  return HAL_OK;
 8003d34:	2300      	movs	r3, #0
}
 8003d36:	4618      	mov	r0, r3
 8003d38:	3718      	adds	r7, #24
 8003d3a:	46bd      	mov	sp, r7
 8003d3c:	bd80      	pop	{r7, pc}
 8003d3e:	bf00      	nop
 8003d40:	40023800 	.word	0x40023800

08003d44 <HAL_RCC_ClockConfig>:
  *         HPRE[3:0] bits to ensure that HCLK not exceed the maximum allowed frequency
  *         (for more details refer to section above "Initialization/de-initialization functions")
  * @retval None
  */
HAL_StatusTypeDef HAL_RCC_ClockConfig(const RCC_ClkInitTypeDef  *RCC_ClkInitStruct, uint32_t FLatency)
{
 8003d44:	b580      	push	{r7, lr}
 8003d46:	b084      	sub	sp, #16
 8003d48:	af00      	add	r7, sp, #0
 8003d4a:	6078      	str	r0, [r7, #4]
 8003d4c:	6039      	str	r1, [r7, #0]
  uint32_t tickstart;

  /* Check Null pointer */
  if (RCC_ClkInitStruct == NULL)
 8003d4e:	687b      	ldr	r3, [r7, #4]
 8003d50:	2b00      	cmp	r3, #0
 8003d52:	d101      	bne.n	8003d58 <HAL_RCC_ClockConfig+0x14>
  {
    return HAL_ERROR;
 8003d54:	2301      	movs	r3, #1
 8003d56:	e0cc      	b.n	8003ef2 <HAL_RCC_ClockConfig+0x1ae>
  /* To correctly read data from FLASH memory, the number of wait states (LATENCY)
    must be correctly programmed according to the frequency of the CPU clock
    (HCLK) and the supply voltage of the device. */

  /* Increasing the number of wait states because of higher CPU frequency */
  if (FLatency > __HAL_FLASH_GET_LATENCY())
 8003d58:	4b68      	ldr	r3, [pc, #416]	@ (8003efc <HAL_RCC_ClockConfig+0x1b8>)
 8003d5a:	681b      	ldr	r3, [r3, #0]
 8003d5c:	f003 0307 	and.w	r3, r3, #7
 8003d60:	683a      	ldr	r2, [r7, #0]
 8003d62:	429a      	cmp	r2, r3
 8003d64:	d90c      	bls.n	8003d80 <HAL_RCC_ClockConfig+0x3c>
  {
    /* Program the new number of wait states to the LATENCY bits in the FLASH_ACR register */
    __HAL_FLASH_SET_LATENCY(FLatency);
 8003d66:	4b65      	ldr	r3, [pc, #404]	@ (8003efc <HAL_RCC_ClockConfig+0x1b8>)
 8003d68:	683a      	ldr	r2, [r7, #0]
 8003d6a:	b2d2      	uxtb	r2, r2
 8003d6c:	701a      	strb	r2, [r3, #0]

    /* Check that the new number of wait states is taken into account to access the Flash
    memory by reading the FLASH_ACR register */
    if (__HAL_FLASH_GET_LATENCY() != FLatency)
 8003d6e:	4b63      	ldr	r3, [pc, #396]	@ (8003efc <HAL_RCC_ClockConfig+0x1b8>)
 8003d70:	681b      	ldr	r3, [r3, #0]
 8003d72:	f003 0307 	and.w	r3, r3, #7
 8003d76:	683a      	ldr	r2, [r7, #0]
 8003d78:	429a      	cmp	r2, r3
 8003d7a:	d001      	beq.n	8003d80 <HAL_RCC_ClockConfig+0x3c>
    {
      return HAL_ERROR;
 8003d7c:	2301      	movs	r3, #1
 8003d7e:	e0b8      	b.n	8003ef2 <HAL_RCC_ClockConfig+0x1ae>
    }
  }

  /*-------------------------- HCLK Configuration --------------------------*/
  if (((RCC_ClkInitStruct->ClockType) & RCC_CLOCKTYPE_HCLK) == RCC_CLOCKTYPE_HCLK)
 8003d80:	687b      	ldr	r3, [r7, #4]
 8003d82:	681b      	ldr	r3, [r3, #0]
 8003d84:	f003 0302 	and.w	r3, r3, #2
 8003d88:	2b00      	cmp	r3, #0
 8003d8a:	d020      	beq.n	8003dce <HAL_RCC_ClockConfig+0x8a>
  {
    /* Set the highest APBx dividers in order to ensure that we do not go through
       a non-spec phase whatever we decrease or increase HCLK. */
    if (((RCC_ClkInitStruct->ClockType) & RCC_CLOCKTYPE_PCLK1) == RCC_CLOCKTYPE_PCLK1)
 8003d8c:	687b      	ldr	r3, [r7, #4]
 8003d8e:	681b      	ldr	r3, [r3, #0]
 8003d90:	f003 0304 	and.w	r3, r3, #4
 8003d94:	2b00      	cmp	r3, #0
 8003d96:	d005      	beq.n	8003da4 <HAL_RCC_ClockConfig+0x60>
    {
      MODIFY_REG(RCC->CFGR, RCC_CFGR_PPRE1, RCC_HCLK_DIV16);
 8003d98:	4b59      	ldr	r3, [pc, #356]	@ (8003f00 <HAL_RCC_ClockConfig+0x1bc>)
 8003d9a:	689b      	ldr	r3, [r3, #8]
 8003d9c:	4a58      	ldr	r2, [pc, #352]	@ (8003f00 <HAL_RCC_ClockConfig+0x1bc>)
 8003d9e:	f443 53e0 	orr.w	r3, r3, #7168	@ 0x1c00
 8003da2:	6093      	str	r3, [r2, #8]
    }

    if (((RCC_ClkInitStruct->ClockType) & RCC_CLOCKTYPE_PCLK2) == RCC_CLOCKTYPE_PCLK2)
 8003da4:	687b      	ldr	r3, [r7, #4]
 8003da6:	681b      	ldr	r3, [r3, #0]
 8003da8:	f003 0308 	and.w	r3, r3, #8
 8003dac:	2b00      	cmp	r3, #0
 8003dae:	d005      	beq.n	8003dbc <HAL_RCC_ClockConfig+0x78>
    {
      MODIFY_REG(RCC->CFGR, RCC_CFGR_PPRE2, (RCC_HCLK_DIV16 << 3));
 8003db0:	4b53      	ldr	r3, [pc, #332]	@ (8003f00 <HAL_RCC_ClockConfig+0x1bc>)
 8003db2:	689b      	ldr	r3, [r3, #8]
 8003db4:	4a52      	ldr	r2, [pc, #328]	@ (8003f00 <HAL_RCC_ClockConfig+0x1bc>)
 8003db6:	f443 4360 	orr.w	r3, r3, #57344	@ 0xe000
 8003dba:	6093      	str	r3, [r2, #8]
    }

    assert_param(IS_RCC_HCLK(RCC_ClkInitStruct->AHBCLKDivider));
    MODIFY_REG(RCC->CFGR, RCC_CFGR_HPRE, RCC_ClkInitStruct->AHBCLKDivider);
 8003dbc:	4b50      	ldr	r3, [pc, #320]	@ (8003f00 <HAL_RCC_ClockConfig+0x1bc>)
 8003dbe:	689b      	ldr	r3, [r3, #8]
 8003dc0:	f023 02f0 	bic.w	r2, r3, #240	@ 0xf0
 8003dc4:	687b      	ldr	r3, [r7, #4]
 8003dc6:	689b      	ldr	r3, [r3, #8]
 8003dc8:	494d      	ldr	r1, [pc, #308]	@ (8003f00 <HAL_RCC_ClockConfig+0x1bc>)
 8003dca:	4313      	orrs	r3, r2
 8003dcc:	608b      	str	r3, [r1, #8]
  }

  /*------------------------- SYSCLK Configuration ---------------------------*/
  if (((RCC_ClkInitStruct->ClockType) & RCC_CLOCKTYPE_SYSCLK) == RCC_CLOCKTYPE_SYSCLK)
 8003dce:	687b      	ldr	r3, [r7, #4]
 8003dd0:	681b      	ldr	r3, [r3, #0]
 8003dd2:	f003 0301 	and.w	r3, r3, #1
 8003dd6:	2b00      	cmp	r3, #0
 8003dd8:	d044      	beq.n	8003e64 <HAL_RCC_ClockConfig+0x120>
  {
    assert_param(IS_RCC_SYSCLKSOURCE(RCC_ClkInitStruct->SYSCLKSource));

    /* HSE is selected as System Clock Source */
    if (RCC_ClkInitStruct->SYSCLKSource == RCC_SYSCLKSOURCE_HSE)
 8003dda:	687b      	ldr	r3, [r7, #4]
 8003ddc:	685b      	ldr	r3, [r3, #4]
 8003dde:	2b01      	cmp	r3, #1
 8003de0:	d107      	bne.n	8003df2 <HAL_RCC_ClockConfig+0xae>
    {
      /* Check the HSE ready flag */
      if (__HAL_RCC_GET_FLAG(RCC_FLAG_HSERDY) == RESET)
 8003de2:	4b47      	ldr	r3, [pc, #284]	@ (8003f00 <HAL_RCC_ClockConfig+0x1bc>)
 8003de4:	681b      	ldr	r3, [r3, #0]
 8003de6:	f403 3300 	and.w	r3, r3, #131072	@ 0x20000
 8003dea:	2b00      	cmp	r3, #0
 8003dec:	d119      	bne.n	8003e22 <HAL_RCC_ClockConfig+0xde>
      {
        return HAL_ERROR;
 8003dee:	2301      	movs	r3, #1
 8003df0:	e07f      	b.n	8003ef2 <HAL_RCC_ClockConfig+0x1ae>
      }
    }
    /* PLL is selected as System Clock Source */
    else if ((RCC_ClkInitStruct->SYSCLKSource == RCC_SYSCLKSOURCE_PLLCLK)   ||
 8003df2:	687b      	ldr	r3, [r7, #4]
 8003df4:	685b      	ldr	r3, [r3, #4]
 8003df6:	2b02      	cmp	r3, #2
 8003df8:	d003      	beq.n	8003e02 <HAL_RCC_ClockConfig+0xbe>
             (RCC_ClkInitStruct->SYSCLKSource == RCC_SYSCLKSOURCE_PLLRCLK))
 8003dfa:	687b      	ldr	r3, [r7, #4]
 8003dfc:	685b      	ldr	r3, [r3, #4]
    else if ((RCC_ClkInitStruct->SYSCLKSource == RCC_SYSCLKSOURCE_PLLCLK)   ||
 8003dfe:	2b03      	cmp	r3, #3
 8003e00:	d107      	bne.n	8003e12 <HAL_RCC_ClockConfig+0xce>
    {
      /* Check the PLL ready flag */
      if (__HAL_RCC_GET_FLAG(RCC_FLAG_PLLRDY) == RESET)
 8003e02:	4b3f      	ldr	r3, [pc, #252]	@ (8003f00 <HAL_RCC_ClockConfig+0x1bc>)
 8003e04:	681b      	ldr	r3, [r3, #0]
 8003e06:	f003 7300 	and.w	r3, r3, #33554432	@ 0x2000000
 8003e0a:	2b00      	cmp	r3, #0
 8003e0c:	d109      	bne.n	8003e22 <HAL_RCC_ClockConfig+0xde>
      {
        return HAL_ERROR;
 8003e0e:	2301      	movs	r3, #1
 8003e10:	e06f      	b.n	8003ef2 <HAL_RCC_ClockConfig+0x1ae>
    }
    /* HSI is selected as System Clock Source */
    else
    {
      /* Check the HSI ready flag */
      if (__HAL_RCC_GET_FLAG(RCC_FLAG_HSIRDY) == RESET)
 8003e12:	4b3b      	ldr	r3, [pc, #236]	@ (8003f00 <HAL_RCC_ClockConfig+0x1bc>)
 8003e14:	681b      	ldr	r3, [r3, #0]
 8003e16:	f003 0302 	and.w	r3, r3, #2
 8003e1a:	2b00      	cmp	r3, #0
 8003e1c:	d101      	bne.n	8003e22 <HAL_RCC_ClockConfig+0xde>
      {
        return HAL_ERROR;
 8003e1e:	2301      	movs	r3, #1
 8003e20:	e067      	b.n	8003ef2 <HAL_RCC_ClockConfig+0x1ae>
      }
    }

    __HAL_RCC_SYSCLK_CONFIG(RCC_ClkInitStruct->SYSCLKSource);
 8003e22:	4b37      	ldr	r3, [pc, #220]	@ (8003f00 <HAL_RCC_ClockConfig+0x1bc>)
 8003e24:	689b      	ldr	r3, [r3, #8]
 8003e26:	f023 0203 	bic.w	r2, r3, #3
 8003e2a:	687b      	ldr	r3, [r7, #4]
 8003e2c:	685b      	ldr	r3, [r3, #4]
 8003e2e:	4934      	ldr	r1, [pc, #208]	@ (8003f00 <HAL_RCC_ClockConfig+0x1bc>)
 8003e30:	4313      	orrs	r3, r2
 8003e32:	608b      	str	r3, [r1, #8]

    /* Get Start Tick */
    tickstart = HAL_GetTick();
 8003e34:	f7fe f95e 	bl	80020f4 <HAL_GetTick>
 8003e38:	60f8      	str	r0, [r7, #12]

    while (__HAL_RCC_GET_SYSCLK_SOURCE() != (RCC_ClkInitStruct->SYSCLKSource << RCC_CFGR_SWS_Pos))
 8003e3a:	e00a      	b.n	8003e52 <HAL_RCC_ClockConfig+0x10e>
    {
      if ((HAL_GetTick() - tickstart) > CLOCKSWITCH_TIMEOUT_VALUE)
 8003e3c:	f7fe f95a 	bl	80020f4 <HAL_GetTick>
 8003e40:	4602      	mov	r2, r0
 8003e42:	68fb      	ldr	r3, [r7, #12]
 8003e44:	1ad3      	subs	r3, r2, r3
 8003e46:	f241 3288 	movw	r2, #5000	@ 0x1388
 8003e4a:	4293      	cmp	r3, r2
 8003e4c:	d901      	bls.n	8003e52 <HAL_RCC_ClockConfig+0x10e>
      {
        return HAL_TIMEOUT;
 8003e4e:	2303      	movs	r3, #3
 8003e50:	e04f      	b.n	8003ef2 <HAL_RCC_ClockConfig+0x1ae>
    while (__HAL_RCC_GET_SYSCLK_SOURCE() != (RCC_ClkInitStruct->SYSCLKSource << RCC_CFGR_SWS_Pos))
 8003e52:	4b2b      	ldr	r3, [pc, #172]	@ (8003f00 <HAL_RCC_ClockConfig+0x1bc>)
 8003e54:	689b      	ldr	r3, [r3, #8]
 8003e56:	f003 020c 	and.w	r2, r3, #12
 8003e5a:	687b      	ldr	r3, [r7, #4]
 8003e5c:	685b      	ldr	r3, [r3, #4]
 8003e5e:	009b      	lsls	r3, r3, #2
 8003e60:	429a      	cmp	r2, r3
 8003e62:	d1eb      	bne.n	8003e3c <HAL_RCC_ClockConfig+0xf8>
      }
    }
  }

  /* Decreasing the number of wait states because of lower CPU frequency */
  if (FLatency < __HAL_FLASH_GET_LATENCY())
 8003e64:	4b25      	ldr	r3, [pc, #148]	@ (8003efc <HAL_RCC_ClockConfig+0x1b8>)
 8003e66:	681b      	ldr	r3, [r3, #0]
 8003e68:	f003 0307 	and.w	r3, r3, #7
 8003e6c:	683a      	ldr	r2, [r7, #0]
 8003e6e:	429a      	cmp	r2, r3
 8003e70:	d20c      	bcs.n	8003e8c <HAL_RCC_ClockConfig+0x148>
  {
    /* Program the new number of wait states to the LATENCY bits in the FLASH_ACR register */
    __HAL_FLASH_SET_LATENCY(FLatency);
 8003e72:	4b22      	ldr	r3, [pc, #136]	@ (8003efc <HAL_RCC_ClockConfig+0x1b8>)
 8003e74:	683a      	ldr	r2, [r7, #0]
 8003e76:	b2d2      	uxtb	r2, r2
 8003e78:	701a      	strb	r2, [r3, #0]

    /* Check that the new number of wait states is taken into account to access the Flash
    memory by reading the FLASH_ACR register */
    if (__HAL_FLASH_GET_LATENCY() != FLatency)
 8003e7a:	4b20      	ldr	r3, [pc, #128]	@ (8003efc <HAL_RCC_ClockConfig+0x1b8>)
 8003e7c:	681b      	ldr	r3, [r3, #0]
 8003e7e:	f003 0307 	and.w	r3, r3, #7
 8003e82:	683a      	ldr	r2, [r7, #0]
 8003e84:	429a      	cmp	r2, r3
 8003e86:	d001      	beq.n	8003e8c <HAL_RCC_ClockConfig+0x148>
    {
      return HAL_ERROR;
 8003e88:	2301      	movs	r3, #1
 8003e8a:	e032      	b.n	8003ef2 <HAL_RCC_ClockConfig+0x1ae>
    }
  }

  /*-------------------------- PCLK1 Configuration ---------------------------*/
  if (((RCC_ClkInitStruct->ClockType) & RCC_CLOCKTYPE_PCLK1) == RCC_CLOCKTYPE_PCLK1)
 8003e8c:	687b      	ldr	r3, [r7, #4]
 8003e8e:	681b      	ldr	r3, [r3, #0]
 8003e90:	f003 0304 	and.w	r3, r3, #4
 8003e94:	2b00      	cmp	r3, #0
 8003e96:	d008      	beq.n	8003eaa <HAL_RCC_ClockConfig+0x166>
  {
    assert_param(IS_RCC_PCLK(RCC_ClkInitStruct->APB1CLKDivider));
    MODIFY_REG(RCC->CFGR, RCC_CFGR_PPRE1, RCC_ClkInitStruct->APB1CLKDivider);
 8003e98:	4b19      	ldr	r3, [pc, #100]	@ (8003f00 <HAL_RCC_ClockConfig+0x1bc>)
 8003e9a:	689b      	ldr	r3, [r3, #8]
 8003e9c:	f423 52e0 	bic.w	r2, r3, #7168	@ 0x1c00
 8003ea0:	687b      	ldr	r3, [r7, #4]
 8003ea2:	68db      	ldr	r3, [r3, #12]
 8003ea4:	4916      	ldr	r1, [pc, #88]	@ (8003f00 <HAL_RCC_ClockConfig+0x1bc>)
 8003ea6:	4313      	orrs	r3, r2
 8003ea8:	608b      	str	r3, [r1, #8]
  }

  /*-------------------------- PCLK2 Configuration ---------------------------*/
  if (((RCC_ClkInitStruct->ClockType) & RCC_CLOCKTYPE_PCLK2) == RCC_CLOCKTYPE_PCLK2)
 8003eaa:	687b      	ldr	r3, [r7, #4]
 8003eac:	681b      	ldr	r3, [r3, #0]
 8003eae:	f003 0308 	and.w	r3, r3, #8
 8003eb2:	2b00      	cmp	r3, #0
 8003eb4:	d009      	beq.n	8003eca <HAL_RCC_ClockConfig+0x186>
  {
    assert_param(IS_RCC_PCLK(RCC_ClkInitStruct->APB2CLKDivider));
    MODIFY_REG(RCC->CFGR, RCC_CFGR_PPRE2, ((RCC_ClkInitStruct->APB2CLKDivider) << 3U));
 8003eb6:	4b12      	ldr	r3, [pc, #72]	@ (8003f00 <HAL_RCC_ClockConfig+0x1bc>)
 8003eb8:	689b      	ldr	r3, [r3, #8]
 8003eba:	f423 4260 	bic.w	r2, r3, #57344	@ 0xe000
 8003ebe:	687b      	ldr	r3, [r7, #4]
 8003ec0:	691b      	ldr	r3, [r3, #16]
 8003ec2:	00db      	lsls	r3, r3, #3
 8003ec4:	490e      	ldr	r1, [pc, #56]	@ (8003f00 <HAL_RCC_ClockConfig+0x1bc>)
 8003ec6:	4313      	orrs	r3, r2
 8003ec8:	608b      	str	r3, [r1, #8]
  }

  /* Update the SystemCoreClock global variable */
  SystemCoreClock = HAL_RCC_GetSysClockFreq() >> AHBPrescTable[(RCC->CFGR & RCC_CFGR_HPRE) >> RCC_CFGR_HPRE_Pos];
 8003eca:	f000 f821 	bl	8003f10 <HAL_RCC_GetSysClockFreq>
 8003ece:	4602      	mov	r2, r0
 8003ed0:	4b0b      	ldr	r3, [pc, #44]	@ (8003f00 <HAL_RCC_ClockConfig+0x1bc>)
 8003ed2:	689b      	ldr	r3, [r3, #8]
 8003ed4:	091b      	lsrs	r3, r3, #4
 8003ed6:	f003 030f 	and.w	r3, r3, #15
 8003eda:	490a      	ldr	r1, [pc, #40]	@ (8003f04 <HAL_RCC_ClockConfig+0x1c0>)
 8003edc:	5ccb      	ldrb	r3, [r1, r3]
 8003ede:	fa22 f303 	lsr.w	r3, r2, r3
 8003ee2:	4a09      	ldr	r2, [pc, #36]	@ (8003f08 <HAL_RCC_ClockConfig+0x1c4>)
 8003ee4:	6013      	str	r3, [r2, #0]

  /* Configure the source of time base considering new system clocks settings */
  HAL_InitTick(uwTickPrio);
 8003ee6:	4b09      	ldr	r3, [pc, #36]	@ (8003f0c <HAL_RCC_ClockConfig+0x1c8>)
 8003ee8:	681b      	ldr	r3, [r3, #0]
 8003eea:	4618      	mov	r0, r3
 8003eec:	f7fe f8be 	bl	800206c <HAL_InitTick>

  return HAL_OK;
 8003ef0:	2300      	movs	r3, #0
}
 8003ef2:	4618      	mov	r0, r3
 8003ef4:	3710      	adds	r7, #16
 8003ef6:	46bd      	mov	sp, r7
 8003ef8:	bd80      	pop	{r7, pc}
 8003efa:	bf00      	nop
 8003efc:	40023c00 	.word	0x40023c00
 8003f00:	40023800 	.word	0x40023800
 8003f04:	08009348 	.word	0x08009348
 8003f08:	20000004 	.word	0x20000004
 8003f0c:	20000008 	.word	0x20000008

08003f10 <HAL_RCC_GetSysClockFreq>:
  *
  *
  * @retval SYSCLK frequency
  */
__weak uint32_t HAL_RCC_GetSysClockFreq(void)
{
 8003f10:	e92d 4fb0 	stmdb	sp!, {r4, r5, r7, r8, r9, sl, fp, lr}
 8003f14:	b090      	sub	sp, #64	@ 0x40
 8003f16:	af00      	add	r7, sp, #0
  uint32_t pllm = 0U;
 8003f18:	2300      	movs	r3, #0
 8003f1a:	637b      	str	r3, [r7, #52]	@ 0x34
  uint32_t pllvco = 0U;
 8003f1c:	2300      	movs	r3, #0
 8003f1e:	63fb      	str	r3, [r7, #60]	@ 0x3c
  uint32_t pllp = 0U;
 8003f20:	2300      	movs	r3, #0
 8003f22:	633b      	str	r3, [r7, #48]	@ 0x30
  uint32_t sysclockfreq = 0U;
 8003f24:	2300      	movs	r3, #0
 8003f26:	63bb      	str	r3, [r7, #56]	@ 0x38

  /* Get SYSCLK source -------------------------------------------------------*/
  switch (RCC->CFGR & RCC_CFGR_SWS)
 8003f28:	4b59      	ldr	r3, [pc, #356]	@ (8004090 <HAL_RCC_GetSysClockFreq+0x180>)
 8003f2a:	689b      	ldr	r3, [r3, #8]
 8003f2c:	f003 030c 	and.w	r3, r3, #12
 8003f30:	2b08      	cmp	r3, #8
 8003f32:	d00d      	beq.n	8003f50 <HAL_RCC_GetSysClockFreq+0x40>
 8003f34:	2b08      	cmp	r3, #8
 8003f36:	f200 80a1 	bhi.w	800407c <HAL_RCC_GetSysClockFreq+0x16c>
 8003f3a:	2b00      	cmp	r3, #0
 8003f3c:	d002      	beq.n	8003f44 <HAL_RCC_GetSysClockFreq+0x34>
 8003f3e:	2b04      	cmp	r3, #4
 8003f40:	d003      	beq.n	8003f4a <HAL_RCC_GetSysClockFreq+0x3a>
 8003f42:	e09b      	b.n	800407c <HAL_RCC_GetSysClockFreq+0x16c>
  {
    case RCC_CFGR_SWS_HSI:  /* HSI used as system clock source */
    {
      sysclockfreq = HSI_VALUE;
 8003f44:	4b53      	ldr	r3, [pc, #332]	@ (8004094 <HAL_RCC_GetSysClockFreq+0x184>)
 8003f46:	63bb      	str	r3, [r7, #56]	@ 0x38
      break;
 8003f48:	e09b      	b.n	8004082 <HAL_RCC_GetSysClockFreq+0x172>
    }
    case RCC_CFGR_SWS_HSE:  /* HSE used as system clock  source */
    {
      sysclockfreq = HSE_VALUE;
 8003f4a:	4b53      	ldr	r3, [pc, #332]	@ (8004098 <HAL_RCC_GetSysClockFreq+0x188>)
 8003f4c:	63bb      	str	r3, [r7, #56]	@ 0x38
      break;
 8003f4e:	e098      	b.n	8004082 <HAL_RCC_GetSysClockFreq+0x172>
    }
    case RCC_CFGR_SWS_PLL:  /* PLL used as system clock  source */
    {
      /* PLL_VCO = (HSE_VALUE or HSI_VALUE / PLLM) * PLLN
      SYSCLK = PLL_VCO / PLLP */
      pllm = RCC->PLLCFGR & RCC_PLLCFGR_PLLM;
 8003f50:	4b4f      	ldr	r3, [pc, #316]	@ (8004090 <HAL_RCC_GetSysClockFreq+0x180>)
 8003f52:	685b      	ldr	r3, [r3, #4]
 8003f54:	f003 033f 	and.w	r3, r3, #63	@ 0x3f
 8003f58:	637b      	str	r3, [r7, #52]	@ 0x34
      if (__HAL_RCC_GET_PLL_OSCSOURCE() != RCC_PLLSOURCE_HSI)
 8003f5a:	4b4d      	ldr	r3, [pc, #308]	@ (8004090 <HAL_RCC_GetSysClockFreq+0x180>)
 8003f5c:	685b      	ldr	r3, [r3, #4]
 8003f5e:	f403 0380 	and.w	r3, r3, #4194304	@ 0x400000
 8003f62:	2b00      	cmp	r3, #0
 8003f64:	d028      	beq.n	8003fb8 <HAL_RCC_GetSysClockFreq+0xa8>
      {
        /* HSE used as PLL clock source */
        pllvco = (uint32_t)((((uint64_t) HSE_VALUE * ((uint64_t)((RCC->PLLCFGR & RCC_PLLCFGR_PLLN) >> RCC_PLLCFGR_PLLN_Pos)))) / (uint64_t)pllm);
 8003f66:	4b4a      	ldr	r3, [pc, #296]	@ (8004090 <HAL_RCC_GetSysClockFreq+0x180>)
 8003f68:	685b      	ldr	r3, [r3, #4]
 8003f6a:	099b      	lsrs	r3, r3, #6
 8003f6c:	2200      	movs	r2, #0
 8003f6e:	623b      	str	r3, [r7, #32]
 8003f70:	627a      	str	r2, [r7, #36]	@ 0x24
 8003f72:	6a3b      	ldr	r3, [r7, #32]
 8003f74:	f3c3 0008 	ubfx	r0, r3, #0, #9
 8003f78:	2100      	movs	r1, #0
 8003f7a:	4b47      	ldr	r3, [pc, #284]	@ (8004098 <HAL_RCC_GetSysClockFreq+0x188>)
 8003f7c:	fb03 f201 	mul.w	r2, r3, r1
 8003f80:	2300      	movs	r3, #0
 8003f82:	fb00 f303 	mul.w	r3, r0, r3
 8003f86:	4413      	add	r3, r2
 8003f88:	4a43      	ldr	r2, [pc, #268]	@ (8004098 <HAL_RCC_GetSysClockFreq+0x188>)
 8003f8a:	fba0 1202 	umull	r1, r2, r0, r2
 8003f8e:	62fa      	str	r2, [r7, #44]	@ 0x2c
 8003f90:	460a      	mov	r2, r1
 8003f92:	62ba      	str	r2, [r7, #40]	@ 0x28
 8003f94:	6afa      	ldr	r2, [r7, #44]	@ 0x2c
 8003f96:	4413      	add	r3, r2
 8003f98:	62fb      	str	r3, [r7, #44]	@ 0x2c
 8003f9a:	6b7b      	ldr	r3, [r7, #52]	@ 0x34
 8003f9c:	2200      	movs	r2, #0
 8003f9e:	61bb      	str	r3, [r7, #24]
 8003fa0:	61fa      	str	r2, [r7, #28]
 8003fa2:	e9d7 2306 	ldrd	r2, r3, [r7, #24]
 8003fa6:	e9d7 010a 	ldrd	r0, r1, [r7, #40]	@ 0x28
 8003faa:	f7fc fe75 	bl	8000c98 <__aeabi_uldivmod>
 8003fae:	4602      	mov	r2, r0
 8003fb0:	460b      	mov	r3, r1
 8003fb2:	4613      	mov	r3, r2
 8003fb4:	63fb      	str	r3, [r7, #60]	@ 0x3c
 8003fb6:	e053      	b.n	8004060 <HAL_RCC_GetSysClockFreq+0x150>
      }
      else
      {
        /* HSI used as PLL clock source */
        pllvco = (uint32_t)((((uint64_t) HSI_VALUE * ((uint64_t)((RCC->PLLCFGR & RCC_PLLCFGR_PLLN) >> RCC_PLLCFGR_PLLN_Pos)))) / (uint64_t)pllm);
 8003fb8:	4b35      	ldr	r3, [pc, #212]	@ (8004090 <HAL_RCC_GetSysClockFreq+0x180>)
 8003fba:	685b      	ldr	r3, [r3, #4]
 8003fbc:	099b      	lsrs	r3, r3, #6
 8003fbe:	2200      	movs	r2, #0
 8003fc0:	613b      	str	r3, [r7, #16]
 8003fc2:	617a      	str	r2, [r7, #20]
 8003fc4:	693b      	ldr	r3, [r7, #16]
 8003fc6:	f3c3 0a08 	ubfx	sl, r3, #0, #9
 8003fca:	f04f 0b00 	mov.w	fp, #0
 8003fce:	4652      	mov	r2, sl
 8003fd0:	465b      	mov	r3, fp
 8003fd2:	f04f 0000 	mov.w	r0, #0
 8003fd6:	f04f 0100 	mov.w	r1, #0
 8003fda:	0159      	lsls	r1, r3, #5
 8003fdc:	ea41 61d2 	orr.w	r1, r1, r2, lsr #27
 8003fe0:	0150      	lsls	r0, r2, #5
 8003fe2:	4602      	mov	r2, r0
 8003fe4:	460b      	mov	r3, r1
 8003fe6:	ebb2 080a 	subs.w	r8, r2, sl
 8003fea:	eb63 090b 	sbc.w	r9, r3, fp
 8003fee:	f04f 0200 	mov.w	r2, #0
 8003ff2:	f04f 0300 	mov.w	r3, #0
 8003ff6:	ea4f 1389 	mov.w	r3, r9, lsl #6
 8003ffa:	ea43 6398 	orr.w	r3, r3, r8, lsr #26
 8003ffe:	ea4f 1288 	mov.w	r2, r8, lsl #6
 8004002:	ebb2 0408 	subs.w	r4, r2, r8
 8004006:	eb63 0509 	sbc.w	r5, r3, r9
 800400a:	f04f 0200 	mov.w	r2, #0
 800400e:	f04f 0300 	mov.w	r3, #0
 8004012:	00eb      	lsls	r3, r5, #3
 8004014:	ea43 7354 	orr.w	r3, r3, r4, lsr #29
 8004018:	00e2      	lsls	r2, r4, #3
 800401a:	4614      	mov	r4, r2
 800401c:	461d      	mov	r5, r3
 800401e:	eb14 030a 	adds.w	r3, r4, sl
 8004022:	603b      	str	r3, [r7, #0]
 8004024:	eb45 030b 	adc.w	r3, r5, fp
 8004028:	607b      	str	r3, [r7, #4]
 800402a:	f04f 0200 	mov.w	r2, #0
 800402e:	f04f 0300 	mov.w	r3, #0
 8004032:	e9d7 4500 	ldrd	r4, r5, [r7]
 8004036:	4629      	mov	r1, r5
 8004038:	028b      	lsls	r3, r1, #10
 800403a:	4621      	mov	r1, r4
 800403c:	ea43 5391 	orr.w	r3, r3, r1, lsr #22
 8004040:	4621      	mov	r1, r4
 8004042:	028a      	lsls	r2, r1, #10
 8004044:	4610      	mov	r0, r2
 8004046:	4619      	mov	r1, r3
 8004048:	6b7b      	ldr	r3, [r7, #52]	@ 0x34
 800404a:	2200      	movs	r2, #0
 800404c:	60bb      	str	r3, [r7, #8]
 800404e:	60fa      	str	r2, [r7, #12]
 8004050:	e9d7 2302 	ldrd	r2, r3, [r7, #8]
 8004054:	f7fc fe20 	bl	8000c98 <__aeabi_uldivmod>
 8004058:	4602      	mov	r2, r0
 800405a:	460b      	mov	r3, r1
 800405c:	4613      	mov	r3, r2
 800405e:	63fb      	str	r3, [r7, #60]	@ 0x3c
      }
      pllp = ((((RCC->PLLCFGR & RCC_PLLCFGR_PLLP) >> RCC_PLLCFGR_PLLP_Pos) + 1U) * 2U);
 8004060:	4b0b      	ldr	r3, [pc, #44]	@ (8004090 <HAL_RCC_GetSysClockFreq+0x180>)
 8004062:	685b      	ldr	r3, [r3, #4]
 8004064:	0c1b      	lsrs	r3, r3, #16
 8004066:	f003 0303 	and.w	r3, r3, #3
 800406a:	3301      	adds	r3, #1
 800406c:	005b      	lsls	r3, r3, #1
 800406e:	633b      	str	r3, [r7, #48]	@ 0x30

      sysclockfreq = pllvco / pllp;
 8004070:	6bfa      	ldr	r2, [r7, #60]	@ 0x3c
 8004072:	6b3b      	ldr	r3, [r7, #48]	@ 0x30
 8004074:	fbb2 f3f3 	udiv	r3, r2, r3
 8004078:	63bb      	str	r3, [r7, #56]	@ 0x38
      break;
 800407a:	e002      	b.n	8004082 <HAL_RCC_GetSysClockFreq+0x172>
    }
    default:
    {
      sysclockfreq = HSI_VALUE;
 800407c:	4b05      	ldr	r3, [pc, #20]	@ (8004094 <HAL_RCC_GetSysClockFreq+0x184>)
 800407e:	63bb      	str	r3, [r7, #56]	@ 0x38
      break;
 8004080:	bf00      	nop
    }
  }
  return sysclockfreq;
 8004082:	6bbb      	ldr	r3, [r7, #56]	@ 0x38
}
 8004084:	4618      	mov	r0, r3
 8004086:	3740      	adds	r7, #64	@ 0x40
 8004088:	46bd      	mov	sp, r7
 800408a:	e8bd 8fb0 	ldmia.w	sp!, {r4, r5, r7, r8, r9, sl, fp, pc}
 800408e:	bf00      	nop
 8004090:	40023800 	.word	0x40023800
 8004094:	00f42400 	.word	0x00f42400
 8004098:	017d7840 	.word	0x017d7840

0800409c <HAL_RCC_GetHCLKFreq>:
  * @note   The SystemCoreClock CMSIS variable is used to store System Clock Frequency
  *         and updated within this function
  * @retval HCLK frequency
  */
uint32_t HAL_RCC_GetHCLKFreq(void)
{
 800409c:	b480      	push	{r7}
 800409e:	af00      	add	r7, sp, #0
  return SystemCoreClock;
 80040a0:	4b03      	ldr	r3, [pc, #12]	@ (80040b0 <HAL_RCC_GetHCLKFreq+0x14>)
 80040a2:	681b      	ldr	r3, [r3, #0]
}
 80040a4:	4618      	mov	r0, r3
 80040a6:	46bd      	mov	sp, r7
 80040a8:	f85d 7b04 	ldr.w	r7, [sp], #4
 80040ac:	4770      	bx	lr
 80040ae:	bf00      	nop
 80040b0:	20000004 	.word	0x20000004

080040b4 <HAL_RCC_GetPCLK1Freq>:
  * @note   Each time PCLK1 changes, this function must be called to update the
  *         right PCLK1 value. Otherwise, any configuration based on this function will be incorrect.
  * @retval PCLK1 frequency
  */
uint32_t HAL_RCC_GetPCLK1Freq(void)
{
 80040b4:	b580      	push	{r7, lr}
 80040b6:	af00      	add	r7, sp, #0
  /* Get HCLK source and Compute PCLK1 frequency ---------------------------*/
  return (HAL_RCC_GetHCLKFreq() >> APBPrescTable[(RCC->CFGR & RCC_CFGR_PPRE1) >> RCC_CFGR_PPRE1_Pos]);
 80040b8:	f7ff fff0 	bl	800409c <HAL_RCC_GetHCLKFreq>
 80040bc:	4602      	mov	r2, r0
 80040be:	4b05      	ldr	r3, [pc, #20]	@ (80040d4 <HAL_RCC_GetPCLK1Freq+0x20>)
 80040c0:	689b      	ldr	r3, [r3, #8]
 80040c2:	0a9b      	lsrs	r3, r3, #10
 80040c4:	f003 0307 	and.w	r3, r3, #7
 80040c8:	4903      	ldr	r1, [pc, #12]	@ (80040d8 <HAL_RCC_GetPCLK1Freq+0x24>)
 80040ca:	5ccb      	ldrb	r3, [r1, r3]
 80040cc:	fa22 f303 	lsr.w	r3, r2, r3
}
 80040d0:	4618      	mov	r0, r3
 80040d2:	bd80      	pop	{r7, pc}
 80040d4:	40023800 	.word	0x40023800
 80040d8:	08009358 	.word	0x08009358

080040dc <HAL_RCC_GetPCLK2Freq>:
  * @note   Each time PCLK2 changes, this function must be called to update the
  *         right PCLK2 value. Otherwise, any configuration based on this function will be incorrect.
  * @retval PCLK2 frequency
  */
uint32_t HAL_RCC_GetPCLK2Freq(void)
{
 80040dc:	b580      	push	{r7, lr}
 80040de:	af00      	add	r7, sp, #0
  /* Get HCLK source and Compute PCLK2 frequency ---------------------------*/
  return (HAL_RCC_GetHCLKFreq() >> APBPrescTable[(RCC->CFGR & RCC_CFGR_PPRE2) >> RCC_CFGR_PPRE2_Pos]);
 80040e0:	f7ff ffdc 	bl	800409c <HAL_RCC_GetHCLKFreq>
 80040e4:	4602      	mov	r2, r0
 80040e6:	4b05      	ldr	r3, [pc, #20]	@ (80040fc <HAL_RCC_GetPCLK2Freq+0x20>)
 80040e8:	689b      	ldr	r3, [r3, #8]
 80040ea:	0b5b      	lsrs	r3, r3, #13
 80040ec:	f003 0307 	and.w	r3, r3, #7
 80040f0:	4903      	ldr	r1, [pc, #12]	@ (8004100 <HAL_RCC_GetPCLK2Freq+0x24>)
 80040f2:	5ccb      	ldrb	r3, [r1, r3]
 80040f4:	fa22 f303 	lsr.w	r3, r2, r3
}
 80040f8:	4618      	mov	r0, r3
 80040fa:	bd80      	pop	{r7, pc}
 80040fc:	40023800 	.word	0x40023800
 8004100:	08009358 	.word	0x08009358

08004104 <HAL_UART_Init>:
  * @param  huart  Pointer to a UART_HandleTypeDef structure that contains
  *                the configuration information for the specified UART module.
  * @retval HAL status
  */
HAL_StatusTypeDef HAL_UART_Init(UART_HandleTypeDef *huart)
{
 8004104:	b580      	push	{r7, lr}
 8004106:	b082      	sub	sp, #8
 8004108:	af00      	add	r7, sp, #0
 800410a:	6078      	str	r0, [r7, #4]
  /* Check the UART handle allocation */
  if (huart == NULL)
 800410c:	687b      	ldr	r3, [r7, #4]
 800410e:	2b00      	cmp	r3, #0
 8004110:	d101      	bne.n	8004116 <HAL_UART_Init+0x12>
  {
    return HAL_ERROR;
 8004112:	2301      	movs	r3, #1
 8004114:	e042      	b.n	800419c <HAL_UART_Init+0x98>
    assert_param(IS_UART_INSTANCE(huart->Instance));
  }
  assert_param(IS_UART_WORD_LENGTH(huart->Init.WordLength));
  assert_param(IS_UART_OVERSAMPLING(huart->Init.OverSampling));

  if (huart->gState == HAL_UART_STATE_RESET)
 8004116:	687b      	ldr	r3, [r7, #4]
 8004118:	f893 3041 	ldrb.w	r3, [r3, #65]	@ 0x41
 800411c:	b2db      	uxtb	r3, r3
 800411e:	2b00      	cmp	r3, #0
 8004120:	d106      	bne.n	8004130 <HAL_UART_Init+0x2c>
  {
    /* Allocate lock resource and initialize it */
    huart->Lock = HAL_UNLOCKED;
 8004122:	687b      	ldr	r3, [r7, #4]
 8004124:	2200      	movs	r2, #0
 8004126:	f883 2040 	strb.w	r2, [r3, #64]	@ 0x40

    /* Init the low level hardware */
    huart->MspInitCallback(huart);
#else
    /* Init the low level hardware : GPIO, CLOCK */
    HAL_UART_MspInit(huart);
 800412a:	6878      	ldr	r0, [r7, #4]
 800412c:	f7fd fdd8 	bl	8001ce0 <HAL_UART_MspInit>
#endif /* (USE_HAL_UART_REGISTER_CALLBACKS) */
  }

  huart->gState = HAL_UART_STATE_BUSY;
 8004130:	687b      	ldr	r3, [r7, #4]
 8004132:	2224      	movs	r2, #36	@ 0x24
 8004134:	f883 2041 	strb.w	r2, [r3, #65]	@ 0x41

  /* Disable the peripheral */
  __HAL_UART_DISABLE(huart);
 8004138:	687b      	ldr	r3, [r7, #4]
 800413a:	681b      	ldr	r3, [r3, #0]
 800413c:	68da      	ldr	r2, [r3, #12]
 800413e:	687b      	ldr	r3, [r7, #4]
 8004140:	681b      	ldr	r3, [r3, #0]
 8004142:	f422 5200 	bic.w	r2, r2, #8192	@ 0x2000
 8004146:	60da      	str	r2, [r3, #12]

  /* Set the UART Communication parameters */
  UART_SetConfig(huart);
 8004148:	6878      	ldr	r0, [r7, #4]
 800414a:	f000 fdd5 	bl	8004cf8 <UART_SetConfig>

  /* In asynchronous mode, the following bits must be kept cleared:
     - LINEN and CLKEN bits in the USART_CR2 register,
     - SCEN, HDSEL and IREN  bits in the USART_CR3 register.*/
  CLEAR_BIT(huart->Instance->CR2, (USART_CR2_LINEN | USART_CR2_CLKEN));
 800414e:	687b      	ldr	r3, [r7, #4]
 8004150:	681b      	ldr	r3, [r3, #0]
 8004152:	691a      	ldr	r2, [r3, #16]
 8004154:	687b      	ldr	r3, [r7, #4]
 8004156:	681b      	ldr	r3, [r3, #0]
 8004158:	f422 4290 	bic.w	r2, r2, #18432	@ 0x4800
 800415c:	611a      	str	r2, [r3, #16]
  CLEAR_BIT(huart->Instance->CR3, (USART_CR3_SCEN | USART_CR3_HDSEL | USART_CR3_IREN));
 800415e:	687b      	ldr	r3, [r7, #4]
 8004160:	681b      	ldr	r3, [r3, #0]
 8004162:	695a      	ldr	r2, [r3, #20]
 8004164:	687b      	ldr	r3, [r7, #4]
 8004166:	681b      	ldr	r3, [r3, #0]
 8004168:	f022 022a 	bic.w	r2, r2, #42	@ 0x2a
 800416c:	615a      	str	r2, [r3, #20]

  /* Enable the peripheral */
  __HAL_UART_ENABLE(huart);
 800416e:	687b      	ldr	r3, [r7, #4]
 8004170:	681b      	ldr	r3, [r3, #0]
 8004172:	68da      	ldr	r2, [r3, #12]
 8004174:	687b      	ldr	r3, [r7, #4]
 8004176:	681b      	ldr	r3, [r3, #0]
 8004178:	f442 5200 	orr.w	r2, r2, #8192	@ 0x2000
 800417c:	60da      	str	r2, [r3, #12]

  /* Initialize the UART state */
  huart->ErrorCode = HAL_UART_ERROR_NONE;
 800417e:	687b      	ldr	r3, [r7, #4]
 8004180:	2200      	movs	r2, #0
 8004182:	645a      	str	r2, [r3, #68]	@ 0x44
  huart->gState = HAL_UART_STATE_READY;
 8004184:	687b      	ldr	r3, [r7, #4]
 8004186:	2220      	movs	r2, #32
 8004188:	f883 2041 	strb.w	r2, [r3, #65]	@ 0x41
  huart->RxState = HAL_UART_STATE_READY;
 800418c:	687b      	ldr	r3, [r7, #4]
 800418e:	2220      	movs	r2, #32
 8004190:	f883 2042 	strb.w	r2, [r3, #66]	@ 0x42
  huart->RxEventType = HAL_UART_RXEVENT_TC;
 8004194:	687b      	ldr	r3, [r7, #4]
 8004196:	2200      	movs	r2, #0
 8004198:	635a      	str	r2, [r3, #52]	@ 0x34

  return HAL_OK;
 800419a:	2300      	movs	r3, #0
}
 800419c:	4618      	mov	r0, r3
 800419e:	3708      	adds	r7, #8
 80041a0:	46bd      	mov	sp, r7
 80041a2:	bd80      	pop	{r7, pc}

080041a4 <HAL_UART_Transmit>:
  * @param  Size  Amount of data elements (u8 or u16) to be sent
  * @param  Timeout Timeout duration
  * @retval HAL status
  */
HAL_StatusTypeDef HAL_UART_Transmit(UART_HandleTypeDef *huart, const uint8_t *pData, uint16_t Size, uint32_t Timeout)
{
 80041a4:	b580      	push	{r7, lr}
 80041a6:	b08a      	sub	sp, #40	@ 0x28
 80041a8:	af02      	add	r7, sp, #8
 80041aa:	60f8      	str	r0, [r7, #12]
 80041ac:	60b9      	str	r1, [r7, #8]
 80041ae:	603b      	str	r3, [r7, #0]
 80041b0:	4613      	mov	r3, r2
 80041b2:	80fb      	strh	r3, [r7, #6]
  const uint8_t  *pdata8bits;
  const uint16_t *pdata16bits;
  uint32_t tickstart = 0U;
 80041b4:	2300      	movs	r3, #0
 80041b6:	617b      	str	r3, [r7, #20]

  /* Check that a Tx process is not already ongoing */
  if (huart->gState == HAL_UART_STATE_READY)
 80041b8:	68fb      	ldr	r3, [r7, #12]
 80041ba:	f893 3041 	ldrb.w	r3, [r3, #65]	@ 0x41
 80041be:	b2db      	uxtb	r3, r3
 80041c0:	2b20      	cmp	r3, #32
 80041c2:	d175      	bne.n	80042b0 <HAL_UART_Transmit+0x10c>
  {
    if ((pData == NULL) || (Size == 0U))
 80041c4:	68bb      	ldr	r3, [r7, #8]
 80041c6:	2b00      	cmp	r3, #0
 80041c8:	d002      	beq.n	80041d0 <HAL_UART_Transmit+0x2c>
 80041ca:	88fb      	ldrh	r3, [r7, #6]
 80041cc:	2b00      	cmp	r3, #0
 80041ce:	d101      	bne.n	80041d4 <HAL_UART_Transmit+0x30>
    {
      return  HAL_ERROR;
 80041d0:	2301      	movs	r3, #1
 80041d2:	e06e      	b.n	80042b2 <HAL_UART_Transmit+0x10e>
    }

    huart->ErrorCode = HAL_UART_ERROR_NONE;
 80041d4:	68fb      	ldr	r3, [r7, #12]
 80041d6:	2200      	movs	r2, #0
 80041d8:	645a      	str	r2, [r3, #68]	@ 0x44
    huart->gState = HAL_UART_STATE_BUSY_TX;
 80041da:	68fb      	ldr	r3, [r7, #12]
 80041dc:	2221      	movs	r2, #33	@ 0x21
 80041de:	f883 2041 	strb.w	r2, [r3, #65]	@ 0x41

    /* Init tickstart for timeout management */
    tickstart = HAL_GetTick();
 80041e2:	f7fd ff87 	bl	80020f4 <HAL_GetTick>
 80041e6:	6178      	str	r0, [r7, #20]

    huart->TxXferSize = Size;
 80041e8:	68fb      	ldr	r3, [r7, #12]
 80041ea:	88fa      	ldrh	r2, [r7, #6]
 80041ec:	849a      	strh	r2, [r3, #36]	@ 0x24
    huart->TxXferCount = Size;
 80041ee:	68fb      	ldr	r3, [r7, #12]
 80041f0:	88fa      	ldrh	r2, [r7, #6]
 80041f2:	84da      	strh	r2, [r3, #38]	@ 0x26

    /* In case of 9bits/No Parity transfer, pData needs to be handled as a uint16_t pointer */
    if ((huart->Init.WordLength == UART_WORDLENGTH_9B) && (huart->Init.Parity == UART_PARITY_NONE))
 80041f4:	68fb      	ldr	r3, [r7, #12]
 80041f6:	689b      	ldr	r3, [r3, #8]
 80041f8:	f5b3 5f80 	cmp.w	r3, #4096	@ 0x1000
 80041fc:	d108      	bne.n	8004210 <HAL_UART_Transmit+0x6c>
 80041fe:	68fb      	ldr	r3, [r7, #12]
 8004200:	691b      	ldr	r3, [r3, #16]
 8004202:	2b00      	cmp	r3, #0
 8004204:	d104      	bne.n	8004210 <HAL_UART_Transmit+0x6c>
    {
      pdata8bits  = NULL;
 8004206:	2300      	movs	r3, #0
 8004208:	61fb      	str	r3, [r7, #28]
      pdata16bits = (const uint16_t *) pData;
 800420a:	68bb      	ldr	r3, [r7, #8]
 800420c:	61bb      	str	r3, [r7, #24]
 800420e:	e003      	b.n	8004218 <HAL_UART_Transmit+0x74>
    }
    else
    {
      pdata8bits  = pData;
 8004210:	68bb      	ldr	r3, [r7, #8]
 8004212:	61fb      	str	r3, [r7, #28]
      pdata16bits = NULL;
 8004214:	2300      	movs	r3, #0
 8004216:	61bb      	str	r3, [r7, #24]
    }

    while (huart->TxXferCount > 0U)
 8004218:	e02e      	b.n	8004278 <HAL_UART_Transmit+0xd4>
    {
      if (UART_WaitOnFlagUntilTimeout(huart, UART_FLAG_TXE, RESET, tickstart, Timeout) != HAL_OK)
 800421a:	683b      	ldr	r3, [r7, #0]
 800421c:	9300      	str	r3, [sp, #0]
 800421e:	697b      	ldr	r3, [r7, #20]
 8004220:	2200      	movs	r2, #0
 8004222:	2180      	movs	r1, #128	@ 0x80
 8004224:	68f8      	ldr	r0, [r7, #12]
 8004226:	f000 fb39 	bl	800489c <UART_WaitOnFlagUntilTimeout>
 800422a:	4603      	mov	r3, r0
 800422c:	2b00      	cmp	r3, #0
 800422e:	d005      	beq.n	800423c <HAL_UART_Transmit+0x98>
      {
        huart->gState = HAL_UART_STATE_READY;
 8004230:	68fb      	ldr	r3, [r7, #12]
 8004232:	2220      	movs	r2, #32
 8004234:	f883 2041 	strb.w	r2, [r3, #65]	@ 0x41

        return HAL_TIMEOUT;
 8004238:	2303      	movs	r3, #3
 800423a:	e03a      	b.n	80042b2 <HAL_UART_Transmit+0x10e>
      }
      if (pdata8bits == NULL)
 800423c:	69fb      	ldr	r3, [r7, #28]
 800423e:	2b00      	cmp	r3, #0
 8004240:	d10b      	bne.n	800425a <HAL_UART_Transmit+0xb6>
      {
        huart->Instance->DR = (uint16_t)(*pdata16bits & 0x01FFU);
 8004242:	69bb      	ldr	r3, [r7, #24]
 8004244:	881b      	ldrh	r3, [r3, #0]
 8004246:	461a      	mov	r2, r3
 8004248:	68fb      	ldr	r3, [r7, #12]
 800424a:	681b      	ldr	r3, [r3, #0]
 800424c:	f3c2 0208 	ubfx	r2, r2, #0, #9
 8004250:	605a      	str	r2, [r3, #4]
        pdata16bits++;
 8004252:	69bb      	ldr	r3, [r7, #24]
 8004254:	3302      	adds	r3, #2
 8004256:	61bb      	str	r3, [r7, #24]
 8004258:	e007      	b.n	800426a <HAL_UART_Transmit+0xc6>
      }
      else
      {
        huart->Instance->DR = (uint8_t)(*pdata8bits & 0xFFU);
 800425a:	69fb      	ldr	r3, [r7, #28]
 800425c:	781a      	ldrb	r2, [r3, #0]
 800425e:	68fb      	ldr	r3, [r7, #12]
 8004260:	681b      	ldr	r3, [r3, #0]
 8004262:	605a      	str	r2, [r3, #4]
        pdata8bits++;
 8004264:	69fb      	ldr	r3, [r7, #28]
 8004266:	3301      	adds	r3, #1
 8004268:	61fb      	str	r3, [r7, #28]
      }
      huart->TxXferCount--;
 800426a:	68fb      	ldr	r3, [r7, #12]
 800426c:	8cdb      	ldrh	r3, [r3, #38]	@ 0x26
 800426e:	b29b      	uxth	r3, r3
 8004270:	3b01      	subs	r3, #1
 8004272:	b29a      	uxth	r2, r3
 8004274:	68fb      	ldr	r3, [r7, #12]
 8004276:	84da      	strh	r2, [r3, #38]	@ 0x26
    while (huart->TxXferCount > 0U)
 8004278:	68fb      	ldr	r3, [r7, #12]
 800427a:	8cdb      	ldrh	r3, [r3, #38]	@ 0x26
 800427c:	b29b      	uxth	r3, r3
 800427e:	2b00      	cmp	r3, #0
 8004280:	d1cb      	bne.n	800421a <HAL_UART_Transmit+0x76>
    }

    if (UART_WaitOnFlagUntilTimeout(huart, UART_FLAG_TC, RESET, tickstart, Timeout) != HAL_OK)
 8004282:	683b      	ldr	r3, [r7, #0]
 8004284:	9300      	str	r3, [sp, #0]
 8004286:	697b      	ldr	r3, [r7, #20]
 8004288:	2200      	movs	r2, #0
 800428a:	2140      	movs	r1, #64	@ 0x40
 800428c:	68f8      	ldr	r0, [r7, #12]
 800428e:	f000 fb05 	bl	800489c <UART_WaitOnFlagUntilTimeout>
 8004292:	4603      	mov	r3, r0
 8004294:	2b00      	cmp	r3, #0
 8004296:	d005      	beq.n	80042a4 <HAL_UART_Transmit+0x100>
    {
      huart->gState = HAL_UART_STATE_READY;
 8004298:	68fb      	ldr	r3, [r7, #12]
 800429a:	2220      	movs	r2, #32
 800429c:	f883 2041 	strb.w	r2, [r3, #65]	@ 0x41

      return HAL_TIMEOUT;
 80042a0:	2303      	movs	r3, #3
 80042a2:	e006      	b.n	80042b2 <HAL_UART_Transmit+0x10e>
    }

    /* At end of Tx process, restore huart->gState to Ready */
    huart->gState = HAL_UART_STATE_READY;
 80042a4:	68fb      	ldr	r3, [r7, #12]
 80042a6:	2220      	movs	r2, #32
 80042a8:	f883 2041 	strb.w	r2, [r3, #65]	@ 0x41

    return HAL_OK;
 80042ac:	2300      	movs	r3, #0
 80042ae:	e000      	b.n	80042b2 <HAL_UART_Transmit+0x10e>
  }
  else
  {
    return HAL_BUSY;
 80042b0:	2302      	movs	r3, #2
  }
}
 80042b2:	4618      	mov	r0, r3
 80042b4:	3720      	adds	r7, #32
 80042b6:	46bd      	mov	sp, r7
 80042b8:	bd80      	pop	{r7, pc}

080042ba <HAL_UART_Receive_IT>:
  * @param  pData Pointer to data buffer (u8 or u16 data elements).
  * @param  Size  Amount of data elements (u8 or u16) to be received.
  * @retval HAL status
  */
HAL_StatusTypeDef HAL_UART_Receive_IT(UART_HandleTypeDef *huart, uint8_t *pData, uint16_t Size)
{
 80042ba:	b580      	push	{r7, lr}
 80042bc:	b084      	sub	sp, #16
 80042be:	af00      	add	r7, sp, #0
 80042c0:	60f8      	str	r0, [r7, #12]
 80042c2:	60b9      	str	r1, [r7, #8]
 80042c4:	4613      	mov	r3, r2
 80042c6:	80fb      	strh	r3, [r7, #6]
  /* Check that a Rx process is not already ongoing */
  if (huart->RxState == HAL_UART_STATE_READY)
 80042c8:	68fb      	ldr	r3, [r7, #12]
 80042ca:	f893 3042 	ldrb.w	r3, [r3, #66]	@ 0x42
 80042ce:	b2db      	uxtb	r3, r3
 80042d0:	2b20      	cmp	r3, #32
 80042d2:	d112      	bne.n	80042fa <HAL_UART_Receive_IT+0x40>
  {
    if ((pData == NULL) || (Size == 0U))
 80042d4:	68bb      	ldr	r3, [r7, #8]
 80042d6:	2b00      	cmp	r3, #0
 80042d8:	d002      	beq.n	80042e0 <HAL_UART_Receive_IT+0x26>
 80042da:	88fb      	ldrh	r3, [r7, #6]
 80042dc:	2b00      	cmp	r3, #0
 80042de:	d101      	bne.n	80042e4 <HAL_UART_Receive_IT+0x2a>
    {
      return HAL_ERROR;
 80042e0:	2301      	movs	r3, #1
 80042e2:	e00b      	b.n	80042fc <HAL_UART_Receive_IT+0x42>
    }

    /* Set Reception type to Standard reception */
    huart->ReceptionType = HAL_UART_RECEPTION_STANDARD;
 80042e4:	68fb      	ldr	r3, [r7, #12]
 80042e6:	2200      	movs	r2, #0
 80042e8:	631a      	str	r2, [r3, #48]	@ 0x30

    return (UART_Start_Receive_IT(huart, pData, Size));
 80042ea:	88fb      	ldrh	r3, [r7, #6]
 80042ec:	461a      	mov	r2, r3
 80042ee:	68b9      	ldr	r1, [r7, #8]
 80042f0:	68f8      	ldr	r0, [r7, #12]
 80042f2:	f000 fb2c 	bl	800494e <UART_Start_Receive_IT>
 80042f6:	4603      	mov	r3, r0
 80042f8:	e000      	b.n	80042fc <HAL_UART_Receive_IT+0x42>
  }
  else
  {
    return HAL_BUSY;
 80042fa:	2302      	movs	r3, #2
  }
}
 80042fc:	4618      	mov	r0, r3
 80042fe:	3710      	adds	r7, #16
 8004300:	46bd      	mov	sp, r7
 8004302:	bd80      	pop	{r7, pc}

08004304 <HAL_UART_IRQHandler>:
  * @param  huart  Pointer to a UART_HandleTypeDef structure that contains
  *                the configuration information for the specified UART module.
  * @retval None
  */
void HAL_UART_IRQHandler(UART_HandleTypeDef *huart)
{
 8004304:	b580      	push	{r7, lr}
 8004306:	b0ba      	sub	sp, #232	@ 0xe8
 8004308:	af00      	add	r7, sp, #0
 800430a:	6078      	str	r0, [r7, #4]
  uint32_t isrflags   = READ_REG(huart->Instance->SR);
 800430c:	687b      	ldr	r3, [r7, #4]
 800430e:	681b      	ldr	r3, [r3, #0]
 8004310:	681b      	ldr	r3, [r3, #0]
 8004312:	f8c7 30e4 	str.w	r3, [r7, #228]	@ 0xe4
  uint32_t cr1its     = READ_REG(huart->Instance->CR1);
 8004316:	687b      	ldr	r3, [r7, #4]
 8004318:	681b      	ldr	r3, [r3, #0]
 800431a:	68db      	ldr	r3, [r3, #12]
 800431c:	f8c7 30e0 	str.w	r3, [r7, #224]	@ 0xe0
  uint32_t cr3its     = READ_REG(huart->Instance->CR3);
 8004320:	687b      	ldr	r3, [r7, #4]
 8004322:	681b      	ldr	r3, [r3, #0]
 8004324:	695b      	ldr	r3, [r3, #20]
 8004326:	f8c7 30dc 	str.w	r3, [r7, #220]	@ 0xdc
  uint32_t errorflags = 0x00U;
 800432a:	2300      	movs	r3, #0
 800432c:	f8c7 30d8 	str.w	r3, [r7, #216]	@ 0xd8
  uint32_t dmarequest = 0x00U;
 8004330:	2300      	movs	r3, #0
 8004332:	f8c7 30d4 	str.w	r3, [r7, #212]	@ 0xd4

  /* If no error occurs */
  errorflags = (isrflags & (uint32_t)(USART_SR_PE | USART_SR_FE | USART_SR_ORE | USART_SR_NE));
 8004336:	f8d7 30e4 	ldr.w	r3, [r7, #228]	@ 0xe4
 800433a:	f003 030f 	and.w	r3, r3, #15
 800433e:	f8c7 30d8 	str.w	r3, [r7, #216]	@ 0xd8
  if (errorflags == RESET)
 8004342:	f8d7 30d8 	ldr.w	r3, [r7, #216]	@ 0xd8
 8004346:	2b00      	cmp	r3, #0
 8004348:	d10f      	bne.n	800436a <HAL_UART_IRQHandler+0x66>
  {
    /* UART in mode Receiver -------------------------------------------------*/
    if (((isrflags & USART_SR_RXNE) != RESET) && ((cr1its & USART_CR1_RXNEIE) != RESET))
 800434a:	f8d7 30e4 	ldr.w	r3, [r7, #228]	@ 0xe4
 800434e:	f003 0320 	and.w	r3, r3, #32
 8004352:	2b00      	cmp	r3, #0
 8004354:	d009      	beq.n	800436a <HAL_UART_IRQHandler+0x66>
 8004356:	f8d7 30e0 	ldr.w	r3, [r7, #224]	@ 0xe0
 800435a:	f003 0320 	and.w	r3, r3, #32
 800435e:	2b00      	cmp	r3, #0
 8004360:	d003      	beq.n	800436a <HAL_UART_IRQHandler+0x66>
    {
      UART_Receive_IT(huart);
 8004362:	6878      	ldr	r0, [r7, #4]
 8004364:	f000 fc09 	bl	8004b7a <UART_Receive_IT>
      return;
 8004368:	e273      	b.n	8004852 <HAL_UART_IRQHandler+0x54e>
    }
  }

  /* If some errors occur */
  if ((errorflags != RESET) && (((cr3its & USART_CR3_EIE) != RESET)
 800436a:	f8d7 30d8 	ldr.w	r3, [r7, #216]	@ 0xd8
 800436e:	2b00      	cmp	r3, #0
 8004370:	f000 80de 	beq.w	8004530 <HAL_UART_IRQHandler+0x22c>
 8004374:	f8d7 30dc 	ldr.w	r3, [r7, #220]	@ 0xdc
 8004378:	f003 0301 	and.w	r3, r3, #1
 800437c:	2b00      	cmp	r3, #0
 800437e:	d106      	bne.n	800438e <HAL_UART_IRQHandler+0x8a>
                                || ((cr1its & (USART_CR1_RXNEIE | USART_CR1_PEIE)) != RESET)))
 8004380:	f8d7 30e0 	ldr.w	r3, [r7, #224]	@ 0xe0
 8004384:	f403 7390 	and.w	r3, r3, #288	@ 0x120
 8004388:	2b00      	cmp	r3, #0
 800438a:	f000 80d1 	beq.w	8004530 <HAL_UART_IRQHandler+0x22c>
  {
    /* UART parity error interrupt occurred ----------------------------------*/
    if (((isrflags & USART_SR_PE) != RESET) && ((cr1its & USART_CR1_PEIE) != RESET))
 800438e:	f8d7 30e4 	ldr.w	r3, [r7, #228]	@ 0xe4
 8004392:	f003 0301 	and.w	r3, r3, #1
 8004396:	2b00      	cmp	r3, #0
 8004398:	d00b      	beq.n	80043b2 <HAL_UART_IRQHandler+0xae>
 800439a:	f8d7 30e0 	ldr.w	r3, [r7, #224]	@ 0xe0
 800439e:	f403 7380 	and.w	r3, r3, #256	@ 0x100
 80043a2:	2b00      	cmp	r3, #0
 80043a4:	d005      	beq.n	80043b2 <HAL_UART_IRQHandler+0xae>
    {
      huart->ErrorCode |= HAL_UART_ERROR_PE;
 80043a6:	687b      	ldr	r3, [r7, #4]
 80043a8:	6c5b      	ldr	r3, [r3, #68]	@ 0x44
 80043aa:	f043 0201 	orr.w	r2, r3, #1
 80043ae:	687b      	ldr	r3, [r7, #4]
 80043b0:	645a      	str	r2, [r3, #68]	@ 0x44
    }

    /* UART noise error interrupt occurred -----------------------------------*/
    if (((isrflags & USART_SR_NE) != RESET) && ((cr3its & USART_CR3_EIE) != RESET))
 80043b2:	f8d7 30e4 	ldr.w	r3, [r7, #228]	@ 0xe4
 80043b6:	f003 0304 	and.w	r3, r3, #4
 80043ba:	2b00      	cmp	r3, #0
 80043bc:	d00b      	beq.n	80043d6 <HAL_UART_IRQHandler+0xd2>
 80043be:	f8d7 30dc 	ldr.w	r3, [r7, #220]	@ 0xdc
 80043c2:	f003 0301 	and.w	r3, r3, #1
 80043c6:	2b00      	cmp	r3, #0
 80043c8:	d005      	beq.n	80043d6 <HAL_UART_IRQHandler+0xd2>
    {
      huart->ErrorCode |= HAL_UART_ERROR_NE;
 80043ca:	687b      	ldr	r3, [r7, #4]
 80043cc:	6c5b      	ldr	r3, [r3, #68]	@ 0x44
 80043ce:	f043 0202 	orr.w	r2, r3, #2
 80043d2:	687b      	ldr	r3, [r7, #4]
 80043d4:	645a      	str	r2, [r3, #68]	@ 0x44
    }

    /* UART frame error interrupt occurred -----------------------------------*/
    if (((isrflags & USART_SR_FE) != RESET) && ((cr3its & USART_CR3_EIE) != RESET))
 80043d6:	f8d7 30e4 	ldr.w	r3, [r7, #228]	@ 0xe4
 80043da:	f003 0302 	and.w	r3, r3, #2
 80043de:	2b00      	cmp	r3, #0
 80043e0:	d00b      	beq.n	80043fa <HAL_UART_IRQHandler+0xf6>
 80043e2:	f8d7 30dc 	ldr.w	r3, [r7, #220]	@ 0xdc
 80043e6:	f003 0301 	and.w	r3, r3, #1
 80043ea:	2b00      	cmp	r3, #0
 80043ec:	d005      	beq.n	80043fa <HAL_UART_IRQHandler+0xf6>
    {
      huart->ErrorCode |= HAL_UART_ERROR_FE;
 80043ee:	687b      	ldr	r3, [r7, #4]
 80043f0:	6c5b      	ldr	r3, [r3, #68]	@ 0x44
 80043f2:	f043 0204 	orr.w	r2, r3, #4
 80043f6:	687b      	ldr	r3, [r7, #4]
 80043f8:	645a      	str	r2, [r3, #68]	@ 0x44
    }

    /* UART Over-Run interrupt occurred --------------------------------------*/
    if (((isrflags & USART_SR_ORE) != RESET) && (((cr1its & USART_CR1_RXNEIE) != RESET)
 80043fa:	f8d7 30e4 	ldr.w	r3, [r7, #228]	@ 0xe4
 80043fe:	f003 0308 	and.w	r3, r3, #8
 8004402:	2b00      	cmp	r3, #0
 8004404:	d011      	beq.n	800442a <HAL_UART_IRQHandler+0x126>
 8004406:	f8d7 30e0 	ldr.w	r3, [r7, #224]	@ 0xe0
 800440a:	f003 0320 	and.w	r3, r3, #32
 800440e:	2b00      	cmp	r3, #0
 8004410:	d105      	bne.n	800441e <HAL_UART_IRQHandler+0x11a>
                                                 || ((cr3its & USART_CR3_EIE) != RESET)))
 8004412:	f8d7 30dc 	ldr.w	r3, [r7, #220]	@ 0xdc
 8004416:	f003 0301 	and.w	r3, r3, #1
 800441a:	2b00      	cmp	r3, #0
 800441c:	d005      	beq.n	800442a <HAL_UART_IRQHandler+0x126>
    {
      huart->ErrorCode |= HAL_UART_ERROR_ORE;
 800441e:	687b      	ldr	r3, [r7, #4]
 8004420:	6c5b      	ldr	r3, [r3, #68]	@ 0x44
 8004422:	f043 0208 	orr.w	r2, r3, #8
 8004426:	687b      	ldr	r3, [r7, #4]
 8004428:	645a      	str	r2, [r3, #68]	@ 0x44
    }

    /* Call UART Error Call back function if need be --------------------------*/
    if (huart->ErrorCode != HAL_UART_ERROR_NONE)
 800442a:	687b      	ldr	r3, [r7, #4]
 800442c:	6c5b      	ldr	r3, [r3, #68]	@ 0x44
 800442e:	2b00      	cmp	r3, #0
 8004430:	f000 820a 	beq.w	8004848 <HAL_UART_IRQHandler+0x544>
    {
      /* UART in mode Receiver -----------------------------------------------*/
      if (((isrflags & USART_SR_RXNE) != RESET) && ((cr1its & USART_CR1_RXNEIE) != RESET))
 8004434:	f8d7 30e4 	ldr.w	r3, [r7, #228]	@ 0xe4
 8004438:	f003 0320 	and.w	r3, r3, #32
 800443c:	2b00      	cmp	r3, #0
 800443e:	d008      	beq.n	8004452 <HAL_UART_IRQHandler+0x14e>
 8004440:	f8d7 30e0 	ldr.w	r3, [r7, #224]	@ 0xe0
 8004444:	f003 0320 	and.w	r3, r3, #32
 8004448:	2b00      	cmp	r3, #0
 800444a:	d002      	beq.n	8004452 <HAL_UART_IRQHandler+0x14e>
      {
        UART_Receive_IT(huart);
 800444c:	6878      	ldr	r0, [r7, #4]
 800444e:	f000 fb94 	bl	8004b7a <UART_Receive_IT>
      }

      /* If Overrun error occurs, or if any error occurs in DMA mode reception,
         consider error as blocking */
      dmarequest = HAL_IS_BIT_SET(huart->Instance->CR3, USART_CR3_DMAR);
 8004452:	687b      	ldr	r3, [r7, #4]
 8004454:	681b      	ldr	r3, [r3, #0]
 8004456:	695b      	ldr	r3, [r3, #20]
 8004458:	f003 0340 	and.w	r3, r3, #64	@ 0x40
 800445c:	2b40      	cmp	r3, #64	@ 0x40
 800445e:	bf0c      	ite	eq
 8004460:	2301      	moveq	r3, #1
 8004462:	2300      	movne	r3, #0
 8004464:	b2db      	uxtb	r3, r3
 8004466:	f8c7 30d4 	str.w	r3, [r7, #212]	@ 0xd4
      if (((huart->ErrorCode & HAL_UART_ERROR_ORE) != RESET) || dmarequest)
 800446a:	687b      	ldr	r3, [r7, #4]
 800446c:	6c5b      	ldr	r3, [r3, #68]	@ 0x44
 800446e:	f003 0308 	and.w	r3, r3, #8
 8004472:	2b00      	cmp	r3, #0
 8004474:	d103      	bne.n	800447e <HAL_UART_IRQHandler+0x17a>
 8004476:	f8d7 30d4 	ldr.w	r3, [r7, #212]	@ 0xd4
 800447a:	2b00      	cmp	r3, #0
 800447c:	d04f      	beq.n	800451e <HAL_UART_IRQHandler+0x21a>
      {
        /* Blocking error : transfer is aborted
           Set the UART state ready to be able to start again the process,
           Disable Rx Interrupts, and disable Rx DMA request, if ongoing */
        UART_EndRxTransfer(huart);
 800447e:	6878      	ldr	r0, [r7, #4]
 8004480:	f000 fa9f 	bl	80049c2 <UART_EndRxTransfer>

        /* Disable the UART DMA Rx request if enabled */
        if (HAL_IS_BIT_SET(huart->Instance->CR3, USART_CR3_DMAR))
 8004484:	687b      	ldr	r3, [r7, #4]
 8004486:	681b      	ldr	r3, [r3, #0]
 8004488:	695b      	ldr	r3, [r3, #20]
 800448a:	f003 0340 	and.w	r3, r3, #64	@ 0x40
 800448e:	2b40      	cmp	r3, #64	@ 0x40
 8004490:	d141      	bne.n	8004516 <HAL_UART_IRQHandler+0x212>
        {
          ATOMIC_CLEAR_BIT(huart->Instance->CR3, USART_CR3_DMAR);
 8004492:	687b      	ldr	r3, [r7, #4]
 8004494:	681b      	ldr	r3, [r3, #0]
 8004496:	3314      	adds	r3, #20
 8004498:	f8c7 309c 	str.w	r3, [r7, #156]	@ 0x9c
   __ASM volatile ("ldrex %0, %1" : "=r" (result) : "Q" (*addr) );
 800449c:	f8d7 309c 	ldr.w	r3, [r7, #156]	@ 0x9c
 80044a0:	e853 3f00 	ldrex	r3, [r3]
 80044a4:	f8c7 3098 	str.w	r3, [r7, #152]	@ 0x98
   return(result);
 80044a8:	f8d7 3098 	ldr.w	r3, [r7, #152]	@ 0x98
 80044ac:	f023 0340 	bic.w	r3, r3, #64	@ 0x40
 80044b0:	f8c7 30d0 	str.w	r3, [r7, #208]	@ 0xd0
 80044b4:	687b      	ldr	r3, [r7, #4]
 80044b6:	681b      	ldr	r3, [r3, #0]
 80044b8:	3314      	adds	r3, #20
 80044ba:	f8d7 20d0 	ldr.w	r2, [r7, #208]	@ 0xd0
 80044be:	f8c7 20a8 	str.w	r2, [r7, #168]	@ 0xa8
 80044c2:	f8c7 30a4 	str.w	r3, [r7, #164]	@ 0xa4
   __ASM volatile ("strex %0, %2, %1" : "=&r" (result), "=Q" (*addr) : "r" (value) );
 80044c6:	f8d7 10a4 	ldr.w	r1, [r7, #164]	@ 0xa4
 80044ca:	f8d7 20a8 	ldr.w	r2, [r7, #168]	@ 0xa8
 80044ce:	e841 2300 	strex	r3, r2, [r1]
 80044d2:	f8c7 30a0 	str.w	r3, [r7, #160]	@ 0xa0
   return(result);
 80044d6:	f8d7 30a0 	ldr.w	r3, [r7, #160]	@ 0xa0
 80044da:	2b00      	cmp	r3, #0
 80044dc:	d1d9      	bne.n	8004492 <HAL_UART_IRQHandler+0x18e>

          /* Abort the UART DMA Rx stream */
          if (huart->hdmarx != NULL)
 80044de:	687b      	ldr	r3, [r7, #4]
 80044e0:	6bdb      	ldr	r3, [r3, #60]	@ 0x3c
 80044e2:	2b00      	cmp	r3, #0
 80044e4:	d013      	beq.n	800450e <HAL_UART_IRQHandler+0x20a>
          {
            /* Set the UART DMA Abort callback :
               will lead to call HAL_UART_ErrorCallback() at end of DMA abort procedure */
            huart->hdmarx->XferAbortCallback = UART_DMAAbortOnError;
 80044e6:	687b      	ldr	r3, [r7, #4]
 80044e8:	6bdb      	ldr	r3, [r3, #60]	@ 0x3c
 80044ea:	4a8a      	ldr	r2, [pc, #552]	@ (8004714 <HAL_UART_IRQHandler+0x410>)
 80044ec:	651a      	str	r2, [r3, #80]	@ 0x50
            if (HAL_DMA_Abort_IT(huart->hdmarx) != HAL_OK)
 80044ee:	687b      	ldr	r3, [r7, #4]
 80044f0:	6bdb      	ldr	r3, [r3, #60]	@ 0x3c
 80044f2:	4618      	mov	r0, r3
 80044f4:	f7fd ffaf 	bl	8002456 <HAL_DMA_Abort_IT>
 80044f8:	4603      	mov	r3, r0
 80044fa:	2b00      	cmp	r3, #0
 80044fc:	d016      	beq.n	800452c <HAL_UART_IRQHandler+0x228>
            {
              /* Call Directly XferAbortCallback function in case of error */
              huart->hdmarx->XferAbortCallback(huart->hdmarx);
 80044fe:	687b      	ldr	r3, [r7, #4]
 8004500:	6bdb      	ldr	r3, [r3, #60]	@ 0x3c
 8004502:	6d1b      	ldr	r3, [r3, #80]	@ 0x50
 8004504:	687a      	ldr	r2, [r7, #4]
 8004506:	6bd2      	ldr	r2, [r2, #60]	@ 0x3c
 8004508:	4610      	mov	r0, r2
 800450a:	4798      	blx	r3
        if (HAL_IS_BIT_SET(huart->Instance->CR3, USART_CR3_DMAR))
 800450c:	e00e      	b.n	800452c <HAL_UART_IRQHandler+0x228>
#if (USE_HAL_UART_REGISTER_CALLBACKS == 1)
            /*Call registered error callback*/
            huart->ErrorCallback(huart);
#else
            /*Call legacy weak error callback*/
            HAL_UART_ErrorCallback(huart);
 800450e:	6878      	ldr	r0, [r7, #4]
 8004510:	f7fc fee4 	bl	80012dc <HAL_UART_ErrorCallback>
        if (HAL_IS_BIT_SET(huart->Instance->CR3, USART_CR3_DMAR))
 8004514:	e00a      	b.n	800452c <HAL_UART_IRQHandler+0x228>
#if (USE_HAL_UART_REGISTER_CALLBACKS == 1)
          /*Call registered error callback*/
          huart->ErrorCallback(huart);
#else
          /*Call legacy weak error callback*/
          HAL_UART_ErrorCallback(huart);
 8004516:	6878      	ldr	r0, [r7, #4]
 8004518:	f7fc fee0 	bl	80012dc <HAL_UART_ErrorCallback>
        if (HAL_IS_BIT_SET(huart->Instance->CR3, USART_CR3_DMAR))
 800451c:	e006      	b.n	800452c <HAL_UART_IRQHandler+0x228>
#if (USE_HAL_UART_REGISTER_CALLBACKS == 1)
        /*Call registered error callback*/
        huart->ErrorCallback(huart);
#else
        /*Call legacy weak error callback*/
        HAL_UART_ErrorCallback(huart);
 800451e:	6878      	ldr	r0, [r7, #4]
 8004520:	f7fc fedc 	bl	80012dc <HAL_UART_ErrorCallback>
#endif /* USE_HAL_UART_REGISTER_CALLBACKS */

        huart->ErrorCode = HAL_UART_ERROR_NONE;
 8004524:	687b      	ldr	r3, [r7, #4]
 8004526:	2200      	movs	r2, #0
 8004528:	645a      	str	r2, [r3, #68]	@ 0x44
      }
    }
    return;
 800452a:	e18d      	b.n	8004848 <HAL_UART_IRQHandler+0x544>
        if (HAL_IS_BIT_SET(huart->Instance->CR3, USART_CR3_DMAR))
 800452c:	bf00      	nop
    return;
 800452e:	e18b      	b.n	8004848 <HAL_UART_IRQHandler+0x544>
  } /* End if some error occurs */

  /* Check current reception Mode :
     If Reception till IDLE event has been selected : */
  if ((huart->ReceptionType == HAL_UART_RECEPTION_TOIDLE)
 8004530:	687b      	ldr	r3, [r7, #4]
 8004532:	6b1b      	ldr	r3, [r3, #48]	@ 0x30
 8004534:	2b01      	cmp	r3, #1
 8004536:	f040 8167 	bne.w	8004808 <HAL_UART_IRQHandler+0x504>
      && ((isrflags & USART_SR_IDLE) != 0U)
 800453a:	f8d7 30e4 	ldr.w	r3, [r7, #228]	@ 0xe4
 800453e:	f003 0310 	and.w	r3, r3, #16
 8004542:	2b00      	cmp	r3, #0
 8004544:	f000 8160 	beq.w	8004808 <HAL_UART_IRQHandler+0x504>
      && ((cr1its & USART_CR1_IDLEIE) != 0U))
 8004548:	f8d7 30e0 	ldr.w	r3, [r7, #224]	@ 0xe0
 800454c:	f003 0310 	and.w	r3, r3, #16
 8004550:	2b00      	cmp	r3, #0
 8004552:	f000 8159 	beq.w	8004808 <HAL_UART_IRQHandler+0x504>
  {
    __HAL_UART_CLEAR_IDLEFLAG(huart);
 8004556:	2300      	movs	r3, #0
 8004558:	60bb      	str	r3, [r7, #8]
 800455a:	687b      	ldr	r3, [r7, #4]
 800455c:	681b      	ldr	r3, [r3, #0]
 800455e:	681b      	ldr	r3, [r3, #0]
 8004560:	60bb      	str	r3, [r7, #8]
 8004562:	687b      	ldr	r3, [r7, #4]
 8004564:	681b      	ldr	r3, [r3, #0]
 8004566:	685b      	ldr	r3, [r3, #4]
 8004568:	60bb      	str	r3, [r7, #8]
 800456a:	68bb      	ldr	r3, [r7, #8]

    /* Check if DMA mode is enabled in UART */
    if (HAL_IS_BIT_SET(huart->Instance->CR3, USART_CR3_DMAR))
 800456c:	687b      	ldr	r3, [r7, #4]
 800456e:	681b      	ldr	r3, [r3, #0]
 8004570:	695b      	ldr	r3, [r3, #20]
 8004572:	f003 0340 	and.w	r3, r3, #64	@ 0x40
 8004576:	2b40      	cmp	r3, #64	@ 0x40
 8004578:	f040 80ce 	bne.w	8004718 <HAL_UART_IRQHandler+0x414>
    {
      /* DMA mode enabled */
      /* Check received length : If all expected data are received, do nothing,
         (DMA cplt callback will be called).
         Otherwise, if at least one data has already been received, IDLE event is to be notified to user */
      uint16_t nb_remaining_rx_data = (uint16_t) __HAL_DMA_GET_COUNTER(huart->hdmarx);
 800457c:	687b      	ldr	r3, [r7, #4]
 800457e:	6bdb      	ldr	r3, [r3, #60]	@ 0x3c
 8004580:	681b      	ldr	r3, [r3, #0]
 8004582:	685b      	ldr	r3, [r3, #4]
 8004584:	f8a7 30be 	strh.w	r3, [r7, #190]	@ 0xbe
      if ((nb_remaining_rx_data > 0U)
 8004588:	f8b7 30be 	ldrh.w	r3, [r7, #190]	@ 0xbe
 800458c:	2b00      	cmp	r3, #0
 800458e:	f000 80a9 	beq.w	80046e4 <HAL_UART_IRQHandler+0x3e0>
          && (nb_remaining_rx_data < huart->RxXferSize))
 8004592:	687b      	ldr	r3, [r7, #4]
 8004594:	8d9b      	ldrh	r3, [r3, #44]	@ 0x2c
 8004596:	f8b7 20be 	ldrh.w	r2, [r7, #190]	@ 0xbe
 800459a:	429a      	cmp	r2, r3
 800459c:	f080 80a2 	bcs.w	80046e4 <HAL_UART_IRQHandler+0x3e0>
      {
        /* Reception is not complete */
        huart->RxXferCount = nb_remaining_rx_data;
 80045a0:	687b      	ldr	r3, [r7, #4]
 80045a2:	f8b7 20be 	ldrh.w	r2, [r7, #190]	@ 0xbe
 80045a6:	85da      	strh	r2, [r3, #46]	@ 0x2e

        /* In Normal mode, end DMA xfer and HAL UART Rx process*/
        if (huart->hdmarx->Init.Mode != DMA_CIRCULAR)
 80045a8:	687b      	ldr	r3, [r7, #4]
 80045aa:	6bdb      	ldr	r3, [r3, #60]	@ 0x3c
 80045ac:	69db      	ldr	r3, [r3, #28]
 80045ae:	f5b3 7f80 	cmp.w	r3, #256	@ 0x100
 80045b2:	f000 8088 	beq.w	80046c6 <HAL_UART_IRQHandler+0x3c2>
        {
          /* Disable PE and ERR (Frame error, noise error, overrun error) interrupts */
          ATOMIC_CLEAR_BIT(huart->Instance->CR1, USART_CR1_PEIE);
 80045b6:	687b      	ldr	r3, [r7, #4]
 80045b8:	681b      	ldr	r3, [r3, #0]
 80045ba:	330c      	adds	r3, #12
 80045bc:	f8c7 3088 	str.w	r3, [r7, #136]	@ 0x88
   __ASM volatile ("ldrex %0, %1" : "=r" (result) : "Q" (*addr) );
 80045c0:	f8d7 3088 	ldr.w	r3, [r7, #136]	@ 0x88
 80045c4:	e853 3f00 	ldrex	r3, [r3]
 80045c8:	f8c7 3084 	str.w	r3, [r7, #132]	@ 0x84
   return(result);
 80045cc:	f8d7 3084 	ldr.w	r3, [r7, #132]	@ 0x84
 80045d0:	f423 7380 	bic.w	r3, r3, #256	@ 0x100
 80045d4:	f8c7 30b8 	str.w	r3, [r7, #184]	@ 0xb8
 80045d8:	687b      	ldr	r3, [r7, #4]
 80045da:	681b      	ldr	r3, [r3, #0]
 80045dc:	330c      	adds	r3, #12
 80045de:	f8d7 20b8 	ldr.w	r2, [r7, #184]	@ 0xb8
 80045e2:	f8c7 2094 	str.w	r2, [r7, #148]	@ 0x94
 80045e6:	f8c7 3090 	str.w	r3, [r7, #144]	@ 0x90
   __ASM volatile ("strex %0, %2, %1" : "=&r" (result), "=Q" (*addr) : "r" (value) );
 80045ea:	f8d7 1090 	ldr.w	r1, [r7, #144]	@ 0x90
 80045ee:	f8d7 2094 	ldr.w	r2, [r7, #148]	@ 0x94
 80045f2:	e841 2300 	strex	r3, r2, [r1]
 80045f6:	f8c7 308c 	str.w	r3, [r7, #140]	@ 0x8c
   return(result);
 80045fa:	f8d7 308c 	ldr.w	r3, [r7, #140]	@ 0x8c
 80045fe:	2b00      	cmp	r3, #0
 8004600:	d1d9      	bne.n	80045b6 <HAL_UART_IRQHandler+0x2b2>
          ATOMIC_CLEAR_BIT(huart->Instance->CR3, USART_CR3_EIE);
 8004602:	687b      	ldr	r3, [r7, #4]
 8004604:	681b      	ldr	r3, [r3, #0]
 8004606:	3314      	adds	r3, #20
 8004608:	677b      	str	r3, [r7, #116]	@ 0x74
   __ASM volatile ("ldrex %0, %1" : "=r" (result) : "Q" (*addr) );
 800460a:	6f7b      	ldr	r3, [r7, #116]	@ 0x74
 800460c:	e853 3f00 	ldrex	r3, [r3]
 8004610:	673b      	str	r3, [r7, #112]	@ 0x70
   return(result);
 8004612:	6f3b      	ldr	r3, [r7, #112]	@ 0x70
 8004614:	f023 0301 	bic.w	r3, r3, #1
 8004618:	f8c7 30b4 	str.w	r3, [r7, #180]	@ 0xb4
 800461c:	687b      	ldr	r3, [r7, #4]
 800461e:	681b      	ldr	r3, [r3, #0]
 8004620:	3314      	adds	r3, #20
 8004622:	f8d7 20b4 	ldr.w	r2, [r7, #180]	@ 0xb4
 8004626:	f8c7 2080 	str.w	r2, [r7, #128]	@ 0x80
 800462a:	67fb      	str	r3, [r7, #124]	@ 0x7c
   __ASM volatile ("strex %0, %2, %1" : "=&r" (result), "=Q" (*addr) : "r" (value) );
 800462c:	6ff9      	ldr	r1, [r7, #124]	@ 0x7c
 800462e:	f8d7 2080 	ldr.w	r2, [r7, #128]	@ 0x80
 8004632:	e841 2300 	strex	r3, r2, [r1]
 8004636:	67bb      	str	r3, [r7, #120]	@ 0x78
   return(result);
 8004638:	6fbb      	ldr	r3, [r7, #120]	@ 0x78
 800463a:	2b00      	cmp	r3, #0
 800463c:	d1e1      	bne.n	8004602 <HAL_UART_IRQHandler+0x2fe>

          /* Disable the DMA transfer for the receiver request by resetting the DMAR bit
             in the UART CR3 register */
          ATOMIC_CLEAR_BIT(huart->Instance->CR3, USART_CR3_DMAR);
 800463e:	687b      	ldr	r3, [r7, #4]
 8004640:	681b      	ldr	r3, [r3, #0]
 8004642:	3314      	adds	r3, #20
 8004644:	663b      	str	r3, [r7, #96]	@ 0x60
   __ASM volatile ("ldrex %0, %1" : "=r" (result) : "Q" (*addr) );
 8004646:	6e3b      	ldr	r3, [r7, #96]	@ 0x60
 8004648:	e853 3f00 	ldrex	r3, [r3]
 800464c:	65fb      	str	r3, [r7, #92]	@ 0x5c
   return(result);
 800464e:	6dfb      	ldr	r3, [r7, #92]	@ 0x5c
 8004650:	f023 0340 	bic.w	r3, r3, #64	@ 0x40
 8004654:	f8c7 30b0 	str.w	r3, [r7, #176]	@ 0xb0
 8004658:	687b      	ldr	r3, [r7, #4]
 800465a:	681b      	ldr	r3, [r3, #0]
 800465c:	3314      	adds	r3, #20
 800465e:	f8d7 20b0 	ldr.w	r2, [r7, #176]	@ 0xb0
 8004662:	66fa      	str	r2, [r7, #108]	@ 0x6c
 8004664:	66bb      	str	r3, [r7, #104]	@ 0x68
   __ASM volatile ("strex %0, %2, %1" : "=&r" (result), "=Q" (*addr) : "r" (value) );
 8004666:	6eb9      	ldr	r1, [r7, #104]	@ 0x68
 8004668:	6efa      	ldr	r2, [r7, #108]	@ 0x6c
 800466a:	e841 2300 	strex	r3, r2, [r1]
 800466e:	667b      	str	r3, [r7, #100]	@ 0x64
   return(result);
 8004670:	6e7b      	ldr	r3, [r7, #100]	@ 0x64
 8004672:	2b00      	cmp	r3, #0
 8004674:	d1e3      	bne.n	800463e <HAL_UART_IRQHandler+0x33a>

          /* At end of Rx process, restore huart->RxState to Ready */
          huart->RxState = HAL_UART_STATE_READY;
 8004676:	687b      	ldr	r3, [r7, #4]
 8004678:	2220      	movs	r2, #32
 800467a:	f883 2042 	strb.w	r2, [r3, #66]	@ 0x42
          huart->ReceptionType = HAL_UART_RECEPTION_STANDARD;
 800467e:	687b      	ldr	r3, [r7, #4]
 8004680:	2200      	movs	r2, #0
 8004682:	631a      	str	r2, [r3, #48]	@ 0x30

          ATOMIC_CLEAR_BIT(huart->Instance->CR1, USART_CR1_IDLEIE);
 8004684:	687b      	ldr	r3, [r7, #4]
 8004686:	681b      	ldr	r3, [r3, #0]
 8004688:	330c      	adds	r3, #12
 800468a:	64fb      	str	r3, [r7, #76]	@ 0x4c
   __ASM volatile ("ldrex %0, %1" : "=r" (result) : "Q" (*addr) );
 800468c:	6cfb      	ldr	r3, [r7, #76]	@ 0x4c
 800468e:	e853 3f00 	ldrex	r3, [r3]
 8004692:	64bb      	str	r3, [r7, #72]	@ 0x48
   return(result);
 8004694:	6cbb      	ldr	r3, [r7, #72]	@ 0x48
 8004696:	f023 0310 	bic.w	r3, r3, #16
 800469a:	f8c7 30ac 	str.w	r3, [r7, #172]	@ 0xac
 800469e:	687b      	ldr	r3, [r7, #4]
 80046a0:	681b      	ldr	r3, [r3, #0]
 80046a2:	330c      	adds	r3, #12
 80046a4:	f8d7 20ac 	ldr.w	r2, [r7, #172]	@ 0xac
 80046a8:	65ba      	str	r2, [r7, #88]	@ 0x58
 80046aa:	657b      	str	r3, [r7, #84]	@ 0x54
   __ASM volatile ("strex %0, %2, %1" : "=&r" (result), "=Q" (*addr) : "r" (value) );
 80046ac:	6d79      	ldr	r1, [r7, #84]	@ 0x54
 80046ae:	6dba      	ldr	r2, [r7, #88]	@ 0x58
 80046b0:	e841 2300 	strex	r3, r2, [r1]
 80046b4:	653b      	str	r3, [r7, #80]	@ 0x50
   return(result);
 80046b6:	6d3b      	ldr	r3, [r7, #80]	@ 0x50
 80046b8:	2b00      	cmp	r3, #0
 80046ba:	d1e3      	bne.n	8004684 <HAL_UART_IRQHandler+0x380>

          /* Last bytes received, so no need as the abort is immediate */
          (void)HAL_DMA_Abort(huart->hdmarx);
 80046bc:	687b      	ldr	r3, [r7, #4]
 80046be:	6bdb      	ldr	r3, [r3, #60]	@ 0x3c
 80046c0:	4618      	mov	r0, r3
 80046c2:	f7fd fe58 	bl	8002376 <HAL_DMA_Abort>
        }

        /* Initialize type of RxEvent that correspond to RxEvent callback execution;
        In this case, Rx Event type is Idle Event */
        huart->RxEventType = HAL_UART_RXEVENT_IDLE;
 80046c6:	687b      	ldr	r3, [r7, #4]
 80046c8:	2202      	movs	r2, #2
 80046ca:	635a      	str	r2, [r3, #52]	@ 0x34
#if (USE_HAL_UART_REGISTER_CALLBACKS == 1)
        /*Call registered Rx Event callback*/
        huart->RxEventCallback(huart, (huart->RxXferSize - huart->RxXferCount));
#else
        /*Call legacy weak Rx Event callback*/
        HAL_UARTEx_RxEventCallback(huart, (huart->RxXferSize - huart->RxXferCount));
 80046cc:	687b      	ldr	r3, [r7, #4]
 80046ce:	8d9a      	ldrh	r2, [r3, #44]	@ 0x2c
 80046d0:	687b      	ldr	r3, [r7, #4]
 80046d2:	8ddb      	ldrh	r3, [r3, #46]	@ 0x2e
 80046d4:	b29b      	uxth	r3, r3
 80046d6:	1ad3      	subs	r3, r2, r3
 80046d8:	b29b      	uxth	r3, r3
 80046da:	4619      	mov	r1, r3
 80046dc:	6878      	ldr	r0, [r7, #4]
 80046de:	f000 f8c5 	bl	800486c <HAL_UARTEx_RxEventCallback>
            HAL_UARTEx_RxEventCallback(huart, huart->RxXferSize);
#endif /* (USE_HAL_UART_REGISTER_CALLBACKS) */
          }
        }
      }
      return;
 80046e2:	e0b3      	b.n	800484c <HAL_UART_IRQHandler+0x548>
        if (nb_remaining_rx_data == huart->RxXferSize)
 80046e4:	687b      	ldr	r3, [r7, #4]
 80046e6:	8d9b      	ldrh	r3, [r3, #44]	@ 0x2c
 80046e8:	f8b7 20be 	ldrh.w	r2, [r7, #190]	@ 0xbe
 80046ec:	429a      	cmp	r2, r3
 80046ee:	f040 80ad 	bne.w	800484c <HAL_UART_IRQHandler+0x548>
          if (huart->hdmarx->Init.Mode == DMA_CIRCULAR)
 80046f2:	687b      	ldr	r3, [r7, #4]
 80046f4:	6bdb      	ldr	r3, [r3, #60]	@ 0x3c
 80046f6:	69db      	ldr	r3, [r3, #28]
 80046f8:	f5b3 7f80 	cmp.w	r3, #256	@ 0x100
 80046fc:	f040 80a6 	bne.w	800484c <HAL_UART_IRQHandler+0x548>
            huart->RxEventType = HAL_UART_RXEVENT_IDLE;
 8004700:	687b      	ldr	r3, [r7, #4]
 8004702:	2202      	movs	r2, #2
 8004704:	635a      	str	r2, [r3, #52]	@ 0x34
            HAL_UARTEx_RxEventCallback(huart, huart->RxXferSize);
 8004706:	687b      	ldr	r3, [r7, #4]
 8004708:	8d9b      	ldrh	r3, [r3, #44]	@ 0x2c
 800470a:	4619      	mov	r1, r3
 800470c:	6878      	ldr	r0, [r7, #4]
 800470e:	f000 f8ad 	bl	800486c <HAL_UARTEx_RxEventCallback>
      return;
 8004712:	e09b      	b.n	800484c <HAL_UART_IRQHandler+0x548>
 8004714:	08004a89 	.word	0x08004a89
    else
    {
      /* DMA mode not enabled */
      /* Check received length : If all expected data are received, do nothing.
         Otherwise, if at least one data has already been received, IDLE event is to be notified to user */
      uint16_t nb_rx_data = huart->RxXferSize - huart->RxXferCount;
 8004718:	687b      	ldr	r3, [r7, #4]
 800471a:	8d9a      	ldrh	r2, [r3, #44]	@ 0x2c
 800471c:	687b      	ldr	r3, [r7, #4]
 800471e:	8ddb      	ldrh	r3, [r3, #46]	@ 0x2e
 8004720:	b29b      	uxth	r3, r3
 8004722:	1ad3      	subs	r3, r2, r3
 8004724:	f8a7 30ce 	strh.w	r3, [r7, #206]	@ 0xce
      if ((huart->RxXferCount > 0U)
 8004728:	687b      	ldr	r3, [r7, #4]
 800472a:	8ddb      	ldrh	r3, [r3, #46]	@ 0x2e
 800472c:	b29b      	uxth	r3, r3
 800472e:	2b00      	cmp	r3, #0
 8004730:	f000 808e 	beq.w	8004850 <HAL_UART_IRQHandler+0x54c>
          && (nb_rx_data > 0U))
 8004734:	f8b7 30ce 	ldrh.w	r3, [r7, #206]	@ 0xce
 8004738:	2b00      	cmp	r3, #0
 800473a:	f000 8089 	beq.w	8004850 <HAL_UART_IRQHandler+0x54c>
      {
        /* Disable the UART Parity Error Interrupt and RXNE interrupts */
        ATOMIC_CLEAR_BIT(huart->Instance->CR1, (USART_CR1_RXNEIE | USART_CR1_PEIE));
 800473e:	687b      	ldr	r3, [r7, #4]
 8004740:	681b      	ldr	r3, [r3, #0]
 8004742:	330c      	adds	r3, #12
 8004744:	63bb      	str	r3, [r7, #56]	@ 0x38
   __ASM volatile ("ldrex %0, %1" : "=r" (result) : "Q" (*addr) );
 8004746:	6bbb      	ldr	r3, [r7, #56]	@ 0x38
 8004748:	e853 3f00 	ldrex	r3, [r3]
 800474c:	637b      	str	r3, [r7, #52]	@ 0x34
   return(result);
 800474e:	6b7b      	ldr	r3, [r7, #52]	@ 0x34
 8004750:	f423 7390 	bic.w	r3, r3, #288	@ 0x120
 8004754:	f8c7 30c8 	str.w	r3, [r7, #200]	@ 0xc8
 8004758:	687b      	ldr	r3, [r7, #4]
 800475a:	681b      	ldr	r3, [r3, #0]
 800475c:	330c      	adds	r3, #12
 800475e:	f8d7 20c8 	ldr.w	r2, [r7, #200]	@ 0xc8
 8004762:	647a      	str	r2, [r7, #68]	@ 0x44
 8004764:	643b      	str	r3, [r7, #64]	@ 0x40
   __ASM volatile ("strex %0, %2, %1" : "=&r" (result), "=Q" (*addr) : "r" (value) );
 8004766:	6c39      	ldr	r1, [r7, #64]	@ 0x40
 8004768:	6c7a      	ldr	r2, [r7, #68]	@ 0x44
 800476a:	e841 2300 	strex	r3, r2, [r1]
 800476e:	63fb      	str	r3, [r7, #60]	@ 0x3c
   return(result);
 8004770:	6bfb      	ldr	r3, [r7, #60]	@ 0x3c
 8004772:	2b00      	cmp	r3, #0
 8004774:	d1e3      	bne.n	800473e <HAL_UART_IRQHandler+0x43a>

        /* Disable the UART Error Interrupt: (Frame error, noise error, overrun error) */
        ATOMIC_CLEAR_BIT(huart->Instance->CR3, USART_CR3_EIE);
 8004776:	687b      	ldr	r3, [r7, #4]
 8004778:	681b      	ldr	r3, [r3, #0]
 800477a:	3314      	adds	r3, #20
 800477c:	627b      	str	r3, [r7, #36]	@ 0x24
   __ASM volatile ("ldrex %0, %1" : "=r" (result) : "Q" (*addr) );
 800477e:	6a7b      	ldr	r3, [r7, #36]	@ 0x24
 8004780:	e853 3f00 	ldrex	r3, [r3]
 8004784:	623b      	str	r3, [r7, #32]
   return(result);
 8004786:	6a3b      	ldr	r3, [r7, #32]
 8004788:	f023 0301 	bic.w	r3, r3, #1
 800478c:	f8c7 30c4 	str.w	r3, [r7, #196]	@ 0xc4
 8004790:	687b      	ldr	r3, [r7, #4]
 8004792:	681b      	ldr	r3, [r3, #0]
 8004794:	3314      	adds	r3, #20
 8004796:	f8d7 20c4 	ldr.w	r2, [r7, #196]	@ 0xc4
 800479a:	633a      	str	r2, [r7, #48]	@ 0x30
 800479c:	62fb      	str	r3, [r7, #44]	@ 0x2c
   __ASM volatile ("strex %0, %2, %1" : "=&r" (result), "=Q" (*addr) : "r" (value) );
 800479e:	6af9      	ldr	r1, [r7, #44]	@ 0x2c
 80047a0:	6b3a      	ldr	r2, [r7, #48]	@ 0x30
 80047a2:	e841 2300 	strex	r3, r2, [r1]
 80047a6:	62bb      	str	r3, [r7, #40]	@ 0x28
   return(result);
 80047a8:	6abb      	ldr	r3, [r7, #40]	@ 0x28
 80047aa:	2b00      	cmp	r3, #0
 80047ac:	d1e3      	bne.n	8004776 <HAL_UART_IRQHandler+0x472>

        /* Rx process is completed, restore huart->RxState to Ready */
        huart->RxState = HAL_UART_STATE_READY;
 80047ae:	687b      	ldr	r3, [r7, #4]
 80047b0:	2220      	movs	r2, #32
 80047b2:	f883 2042 	strb.w	r2, [r3, #66]	@ 0x42
        huart->ReceptionType = HAL_UART_RECEPTION_STANDARD;
 80047b6:	687b      	ldr	r3, [r7, #4]
 80047b8:	2200      	movs	r2, #0
 80047ba:	631a      	str	r2, [r3, #48]	@ 0x30

        ATOMIC_CLEAR_BIT(huart->Instance->CR1, USART_CR1_IDLEIE);
 80047bc:	687b      	ldr	r3, [r7, #4]
 80047be:	681b      	ldr	r3, [r3, #0]
 80047c0:	330c      	adds	r3, #12
 80047c2:	613b      	str	r3, [r7, #16]
   __ASM volatile ("ldrex %0, %1" : "=r" (result) : "Q" (*addr) );
 80047c4:	693b      	ldr	r3, [r7, #16]
 80047c6:	e853 3f00 	ldrex	r3, [r3]
 80047ca:	60fb      	str	r3, [r7, #12]
   return(result);
 80047cc:	68fb      	ldr	r3, [r7, #12]
 80047ce:	f023 0310 	bic.w	r3, r3, #16
 80047d2:	f8c7 30c0 	str.w	r3, [r7, #192]	@ 0xc0
 80047d6:	687b      	ldr	r3, [r7, #4]
 80047d8:	681b      	ldr	r3, [r3, #0]
 80047da:	330c      	adds	r3, #12
 80047dc:	f8d7 20c0 	ldr.w	r2, [r7, #192]	@ 0xc0
 80047e0:	61fa      	str	r2, [r7, #28]
 80047e2:	61bb      	str	r3, [r7, #24]
   __ASM volatile ("strex %0, %2, %1" : "=&r" (result), "=Q" (*addr) : "r" (value) );
 80047e4:	69b9      	ldr	r1, [r7, #24]
 80047e6:	69fa      	ldr	r2, [r7, #28]
 80047e8:	e841 2300 	strex	r3, r2, [r1]
 80047ec:	617b      	str	r3, [r7, #20]
   return(result);
 80047ee:	697b      	ldr	r3, [r7, #20]
 80047f0:	2b00      	cmp	r3, #0
 80047f2:	d1e3      	bne.n	80047bc <HAL_UART_IRQHandler+0x4b8>

        /* Initialize type of RxEvent that correspond to RxEvent callback execution;
           In this case, Rx Event type is Idle Event */
        huart->RxEventType = HAL_UART_RXEVENT_IDLE;
 80047f4:	687b      	ldr	r3, [r7, #4]
 80047f6:	2202      	movs	r2, #2
 80047f8:	635a      	str	r2, [r3, #52]	@ 0x34
#if (USE_HAL_UART_REGISTER_CALLBACKS == 1)
        /*Call registered Rx complete callback*/
        huart->RxEventCallback(huart, nb_rx_data);
#else
        /*Call legacy weak Rx Event callback*/
        HAL_UARTEx_RxEventCallback(huart, nb_rx_data);
 80047fa:	f8b7 30ce 	ldrh.w	r3, [r7, #206]	@ 0xce
 80047fe:	4619      	mov	r1, r3
 8004800:	6878      	ldr	r0, [r7, #4]
 8004802:	f000 f833 	bl	800486c <HAL_UARTEx_RxEventCallback>
#endif /* USE_HAL_UART_REGISTER_CALLBACKS */
      }
      return;
 8004806:	e023      	b.n	8004850 <HAL_UART_IRQHandler+0x54c>
    }
  }

  /* UART in mode Transmitter ------------------------------------------------*/
  if (((isrflags & USART_SR_TXE) != RESET) && ((cr1its & USART_CR1_TXEIE) != RESET))
 8004808:	f8d7 30e4 	ldr.w	r3, [r7, #228]	@ 0xe4
 800480c:	f003 0380 	and.w	r3, r3, #128	@ 0x80
 8004810:	2b00      	cmp	r3, #0
 8004812:	d009      	beq.n	8004828 <HAL_UART_IRQHandler+0x524>
 8004814:	f8d7 30e0 	ldr.w	r3, [r7, #224]	@ 0xe0
 8004818:	f003 0380 	and.w	r3, r3, #128	@ 0x80
 800481c:	2b00      	cmp	r3, #0
 800481e:	d003      	beq.n	8004828 <HAL_UART_IRQHandler+0x524>
  {
    UART_Transmit_IT(huart);
 8004820:	6878      	ldr	r0, [r7, #4]
 8004822:	f000 f942 	bl	8004aaa <UART_Transmit_IT>
    return;
 8004826:	e014      	b.n	8004852 <HAL_UART_IRQHandler+0x54e>
  }

  /* UART in mode Transmitter end --------------------------------------------*/
  if (((isrflags & USART_SR_TC) != RESET) && ((cr1its & USART_CR1_TCIE) != RESET))
 8004828:	f8d7 30e4 	ldr.w	r3, [r7, #228]	@ 0xe4
 800482c:	f003 0340 	and.w	r3, r3, #64	@ 0x40
 8004830:	2b00      	cmp	r3, #0
 8004832:	d00e      	beq.n	8004852 <HAL_UART_IRQHandler+0x54e>
 8004834:	f8d7 30e0 	ldr.w	r3, [r7, #224]	@ 0xe0
 8004838:	f003 0340 	and.w	r3, r3, #64	@ 0x40
 800483c:	2b00      	cmp	r3, #0
 800483e:	d008      	beq.n	8004852 <HAL_UART_IRQHandler+0x54e>
  {
    UART_EndTransmit_IT(huart);
 8004840:	6878      	ldr	r0, [r7, #4]
 8004842:	f000 f982 	bl	8004b4a <UART_EndTransmit_IT>
    return;
 8004846:	e004      	b.n	8004852 <HAL_UART_IRQHandler+0x54e>
    return;
 8004848:	bf00      	nop
 800484a:	e002      	b.n	8004852 <HAL_UART_IRQHandler+0x54e>
      return;
 800484c:	bf00      	nop
 800484e:	e000      	b.n	8004852 <HAL_UART_IRQHandler+0x54e>
      return;
 8004850:	bf00      	nop
  }
}
 8004852:	37e8      	adds	r7, #232	@ 0xe8
 8004854:	46bd      	mov	sp, r7
 8004856:	bd80      	pop	{r7, pc}

08004858 <HAL_UART_TxCpltCallback>:
  * @param  huart  Pointer to a UART_HandleTypeDef structure that contains
  *                the configuration information for the specified UART module.
  * @retval None
  */
__weak void HAL_UART_TxCpltCallback(UART_HandleTypeDef *huart)
{
 8004858:	b480      	push	{r7}
 800485a:	b083      	sub	sp, #12
 800485c:	af00      	add	r7, sp, #0
 800485e:	6078      	str	r0, [r7, #4]
  /* Prevent unused argument(s) compilation warning */
  UNUSED(huart);
  /* NOTE: This function should not be modified, when the callback is needed,
           the HAL_UART_TxCpltCallback could be implemented in the user file
   */
}
 8004860:	bf00      	nop
 8004862:	370c      	adds	r7, #12
 8004864:	46bd      	mov	sp, r7
 8004866:	f85d 7b04 	ldr.w	r7, [sp], #4
 800486a:	4770      	bx	lr

0800486c <HAL_UARTEx_RxEventCallback>:
  * @param  Size  Number of data available in application reception buffer (indicates a position in
  *               reception buffer until which, data are available)
  * @retval None
  */
__weak void HAL_UARTEx_RxEventCallback(UART_HandleTypeDef *huart, uint16_t Size)
{
 800486c:	b480      	push	{r7}
 800486e:	b083      	sub	sp, #12
 8004870:	af00      	add	r7, sp, #0
 8004872:	6078      	str	r0, [r7, #4]
 8004874:	460b      	mov	r3, r1
 8004876:	807b      	strh	r3, [r7, #2]
  UNUSED(Size);

  /* NOTE : This function should not be modified, when the callback is needed,
            the HAL_UARTEx_RxEventCallback can be implemented in the user file.
   */
}
 8004878:	bf00      	nop
 800487a:	370c      	adds	r7, #12
 800487c:	46bd      	mov	sp, r7
 800487e:	f85d 7b04 	ldr.w	r7, [sp], #4
 8004882:	4770      	bx	lr

08004884 <HAL_UART_GetError>:
  * @param  huart Pointer to a UART_HandleTypeDef structure that contains
  *               the configuration information for the specified UART.
  * @retval UART Error Code
  */
uint32_t HAL_UART_GetError(const UART_HandleTypeDef *huart)
{
 8004884:	b480      	push	{r7}
 8004886:	b083      	sub	sp, #12
 8004888:	af00      	add	r7, sp, #0
 800488a:	6078      	str	r0, [r7, #4]
  return huart->ErrorCode;
 800488c:	687b      	ldr	r3, [r7, #4]
 800488e:	6c5b      	ldr	r3, [r3, #68]	@ 0x44
}
 8004890:	4618      	mov	r0, r3
 8004892:	370c      	adds	r7, #12
 8004894:	46bd      	mov	sp, r7
 8004896:	f85d 7b04 	ldr.w	r7, [sp], #4
 800489a:	4770      	bx	lr

0800489c <UART_WaitOnFlagUntilTimeout>:
  * @param  Timeout Timeout duration
  * @retval HAL status
  */
static HAL_StatusTypeDef UART_WaitOnFlagUntilTimeout(UART_HandleTypeDef *huart, uint32_t Flag, FlagStatus Status,
                                                     uint32_t Tickstart, uint32_t Timeout)
{
 800489c:	b580      	push	{r7, lr}
 800489e:	b086      	sub	sp, #24
 80048a0:	af00      	add	r7, sp, #0
 80048a2:	60f8      	str	r0, [r7, #12]
 80048a4:	60b9      	str	r1, [r7, #8]
 80048a6:	603b      	str	r3, [r7, #0]
 80048a8:	4613      	mov	r3, r2
 80048aa:	71fb      	strb	r3, [r7, #7]
  /* Wait until flag is set */
  while ((__HAL_UART_GET_FLAG(huart, Flag) ? SET : RESET) == Status)
 80048ac:	e03b      	b.n	8004926 <UART_WaitOnFlagUntilTimeout+0x8a>
  {
    /* Check for the Timeout */
    if (Timeout != HAL_MAX_DELAY)
 80048ae:	6a3b      	ldr	r3, [r7, #32]
 80048b0:	f1b3 3fff 	cmp.w	r3, #4294967295
 80048b4:	d037      	beq.n	8004926 <UART_WaitOnFlagUntilTimeout+0x8a>
    {
      if (((HAL_GetTick() - Tickstart) > Timeout) || (Timeout == 0U))
 80048b6:	f7fd fc1d 	bl	80020f4 <HAL_GetTick>
 80048ba:	4602      	mov	r2, r0
 80048bc:	683b      	ldr	r3, [r7, #0]
 80048be:	1ad3      	subs	r3, r2, r3
 80048c0:	6a3a      	ldr	r2, [r7, #32]
 80048c2:	429a      	cmp	r2, r3
 80048c4:	d302      	bcc.n	80048cc <UART_WaitOnFlagUntilTimeout+0x30>
 80048c6:	6a3b      	ldr	r3, [r7, #32]
 80048c8:	2b00      	cmp	r3, #0
 80048ca:	d101      	bne.n	80048d0 <UART_WaitOnFlagUntilTimeout+0x34>
      {

        return HAL_TIMEOUT;
 80048cc:	2303      	movs	r3, #3
 80048ce:	e03a      	b.n	8004946 <UART_WaitOnFlagUntilTimeout+0xaa>
      }

      if ((READ_BIT(huart->Instance->CR1, USART_CR1_RE) != 0U) && (Flag != UART_FLAG_TXE) && (Flag != UART_FLAG_TC))
 80048d0:	68fb      	ldr	r3, [r7, #12]
 80048d2:	681b      	ldr	r3, [r3, #0]
 80048d4:	68db      	ldr	r3, [r3, #12]
 80048d6:	f003 0304 	and.w	r3, r3, #4
 80048da:	2b00      	cmp	r3, #0
 80048dc:	d023      	beq.n	8004926 <UART_WaitOnFlagUntilTimeout+0x8a>
 80048de:	68bb      	ldr	r3, [r7, #8]
 80048e0:	2b80      	cmp	r3, #128	@ 0x80
 80048e2:	d020      	beq.n	8004926 <UART_WaitOnFlagUntilTimeout+0x8a>
 80048e4:	68bb      	ldr	r3, [r7, #8]
 80048e6:	2b40      	cmp	r3, #64	@ 0x40
 80048e8:	d01d      	beq.n	8004926 <UART_WaitOnFlagUntilTimeout+0x8a>
      {
        if (__HAL_UART_GET_FLAG(huart, UART_FLAG_ORE) == SET)
 80048ea:	68fb      	ldr	r3, [r7, #12]
 80048ec:	681b      	ldr	r3, [r3, #0]
 80048ee:	681b      	ldr	r3, [r3, #0]
 80048f0:	f003 0308 	and.w	r3, r3, #8
 80048f4:	2b08      	cmp	r3, #8
 80048f6:	d116      	bne.n	8004926 <UART_WaitOnFlagUntilTimeout+0x8a>
        {
          /* Clear Overrun Error flag*/
          __HAL_UART_CLEAR_OREFLAG(huart);
 80048f8:	2300      	movs	r3, #0
 80048fa:	617b      	str	r3, [r7, #20]
 80048fc:	68fb      	ldr	r3, [r7, #12]
 80048fe:	681b      	ldr	r3, [r3, #0]
 8004900:	681b      	ldr	r3, [r3, #0]
 8004902:	617b      	str	r3, [r7, #20]
 8004904:	68fb      	ldr	r3, [r7, #12]
 8004906:	681b      	ldr	r3, [r3, #0]
 8004908:	685b      	ldr	r3, [r3, #4]
 800490a:	617b      	str	r3, [r7, #20]
 800490c:	697b      	ldr	r3, [r7, #20]

          /* Blocking error : transfer is aborted
          Set the UART state ready to be able to start again the process,
          Disable Rx Interrupts if ongoing */
          UART_EndRxTransfer(huart);
 800490e:	68f8      	ldr	r0, [r7, #12]
 8004910:	f000 f857 	bl	80049c2 <UART_EndRxTransfer>

          huart->ErrorCode = HAL_UART_ERROR_ORE;
 8004914:	68fb      	ldr	r3, [r7, #12]
 8004916:	2208      	movs	r2, #8
 8004918:	645a      	str	r2, [r3, #68]	@ 0x44

          /* Process Unlocked */
          __HAL_UNLOCK(huart);
 800491a:	68fb      	ldr	r3, [r7, #12]
 800491c:	2200      	movs	r2, #0
 800491e:	f883 2040 	strb.w	r2, [r3, #64]	@ 0x40

          return HAL_ERROR;
 8004922:	2301      	movs	r3, #1
 8004924:	e00f      	b.n	8004946 <UART_WaitOnFlagUntilTimeout+0xaa>
  while ((__HAL_UART_GET_FLAG(huart, Flag) ? SET : RESET) == Status)
 8004926:	68fb      	ldr	r3, [r7, #12]
 8004928:	681b      	ldr	r3, [r3, #0]
 800492a:	681a      	ldr	r2, [r3, #0]
 800492c:	68bb      	ldr	r3, [r7, #8]
 800492e:	4013      	ands	r3, r2
 8004930:	68ba      	ldr	r2, [r7, #8]
 8004932:	429a      	cmp	r2, r3
 8004934:	bf0c      	ite	eq
 8004936:	2301      	moveq	r3, #1
 8004938:	2300      	movne	r3, #0
 800493a:	b2db      	uxtb	r3, r3
 800493c:	461a      	mov	r2, r3
 800493e:	79fb      	ldrb	r3, [r7, #7]
 8004940:	429a      	cmp	r2, r3
 8004942:	d0b4      	beq.n	80048ae <UART_WaitOnFlagUntilTimeout+0x12>
        }
      }
    }
  }
  return HAL_OK;
 8004944:	2300      	movs	r3, #0
}
 8004946:	4618      	mov	r0, r3
 8004948:	3718      	adds	r7, #24
 800494a:	46bd      	mov	sp, r7
 800494c:	bd80      	pop	{r7, pc}

0800494e <UART_Start_Receive_IT>:
  * @param  pData Pointer to data buffer (u8 or u16 data elements).
  * @param  Size  Amount of data elements (u8 or u16) to be received.
  * @retval HAL status
  */
HAL_StatusTypeDef UART_Start_Receive_IT(UART_HandleTypeDef *huart, uint8_t *pData, uint16_t Size)
{
 800494e:	b480      	push	{r7}
 8004950:	b085      	sub	sp, #20
 8004952:	af00      	add	r7, sp, #0
 8004954:	60f8      	str	r0, [r7, #12]
 8004956:	60b9      	str	r1, [r7, #8]
 8004958:	4613      	mov	r3, r2
 800495a:	80fb      	strh	r3, [r7, #6]
  huart->pRxBuffPtr = pData;
 800495c:	68fb      	ldr	r3, [r7, #12]
 800495e:	68ba      	ldr	r2, [r7, #8]
 8004960:	629a      	str	r2, [r3, #40]	@ 0x28
  huart->RxXferSize = Size;
 8004962:	68fb      	ldr	r3, [r7, #12]
 8004964:	88fa      	ldrh	r2, [r7, #6]
 8004966:	859a      	strh	r2, [r3, #44]	@ 0x2c
  huart->RxXferCount = Size;
 8004968:	68fb      	ldr	r3, [r7, #12]
 800496a:	88fa      	ldrh	r2, [r7, #6]
 800496c:	85da      	strh	r2, [r3, #46]	@ 0x2e

  huart->ErrorCode = HAL_UART_ERROR_NONE;
 800496e:	68fb      	ldr	r3, [r7, #12]
 8004970:	2200      	movs	r2, #0
 8004972:	645a      	str	r2, [r3, #68]	@ 0x44
  huart->RxState = HAL_UART_STATE_BUSY_RX;
 8004974:	68fb      	ldr	r3, [r7, #12]
 8004976:	2222      	movs	r2, #34	@ 0x22
 8004978:	f883 2042 	strb.w	r2, [r3, #66]	@ 0x42

  if (huart->Init.Parity != UART_PARITY_NONE)
 800497c:	68fb      	ldr	r3, [r7, #12]
 800497e:	691b      	ldr	r3, [r3, #16]
 8004980:	2b00      	cmp	r3, #0
 8004982:	d007      	beq.n	8004994 <UART_Start_Receive_IT+0x46>
  {
    /* Enable the UART Parity Error Interrupt */
    __HAL_UART_ENABLE_IT(huart, UART_IT_PE);
 8004984:	68fb      	ldr	r3, [r7, #12]
 8004986:	681b      	ldr	r3, [r3, #0]
 8004988:	68da      	ldr	r2, [r3, #12]
 800498a:	68fb      	ldr	r3, [r7, #12]
 800498c:	681b      	ldr	r3, [r3, #0]
 800498e:	f442 7280 	orr.w	r2, r2, #256	@ 0x100
 8004992:	60da      	str	r2, [r3, #12]
  }

  /* Enable the UART Error Interrupt: (Frame error, noise error, overrun error) */
  __HAL_UART_ENABLE_IT(huart, UART_IT_ERR);
 8004994:	68fb      	ldr	r3, [r7, #12]
 8004996:	681b      	ldr	r3, [r3, #0]
 8004998:	695a      	ldr	r2, [r3, #20]
 800499a:	68fb      	ldr	r3, [r7, #12]
 800499c:	681b      	ldr	r3, [r3, #0]
 800499e:	f042 0201 	orr.w	r2, r2, #1
 80049a2:	615a      	str	r2, [r3, #20]

  /* Enable the UART Data Register not empty Interrupt */
  __HAL_UART_ENABLE_IT(huart, UART_IT_RXNE);
 80049a4:	68fb      	ldr	r3, [r7, #12]
 80049a6:	681b      	ldr	r3, [r3, #0]
 80049a8:	68da      	ldr	r2, [r3, #12]
 80049aa:	68fb      	ldr	r3, [r7, #12]
 80049ac:	681b      	ldr	r3, [r3, #0]
 80049ae:	f042 0220 	orr.w	r2, r2, #32
 80049b2:	60da      	str	r2, [r3, #12]

  return HAL_OK;
 80049b4:	2300      	movs	r3, #0
}
 80049b6:	4618      	mov	r0, r3
 80049b8:	3714      	adds	r7, #20
 80049ba:	46bd      	mov	sp, r7
 80049bc:	f85d 7b04 	ldr.w	r7, [sp], #4
 80049c0:	4770      	bx	lr

080049c2 <UART_EndRxTransfer>:
  * @brief  End ongoing Rx transfer on UART peripheral (following error detection or Reception completion).
  * @param  huart UART handle.
  * @retval None
  */
static void UART_EndRxTransfer(UART_HandleTypeDef *huart)
{
 80049c2:	b480      	push	{r7}
 80049c4:	b095      	sub	sp, #84	@ 0x54
 80049c6:	af00      	add	r7, sp, #0
 80049c8:	6078      	str	r0, [r7, #4]
  /* Disable RXNE, PE and ERR (Frame error, noise error, overrun error) interrupts */
  ATOMIC_CLEAR_BIT(huart->Instance->CR1, (USART_CR1_RXNEIE | USART_CR1_PEIE));
 80049ca:	687b      	ldr	r3, [r7, #4]
 80049cc:	681b      	ldr	r3, [r3, #0]
 80049ce:	330c      	adds	r3, #12
 80049d0:	637b      	str	r3, [r7, #52]	@ 0x34
   __ASM volatile ("ldrex %0, %1" : "=r" (result) : "Q" (*addr) );
 80049d2:	6b7b      	ldr	r3, [r7, #52]	@ 0x34
 80049d4:	e853 3f00 	ldrex	r3, [r3]
 80049d8:	633b      	str	r3, [r7, #48]	@ 0x30
   return(result);
 80049da:	6b3b      	ldr	r3, [r7, #48]	@ 0x30
 80049dc:	f423 7390 	bic.w	r3, r3, #288	@ 0x120
 80049e0:	64fb      	str	r3, [r7, #76]	@ 0x4c
 80049e2:	687b      	ldr	r3, [r7, #4]
 80049e4:	681b      	ldr	r3, [r3, #0]
 80049e6:	330c      	adds	r3, #12
 80049e8:	6cfa      	ldr	r2, [r7, #76]	@ 0x4c
 80049ea:	643a      	str	r2, [r7, #64]	@ 0x40
 80049ec:	63fb      	str	r3, [r7, #60]	@ 0x3c
   __ASM volatile ("strex %0, %2, %1" : "=&r" (result), "=Q" (*addr) : "r" (value) );
 80049ee:	6bf9      	ldr	r1, [r7, #60]	@ 0x3c
 80049f0:	6c3a      	ldr	r2, [r7, #64]	@ 0x40
 80049f2:	e841 2300 	strex	r3, r2, [r1]
 80049f6:	63bb      	str	r3, [r7, #56]	@ 0x38
   return(result);
 80049f8:	6bbb      	ldr	r3, [r7, #56]	@ 0x38
 80049fa:	2b00      	cmp	r3, #0
 80049fc:	d1e5      	bne.n	80049ca <UART_EndRxTransfer+0x8>
  ATOMIC_CLEAR_BIT(huart->Instance->CR3, USART_CR3_EIE);
 80049fe:	687b      	ldr	r3, [r7, #4]
 8004a00:	681b      	ldr	r3, [r3, #0]
 8004a02:	3314      	adds	r3, #20
 8004a04:	623b      	str	r3, [r7, #32]
   __ASM volatile ("ldrex %0, %1" : "=r" (result) : "Q" (*addr) );
 8004a06:	6a3b      	ldr	r3, [r7, #32]
 8004a08:	e853 3f00 	ldrex	r3, [r3]
 8004a0c:	61fb      	str	r3, [r7, #28]
   return(result);
 8004a0e:	69fb      	ldr	r3, [r7, #28]
 8004a10:	f023 0301 	bic.w	r3, r3, #1
 8004a14:	64bb      	str	r3, [r7, #72]	@ 0x48
 8004a16:	687b      	ldr	r3, [r7, #4]
 8004a18:	681b      	ldr	r3, [r3, #0]
 8004a1a:	3314      	adds	r3, #20
 8004a1c:	6cba      	ldr	r2, [r7, #72]	@ 0x48
 8004a1e:	62fa      	str	r2, [r7, #44]	@ 0x2c
 8004a20:	62bb      	str	r3, [r7, #40]	@ 0x28
   __ASM volatile ("strex %0, %2, %1" : "=&r" (result), "=Q" (*addr) : "r" (value) );
 8004a22:	6ab9      	ldr	r1, [r7, #40]	@ 0x28
 8004a24:	6afa      	ldr	r2, [r7, #44]	@ 0x2c
 8004a26:	e841 2300 	strex	r3, r2, [r1]
 8004a2a:	627b      	str	r3, [r7, #36]	@ 0x24
   return(result);
 8004a2c:	6a7b      	ldr	r3, [r7, #36]	@ 0x24
 8004a2e:	2b00      	cmp	r3, #0
 8004a30:	d1e5      	bne.n	80049fe <UART_EndRxTransfer+0x3c>

  /* In case of reception waiting for IDLE event, disable also the IDLE IE interrupt source */
  if (huart->ReceptionType == HAL_UART_RECEPTION_TOIDLE)
 8004a32:	687b      	ldr	r3, [r7, #4]
 8004a34:	6b1b      	ldr	r3, [r3, #48]	@ 0x30
 8004a36:	2b01      	cmp	r3, #1
 8004a38:	d119      	bne.n	8004a6e <UART_EndRxTransfer+0xac>
  {
    ATOMIC_CLEAR_BIT(huart->Instance->CR1, USART_CR1_IDLEIE);
 8004a3a:	687b      	ldr	r3, [r7, #4]
 8004a3c:	681b      	ldr	r3, [r3, #0]
 8004a3e:	330c      	adds	r3, #12
 8004a40:	60fb      	str	r3, [r7, #12]
   __ASM volatile ("ldrex %0, %1" : "=r" (result) : "Q" (*addr) );
 8004a42:	68fb      	ldr	r3, [r7, #12]
 8004a44:	e853 3f00 	ldrex	r3, [r3]
 8004a48:	60bb      	str	r3, [r7, #8]
   return(result);
 8004a4a:	68bb      	ldr	r3, [r7, #8]
 8004a4c:	f023 0310 	bic.w	r3, r3, #16
 8004a50:	647b      	str	r3, [r7, #68]	@ 0x44
 8004a52:	687b      	ldr	r3, [r7, #4]
 8004a54:	681b      	ldr	r3, [r3, #0]
 8004a56:	330c      	adds	r3, #12
 8004a58:	6c7a      	ldr	r2, [r7, #68]	@ 0x44
 8004a5a:	61ba      	str	r2, [r7, #24]
 8004a5c:	617b      	str	r3, [r7, #20]
   __ASM volatile ("strex %0, %2, %1" : "=&r" (result), "=Q" (*addr) : "r" (value) );
 8004a5e:	6979      	ldr	r1, [r7, #20]
 8004a60:	69ba      	ldr	r2, [r7, #24]
 8004a62:	e841 2300 	strex	r3, r2, [r1]
 8004a66:	613b      	str	r3, [r7, #16]
   return(result);
 8004a68:	693b      	ldr	r3, [r7, #16]
 8004a6a:	2b00      	cmp	r3, #0
 8004a6c:	d1e5      	bne.n	8004a3a <UART_EndRxTransfer+0x78>
  }

  /* At end of Rx process, restore huart->RxState to Ready */
  huart->RxState = HAL_UART_STATE_READY;
 8004a6e:	687b      	ldr	r3, [r7, #4]
 8004a70:	2220      	movs	r2, #32
 8004a72:	f883 2042 	strb.w	r2, [r3, #66]	@ 0x42
  huart->ReceptionType = HAL_UART_RECEPTION_STANDARD;
 8004a76:	687b      	ldr	r3, [r7, #4]
 8004a78:	2200      	movs	r2, #0
 8004a7a:	631a      	str	r2, [r3, #48]	@ 0x30
}
 8004a7c:	bf00      	nop
 8004a7e:	3754      	adds	r7, #84	@ 0x54
 8004a80:	46bd      	mov	sp, r7
 8004a82:	f85d 7b04 	ldr.w	r7, [sp], #4
 8004a86:	4770      	bx	lr

08004a88 <UART_DMAAbortOnError>:
  * @param  hdma  Pointer to a DMA_HandleTypeDef structure that contains
  *               the configuration information for the specified DMA module.
  * @retval None
  */
static void UART_DMAAbortOnError(DMA_HandleTypeDef *hdma)
{
 8004a88:	b580      	push	{r7, lr}
 8004a8a:	b084      	sub	sp, #16
 8004a8c:	af00      	add	r7, sp, #0
 8004a8e:	6078      	str	r0, [r7, #4]
  UART_HandleTypeDef *huart = (UART_HandleTypeDef *)((DMA_HandleTypeDef *)hdma)->Parent;
 8004a90:	687b      	ldr	r3, [r7, #4]
 8004a92:	6b9b      	ldr	r3, [r3, #56]	@ 0x38
 8004a94:	60fb      	str	r3, [r7, #12]
  huart->RxXferCount = 0x00U;
 8004a96:	68fb      	ldr	r3, [r7, #12]
 8004a98:	2200      	movs	r2, #0
 8004a9a:	85da      	strh	r2, [r3, #46]	@ 0x2e
#if (USE_HAL_UART_REGISTER_CALLBACKS == 1)
  /*Call registered error callback*/
  huart->ErrorCallback(huart);
#else
  /*Call legacy weak error callback*/
  HAL_UART_ErrorCallback(huart);
 8004a9c:	68f8      	ldr	r0, [r7, #12]
 8004a9e:	f7fc fc1d 	bl	80012dc <HAL_UART_ErrorCallback>
#endif /* USE_HAL_UART_REGISTER_CALLBACKS */
}
 8004aa2:	bf00      	nop
 8004aa4:	3710      	adds	r7, #16
 8004aa6:	46bd      	mov	sp, r7
 8004aa8:	bd80      	pop	{r7, pc}

08004aaa <UART_Transmit_IT>:
  * @param  huart  Pointer to a UART_HandleTypeDef structure that contains
  *                the configuration information for the specified UART module.
  * @retval HAL status
  */
static HAL_StatusTypeDef UART_Transmit_IT(UART_HandleTypeDef *huart)
{
 8004aaa:	b480      	push	{r7}
 8004aac:	b085      	sub	sp, #20
 8004aae:	af00      	add	r7, sp, #0
 8004ab0:	6078      	str	r0, [r7, #4]
  const uint16_t *tmp;

  /* Check that a Tx process is ongoing */
  if (huart->gState == HAL_UART_STATE_BUSY_TX)
 8004ab2:	687b      	ldr	r3, [r7, #4]
 8004ab4:	f893 3041 	ldrb.w	r3, [r3, #65]	@ 0x41
 8004ab8:	b2db      	uxtb	r3, r3
 8004aba:	2b21      	cmp	r3, #33	@ 0x21
 8004abc:	d13e      	bne.n	8004b3c <UART_Transmit_IT+0x92>
  {
    if ((huart->Init.WordLength == UART_WORDLENGTH_9B) && (huart->Init.Parity == UART_PARITY_NONE))
 8004abe:	687b      	ldr	r3, [r7, #4]
 8004ac0:	689b      	ldr	r3, [r3, #8]
 8004ac2:	f5b3 5f80 	cmp.w	r3, #4096	@ 0x1000
 8004ac6:	d114      	bne.n	8004af2 <UART_Transmit_IT+0x48>
 8004ac8:	687b      	ldr	r3, [r7, #4]
 8004aca:	691b      	ldr	r3, [r3, #16]
 8004acc:	2b00      	cmp	r3, #0
 8004ace:	d110      	bne.n	8004af2 <UART_Transmit_IT+0x48>
    {
      tmp = (const uint16_t *) huart->pTxBuffPtr;
 8004ad0:	687b      	ldr	r3, [r7, #4]
 8004ad2:	6a1b      	ldr	r3, [r3, #32]
 8004ad4:	60fb      	str	r3, [r7, #12]
      huart->Instance->DR = (uint16_t)(*tmp & (uint16_t)0x01FF);
 8004ad6:	68fb      	ldr	r3, [r7, #12]
 8004ad8:	881b      	ldrh	r3, [r3, #0]
 8004ada:	461a      	mov	r2, r3
 8004adc:	687b      	ldr	r3, [r7, #4]
 8004ade:	681b      	ldr	r3, [r3, #0]
 8004ae0:	f3c2 0208 	ubfx	r2, r2, #0, #9
 8004ae4:	605a      	str	r2, [r3, #4]
      huart->pTxBuffPtr += 2U;
 8004ae6:	687b      	ldr	r3, [r7, #4]
 8004ae8:	6a1b      	ldr	r3, [r3, #32]
 8004aea:	1c9a      	adds	r2, r3, #2
 8004aec:	687b      	ldr	r3, [r7, #4]
 8004aee:	621a      	str	r2, [r3, #32]
 8004af0:	e008      	b.n	8004b04 <UART_Transmit_IT+0x5a>
    }
    else
    {
      huart->Instance->DR = (uint8_t)(*huart->pTxBuffPtr++ & (uint8_t)0x00FF);
 8004af2:	687b      	ldr	r3, [r7, #4]
 8004af4:	6a1b      	ldr	r3, [r3, #32]
 8004af6:	1c59      	adds	r1, r3, #1
 8004af8:	687a      	ldr	r2, [r7, #4]
 8004afa:	6211      	str	r1, [r2, #32]
 8004afc:	781a      	ldrb	r2, [r3, #0]
 8004afe:	687b      	ldr	r3, [r7, #4]
 8004b00:	681b      	ldr	r3, [r3, #0]
 8004b02:	605a      	str	r2, [r3, #4]
    }

    if (--huart->TxXferCount == 0U)
 8004b04:	687b      	ldr	r3, [r7, #4]
 8004b06:	8cdb      	ldrh	r3, [r3, #38]	@ 0x26
 8004b08:	b29b      	uxth	r3, r3
 8004b0a:	3b01      	subs	r3, #1
 8004b0c:	b29b      	uxth	r3, r3
 8004b0e:	687a      	ldr	r2, [r7, #4]
 8004b10:	4619      	mov	r1, r3
 8004b12:	84d1      	strh	r1, [r2, #38]	@ 0x26
 8004b14:	2b00      	cmp	r3, #0
 8004b16:	d10f      	bne.n	8004b38 <UART_Transmit_IT+0x8e>
    {
      /* Disable the UART Transmit Data Register Empty Interrupt */
      __HAL_UART_DISABLE_IT(huart, UART_IT_TXE);
 8004b18:	687b      	ldr	r3, [r7, #4]
 8004b1a:	681b      	ldr	r3, [r3, #0]
 8004b1c:	68da      	ldr	r2, [r3, #12]
 8004b1e:	687b      	ldr	r3, [r7, #4]
 8004b20:	681b      	ldr	r3, [r3, #0]
 8004b22:	f022 0280 	bic.w	r2, r2, #128	@ 0x80
 8004b26:	60da      	str	r2, [r3, #12]

      /* Enable the UART Transmit Complete Interrupt */
      __HAL_UART_ENABLE_IT(huart, UART_IT_TC);
 8004b28:	687b      	ldr	r3, [r7, #4]
 8004b2a:	681b      	ldr	r3, [r3, #0]
 8004b2c:	68da      	ldr	r2, [r3, #12]
 8004b2e:	687b      	ldr	r3, [r7, #4]
 8004b30:	681b      	ldr	r3, [r3, #0]
 8004b32:	f042 0240 	orr.w	r2, r2, #64	@ 0x40
 8004b36:	60da      	str	r2, [r3, #12]
    }
    return HAL_OK;
 8004b38:	2300      	movs	r3, #0
 8004b3a:	e000      	b.n	8004b3e <UART_Transmit_IT+0x94>
  }
  else
  {
    return HAL_BUSY;
 8004b3c:	2302      	movs	r3, #2
  }
}
 8004b3e:	4618      	mov	r0, r3
 8004b40:	3714      	adds	r7, #20
 8004b42:	46bd      	mov	sp, r7
 8004b44:	f85d 7b04 	ldr.w	r7, [sp], #4
 8004b48:	4770      	bx	lr

08004b4a <UART_EndTransmit_IT>:
  * @param  huart  Pointer to a UART_HandleTypeDef structure that contains
  *                the configuration information for the specified UART module.
  * @retval HAL status
  */
static HAL_StatusTypeDef UART_EndTransmit_IT(UART_HandleTypeDef *huart)
{
 8004b4a:	b580      	push	{r7, lr}
 8004b4c:	b082      	sub	sp, #8
 8004b4e:	af00      	add	r7, sp, #0
 8004b50:	6078      	str	r0, [r7, #4]
  /* Disable the UART Transmit Complete Interrupt */
  __HAL_UART_DISABLE_IT(huart, UART_IT_TC);
 8004b52:	687b      	ldr	r3, [r7, #4]
 8004b54:	681b      	ldr	r3, [r3, #0]
 8004b56:	68da      	ldr	r2, [r3, #12]
 8004b58:	687b      	ldr	r3, [r7, #4]
 8004b5a:	681b      	ldr	r3, [r3, #0]
 8004b5c:	f022 0240 	bic.w	r2, r2, #64	@ 0x40
 8004b60:	60da      	str	r2, [r3, #12]

  /* Tx process is ended, restore huart->gState to Ready */
  huart->gState = HAL_UART_STATE_READY;
 8004b62:	687b      	ldr	r3, [r7, #4]
 8004b64:	2220      	movs	r2, #32
 8004b66:	f883 2041 	strb.w	r2, [r3, #65]	@ 0x41
#if (USE_HAL_UART_REGISTER_CALLBACKS == 1)
  /*Call registered Tx complete callback*/
  huart->TxCpltCallback(huart);
#else
  /*Call legacy weak Tx complete callback*/
  HAL_UART_TxCpltCallback(huart);
 8004b6a:	6878      	ldr	r0, [r7, #4]
 8004b6c:	f7ff fe74 	bl	8004858 <HAL_UART_TxCpltCallback>
#endif /* USE_HAL_UART_REGISTER_CALLBACKS */

  return HAL_OK;
 8004b70:	2300      	movs	r3, #0
}
 8004b72:	4618      	mov	r0, r3
 8004b74:	3708      	adds	r7, #8
 8004b76:	46bd      	mov	sp, r7
 8004b78:	bd80      	pop	{r7, pc}

08004b7a <UART_Receive_IT>:
  * @param  huart  Pointer to a UART_HandleTypeDef structure that contains
  *                the configuration information for the specified UART module.
  * @retval HAL status
  */
static HAL_StatusTypeDef UART_Receive_IT(UART_HandleTypeDef *huart)
{
 8004b7a:	b580      	push	{r7, lr}
 8004b7c:	b08c      	sub	sp, #48	@ 0x30
 8004b7e:	af00      	add	r7, sp, #0
 8004b80:	6078      	str	r0, [r7, #4]
  uint8_t  *pdata8bits = NULL;
 8004b82:	2300      	movs	r3, #0
 8004b84:	62fb      	str	r3, [r7, #44]	@ 0x2c
  uint16_t *pdata16bits = NULL;
 8004b86:	2300      	movs	r3, #0
 8004b88:	62bb      	str	r3, [r7, #40]	@ 0x28

  /* Check that a Rx process is ongoing */
  if (huart->RxState == HAL_UART_STATE_BUSY_RX)
 8004b8a:	687b      	ldr	r3, [r7, #4]
 8004b8c:	f893 3042 	ldrb.w	r3, [r3, #66]	@ 0x42
 8004b90:	b2db      	uxtb	r3, r3
 8004b92:	2b22      	cmp	r3, #34	@ 0x22
 8004b94:	f040 80aa 	bne.w	8004cec <UART_Receive_IT+0x172>
  {
    if ((huart->Init.WordLength == UART_WORDLENGTH_9B) && (huart->Init.Parity == UART_PARITY_NONE))
 8004b98:	687b      	ldr	r3, [r7, #4]
 8004b9a:	689b      	ldr	r3, [r3, #8]
 8004b9c:	f5b3 5f80 	cmp.w	r3, #4096	@ 0x1000
 8004ba0:	d115      	bne.n	8004bce <UART_Receive_IT+0x54>
 8004ba2:	687b      	ldr	r3, [r7, #4]
 8004ba4:	691b      	ldr	r3, [r3, #16]
 8004ba6:	2b00      	cmp	r3, #0
 8004ba8:	d111      	bne.n	8004bce <UART_Receive_IT+0x54>
    {
      /* Unused pdata8bits */
      UNUSED(pdata8bits);
      pdata16bits = (uint16_t *) huart->pRxBuffPtr;
 8004baa:	687b      	ldr	r3, [r7, #4]
 8004bac:	6a9b      	ldr	r3, [r3, #40]	@ 0x28
 8004bae:	62bb      	str	r3, [r7, #40]	@ 0x28
      *pdata16bits = (uint16_t)(huart->Instance->DR & (uint16_t)0x01FF);
 8004bb0:	687b      	ldr	r3, [r7, #4]
 8004bb2:	681b      	ldr	r3, [r3, #0]
 8004bb4:	685b      	ldr	r3, [r3, #4]
 8004bb6:	b29b      	uxth	r3, r3
 8004bb8:	f3c3 0308 	ubfx	r3, r3, #0, #9
 8004bbc:	b29a      	uxth	r2, r3
 8004bbe:	6abb      	ldr	r3, [r7, #40]	@ 0x28
 8004bc0:	801a      	strh	r2, [r3, #0]
      huart->pRxBuffPtr += 2U;
 8004bc2:	687b      	ldr	r3, [r7, #4]
 8004bc4:	6a9b      	ldr	r3, [r3, #40]	@ 0x28
 8004bc6:	1c9a      	adds	r2, r3, #2
 8004bc8:	687b      	ldr	r3, [r7, #4]
 8004bca:	629a      	str	r2, [r3, #40]	@ 0x28
 8004bcc:	e024      	b.n	8004c18 <UART_Receive_IT+0x9e>
    }
    else
    {
      pdata8bits = (uint8_t *) huart->pRxBuffPtr;
 8004bce:	687b      	ldr	r3, [r7, #4]
 8004bd0:	6a9b      	ldr	r3, [r3, #40]	@ 0x28
 8004bd2:	62fb      	str	r3, [r7, #44]	@ 0x2c
      /* Unused pdata16bits */
      UNUSED(pdata16bits);

      if ((huart->Init.WordLength == UART_WORDLENGTH_9B) || ((huart->Init.WordLength == UART_WORDLENGTH_8B) && (huart->Init.Parity == UART_PARITY_NONE)))
 8004bd4:	687b      	ldr	r3, [r7, #4]
 8004bd6:	689b      	ldr	r3, [r3, #8]
 8004bd8:	f5b3 5f80 	cmp.w	r3, #4096	@ 0x1000
 8004bdc:	d007      	beq.n	8004bee <UART_Receive_IT+0x74>
 8004bde:	687b      	ldr	r3, [r7, #4]
 8004be0:	689b      	ldr	r3, [r3, #8]
 8004be2:	2b00      	cmp	r3, #0
 8004be4:	d10a      	bne.n	8004bfc <UART_Receive_IT+0x82>
 8004be6:	687b      	ldr	r3, [r7, #4]
 8004be8:	691b      	ldr	r3, [r3, #16]
 8004bea:	2b00      	cmp	r3, #0
 8004bec:	d106      	bne.n	8004bfc <UART_Receive_IT+0x82>
      {
        *pdata8bits = (uint8_t)(huart->Instance->DR & (uint8_t)0x00FF);
 8004bee:	687b      	ldr	r3, [r7, #4]
 8004bf0:	681b      	ldr	r3, [r3, #0]
 8004bf2:	685b      	ldr	r3, [r3, #4]
 8004bf4:	b2da      	uxtb	r2, r3
 8004bf6:	6afb      	ldr	r3, [r7, #44]	@ 0x2c
 8004bf8:	701a      	strb	r2, [r3, #0]
 8004bfa:	e008      	b.n	8004c0e <UART_Receive_IT+0x94>
      }
      else
      {
        *pdata8bits = (uint8_t)(huart->Instance->DR & (uint8_t)0x007F);
 8004bfc:	687b      	ldr	r3, [r7, #4]
 8004bfe:	681b      	ldr	r3, [r3, #0]
 8004c00:	685b      	ldr	r3, [r3, #4]
 8004c02:	b2db      	uxtb	r3, r3
 8004c04:	f003 037f 	and.w	r3, r3, #127	@ 0x7f
 8004c08:	b2da      	uxtb	r2, r3
 8004c0a:	6afb      	ldr	r3, [r7, #44]	@ 0x2c
 8004c0c:	701a      	strb	r2, [r3, #0]
      }
      huart->pRxBuffPtr += 1U;
 8004c0e:	687b      	ldr	r3, [r7, #4]
 8004c10:	6a9b      	ldr	r3, [r3, #40]	@ 0x28
 8004c12:	1c5a      	adds	r2, r3, #1
 8004c14:	687b      	ldr	r3, [r7, #4]
 8004c16:	629a      	str	r2, [r3, #40]	@ 0x28
    }

    if (--huart->RxXferCount == 0U)
 8004c18:	687b      	ldr	r3, [r7, #4]
 8004c1a:	8ddb      	ldrh	r3, [r3, #46]	@ 0x2e
 8004c1c:	b29b      	uxth	r3, r3
 8004c1e:	3b01      	subs	r3, #1
 8004c20:	b29b      	uxth	r3, r3
 8004c22:	687a      	ldr	r2, [r7, #4]
 8004c24:	4619      	mov	r1, r3
 8004c26:	85d1      	strh	r1, [r2, #46]	@ 0x2e
 8004c28:	2b00      	cmp	r3, #0
 8004c2a:	d15d      	bne.n	8004ce8 <UART_Receive_IT+0x16e>
    {
      /* Disable the UART Data Register not empty Interrupt */
      __HAL_UART_DISABLE_IT(huart, UART_IT_RXNE);
 8004c2c:	687b      	ldr	r3, [r7, #4]
 8004c2e:	681b      	ldr	r3, [r3, #0]
 8004c30:	68da      	ldr	r2, [r3, #12]
 8004c32:	687b      	ldr	r3, [r7, #4]
 8004c34:	681b      	ldr	r3, [r3, #0]
 8004c36:	f022 0220 	bic.w	r2, r2, #32
 8004c3a:	60da      	str	r2, [r3, #12]

      /* Disable the UART Parity Error Interrupt */
      __HAL_UART_DISABLE_IT(huart, UART_IT_PE);
 8004c3c:	687b      	ldr	r3, [r7, #4]
 8004c3e:	681b      	ldr	r3, [r3, #0]
 8004c40:	68da      	ldr	r2, [r3, #12]
 8004c42:	687b      	ldr	r3, [r7, #4]
 8004c44:	681b      	ldr	r3, [r3, #0]
 8004c46:	f422 7280 	bic.w	r2, r2, #256	@ 0x100
 8004c4a:	60da      	str	r2, [r3, #12]

      /* Disable the UART Error Interrupt: (Frame error, noise error, overrun error) */
      __HAL_UART_DISABLE_IT(huart, UART_IT_ERR);
 8004c4c:	687b      	ldr	r3, [r7, #4]
 8004c4e:	681b      	ldr	r3, [r3, #0]
 8004c50:	695a      	ldr	r2, [r3, #20]
 8004c52:	687b      	ldr	r3, [r7, #4]
 8004c54:	681b      	ldr	r3, [r3, #0]
 8004c56:	f022 0201 	bic.w	r2, r2, #1
 8004c5a:	615a      	str	r2, [r3, #20]

      /* Rx process is completed, restore huart->RxState to Ready */
      huart->RxState = HAL_UART_STATE_READY;
 8004c5c:	687b      	ldr	r3, [r7, #4]
 8004c5e:	2220      	movs	r2, #32
 8004c60:	f883 2042 	strb.w	r2, [r3, #66]	@ 0x42

      /* Initialize type of RxEvent to Transfer Complete */
      huart->RxEventType = HAL_UART_RXEVENT_TC;
 8004c64:	687b      	ldr	r3, [r7, #4]
 8004c66:	2200      	movs	r2, #0
 8004c68:	635a      	str	r2, [r3, #52]	@ 0x34

      /* Check current reception Mode :
         If Reception till IDLE event has been selected : */
      if (huart->ReceptionType == HAL_UART_RECEPTION_TOIDLE)
 8004c6a:	687b      	ldr	r3, [r7, #4]
 8004c6c:	6b1b      	ldr	r3, [r3, #48]	@ 0x30
 8004c6e:	2b01      	cmp	r3, #1
 8004c70:	d135      	bne.n	8004cde <UART_Receive_IT+0x164>
      {
        /* Set reception type to Standard */
        huart->ReceptionType = HAL_UART_RECEPTION_STANDARD;
 8004c72:	687b      	ldr	r3, [r7, #4]
 8004c74:	2200      	movs	r2, #0
 8004c76:	631a      	str	r2, [r3, #48]	@ 0x30

        /* Disable IDLE interrupt */
        ATOMIC_CLEAR_BIT(huart->Instance->CR1, USART_CR1_IDLEIE);
 8004c78:	687b      	ldr	r3, [r7, #4]
 8004c7a:	681b      	ldr	r3, [r3, #0]
 8004c7c:	330c      	adds	r3, #12
 8004c7e:	617b      	str	r3, [r7, #20]
   __ASM volatile ("ldrex %0, %1" : "=r" (result) : "Q" (*addr) );
 8004c80:	697b      	ldr	r3, [r7, #20]
 8004c82:	e853 3f00 	ldrex	r3, [r3]
 8004c86:	613b      	str	r3, [r7, #16]
   return(result);
 8004c88:	693b      	ldr	r3, [r7, #16]
 8004c8a:	f023 0310 	bic.w	r3, r3, #16
 8004c8e:	627b      	str	r3, [r7, #36]	@ 0x24
 8004c90:	687b      	ldr	r3, [r7, #4]
 8004c92:	681b      	ldr	r3, [r3, #0]
 8004c94:	330c      	adds	r3, #12
 8004c96:	6a7a      	ldr	r2, [r7, #36]	@ 0x24
 8004c98:	623a      	str	r2, [r7, #32]
 8004c9a:	61fb      	str	r3, [r7, #28]
   __ASM volatile ("strex %0, %2, %1" : "=&r" (result), "=Q" (*addr) : "r" (value) );
 8004c9c:	69f9      	ldr	r1, [r7, #28]
 8004c9e:	6a3a      	ldr	r2, [r7, #32]
 8004ca0:	e841 2300 	strex	r3, r2, [r1]
 8004ca4:	61bb      	str	r3, [r7, #24]
   return(result);
 8004ca6:	69bb      	ldr	r3, [r7, #24]
 8004ca8:	2b00      	cmp	r3, #0
 8004caa:	d1e5      	bne.n	8004c78 <UART_Receive_IT+0xfe>

        /* Check if IDLE flag is set */
        if (__HAL_UART_GET_FLAG(huart, UART_FLAG_IDLE))
 8004cac:	687b      	ldr	r3, [r7, #4]
 8004cae:	681b      	ldr	r3, [r3, #0]
 8004cb0:	681b      	ldr	r3, [r3, #0]
 8004cb2:	f003 0310 	and.w	r3, r3, #16
 8004cb6:	2b10      	cmp	r3, #16
 8004cb8:	d10a      	bne.n	8004cd0 <UART_Receive_IT+0x156>
        {
          /* Clear IDLE flag in ISR */
          __HAL_UART_CLEAR_IDLEFLAG(huart);
 8004cba:	2300      	movs	r3, #0
 8004cbc:	60fb      	str	r3, [r7, #12]
 8004cbe:	687b      	ldr	r3, [r7, #4]
 8004cc0:	681b      	ldr	r3, [r3, #0]
 8004cc2:	681b      	ldr	r3, [r3, #0]
 8004cc4:	60fb      	str	r3, [r7, #12]
 8004cc6:	687b      	ldr	r3, [r7, #4]
 8004cc8:	681b      	ldr	r3, [r3, #0]
 8004cca:	685b      	ldr	r3, [r3, #4]
 8004ccc:	60fb      	str	r3, [r7, #12]
 8004cce:	68fb      	ldr	r3, [r7, #12]
#if (USE_HAL_UART_REGISTER_CALLBACKS == 1)
        /*Call registered Rx Event callback*/
        huart->RxEventCallback(huart, huart->RxXferSize);
#else
        /*Call legacy weak Rx Event callback*/
        HAL_UARTEx_RxEventCallback(huart, huart->RxXferSize);
 8004cd0:	687b      	ldr	r3, [r7, #4]
 8004cd2:	8d9b      	ldrh	r3, [r3, #44]	@ 0x2c
 8004cd4:	4619      	mov	r1, r3
 8004cd6:	6878      	ldr	r0, [r7, #4]
 8004cd8:	f7ff fdc8 	bl	800486c <HAL_UARTEx_RxEventCallback>
 8004cdc:	e002      	b.n	8004ce4 <UART_Receive_IT+0x16a>
#if (USE_HAL_UART_REGISTER_CALLBACKS == 1)
        /*Call registered Rx complete callback*/
        huart->RxCpltCallback(huart);
#else
        /*Call legacy weak Rx complete callback*/
        HAL_UART_RxCpltCallback(huart);
 8004cde:	6878      	ldr	r0, [r7, #4]
 8004ce0:	f7fc fa68 	bl	80011b4 <HAL_UART_RxCpltCallback>
#endif /* USE_HAL_UART_REGISTER_CALLBACKS */
      }

      return HAL_OK;
 8004ce4:	2300      	movs	r3, #0
 8004ce6:	e002      	b.n	8004cee <UART_Receive_IT+0x174>
    }
    return HAL_OK;
 8004ce8:	2300      	movs	r3, #0
 8004cea:	e000      	b.n	8004cee <UART_Receive_IT+0x174>
  }
  else
  {
    return HAL_BUSY;
 8004cec:	2302      	movs	r3, #2
  }
}
 8004cee:	4618      	mov	r0, r3
 8004cf0:	3730      	adds	r7, #48	@ 0x30
 8004cf2:	46bd      	mov	sp, r7
 8004cf4:	bd80      	pop	{r7, pc}
	...

08004cf8 <UART_SetConfig>:
  * @param  huart  Pointer to a UART_HandleTypeDef structure that contains
  *                the configuration information for the specified UART module.
  * @retval None
  */
static void UART_SetConfig(UART_HandleTypeDef *huart)
{
 8004cf8:	e92d 4fb0 	stmdb	sp!, {r4, r5, r7, r8, r9, sl, fp, lr}
 8004cfc:	b0c0      	sub	sp, #256	@ 0x100
 8004cfe:	af00      	add	r7, sp, #0
 8004d00:	f8c7 00f4 	str.w	r0, [r7, #244]	@ 0xf4
  assert_param(IS_UART_MODE(huart->Init.Mode));

  /*-------------------------- USART CR2 Configuration -----------------------*/
  /* Configure the UART Stop Bits: Set STOP[13:12] bits
     according to huart->Init.StopBits value */
  MODIFY_REG(huart->Instance->CR2, USART_CR2_STOP, huart->Init.StopBits);
 8004d04:	f8d7 30f4 	ldr.w	r3, [r7, #244]	@ 0xf4
 8004d08:	681b      	ldr	r3, [r3, #0]
 8004d0a:	691b      	ldr	r3, [r3, #16]
 8004d0c:	f423 5040 	bic.w	r0, r3, #12288	@ 0x3000
 8004d10:	f8d7 30f4 	ldr.w	r3, [r7, #244]	@ 0xf4
 8004d14:	68d9      	ldr	r1, [r3, #12]
 8004d16:	f8d7 30f4 	ldr.w	r3, [r7, #244]	@ 0xf4
 8004d1a:	681a      	ldr	r2, [r3, #0]
 8004d1c:	ea40 0301 	orr.w	r3, r0, r1
 8004d20:	6113      	str	r3, [r2, #16]
     Set the M bits according to huart->Init.WordLength value
     Set PCE and PS bits according to huart->Init.Parity value
     Set TE and RE bits according to huart->Init.Mode value
     Set OVER8 bit according to huart->Init.OverSampling value */

  tmpreg = (uint32_t)huart->Init.WordLength | huart->Init.Parity | huart->Init.Mode | huart->Init.OverSampling;
 8004d22:	f8d7 30f4 	ldr.w	r3, [r7, #244]	@ 0xf4
 8004d26:	689a      	ldr	r2, [r3, #8]
 8004d28:	f8d7 30f4 	ldr.w	r3, [r7, #244]	@ 0xf4
 8004d2c:	691b      	ldr	r3, [r3, #16]
 8004d2e:	431a      	orrs	r2, r3
 8004d30:	f8d7 30f4 	ldr.w	r3, [r7, #244]	@ 0xf4
 8004d34:	695b      	ldr	r3, [r3, #20]
 8004d36:	431a      	orrs	r2, r3
 8004d38:	f8d7 30f4 	ldr.w	r3, [r7, #244]	@ 0xf4
 8004d3c:	69db      	ldr	r3, [r3, #28]
 8004d3e:	4313      	orrs	r3, r2
 8004d40:	f8c7 30f8 	str.w	r3, [r7, #248]	@ 0xf8
  MODIFY_REG(huart->Instance->CR1,
 8004d44:	f8d7 30f4 	ldr.w	r3, [r7, #244]	@ 0xf4
 8004d48:	681b      	ldr	r3, [r3, #0]
 8004d4a:	68db      	ldr	r3, [r3, #12]
 8004d4c:	f423 4116 	bic.w	r1, r3, #38400	@ 0x9600
 8004d50:	f021 010c 	bic.w	r1, r1, #12
 8004d54:	f8d7 30f4 	ldr.w	r3, [r7, #244]	@ 0xf4
 8004d58:	681a      	ldr	r2, [r3, #0]
 8004d5a:	f8d7 30f8 	ldr.w	r3, [r7, #248]	@ 0xf8
 8004d5e:	430b      	orrs	r3, r1
 8004d60:	60d3      	str	r3, [r2, #12]
             (uint32_t)(USART_CR1_M | USART_CR1_PCE | USART_CR1_PS | USART_CR1_TE | USART_CR1_RE | USART_CR1_OVER8),
             tmpreg);

  /*-------------------------- USART CR3 Configuration -----------------------*/
  /* Configure the UART HFC: Set CTSE and RTSE bits according to huart->Init.HwFlowCtl value */
  MODIFY_REG(huart->Instance->CR3, (USART_CR3_RTSE | USART_CR3_CTSE), huart->Init.HwFlowCtl);
 8004d62:	f8d7 30f4 	ldr.w	r3, [r7, #244]	@ 0xf4
 8004d66:	681b      	ldr	r3, [r3, #0]
 8004d68:	695b      	ldr	r3, [r3, #20]
 8004d6a:	f423 7040 	bic.w	r0, r3, #768	@ 0x300
 8004d6e:	f8d7 30f4 	ldr.w	r3, [r7, #244]	@ 0xf4
 8004d72:	6999      	ldr	r1, [r3, #24]
 8004d74:	f8d7 30f4 	ldr.w	r3, [r7, #244]	@ 0xf4
 8004d78:	681a      	ldr	r2, [r3, #0]
 8004d7a:	ea40 0301 	orr.w	r3, r0, r1
 8004d7e:	6153      	str	r3, [r2, #20]
    if ((huart->Instance == USART1) || (huart->Instance == USART6) || (huart->Instance == UART9) || (huart->Instance == UART10))
    {
      pclk = HAL_RCC_GetPCLK2Freq();
    }
#elif defined(USART6)
    if ((huart->Instance == USART1) || (huart->Instance == USART6))
 8004d80:	f8d7 30f4 	ldr.w	r3, [r7, #244]	@ 0xf4
 8004d84:	681a      	ldr	r2, [r3, #0]
 8004d86:	4b8f      	ldr	r3, [pc, #572]	@ (8004fc4 <UART_SetConfig+0x2cc>)
 8004d88:	429a      	cmp	r2, r3
 8004d8a:	d005      	beq.n	8004d98 <UART_SetConfig+0xa0>
 8004d8c:	f8d7 30f4 	ldr.w	r3, [r7, #244]	@ 0xf4
 8004d90:	681a      	ldr	r2, [r3, #0]
 8004d92:	4b8d      	ldr	r3, [pc, #564]	@ (8004fc8 <UART_SetConfig+0x2d0>)
 8004d94:	429a      	cmp	r2, r3
 8004d96:	d104      	bne.n	8004da2 <UART_SetConfig+0xaa>
    {
      pclk = HAL_RCC_GetPCLK2Freq();
 8004d98:	f7ff f9a0 	bl	80040dc <HAL_RCC_GetPCLK2Freq>
 8004d9c:	f8c7 00fc 	str.w	r0, [r7, #252]	@ 0xfc
 8004da0:	e003      	b.n	8004daa <UART_SetConfig+0xb2>
      pclk = HAL_RCC_GetPCLK2Freq();
    }
#endif /* USART6 */
    else
    {
      pclk = HAL_RCC_GetPCLK1Freq();
 8004da2:	f7ff f987 	bl	80040b4 <HAL_RCC_GetPCLK1Freq>
 8004da6:	f8c7 00fc 	str.w	r0, [r7, #252]	@ 0xfc
    }
  /*-------------------------- USART BRR Configuration ---------------------*/
  if (huart->Init.OverSampling == UART_OVERSAMPLING_8)
 8004daa:	f8d7 30f4 	ldr.w	r3, [r7, #244]	@ 0xf4
 8004dae:	69db      	ldr	r3, [r3, #28]
 8004db0:	f5b3 4f00 	cmp.w	r3, #32768	@ 0x8000
 8004db4:	f040 810c 	bne.w	8004fd0 <UART_SetConfig+0x2d8>
  {
    huart->Instance->BRR = UART_BRR_SAMPLING8(pclk, huart->Init.BaudRate);
 8004db8:	f8d7 30fc 	ldr.w	r3, [r7, #252]	@ 0xfc
 8004dbc:	2200      	movs	r2, #0
 8004dbe:	f8c7 30e8 	str.w	r3, [r7, #232]	@ 0xe8
 8004dc2:	f8c7 20ec 	str.w	r2, [r7, #236]	@ 0xec
 8004dc6:	e9d7 453a 	ldrd	r4, r5, [r7, #232]	@ 0xe8
 8004dca:	4622      	mov	r2, r4
 8004dcc:	462b      	mov	r3, r5
 8004dce:	1891      	adds	r1, r2, r2
 8004dd0:	65b9      	str	r1, [r7, #88]	@ 0x58
 8004dd2:	415b      	adcs	r3, r3
 8004dd4:	65fb      	str	r3, [r7, #92]	@ 0x5c
 8004dd6:	e9d7 2316 	ldrd	r2, r3, [r7, #88]	@ 0x58
 8004dda:	4621      	mov	r1, r4
 8004ddc:	eb12 0801 	adds.w	r8, r2, r1
 8004de0:	4629      	mov	r1, r5
 8004de2:	eb43 0901 	adc.w	r9, r3, r1
 8004de6:	f04f 0200 	mov.w	r2, #0
 8004dea:	f04f 0300 	mov.w	r3, #0
 8004dee:	ea4f 03c9 	mov.w	r3, r9, lsl #3
 8004df2:	ea43 7358 	orr.w	r3, r3, r8, lsr #29
 8004df6:	ea4f 02c8 	mov.w	r2, r8, lsl #3
 8004dfa:	4690      	mov	r8, r2
 8004dfc:	4699      	mov	r9, r3
 8004dfe:	4623      	mov	r3, r4
 8004e00:	eb18 0303 	adds.w	r3, r8, r3
 8004e04:	f8c7 30e0 	str.w	r3, [r7, #224]	@ 0xe0
 8004e08:	462b      	mov	r3, r5
 8004e0a:	eb49 0303 	adc.w	r3, r9, r3
 8004e0e:	f8c7 30e4 	str.w	r3, [r7, #228]	@ 0xe4
 8004e12:	f8d7 30f4 	ldr.w	r3, [r7, #244]	@ 0xf4
 8004e16:	685b      	ldr	r3, [r3, #4]
 8004e18:	2200      	movs	r2, #0
 8004e1a:	f8c7 30d8 	str.w	r3, [r7, #216]	@ 0xd8
 8004e1e:	f8c7 20dc 	str.w	r2, [r7, #220]	@ 0xdc
 8004e22:	e9d7 1236 	ldrd	r1, r2, [r7, #216]	@ 0xd8
 8004e26:	460b      	mov	r3, r1
 8004e28:	18db      	adds	r3, r3, r3
 8004e2a:	653b      	str	r3, [r7, #80]	@ 0x50
 8004e2c:	4613      	mov	r3, r2
 8004e2e:	eb42 0303 	adc.w	r3, r2, r3
 8004e32:	657b      	str	r3, [r7, #84]	@ 0x54
 8004e34:	e9d7 2314 	ldrd	r2, r3, [r7, #80]	@ 0x50
 8004e38:	e9d7 0138 	ldrd	r0, r1, [r7, #224]	@ 0xe0
 8004e3c:	f7fb ff2c 	bl	8000c98 <__aeabi_uldivmod>
 8004e40:	4602      	mov	r2, r0
 8004e42:	460b      	mov	r3, r1
 8004e44:	4b61      	ldr	r3, [pc, #388]	@ (8004fcc <UART_SetConfig+0x2d4>)
 8004e46:	fba3 2302 	umull	r2, r3, r3, r2
 8004e4a:	095b      	lsrs	r3, r3, #5
 8004e4c:	011c      	lsls	r4, r3, #4
 8004e4e:	f8d7 30fc 	ldr.w	r3, [r7, #252]	@ 0xfc
 8004e52:	2200      	movs	r2, #0
 8004e54:	f8c7 30d0 	str.w	r3, [r7, #208]	@ 0xd0
 8004e58:	f8c7 20d4 	str.w	r2, [r7, #212]	@ 0xd4
 8004e5c:	e9d7 8934 	ldrd	r8, r9, [r7, #208]	@ 0xd0
 8004e60:	4642      	mov	r2, r8
 8004e62:	464b      	mov	r3, r9
 8004e64:	1891      	adds	r1, r2, r2
 8004e66:	64b9      	str	r1, [r7, #72]	@ 0x48
 8004e68:	415b      	adcs	r3, r3
 8004e6a:	64fb      	str	r3, [r7, #76]	@ 0x4c
 8004e6c:	e9d7 2312 	ldrd	r2, r3, [r7, #72]	@ 0x48
 8004e70:	4641      	mov	r1, r8
 8004e72:	eb12 0a01 	adds.w	sl, r2, r1
 8004e76:	4649      	mov	r1, r9
 8004e78:	eb43 0b01 	adc.w	fp, r3, r1
 8004e7c:	f04f 0200 	mov.w	r2, #0
 8004e80:	f04f 0300 	mov.w	r3, #0
 8004e84:	ea4f 03cb 	mov.w	r3, fp, lsl #3
 8004e88:	ea43 735a 	orr.w	r3, r3, sl, lsr #29
 8004e8c:	ea4f 02ca 	mov.w	r2, sl, lsl #3
 8004e90:	4692      	mov	sl, r2
 8004e92:	469b      	mov	fp, r3
 8004e94:	4643      	mov	r3, r8
 8004e96:	eb1a 0303 	adds.w	r3, sl, r3
 8004e9a:	f8c7 30c8 	str.w	r3, [r7, #200]	@ 0xc8
 8004e9e:	464b      	mov	r3, r9
 8004ea0:	eb4b 0303 	adc.w	r3, fp, r3
 8004ea4:	f8c7 30cc 	str.w	r3, [r7, #204]	@ 0xcc
 8004ea8:	f8d7 30f4 	ldr.w	r3, [r7, #244]	@ 0xf4
 8004eac:	685b      	ldr	r3, [r3, #4]
 8004eae:	2200      	movs	r2, #0
 8004eb0:	f8c7 30c0 	str.w	r3, [r7, #192]	@ 0xc0
 8004eb4:	f8c7 20c4 	str.w	r2, [r7, #196]	@ 0xc4
 8004eb8:	e9d7 1230 	ldrd	r1, r2, [r7, #192]	@ 0xc0
 8004ebc:	460b      	mov	r3, r1
 8004ebe:	18db      	adds	r3, r3, r3
 8004ec0:	643b      	str	r3, [r7, #64]	@ 0x40
 8004ec2:	4613      	mov	r3, r2
 8004ec4:	eb42 0303 	adc.w	r3, r2, r3
 8004ec8:	647b      	str	r3, [r7, #68]	@ 0x44
 8004eca:	e9d7 2310 	ldrd	r2, r3, [r7, #64]	@ 0x40
 8004ece:	e9d7 0132 	ldrd	r0, r1, [r7, #200]	@ 0xc8
 8004ed2:	f7fb fee1 	bl	8000c98 <__aeabi_uldivmod>
 8004ed6:	4602      	mov	r2, r0
 8004ed8:	460b      	mov	r3, r1
 8004eda:	4611      	mov	r1, r2
 8004edc:	4b3b      	ldr	r3, [pc, #236]	@ (8004fcc <UART_SetConfig+0x2d4>)
 8004ede:	fba3 2301 	umull	r2, r3, r3, r1
 8004ee2:	095b      	lsrs	r3, r3, #5
 8004ee4:	2264      	movs	r2, #100	@ 0x64
 8004ee6:	fb02 f303 	mul.w	r3, r2, r3
 8004eea:	1acb      	subs	r3, r1, r3
 8004eec:	00db      	lsls	r3, r3, #3
 8004eee:	f103 0232 	add.w	r2, r3, #50	@ 0x32
 8004ef2:	4b36      	ldr	r3, [pc, #216]	@ (8004fcc <UART_SetConfig+0x2d4>)
 8004ef4:	fba3 2302 	umull	r2, r3, r3, r2
 8004ef8:	095b      	lsrs	r3, r3, #5
 8004efa:	005b      	lsls	r3, r3, #1
 8004efc:	f403 73f8 	and.w	r3, r3, #496	@ 0x1f0
 8004f00:	441c      	add	r4, r3
 8004f02:	f8d7 30fc 	ldr.w	r3, [r7, #252]	@ 0xfc
 8004f06:	2200      	movs	r2, #0
 8004f08:	f8c7 30b8 	str.w	r3, [r7, #184]	@ 0xb8
 8004f0c:	f8c7 20bc 	str.w	r2, [r7, #188]	@ 0xbc
 8004f10:	e9d7 892e 	ldrd	r8, r9, [r7, #184]	@ 0xb8
 8004f14:	4642      	mov	r2, r8
 8004f16:	464b      	mov	r3, r9
 8004f18:	1891      	adds	r1, r2, r2
 8004f1a:	63b9      	str	r1, [r7, #56]	@ 0x38
 8004f1c:	415b      	adcs	r3, r3
 8004f1e:	63fb      	str	r3, [r7, #60]	@ 0x3c
 8004f20:	e9d7 230e 	ldrd	r2, r3, [r7, #56]	@ 0x38
 8004f24:	4641      	mov	r1, r8
 8004f26:	1851      	adds	r1, r2, r1
 8004f28:	6339      	str	r1, [r7, #48]	@ 0x30
 8004f2a:	4649      	mov	r1, r9
 8004f2c:	414b      	adcs	r3, r1
 8004f2e:	637b      	str	r3, [r7, #52]	@ 0x34
 8004f30:	f04f 0200 	mov.w	r2, #0
 8004f34:	f04f 0300 	mov.w	r3, #0
 8004f38:	e9d7 ab0c 	ldrd	sl, fp, [r7, #48]	@ 0x30
 8004f3c:	4659      	mov	r1, fp
 8004f3e:	00cb      	lsls	r3, r1, #3
 8004f40:	4651      	mov	r1, sl
 8004f42:	ea43 7351 	orr.w	r3, r3, r1, lsr #29
 8004f46:	4651      	mov	r1, sl
 8004f48:	00ca      	lsls	r2, r1, #3
 8004f4a:	4610      	mov	r0, r2
 8004f4c:	4619      	mov	r1, r3
 8004f4e:	4603      	mov	r3, r0
 8004f50:	4642      	mov	r2, r8
 8004f52:	189b      	adds	r3, r3, r2
 8004f54:	f8c7 30b0 	str.w	r3, [r7, #176]	@ 0xb0
 8004f58:	464b      	mov	r3, r9
 8004f5a:	460a      	mov	r2, r1
 8004f5c:	eb42 0303 	adc.w	r3, r2, r3
 8004f60:	f8c7 30b4 	str.w	r3, [r7, #180]	@ 0xb4
 8004f64:	f8d7 30f4 	ldr.w	r3, [r7, #244]	@ 0xf4
 8004f68:	685b      	ldr	r3, [r3, #4]
 8004f6a:	2200      	movs	r2, #0
 8004f6c:	f8c7 30a8 	str.w	r3, [r7, #168]	@ 0xa8
 8004f70:	f8c7 20ac 	str.w	r2, [r7, #172]	@ 0xac
 8004f74:	e9d7 122a 	ldrd	r1, r2, [r7, #168]	@ 0xa8
 8004f78:	460b      	mov	r3, r1
 8004f7a:	18db      	adds	r3, r3, r3
 8004f7c:	62bb      	str	r3, [r7, #40]	@ 0x28
 8004f7e:	4613      	mov	r3, r2
 8004f80:	eb42 0303 	adc.w	r3, r2, r3
 8004f84:	62fb      	str	r3, [r7, #44]	@ 0x2c
 8004f86:	e9d7 230a 	ldrd	r2, r3, [r7, #40]	@ 0x28
 8004f8a:	e9d7 012c 	ldrd	r0, r1, [r7, #176]	@ 0xb0
 8004f8e:	f7fb fe83 	bl	8000c98 <__aeabi_uldivmod>
 8004f92:	4602      	mov	r2, r0
 8004f94:	460b      	mov	r3, r1
 8004f96:	4b0d      	ldr	r3, [pc, #52]	@ (8004fcc <UART_SetConfig+0x2d4>)
 8004f98:	fba3 1302 	umull	r1, r3, r3, r2
 8004f9c:	095b      	lsrs	r3, r3, #5
 8004f9e:	2164      	movs	r1, #100	@ 0x64
 8004fa0:	fb01 f303 	mul.w	r3, r1, r3
 8004fa4:	1ad3      	subs	r3, r2, r3
 8004fa6:	00db      	lsls	r3, r3, #3
 8004fa8:	3332      	adds	r3, #50	@ 0x32
 8004faa:	4a08      	ldr	r2, [pc, #32]	@ (8004fcc <UART_SetConfig+0x2d4>)
 8004fac:	fba2 2303 	umull	r2, r3, r2, r3
 8004fb0:	095b      	lsrs	r3, r3, #5
 8004fb2:	f003 0207 	and.w	r2, r3, #7
 8004fb6:	f8d7 30f4 	ldr.w	r3, [r7, #244]	@ 0xf4
 8004fba:	681b      	ldr	r3, [r3, #0]
 8004fbc:	4422      	add	r2, r4
 8004fbe:	609a      	str	r2, [r3, #8]
  }
  else
  {
    huart->Instance->BRR = UART_BRR_SAMPLING16(pclk, huart->Init.BaudRate);
  }
}
 8004fc0:	e106      	b.n	80051d0 <UART_SetConfig+0x4d8>
 8004fc2:	bf00      	nop
 8004fc4:	40011000 	.word	0x40011000
 8004fc8:	40011400 	.word	0x40011400
 8004fcc:	51eb851f 	.word	0x51eb851f
    huart->Instance->BRR = UART_BRR_SAMPLING16(pclk, huart->Init.BaudRate);
 8004fd0:	f8d7 30fc 	ldr.w	r3, [r7, #252]	@ 0xfc
 8004fd4:	2200      	movs	r2, #0
 8004fd6:	f8c7 30a0 	str.w	r3, [r7, #160]	@ 0xa0
 8004fda:	f8c7 20a4 	str.w	r2, [r7, #164]	@ 0xa4
 8004fde:	e9d7 8928 	ldrd	r8, r9, [r7, #160]	@ 0xa0
 8004fe2:	4642      	mov	r2, r8
 8004fe4:	464b      	mov	r3, r9
 8004fe6:	1891      	adds	r1, r2, r2
 8004fe8:	6239      	str	r1, [r7, #32]
 8004fea:	415b      	adcs	r3, r3
 8004fec:	627b      	str	r3, [r7, #36]	@ 0x24
 8004fee:	e9d7 2308 	ldrd	r2, r3, [r7, #32]
 8004ff2:	4641      	mov	r1, r8
 8004ff4:	1854      	adds	r4, r2, r1
 8004ff6:	4649      	mov	r1, r9
 8004ff8:	eb43 0501 	adc.w	r5, r3, r1
 8004ffc:	f04f 0200 	mov.w	r2, #0
 8005000:	f04f 0300 	mov.w	r3, #0
 8005004:	00eb      	lsls	r3, r5, #3
 8005006:	ea43 7354 	orr.w	r3, r3, r4, lsr #29
 800500a:	00e2      	lsls	r2, r4, #3
 800500c:	4614      	mov	r4, r2
 800500e:	461d      	mov	r5, r3
 8005010:	4643      	mov	r3, r8
 8005012:	18e3      	adds	r3, r4, r3
 8005014:	f8c7 3098 	str.w	r3, [r7, #152]	@ 0x98
 8005018:	464b      	mov	r3, r9
 800501a:	eb45 0303 	adc.w	r3, r5, r3
 800501e:	f8c7 309c 	str.w	r3, [r7, #156]	@ 0x9c
 8005022:	f8d7 30f4 	ldr.w	r3, [r7, #244]	@ 0xf4
 8005026:	685b      	ldr	r3, [r3, #4]
 8005028:	2200      	movs	r2, #0
 800502a:	f8c7 3090 	str.w	r3, [r7, #144]	@ 0x90
 800502e:	f8c7 2094 	str.w	r2, [r7, #148]	@ 0x94
 8005032:	f04f 0200 	mov.w	r2, #0
 8005036:	f04f 0300 	mov.w	r3, #0
 800503a:	e9d7 4524 	ldrd	r4, r5, [r7, #144]	@ 0x90
 800503e:	4629      	mov	r1, r5
 8005040:	008b      	lsls	r3, r1, #2
 8005042:	4621      	mov	r1, r4
 8005044:	ea43 7391 	orr.w	r3, r3, r1, lsr #30
 8005048:	4621      	mov	r1, r4
 800504a:	008a      	lsls	r2, r1, #2
 800504c:	e9d7 0126 	ldrd	r0, r1, [r7, #152]	@ 0x98
 8005050:	f7fb fe22 	bl	8000c98 <__aeabi_uldivmod>
 8005054:	4602      	mov	r2, r0
 8005056:	460b      	mov	r3, r1
 8005058:	4b60      	ldr	r3, [pc, #384]	@ (80051dc <UART_SetConfig+0x4e4>)
 800505a:	fba3 2302 	umull	r2, r3, r3, r2
 800505e:	095b      	lsrs	r3, r3, #5
 8005060:	011c      	lsls	r4, r3, #4
 8005062:	f8d7 30fc 	ldr.w	r3, [r7, #252]	@ 0xfc
 8005066:	2200      	movs	r2, #0
 8005068:	f8c7 3088 	str.w	r3, [r7, #136]	@ 0x88
 800506c:	f8c7 208c 	str.w	r2, [r7, #140]	@ 0x8c
 8005070:	e9d7 8922 	ldrd	r8, r9, [r7, #136]	@ 0x88
 8005074:	4642      	mov	r2, r8
 8005076:	464b      	mov	r3, r9
 8005078:	1891      	adds	r1, r2, r2
 800507a:	61b9      	str	r1, [r7, #24]
 800507c:	415b      	adcs	r3, r3
 800507e:	61fb      	str	r3, [r7, #28]
 8005080:	e9d7 2306 	ldrd	r2, r3, [r7, #24]
 8005084:	4641      	mov	r1, r8
 8005086:	1851      	adds	r1, r2, r1
 8005088:	6139      	str	r1, [r7, #16]
 800508a:	4649      	mov	r1, r9
 800508c:	414b      	adcs	r3, r1
 800508e:	617b      	str	r3, [r7, #20]
 8005090:	f04f 0200 	mov.w	r2, #0
 8005094:	f04f 0300 	mov.w	r3, #0
 8005098:	e9d7 ab04 	ldrd	sl, fp, [r7, #16]
 800509c:	4659      	mov	r1, fp
 800509e:	00cb      	lsls	r3, r1, #3
 80050a0:	4651      	mov	r1, sl
 80050a2:	ea43 7351 	orr.w	r3, r3, r1, lsr #29
 80050a6:	4651      	mov	r1, sl
 80050a8:	00ca      	lsls	r2, r1, #3
 80050aa:	4610      	mov	r0, r2
 80050ac:	4619      	mov	r1, r3
 80050ae:	4603      	mov	r3, r0
 80050b0:	4642      	mov	r2, r8
 80050b2:	189b      	adds	r3, r3, r2
 80050b4:	f8c7 3080 	str.w	r3, [r7, #128]	@ 0x80
 80050b8:	464b      	mov	r3, r9
 80050ba:	460a      	mov	r2, r1
 80050bc:	eb42 0303 	adc.w	r3, r2, r3
 80050c0:	f8c7 3084 	str.w	r3, [r7, #132]	@ 0x84
 80050c4:	f8d7 30f4 	ldr.w	r3, [r7, #244]	@ 0xf4
 80050c8:	685b      	ldr	r3, [r3, #4]
 80050ca:	2200      	movs	r2, #0
 80050cc:	67bb      	str	r3, [r7, #120]	@ 0x78
 80050ce:	67fa      	str	r2, [r7, #124]	@ 0x7c
 80050d0:	f04f 0200 	mov.w	r2, #0
 80050d4:	f04f 0300 	mov.w	r3, #0
 80050d8:	e9d7 891e 	ldrd	r8, r9, [r7, #120]	@ 0x78
 80050dc:	4649      	mov	r1, r9
 80050de:	008b      	lsls	r3, r1, #2
 80050e0:	4641      	mov	r1, r8
 80050e2:	ea43 7391 	orr.w	r3, r3, r1, lsr #30
 80050e6:	4641      	mov	r1, r8
 80050e8:	008a      	lsls	r2, r1, #2
 80050ea:	e9d7 0120 	ldrd	r0, r1, [r7, #128]	@ 0x80
 80050ee:	f7fb fdd3 	bl	8000c98 <__aeabi_uldivmod>
 80050f2:	4602      	mov	r2, r0
 80050f4:	460b      	mov	r3, r1
 80050f6:	4611      	mov	r1, r2
 80050f8:	4b38      	ldr	r3, [pc, #224]	@ (80051dc <UART_SetConfig+0x4e4>)
 80050fa:	fba3 2301 	umull	r2, r3, r3, r1
 80050fe:	095b      	lsrs	r3, r3, #5
 8005100:	2264      	movs	r2, #100	@ 0x64
 8005102:	fb02 f303 	mul.w	r3, r2, r3
 8005106:	1acb      	subs	r3, r1, r3
 8005108:	011b      	lsls	r3, r3, #4
 800510a:	3332      	adds	r3, #50	@ 0x32
 800510c:	4a33      	ldr	r2, [pc, #204]	@ (80051dc <UART_SetConfig+0x4e4>)
 800510e:	fba2 2303 	umull	r2, r3, r2, r3
 8005112:	095b      	lsrs	r3, r3, #5
 8005114:	f003 03f0 	and.w	r3, r3, #240	@ 0xf0
 8005118:	441c      	add	r4, r3
 800511a:	f8d7 30fc 	ldr.w	r3, [r7, #252]	@ 0xfc
 800511e:	2200      	movs	r2, #0
 8005120:	673b      	str	r3, [r7, #112]	@ 0x70
 8005122:	677a      	str	r2, [r7, #116]	@ 0x74
 8005124:	e9d7 891c 	ldrd	r8, r9, [r7, #112]	@ 0x70
 8005128:	4642      	mov	r2, r8
 800512a:	464b      	mov	r3, r9
 800512c:	1891      	adds	r1, r2, r2
 800512e:	60b9      	str	r1, [r7, #8]
 8005130:	415b      	adcs	r3, r3
 8005132:	60fb      	str	r3, [r7, #12]
 8005134:	e9d7 2302 	ldrd	r2, r3, [r7, #8]
 8005138:	4641      	mov	r1, r8
 800513a:	1851      	adds	r1, r2, r1
 800513c:	6039      	str	r1, [r7, #0]
 800513e:	4649      	mov	r1, r9
 8005140:	414b      	adcs	r3, r1
 8005142:	607b      	str	r3, [r7, #4]
 8005144:	f04f 0200 	mov.w	r2, #0
 8005148:	f04f 0300 	mov.w	r3, #0
 800514c:	e9d7 ab00 	ldrd	sl, fp, [r7]
 8005150:	4659      	mov	r1, fp
 8005152:	00cb      	lsls	r3, r1, #3
 8005154:	4651      	mov	r1, sl
 8005156:	ea43 7351 	orr.w	r3, r3, r1, lsr #29
 800515a:	4651      	mov	r1, sl
 800515c:	00ca      	lsls	r2, r1, #3
 800515e:	4610      	mov	r0, r2
 8005160:	4619      	mov	r1, r3
 8005162:	4603      	mov	r3, r0
 8005164:	4642      	mov	r2, r8
 8005166:	189b      	adds	r3, r3, r2
 8005168:	66bb      	str	r3, [r7, #104]	@ 0x68
 800516a:	464b      	mov	r3, r9
 800516c:	460a      	mov	r2, r1
 800516e:	eb42 0303 	adc.w	r3, r2, r3
 8005172:	66fb      	str	r3, [r7, #108]	@ 0x6c
 8005174:	f8d7 30f4 	ldr.w	r3, [r7, #244]	@ 0xf4
 8005178:	685b      	ldr	r3, [r3, #4]
 800517a:	2200      	movs	r2, #0
 800517c:	663b      	str	r3, [r7, #96]	@ 0x60
 800517e:	667a      	str	r2, [r7, #100]	@ 0x64
 8005180:	f04f 0200 	mov.w	r2, #0
 8005184:	f04f 0300 	mov.w	r3, #0
 8005188:	e9d7 8918 	ldrd	r8, r9, [r7, #96]	@ 0x60
 800518c:	4649      	mov	r1, r9
 800518e:	008b      	lsls	r3, r1, #2
 8005190:	4641      	mov	r1, r8
 8005192:	ea43 7391 	orr.w	r3, r3, r1, lsr #30
 8005196:	4641      	mov	r1, r8
 8005198:	008a      	lsls	r2, r1, #2
 800519a:	e9d7 011a 	ldrd	r0, r1, [r7, #104]	@ 0x68
 800519e:	f7fb fd7b 	bl	8000c98 <__aeabi_uldivmod>
 80051a2:	4602      	mov	r2, r0
 80051a4:	460b      	mov	r3, r1
 80051a6:	4b0d      	ldr	r3, [pc, #52]	@ (80051dc <UART_SetConfig+0x4e4>)
 80051a8:	fba3 1302 	umull	r1, r3, r3, r2
 80051ac:	095b      	lsrs	r3, r3, #5
 80051ae:	2164      	movs	r1, #100	@ 0x64
 80051b0:	fb01 f303 	mul.w	r3, r1, r3
 80051b4:	1ad3      	subs	r3, r2, r3
 80051b6:	011b      	lsls	r3, r3, #4
 80051b8:	3332      	adds	r3, #50	@ 0x32
 80051ba:	4a08      	ldr	r2, [pc, #32]	@ (80051dc <UART_SetConfig+0x4e4>)
 80051bc:	fba2 2303 	umull	r2, r3, r2, r3
 80051c0:	095b      	lsrs	r3, r3, #5
 80051c2:	f003 020f 	and.w	r2, r3, #15
 80051c6:	f8d7 30f4 	ldr.w	r3, [r7, #244]	@ 0xf4
 80051ca:	681b      	ldr	r3, [r3, #0]
 80051cc:	4422      	add	r2, r4
 80051ce:	609a      	str	r2, [r3, #8]
}
 80051d0:	bf00      	nop
 80051d2:	f507 7780 	add.w	r7, r7, #256	@ 0x100
 80051d6:	46bd      	mov	sp, r7
 80051d8:	e8bd 8fb0 	ldmia.w	sp!, {r4, r5, r7, r8, r9, sl, fp, pc}
 80051dc:	51eb851f 	.word	0x51eb851f

080051e0 <atof>:
 80051e0:	2100      	movs	r1, #0
 80051e2:	f000 be09 	b.w	8005df8 <strtod>

080051e6 <atoi>:
 80051e6:	220a      	movs	r2, #10
 80051e8:	2100      	movs	r1, #0
 80051ea:	f000 be8b 	b.w	8005f04 <strtol>

080051ee <sulp>:
 80051ee:	b570      	push	{r4, r5, r6, lr}
 80051f0:	4604      	mov	r4, r0
 80051f2:	460d      	mov	r5, r1
 80051f4:	ec45 4b10 	vmov	d0, r4, r5
 80051f8:	4616      	mov	r6, r2
 80051fa:	f003 fbc9 	bl	8008990 <__ulp>
 80051fe:	ec51 0b10 	vmov	r0, r1, d0
 8005202:	b17e      	cbz	r6, 8005224 <sulp+0x36>
 8005204:	f3c5 530a 	ubfx	r3, r5, #20, #11
 8005208:	f1c3 036b 	rsb	r3, r3, #107	@ 0x6b
 800520c:	2b00      	cmp	r3, #0
 800520e:	dd09      	ble.n	8005224 <sulp+0x36>
 8005210:	051b      	lsls	r3, r3, #20
 8005212:	f103 557f 	add.w	r5, r3, #1069547520	@ 0x3fc00000
 8005216:	2400      	movs	r4, #0
 8005218:	f505 1540 	add.w	r5, r5, #3145728	@ 0x300000
 800521c:	4622      	mov	r2, r4
 800521e:	462b      	mov	r3, r5
 8005220:	f7fb f9f2 	bl	8000608 <__aeabi_dmul>
 8005224:	ec41 0b10 	vmov	d0, r0, r1
 8005228:	bd70      	pop	{r4, r5, r6, pc}
 800522a:	0000      	movs	r0, r0
 800522c:	0000      	movs	r0, r0
	...

08005230 <_strtod_l>:
 8005230:	e92d 4ff0 	stmdb	sp!, {r4, r5, r6, r7, r8, r9, sl, fp, lr}
 8005234:	b09f      	sub	sp, #124	@ 0x7c
 8005236:	460c      	mov	r4, r1
 8005238:	9217      	str	r2, [sp, #92]	@ 0x5c
 800523a:	2200      	movs	r2, #0
 800523c:	921a      	str	r2, [sp, #104]	@ 0x68
 800523e:	9005      	str	r0, [sp, #20]
 8005240:	f04f 0a00 	mov.w	sl, #0
 8005244:	f04f 0b00 	mov.w	fp, #0
 8005248:	460a      	mov	r2, r1
 800524a:	9219      	str	r2, [sp, #100]	@ 0x64
 800524c:	7811      	ldrb	r1, [r2, #0]
 800524e:	292b      	cmp	r1, #43	@ 0x2b
 8005250:	d04a      	beq.n	80052e8 <_strtod_l+0xb8>
 8005252:	d838      	bhi.n	80052c6 <_strtod_l+0x96>
 8005254:	290d      	cmp	r1, #13
 8005256:	d832      	bhi.n	80052be <_strtod_l+0x8e>
 8005258:	2908      	cmp	r1, #8
 800525a:	d832      	bhi.n	80052c2 <_strtod_l+0x92>
 800525c:	2900      	cmp	r1, #0
 800525e:	d03b      	beq.n	80052d8 <_strtod_l+0xa8>
 8005260:	2200      	movs	r2, #0
 8005262:	920e      	str	r2, [sp, #56]	@ 0x38
 8005264:	9d19      	ldr	r5, [sp, #100]	@ 0x64
 8005266:	782a      	ldrb	r2, [r5, #0]
 8005268:	2a30      	cmp	r2, #48	@ 0x30
 800526a:	f040 80b2 	bne.w	80053d2 <_strtod_l+0x1a2>
 800526e:	786a      	ldrb	r2, [r5, #1]
 8005270:	f002 02df 	and.w	r2, r2, #223	@ 0xdf
 8005274:	2a58      	cmp	r2, #88	@ 0x58
 8005276:	d16e      	bne.n	8005356 <_strtod_l+0x126>
 8005278:	9302      	str	r3, [sp, #8]
 800527a:	9b0e      	ldr	r3, [sp, #56]	@ 0x38
 800527c:	9301      	str	r3, [sp, #4]
 800527e:	ab1a      	add	r3, sp, #104	@ 0x68
 8005280:	9300      	str	r3, [sp, #0]
 8005282:	4a8f      	ldr	r2, [pc, #572]	@ (80054c0 <_strtod_l+0x290>)
 8005284:	9805      	ldr	r0, [sp, #20]
 8005286:	ab1b      	add	r3, sp, #108	@ 0x6c
 8005288:	a919      	add	r1, sp, #100	@ 0x64
 800528a:	f002 fc7b 	bl	8007b84 <__gethex>
 800528e:	f010 060f 	ands.w	r6, r0, #15
 8005292:	4604      	mov	r4, r0
 8005294:	d005      	beq.n	80052a2 <_strtod_l+0x72>
 8005296:	2e06      	cmp	r6, #6
 8005298:	d128      	bne.n	80052ec <_strtod_l+0xbc>
 800529a:	3501      	adds	r5, #1
 800529c:	2300      	movs	r3, #0
 800529e:	9519      	str	r5, [sp, #100]	@ 0x64
 80052a0:	930e      	str	r3, [sp, #56]	@ 0x38
 80052a2:	9b17      	ldr	r3, [sp, #92]	@ 0x5c
 80052a4:	2b00      	cmp	r3, #0
 80052a6:	f040 858e 	bne.w	8005dc6 <_strtod_l+0xb96>
 80052aa:	9b0e      	ldr	r3, [sp, #56]	@ 0x38
 80052ac:	b1cb      	cbz	r3, 80052e2 <_strtod_l+0xb2>
 80052ae:	4652      	mov	r2, sl
 80052b0:	f10b 4300 	add.w	r3, fp, #2147483648	@ 0x80000000
 80052b4:	ec43 2b10 	vmov	d0, r2, r3
 80052b8:	b01f      	add	sp, #124	@ 0x7c
 80052ba:	e8bd 8ff0 	ldmia.w	sp!, {r4, r5, r6, r7, r8, r9, sl, fp, pc}
 80052be:	2920      	cmp	r1, #32
 80052c0:	d1ce      	bne.n	8005260 <_strtod_l+0x30>
 80052c2:	3201      	adds	r2, #1
 80052c4:	e7c1      	b.n	800524a <_strtod_l+0x1a>
 80052c6:	292d      	cmp	r1, #45	@ 0x2d
 80052c8:	d1ca      	bne.n	8005260 <_strtod_l+0x30>
 80052ca:	2101      	movs	r1, #1
 80052cc:	910e      	str	r1, [sp, #56]	@ 0x38
 80052ce:	1c51      	adds	r1, r2, #1
 80052d0:	9119      	str	r1, [sp, #100]	@ 0x64
 80052d2:	7852      	ldrb	r2, [r2, #1]
 80052d4:	2a00      	cmp	r2, #0
 80052d6:	d1c5      	bne.n	8005264 <_strtod_l+0x34>
 80052d8:	9b17      	ldr	r3, [sp, #92]	@ 0x5c
 80052da:	9419      	str	r4, [sp, #100]	@ 0x64
 80052dc:	2b00      	cmp	r3, #0
 80052de:	f040 8570 	bne.w	8005dc2 <_strtod_l+0xb92>
 80052e2:	4652      	mov	r2, sl
 80052e4:	465b      	mov	r3, fp
 80052e6:	e7e5      	b.n	80052b4 <_strtod_l+0x84>
 80052e8:	2100      	movs	r1, #0
 80052ea:	e7ef      	b.n	80052cc <_strtod_l+0x9c>
 80052ec:	9a1a      	ldr	r2, [sp, #104]	@ 0x68
 80052ee:	b13a      	cbz	r2, 8005300 <_strtod_l+0xd0>
 80052f0:	2135      	movs	r1, #53	@ 0x35
 80052f2:	a81c      	add	r0, sp, #112	@ 0x70
 80052f4:	f003 fc46 	bl	8008b84 <__copybits>
 80052f8:	991a      	ldr	r1, [sp, #104]	@ 0x68
 80052fa:	9805      	ldr	r0, [sp, #20]
 80052fc:	f003 f81c 	bl	8008338 <_Bfree>
 8005300:	3e01      	subs	r6, #1
 8005302:	9a1b      	ldr	r2, [sp, #108]	@ 0x6c
 8005304:	2e04      	cmp	r6, #4
 8005306:	d806      	bhi.n	8005316 <_strtod_l+0xe6>
 8005308:	e8df f006 	tbb	[pc, r6]
 800530c:	201d0314 	.word	0x201d0314
 8005310:	14          	.byte	0x14
 8005311:	00          	.byte	0x00
 8005312:	e9dd ab1c 	ldrd	sl, fp, [sp, #112]	@ 0x70
 8005316:	05e1      	lsls	r1, r4, #23
 8005318:	bf48      	it	mi
 800531a:	f04b 4b00 	orrmi.w	fp, fp, #2147483648	@ 0x80000000
 800531e:	f02b 4300 	bic.w	r3, fp, #2147483648	@ 0x80000000
 8005322:	0d1b      	lsrs	r3, r3, #20
 8005324:	051b      	lsls	r3, r3, #20
 8005326:	2b00      	cmp	r3, #0
 8005328:	d1bb      	bne.n	80052a2 <_strtod_l+0x72>
 800532a:	f001 fcdd 	bl	8006ce8 <__errno>
 800532e:	2322      	movs	r3, #34	@ 0x22
 8005330:	6003      	str	r3, [r0, #0]
 8005332:	e7b6      	b.n	80052a2 <_strtod_l+0x72>
 8005334:	e9dd a31c 	ldrd	sl, r3, [sp, #112]	@ 0x70
 8005338:	f202 4233 	addw	r2, r2, #1075	@ 0x433
 800533c:	f423 1380 	bic.w	r3, r3, #1048576	@ 0x100000
 8005340:	ea43 5b02 	orr.w	fp, r3, r2, lsl #20
 8005344:	e7e7      	b.n	8005316 <_strtod_l+0xe6>
 8005346:	f8df b180 	ldr.w	fp, [pc, #384]	@ 80054c8 <_strtod_l+0x298>
 800534a:	e7e4      	b.n	8005316 <_strtod_l+0xe6>
 800534c:	f06f 4b00 	mvn.w	fp, #2147483648	@ 0x80000000
 8005350:	f04f 3aff 	mov.w	sl, #4294967295
 8005354:	e7df      	b.n	8005316 <_strtod_l+0xe6>
 8005356:	9b19      	ldr	r3, [sp, #100]	@ 0x64
 8005358:	1c5a      	adds	r2, r3, #1
 800535a:	9219      	str	r2, [sp, #100]	@ 0x64
 800535c:	785b      	ldrb	r3, [r3, #1]
 800535e:	2b30      	cmp	r3, #48	@ 0x30
 8005360:	d0f9      	beq.n	8005356 <_strtod_l+0x126>
 8005362:	2b00      	cmp	r3, #0
 8005364:	d09d      	beq.n	80052a2 <_strtod_l+0x72>
 8005366:	2301      	movs	r3, #1
 8005368:	2700      	movs	r7, #0
 800536a:	9308      	str	r3, [sp, #32]
 800536c:	9b19      	ldr	r3, [sp, #100]	@ 0x64
 800536e:	930c      	str	r3, [sp, #48]	@ 0x30
 8005370:	970b      	str	r7, [sp, #44]	@ 0x2c
 8005372:	46b9      	mov	r9, r7
 8005374:	220a      	movs	r2, #10
 8005376:	9819      	ldr	r0, [sp, #100]	@ 0x64
 8005378:	7805      	ldrb	r5, [r0, #0]
 800537a:	f1a5 0330 	sub.w	r3, r5, #48	@ 0x30
 800537e:	b2d9      	uxtb	r1, r3
 8005380:	2909      	cmp	r1, #9
 8005382:	d928      	bls.n	80053d6 <_strtod_l+0x1a6>
 8005384:	494f      	ldr	r1, [pc, #316]	@ (80054c4 <_strtod_l+0x294>)
 8005386:	2201      	movs	r2, #1
 8005388:	f001 fc3b 	bl	8006c02 <strncmp>
 800538c:	2800      	cmp	r0, #0
 800538e:	d032      	beq.n	80053f6 <_strtod_l+0x1c6>
 8005390:	2000      	movs	r0, #0
 8005392:	462a      	mov	r2, r5
 8005394:	900a      	str	r0, [sp, #40]	@ 0x28
 8005396:	464d      	mov	r5, r9
 8005398:	4603      	mov	r3, r0
 800539a:	2a65      	cmp	r2, #101	@ 0x65
 800539c:	d001      	beq.n	80053a2 <_strtod_l+0x172>
 800539e:	2a45      	cmp	r2, #69	@ 0x45
 80053a0:	d114      	bne.n	80053cc <_strtod_l+0x19c>
 80053a2:	b91d      	cbnz	r5, 80053ac <_strtod_l+0x17c>
 80053a4:	9a08      	ldr	r2, [sp, #32]
 80053a6:	4302      	orrs	r2, r0
 80053a8:	d096      	beq.n	80052d8 <_strtod_l+0xa8>
 80053aa:	2500      	movs	r5, #0
 80053ac:	9c19      	ldr	r4, [sp, #100]	@ 0x64
 80053ae:	1c62      	adds	r2, r4, #1
 80053b0:	9219      	str	r2, [sp, #100]	@ 0x64
 80053b2:	7862      	ldrb	r2, [r4, #1]
 80053b4:	2a2b      	cmp	r2, #43	@ 0x2b
 80053b6:	d07a      	beq.n	80054ae <_strtod_l+0x27e>
 80053b8:	2a2d      	cmp	r2, #45	@ 0x2d
 80053ba:	d07e      	beq.n	80054ba <_strtod_l+0x28a>
 80053bc:	f04f 0c00 	mov.w	ip, #0
 80053c0:	f1a2 0130 	sub.w	r1, r2, #48	@ 0x30
 80053c4:	2909      	cmp	r1, #9
 80053c6:	f240 8085 	bls.w	80054d4 <_strtod_l+0x2a4>
 80053ca:	9419      	str	r4, [sp, #100]	@ 0x64
 80053cc:	f04f 0800 	mov.w	r8, #0
 80053d0:	e0a5      	b.n	800551e <_strtod_l+0x2ee>
 80053d2:	2300      	movs	r3, #0
 80053d4:	e7c8      	b.n	8005368 <_strtod_l+0x138>
 80053d6:	f1b9 0f08 	cmp.w	r9, #8
 80053da:	bfd8      	it	le
 80053dc:	990b      	ldrle	r1, [sp, #44]	@ 0x2c
 80053de:	f100 0001 	add.w	r0, r0, #1
 80053e2:	bfda      	itte	le
 80053e4:	fb02 3301 	mlale	r3, r2, r1, r3
 80053e8:	930b      	strle	r3, [sp, #44]	@ 0x2c
 80053ea:	fb02 3707 	mlagt	r7, r2, r7, r3
 80053ee:	f109 0901 	add.w	r9, r9, #1
 80053f2:	9019      	str	r0, [sp, #100]	@ 0x64
 80053f4:	e7bf      	b.n	8005376 <_strtod_l+0x146>
 80053f6:	9b19      	ldr	r3, [sp, #100]	@ 0x64
 80053f8:	1c5a      	adds	r2, r3, #1
 80053fa:	9219      	str	r2, [sp, #100]	@ 0x64
 80053fc:	785a      	ldrb	r2, [r3, #1]
 80053fe:	f1b9 0f00 	cmp.w	r9, #0
 8005402:	d03b      	beq.n	800547c <_strtod_l+0x24c>
 8005404:	900a      	str	r0, [sp, #40]	@ 0x28
 8005406:	464d      	mov	r5, r9
 8005408:	f1a2 0330 	sub.w	r3, r2, #48	@ 0x30
 800540c:	2b09      	cmp	r3, #9
 800540e:	d912      	bls.n	8005436 <_strtod_l+0x206>
 8005410:	2301      	movs	r3, #1
 8005412:	e7c2      	b.n	800539a <_strtod_l+0x16a>
 8005414:	9b19      	ldr	r3, [sp, #100]	@ 0x64
 8005416:	1c5a      	adds	r2, r3, #1
 8005418:	9219      	str	r2, [sp, #100]	@ 0x64
 800541a:	785a      	ldrb	r2, [r3, #1]
 800541c:	3001      	adds	r0, #1
 800541e:	2a30      	cmp	r2, #48	@ 0x30
 8005420:	d0f8      	beq.n	8005414 <_strtod_l+0x1e4>
 8005422:	f1a2 0331 	sub.w	r3, r2, #49	@ 0x31
 8005426:	2b08      	cmp	r3, #8
 8005428:	f200 84d2 	bhi.w	8005dd0 <_strtod_l+0xba0>
 800542c:	9b19      	ldr	r3, [sp, #100]	@ 0x64
 800542e:	900a      	str	r0, [sp, #40]	@ 0x28
 8005430:	2000      	movs	r0, #0
 8005432:	930c      	str	r3, [sp, #48]	@ 0x30
 8005434:	4605      	mov	r5, r0
 8005436:	3a30      	subs	r2, #48	@ 0x30
 8005438:	f100 0301 	add.w	r3, r0, #1
 800543c:	d018      	beq.n	8005470 <_strtod_l+0x240>
 800543e:	990a      	ldr	r1, [sp, #40]	@ 0x28
 8005440:	4419      	add	r1, r3
 8005442:	910a      	str	r1, [sp, #40]	@ 0x28
 8005444:	462e      	mov	r6, r5
 8005446:	f04f 0e0a 	mov.w	lr, #10
 800544a:	1c71      	adds	r1, r6, #1
 800544c:	eba1 0c05 	sub.w	ip, r1, r5
 8005450:	4563      	cmp	r3, ip
 8005452:	dc15      	bgt.n	8005480 <_strtod_l+0x250>
 8005454:	ea20 70e0 	bic.w	r0, r0, r0, asr #31
 8005458:	182b      	adds	r3, r5, r0
 800545a:	2b08      	cmp	r3, #8
 800545c:	f105 0501 	add.w	r5, r5, #1
 8005460:	4405      	add	r5, r0
 8005462:	dc1a      	bgt.n	800549a <_strtod_l+0x26a>
 8005464:	990b      	ldr	r1, [sp, #44]	@ 0x2c
 8005466:	230a      	movs	r3, #10
 8005468:	fb03 2301 	mla	r3, r3, r1, r2
 800546c:	930b      	str	r3, [sp, #44]	@ 0x2c
 800546e:	2300      	movs	r3, #0
 8005470:	9a19      	ldr	r2, [sp, #100]	@ 0x64
 8005472:	1c51      	adds	r1, r2, #1
 8005474:	9119      	str	r1, [sp, #100]	@ 0x64
 8005476:	7852      	ldrb	r2, [r2, #1]
 8005478:	4618      	mov	r0, r3
 800547a:	e7c5      	b.n	8005408 <_strtod_l+0x1d8>
 800547c:	4648      	mov	r0, r9
 800547e:	e7ce      	b.n	800541e <_strtod_l+0x1ee>
 8005480:	2e08      	cmp	r6, #8
 8005482:	dc05      	bgt.n	8005490 <_strtod_l+0x260>
 8005484:	9e0b      	ldr	r6, [sp, #44]	@ 0x2c
 8005486:	fb0e f606 	mul.w	r6, lr, r6
 800548a:	960b      	str	r6, [sp, #44]	@ 0x2c
 800548c:	460e      	mov	r6, r1
 800548e:	e7dc      	b.n	800544a <_strtod_l+0x21a>
 8005490:	2910      	cmp	r1, #16
 8005492:	bfd8      	it	le
 8005494:	fb0e f707 	mulle.w	r7, lr, r7
 8005498:	e7f8      	b.n	800548c <_strtod_l+0x25c>
 800549a:	2b0f      	cmp	r3, #15
 800549c:	bfdc      	itt	le
 800549e:	230a      	movle	r3, #10
 80054a0:	fb03 2707 	mlale	r7, r3, r7, r2
 80054a4:	e7e3      	b.n	800546e <_strtod_l+0x23e>
 80054a6:	2300      	movs	r3, #0
 80054a8:	930a      	str	r3, [sp, #40]	@ 0x28
 80054aa:	2301      	movs	r3, #1
 80054ac:	e77a      	b.n	80053a4 <_strtod_l+0x174>
 80054ae:	f04f 0c00 	mov.w	ip, #0
 80054b2:	1ca2      	adds	r2, r4, #2
 80054b4:	9219      	str	r2, [sp, #100]	@ 0x64
 80054b6:	78a2      	ldrb	r2, [r4, #2]
 80054b8:	e782      	b.n	80053c0 <_strtod_l+0x190>
 80054ba:	f04f 0c01 	mov.w	ip, #1
 80054be:	e7f8      	b.n	80054b2 <_strtod_l+0x282>
 80054c0:	08009548 	.word	0x08009548
 80054c4:	08009360 	.word	0x08009360
 80054c8:	7ff00000 	.word	0x7ff00000
 80054cc:	9a19      	ldr	r2, [sp, #100]	@ 0x64
 80054ce:	1c51      	adds	r1, r2, #1
 80054d0:	9119      	str	r1, [sp, #100]	@ 0x64
 80054d2:	7852      	ldrb	r2, [r2, #1]
 80054d4:	2a30      	cmp	r2, #48	@ 0x30
 80054d6:	d0f9      	beq.n	80054cc <_strtod_l+0x29c>
 80054d8:	f1a2 0131 	sub.w	r1, r2, #49	@ 0x31
 80054dc:	2908      	cmp	r1, #8
 80054de:	f63f af75 	bhi.w	80053cc <_strtod_l+0x19c>
 80054e2:	3a30      	subs	r2, #48	@ 0x30
 80054e4:	9209      	str	r2, [sp, #36]	@ 0x24
 80054e6:	9a19      	ldr	r2, [sp, #100]	@ 0x64
 80054e8:	920f      	str	r2, [sp, #60]	@ 0x3c
 80054ea:	f04f 080a 	mov.w	r8, #10
 80054ee:	9a19      	ldr	r2, [sp, #100]	@ 0x64
 80054f0:	1c56      	adds	r6, r2, #1
 80054f2:	9619      	str	r6, [sp, #100]	@ 0x64
 80054f4:	7852      	ldrb	r2, [r2, #1]
 80054f6:	f1a2 0e30 	sub.w	lr, r2, #48	@ 0x30
 80054fa:	f1be 0f09 	cmp.w	lr, #9
 80054fe:	d939      	bls.n	8005574 <_strtod_l+0x344>
 8005500:	990f      	ldr	r1, [sp, #60]	@ 0x3c
 8005502:	1a76      	subs	r6, r6, r1
 8005504:	2e08      	cmp	r6, #8
 8005506:	f644 681f 	movw	r8, #19999	@ 0x4e1f
 800550a:	dc03      	bgt.n	8005514 <_strtod_l+0x2e4>
 800550c:	9909      	ldr	r1, [sp, #36]	@ 0x24
 800550e:	4588      	cmp	r8, r1
 8005510:	bfa8      	it	ge
 8005512:	4688      	movge	r8, r1
 8005514:	f1bc 0f00 	cmp.w	ip, #0
 8005518:	d001      	beq.n	800551e <_strtod_l+0x2ee>
 800551a:	f1c8 0800 	rsb	r8, r8, #0
 800551e:	2d00      	cmp	r5, #0
 8005520:	d14e      	bne.n	80055c0 <_strtod_l+0x390>
 8005522:	9908      	ldr	r1, [sp, #32]
 8005524:	4308      	orrs	r0, r1
 8005526:	f47f aebc 	bne.w	80052a2 <_strtod_l+0x72>
 800552a:	2b00      	cmp	r3, #0
 800552c:	f47f aed4 	bne.w	80052d8 <_strtod_l+0xa8>
 8005530:	2a69      	cmp	r2, #105	@ 0x69
 8005532:	d028      	beq.n	8005586 <_strtod_l+0x356>
 8005534:	dc25      	bgt.n	8005582 <_strtod_l+0x352>
 8005536:	2a49      	cmp	r2, #73	@ 0x49
 8005538:	d025      	beq.n	8005586 <_strtod_l+0x356>
 800553a:	2a4e      	cmp	r2, #78	@ 0x4e
 800553c:	f47f aecc 	bne.w	80052d8 <_strtod_l+0xa8>
 8005540:	499a      	ldr	r1, [pc, #616]	@ (80057ac <_strtod_l+0x57c>)
 8005542:	a819      	add	r0, sp, #100	@ 0x64
 8005544:	f002 fd40 	bl	8007fc8 <__match>
 8005548:	2800      	cmp	r0, #0
 800554a:	f43f aec5 	beq.w	80052d8 <_strtod_l+0xa8>
 800554e:	9b19      	ldr	r3, [sp, #100]	@ 0x64
 8005550:	781b      	ldrb	r3, [r3, #0]
 8005552:	2b28      	cmp	r3, #40	@ 0x28
 8005554:	d12e      	bne.n	80055b4 <_strtod_l+0x384>
 8005556:	4996      	ldr	r1, [pc, #600]	@ (80057b0 <_strtod_l+0x580>)
 8005558:	aa1c      	add	r2, sp, #112	@ 0x70
 800555a:	a819      	add	r0, sp, #100	@ 0x64
 800555c:	f002 fd48 	bl	8007ff0 <__hexnan>
 8005560:	2805      	cmp	r0, #5
 8005562:	d127      	bne.n	80055b4 <_strtod_l+0x384>
 8005564:	9b1d      	ldr	r3, [sp, #116]	@ 0x74
 8005566:	f8dd a070 	ldr.w	sl, [sp, #112]	@ 0x70
 800556a:	f043 4bff 	orr.w	fp, r3, #2139095040	@ 0x7f800000
 800556e:	f44b 0be0 	orr.w	fp, fp, #7340032	@ 0x700000
 8005572:	e696      	b.n	80052a2 <_strtod_l+0x72>
 8005574:	9909      	ldr	r1, [sp, #36]	@ 0x24
 8005576:	fb08 2101 	mla	r1, r8, r1, r2
 800557a:	f1a1 0230 	sub.w	r2, r1, #48	@ 0x30
 800557e:	9209      	str	r2, [sp, #36]	@ 0x24
 8005580:	e7b5      	b.n	80054ee <_strtod_l+0x2be>
 8005582:	2a6e      	cmp	r2, #110	@ 0x6e
 8005584:	e7da      	b.n	800553c <_strtod_l+0x30c>
 8005586:	498b      	ldr	r1, [pc, #556]	@ (80057b4 <_strtod_l+0x584>)
 8005588:	a819      	add	r0, sp, #100	@ 0x64
 800558a:	f002 fd1d 	bl	8007fc8 <__match>
 800558e:	2800      	cmp	r0, #0
 8005590:	f43f aea2 	beq.w	80052d8 <_strtod_l+0xa8>
 8005594:	9b19      	ldr	r3, [sp, #100]	@ 0x64
 8005596:	4988      	ldr	r1, [pc, #544]	@ (80057b8 <_strtod_l+0x588>)
 8005598:	3b01      	subs	r3, #1
 800559a:	a819      	add	r0, sp, #100	@ 0x64
 800559c:	9319      	str	r3, [sp, #100]	@ 0x64
 800559e:	f002 fd13 	bl	8007fc8 <__match>
 80055a2:	b910      	cbnz	r0, 80055aa <_strtod_l+0x37a>
 80055a4:	9b19      	ldr	r3, [sp, #100]	@ 0x64
 80055a6:	3301      	adds	r3, #1
 80055a8:	9319      	str	r3, [sp, #100]	@ 0x64
 80055aa:	f8df b21c 	ldr.w	fp, [pc, #540]	@ 80057c8 <_strtod_l+0x598>
 80055ae:	f04f 0a00 	mov.w	sl, #0
 80055b2:	e676      	b.n	80052a2 <_strtod_l+0x72>
 80055b4:	4881      	ldr	r0, [pc, #516]	@ (80057bc <_strtod_l+0x58c>)
 80055b6:	f001 fbd3 	bl	8006d60 <nan>
 80055ba:	ec5b ab10 	vmov	sl, fp, d0
 80055be:	e670      	b.n	80052a2 <_strtod_l+0x72>
 80055c0:	9b0a      	ldr	r3, [sp, #40]	@ 0x28
 80055c2:	980b      	ldr	r0, [sp, #44]	@ 0x2c
 80055c4:	eba8 0303 	sub.w	r3, r8, r3
 80055c8:	f1b9 0f00 	cmp.w	r9, #0
 80055cc:	bf08      	it	eq
 80055ce:	46a9      	moveq	r9, r5
 80055d0:	2d10      	cmp	r5, #16
 80055d2:	9309      	str	r3, [sp, #36]	@ 0x24
 80055d4:	462c      	mov	r4, r5
 80055d6:	bfa8      	it	ge
 80055d8:	2410      	movge	r4, #16
 80055da:	f7fa ff9b 	bl	8000514 <__aeabi_ui2d>
 80055de:	2d09      	cmp	r5, #9
 80055e0:	4682      	mov	sl, r0
 80055e2:	468b      	mov	fp, r1
 80055e4:	dc13      	bgt.n	800560e <_strtod_l+0x3de>
 80055e6:	9b09      	ldr	r3, [sp, #36]	@ 0x24
 80055e8:	2b00      	cmp	r3, #0
 80055ea:	f43f ae5a 	beq.w	80052a2 <_strtod_l+0x72>
 80055ee:	9b09      	ldr	r3, [sp, #36]	@ 0x24
 80055f0:	dd78      	ble.n	80056e4 <_strtod_l+0x4b4>
 80055f2:	2b16      	cmp	r3, #22
 80055f4:	dc5f      	bgt.n	80056b6 <_strtod_l+0x486>
 80055f6:	4972      	ldr	r1, [pc, #456]	@ (80057c0 <_strtod_l+0x590>)
 80055f8:	eb01 01c3 	add.w	r1, r1, r3, lsl #3
 80055fc:	e9d1 0100 	ldrd	r0, r1, [r1]
 8005600:	4652      	mov	r2, sl
 8005602:	465b      	mov	r3, fp
 8005604:	f7fb f800 	bl	8000608 <__aeabi_dmul>
 8005608:	4682      	mov	sl, r0
 800560a:	468b      	mov	fp, r1
 800560c:	e649      	b.n	80052a2 <_strtod_l+0x72>
 800560e:	4b6c      	ldr	r3, [pc, #432]	@ (80057c0 <_strtod_l+0x590>)
 8005610:	eb03 03c4 	add.w	r3, r3, r4, lsl #3
 8005614:	e953 2312 	ldrd	r2, r3, [r3, #-72]	@ 0x48
 8005618:	f7fa fff6 	bl	8000608 <__aeabi_dmul>
 800561c:	4682      	mov	sl, r0
 800561e:	4638      	mov	r0, r7
 8005620:	468b      	mov	fp, r1
 8005622:	f7fa ff77 	bl	8000514 <__aeabi_ui2d>
 8005626:	4602      	mov	r2, r0
 8005628:	460b      	mov	r3, r1
 800562a:	4650      	mov	r0, sl
 800562c:	4659      	mov	r1, fp
 800562e:	f7fa fe35 	bl	800029c <__adddf3>
 8005632:	2d0f      	cmp	r5, #15
 8005634:	4682      	mov	sl, r0
 8005636:	468b      	mov	fp, r1
 8005638:	ddd5      	ble.n	80055e6 <_strtod_l+0x3b6>
 800563a:	9b09      	ldr	r3, [sp, #36]	@ 0x24
 800563c:	1b2c      	subs	r4, r5, r4
 800563e:	441c      	add	r4, r3
 8005640:	2c00      	cmp	r4, #0
 8005642:	f340 8093 	ble.w	800576c <_strtod_l+0x53c>
 8005646:	f014 030f 	ands.w	r3, r4, #15
 800564a:	d00a      	beq.n	8005662 <_strtod_l+0x432>
 800564c:	495c      	ldr	r1, [pc, #368]	@ (80057c0 <_strtod_l+0x590>)
 800564e:	eb01 01c3 	add.w	r1, r1, r3, lsl #3
 8005652:	4652      	mov	r2, sl
 8005654:	465b      	mov	r3, fp
 8005656:	e9d1 0100 	ldrd	r0, r1, [r1]
 800565a:	f7fa ffd5 	bl	8000608 <__aeabi_dmul>
 800565e:	4682      	mov	sl, r0
 8005660:	468b      	mov	fp, r1
 8005662:	f034 040f 	bics.w	r4, r4, #15
 8005666:	d073      	beq.n	8005750 <_strtod_l+0x520>
 8005668:	f5b4 7f9a 	cmp.w	r4, #308	@ 0x134
 800566c:	dd49      	ble.n	8005702 <_strtod_l+0x4d2>
 800566e:	2400      	movs	r4, #0
 8005670:	46a0      	mov	r8, r4
 8005672:	940b      	str	r4, [sp, #44]	@ 0x2c
 8005674:	46a1      	mov	r9, r4
 8005676:	9a05      	ldr	r2, [sp, #20]
 8005678:	f8df b14c 	ldr.w	fp, [pc, #332]	@ 80057c8 <_strtod_l+0x598>
 800567c:	2322      	movs	r3, #34	@ 0x22
 800567e:	6013      	str	r3, [r2, #0]
 8005680:	f04f 0a00 	mov.w	sl, #0
 8005684:	9b0b      	ldr	r3, [sp, #44]	@ 0x2c
 8005686:	2b00      	cmp	r3, #0
 8005688:	f43f ae0b 	beq.w	80052a2 <_strtod_l+0x72>
 800568c:	991a      	ldr	r1, [sp, #104]	@ 0x68
 800568e:	9805      	ldr	r0, [sp, #20]
 8005690:	f002 fe52 	bl	8008338 <_Bfree>
 8005694:	9805      	ldr	r0, [sp, #20]
 8005696:	4649      	mov	r1, r9
 8005698:	f002 fe4e 	bl	8008338 <_Bfree>
 800569c:	9805      	ldr	r0, [sp, #20]
 800569e:	4641      	mov	r1, r8
 80056a0:	f002 fe4a 	bl	8008338 <_Bfree>
 80056a4:	990b      	ldr	r1, [sp, #44]	@ 0x2c
 80056a6:	9805      	ldr	r0, [sp, #20]
 80056a8:	f002 fe46 	bl	8008338 <_Bfree>
 80056ac:	9805      	ldr	r0, [sp, #20]
 80056ae:	4621      	mov	r1, r4
 80056b0:	f002 fe42 	bl	8008338 <_Bfree>
 80056b4:	e5f5      	b.n	80052a2 <_strtod_l+0x72>
 80056b6:	9a09      	ldr	r2, [sp, #36]	@ 0x24
 80056b8:	f1c5 0325 	rsb	r3, r5, #37	@ 0x25
 80056bc:	4293      	cmp	r3, r2
 80056be:	dbbc      	blt.n	800563a <_strtod_l+0x40a>
 80056c0:	4c3f      	ldr	r4, [pc, #252]	@ (80057c0 <_strtod_l+0x590>)
 80056c2:	f1c5 050f 	rsb	r5, r5, #15
 80056c6:	eb04 01c5 	add.w	r1, r4, r5, lsl #3
 80056ca:	4652      	mov	r2, sl
 80056cc:	465b      	mov	r3, fp
 80056ce:	e9d1 0100 	ldrd	r0, r1, [r1]
 80056d2:	f7fa ff99 	bl	8000608 <__aeabi_dmul>
 80056d6:	9b09      	ldr	r3, [sp, #36]	@ 0x24
 80056d8:	1b5d      	subs	r5, r3, r5
 80056da:	eb04 04c5 	add.w	r4, r4, r5, lsl #3
 80056de:	e9d4 2300 	ldrd	r2, r3, [r4]
 80056e2:	e78f      	b.n	8005604 <_strtod_l+0x3d4>
 80056e4:	3316      	adds	r3, #22
 80056e6:	dba8      	blt.n	800563a <_strtod_l+0x40a>
 80056e8:	9b0a      	ldr	r3, [sp, #40]	@ 0x28
 80056ea:	eba3 0808 	sub.w	r8, r3, r8
 80056ee:	4b34      	ldr	r3, [pc, #208]	@ (80057c0 <_strtod_l+0x590>)
 80056f0:	eb03 08c8 	add.w	r8, r3, r8, lsl #3
 80056f4:	e9d8 2300 	ldrd	r2, r3, [r8]
 80056f8:	4650      	mov	r0, sl
 80056fa:	4659      	mov	r1, fp
 80056fc:	f7fb f8ae 	bl	800085c <__aeabi_ddiv>
 8005700:	e782      	b.n	8005608 <_strtod_l+0x3d8>
 8005702:	2300      	movs	r3, #0
 8005704:	4f2f      	ldr	r7, [pc, #188]	@ (80057c4 <_strtod_l+0x594>)
 8005706:	1124      	asrs	r4, r4, #4
 8005708:	4650      	mov	r0, sl
 800570a:	4659      	mov	r1, fp
 800570c:	461e      	mov	r6, r3
 800570e:	2c01      	cmp	r4, #1
 8005710:	dc21      	bgt.n	8005756 <_strtod_l+0x526>
 8005712:	b10b      	cbz	r3, 8005718 <_strtod_l+0x4e8>
 8005714:	4682      	mov	sl, r0
 8005716:	468b      	mov	fp, r1
 8005718:	492a      	ldr	r1, [pc, #168]	@ (80057c4 <_strtod_l+0x594>)
 800571a:	f1ab 7b54 	sub.w	fp, fp, #55574528	@ 0x3500000
 800571e:	eb01 01c6 	add.w	r1, r1, r6, lsl #3
 8005722:	4652      	mov	r2, sl
 8005724:	465b      	mov	r3, fp
 8005726:	e9d1 0100 	ldrd	r0, r1, [r1]
 800572a:	f7fa ff6d 	bl	8000608 <__aeabi_dmul>
 800572e:	4b26      	ldr	r3, [pc, #152]	@ (80057c8 <_strtod_l+0x598>)
 8005730:	460a      	mov	r2, r1
 8005732:	400b      	ands	r3, r1
 8005734:	4925      	ldr	r1, [pc, #148]	@ (80057cc <_strtod_l+0x59c>)
 8005736:	428b      	cmp	r3, r1
 8005738:	4682      	mov	sl, r0
 800573a:	d898      	bhi.n	800566e <_strtod_l+0x43e>
 800573c:	f5a1 1180 	sub.w	r1, r1, #1048576	@ 0x100000
 8005740:	428b      	cmp	r3, r1
 8005742:	bf86      	itte	hi
 8005744:	f8df b088 	ldrhi.w	fp, [pc, #136]	@ 80057d0 <_strtod_l+0x5a0>
 8005748:	f04f 3aff 	movhi.w	sl, #4294967295
 800574c:	f102 7b54 	addls.w	fp, r2, #55574528	@ 0x3500000
 8005750:	2300      	movs	r3, #0
 8005752:	9308      	str	r3, [sp, #32]
 8005754:	e076      	b.n	8005844 <_strtod_l+0x614>
 8005756:	07e2      	lsls	r2, r4, #31
 8005758:	d504      	bpl.n	8005764 <_strtod_l+0x534>
 800575a:	e9d7 2300 	ldrd	r2, r3, [r7]
 800575e:	f7fa ff53 	bl	8000608 <__aeabi_dmul>
 8005762:	2301      	movs	r3, #1
 8005764:	3601      	adds	r6, #1
 8005766:	1064      	asrs	r4, r4, #1
 8005768:	3708      	adds	r7, #8
 800576a:	e7d0      	b.n	800570e <_strtod_l+0x4de>
 800576c:	d0f0      	beq.n	8005750 <_strtod_l+0x520>
 800576e:	4264      	negs	r4, r4
 8005770:	f014 020f 	ands.w	r2, r4, #15
 8005774:	d00a      	beq.n	800578c <_strtod_l+0x55c>
 8005776:	4b12      	ldr	r3, [pc, #72]	@ (80057c0 <_strtod_l+0x590>)
 8005778:	eb03 03c2 	add.w	r3, r3, r2, lsl #3
 800577c:	4650      	mov	r0, sl
 800577e:	4659      	mov	r1, fp
 8005780:	e9d3 2300 	ldrd	r2, r3, [r3]
 8005784:	f7fb f86a 	bl	800085c <__aeabi_ddiv>
 8005788:	4682      	mov	sl, r0
 800578a:	468b      	mov	fp, r1
 800578c:	1124      	asrs	r4, r4, #4
 800578e:	d0df      	beq.n	8005750 <_strtod_l+0x520>
 8005790:	2c1f      	cmp	r4, #31
 8005792:	dd1f      	ble.n	80057d4 <_strtod_l+0x5a4>
 8005794:	2400      	movs	r4, #0
 8005796:	46a0      	mov	r8, r4
 8005798:	940b      	str	r4, [sp, #44]	@ 0x2c
 800579a:	46a1      	mov	r9, r4
 800579c:	9a05      	ldr	r2, [sp, #20]
 800579e:	2322      	movs	r3, #34	@ 0x22
 80057a0:	f04f 0a00 	mov.w	sl, #0
 80057a4:	f04f 0b00 	mov.w	fp, #0
 80057a8:	6013      	str	r3, [r2, #0]
 80057aa:	e76b      	b.n	8005684 <_strtod_l+0x454>
 80057ac:	0800936f 	.word	0x0800936f
 80057b0:	08009534 	.word	0x08009534
 80057b4:	08009367 	.word	0x08009367
 80057b8:	080093a1 	.word	0x080093a1
 80057bc:	08009530 	.word	0x08009530
 80057c0:	080096c0 	.word	0x080096c0
 80057c4:	08009698 	.word	0x08009698
 80057c8:	7ff00000 	.word	0x7ff00000
 80057cc:	7ca00000 	.word	0x7ca00000
 80057d0:	7fefffff 	.word	0x7fefffff
 80057d4:	f014 0310 	ands.w	r3, r4, #16
 80057d8:	bf18      	it	ne
 80057da:	236a      	movne	r3, #106	@ 0x6a
 80057dc:	4ea9      	ldr	r6, [pc, #676]	@ (8005a84 <_strtod_l+0x854>)
 80057de:	9308      	str	r3, [sp, #32]
 80057e0:	4650      	mov	r0, sl
 80057e2:	4659      	mov	r1, fp
 80057e4:	2300      	movs	r3, #0
 80057e6:	07e7      	lsls	r7, r4, #31
 80057e8:	d504      	bpl.n	80057f4 <_strtod_l+0x5c4>
 80057ea:	e9d6 2300 	ldrd	r2, r3, [r6]
 80057ee:	f7fa ff0b 	bl	8000608 <__aeabi_dmul>
 80057f2:	2301      	movs	r3, #1
 80057f4:	1064      	asrs	r4, r4, #1
 80057f6:	f106 0608 	add.w	r6, r6, #8
 80057fa:	d1f4      	bne.n	80057e6 <_strtod_l+0x5b6>
 80057fc:	b10b      	cbz	r3, 8005802 <_strtod_l+0x5d2>
 80057fe:	4682      	mov	sl, r0
 8005800:	468b      	mov	fp, r1
 8005802:	9b08      	ldr	r3, [sp, #32]
 8005804:	b1b3      	cbz	r3, 8005834 <_strtod_l+0x604>
 8005806:	f3cb 520a 	ubfx	r2, fp, #20, #11
 800580a:	f1c2 036b 	rsb	r3, r2, #107	@ 0x6b
 800580e:	2b00      	cmp	r3, #0
 8005810:	4659      	mov	r1, fp
 8005812:	dd0f      	ble.n	8005834 <_strtod_l+0x604>
 8005814:	2b1f      	cmp	r3, #31
 8005816:	dd56      	ble.n	80058c6 <_strtod_l+0x696>
 8005818:	2b34      	cmp	r3, #52	@ 0x34
 800581a:	bfde      	ittt	le
 800581c:	f04f 33ff 	movle.w	r3, #4294967295
 8005820:	f1c2 024b 	rsble	r2, r2, #75	@ 0x4b
 8005824:	4093      	lslle	r3, r2
 8005826:	f04f 0a00 	mov.w	sl, #0
 800582a:	bfcc      	ite	gt
 800582c:	f04f 7b5c 	movgt.w	fp, #57671680	@ 0x3700000
 8005830:	ea03 0b01 	andle.w	fp, r3, r1
 8005834:	2200      	movs	r2, #0
 8005836:	2300      	movs	r3, #0
 8005838:	4650      	mov	r0, sl
 800583a:	4659      	mov	r1, fp
 800583c:	f7fb f94c 	bl	8000ad8 <__aeabi_dcmpeq>
 8005840:	2800      	cmp	r0, #0
 8005842:	d1a7      	bne.n	8005794 <_strtod_l+0x564>
 8005844:	9b0b      	ldr	r3, [sp, #44]	@ 0x2c
 8005846:	9300      	str	r3, [sp, #0]
 8005848:	990c      	ldr	r1, [sp, #48]	@ 0x30
 800584a:	9805      	ldr	r0, [sp, #20]
 800584c:	462b      	mov	r3, r5
 800584e:	464a      	mov	r2, r9
 8005850:	f002 fdda 	bl	8008408 <__s2b>
 8005854:	900b      	str	r0, [sp, #44]	@ 0x2c
 8005856:	2800      	cmp	r0, #0
 8005858:	f43f af09 	beq.w	800566e <_strtod_l+0x43e>
 800585c:	9a09      	ldr	r2, [sp, #36]	@ 0x24
 800585e:	9b0a      	ldr	r3, [sp, #40]	@ 0x28
 8005860:	2a00      	cmp	r2, #0
 8005862:	eba3 0308 	sub.w	r3, r3, r8
 8005866:	bfa8      	it	ge
 8005868:	2300      	movge	r3, #0
 800586a:	9312      	str	r3, [sp, #72]	@ 0x48
 800586c:	2400      	movs	r4, #0
 800586e:	ea22 73e2 	bic.w	r3, r2, r2, asr #31
 8005872:	9316      	str	r3, [sp, #88]	@ 0x58
 8005874:	46a0      	mov	r8, r4
 8005876:	9b0b      	ldr	r3, [sp, #44]	@ 0x2c
 8005878:	9805      	ldr	r0, [sp, #20]
 800587a:	6859      	ldr	r1, [r3, #4]
 800587c:	f002 fd1c 	bl	80082b8 <_Balloc>
 8005880:	4681      	mov	r9, r0
 8005882:	2800      	cmp	r0, #0
 8005884:	f43f aef7 	beq.w	8005676 <_strtod_l+0x446>
 8005888:	9b0b      	ldr	r3, [sp, #44]	@ 0x2c
 800588a:	691a      	ldr	r2, [r3, #16]
 800588c:	3202      	adds	r2, #2
 800588e:	f103 010c 	add.w	r1, r3, #12
 8005892:	0092      	lsls	r2, r2, #2
 8005894:	300c      	adds	r0, #12
 8005896:	f001 fa54 	bl	8006d42 <memcpy>
 800589a:	ec4b ab10 	vmov	d0, sl, fp
 800589e:	9805      	ldr	r0, [sp, #20]
 80058a0:	aa1c      	add	r2, sp, #112	@ 0x70
 80058a2:	a91b      	add	r1, sp, #108	@ 0x6c
 80058a4:	e9cd ab0c 	strd	sl, fp, [sp, #48]	@ 0x30
 80058a8:	f003 f8e2 	bl	8008a70 <__d2b>
 80058ac:	901a      	str	r0, [sp, #104]	@ 0x68
 80058ae:	2800      	cmp	r0, #0
 80058b0:	f43f aee1 	beq.w	8005676 <_strtod_l+0x446>
 80058b4:	9805      	ldr	r0, [sp, #20]
 80058b6:	2101      	movs	r1, #1
 80058b8:	f002 fe3c 	bl	8008534 <__i2b>
 80058bc:	4680      	mov	r8, r0
 80058be:	b948      	cbnz	r0, 80058d4 <_strtod_l+0x6a4>
 80058c0:	f04f 0800 	mov.w	r8, #0
 80058c4:	e6d7      	b.n	8005676 <_strtod_l+0x446>
 80058c6:	f04f 32ff 	mov.w	r2, #4294967295
 80058ca:	fa02 f303 	lsl.w	r3, r2, r3
 80058ce:	ea03 0a0a 	and.w	sl, r3, sl
 80058d2:	e7af      	b.n	8005834 <_strtod_l+0x604>
 80058d4:	9d1b      	ldr	r5, [sp, #108]	@ 0x6c
 80058d6:	9a1c      	ldr	r2, [sp, #112]	@ 0x70
 80058d8:	2d00      	cmp	r5, #0
 80058da:	bfab      	itete	ge
 80058dc:	9b12      	ldrge	r3, [sp, #72]	@ 0x48
 80058de:	9b16      	ldrlt	r3, [sp, #88]	@ 0x58
 80058e0:	9e16      	ldrge	r6, [sp, #88]	@ 0x58
 80058e2:	9f12      	ldrlt	r7, [sp, #72]	@ 0x48
 80058e4:	bfac      	ite	ge
 80058e6:	18ef      	addge	r7, r5, r3
 80058e8:	1b5e      	sublt	r6, r3, r5
 80058ea:	9b08      	ldr	r3, [sp, #32]
 80058ec:	1aed      	subs	r5, r5, r3
 80058ee:	4415      	add	r5, r2
 80058f0:	4b65      	ldr	r3, [pc, #404]	@ (8005a88 <_strtod_l+0x858>)
 80058f2:	3d01      	subs	r5, #1
 80058f4:	429d      	cmp	r5, r3
 80058f6:	f1c2 0236 	rsb	r2, r2, #54	@ 0x36
 80058fa:	da50      	bge.n	800599e <_strtod_l+0x76e>
 80058fc:	1b5b      	subs	r3, r3, r5
 80058fe:	2b1f      	cmp	r3, #31
 8005900:	eba2 0203 	sub.w	r2, r2, r3
 8005904:	f04f 0101 	mov.w	r1, #1
 8005908:	dc3d      	bgt.n	8005986 <_strtod_l+0x756>
 800590a:	fa01 f303 	lsl.w	r3, r1, r3
 800590e:	9313      	str	r3, [sp, #76]	@ 0x4c
 8005910:	2300      	movs	r3, #0
 8005912:	9310      	str	r3, [sp, #64]	@ 0x40
 8005914:	18bd      	adds	r5, r7, r2
 8005916:	9b08      	ldr	r3, [sp, #32]
 8005918:	42af      	cmp	r7, r5
 800591a:	4416      	add	r6, r2
 800591c:	441e      	add	r6, r3
 800591e:	463b      	mov	r3, r7
 8005920:	bfa8      	it	ge
 8005922:	462b      	movge	r3, r5
 8005924:	42b3      	cmp	r3, r6
 8005926:	bfa8      	it	ge
 8005928:	4633      	movge	r3, r6
 800592a:	2b00      	cmp	r3, #0
 800592c:	bfc2      	ittt	gt
 800592e:	1aed      	subgt	r5, r5, r3
 8005930:	1af6      	subgt	r6, r6, r3
 8005932:	1aff      	subgt	r7, r7, r3
 8005934:	9b12      	ldr	r3, [sp, #72]	@ 0x48
 8005936:	2b00      	cmp	r3, #0
 8005938:	dd16      	ble.n	8005968 <_strtod_l+0x738>
 800593a:	4641      	mov	r1, r8
 800593c:	9805      	ldr	r0, [sp, #20]
 800593e:	461a      	mov	r2, r3
 8005940:	f002 feb0 	bl	80086a4 <__pow5mult>
 8005944:	4680      	mov	r8, r0
 8005946:	2800      	cmp	r0, #0
 8005948:	d0ba      	beq.n	80058c0 <_strtod_l+0x690>
 800594a:	4601      	mov	r1, r0
 800594c:	9a1a      	ldr	r2, [sp, #104]	@ 0x68
 800594e:	9805      	ldr	r0, [sp, #20]
 8005950:	f002 fe06 	bl	8008560 <__multiply>
 8005954:	900a      	str	r0, [sp, #40]	@ 0x28
 8005956:	2800      	cmp	r0, #0
 8005958:	f43f ae8d 	beq.w	8005676 <_strtod_l+0x446>
 800595c:	991a      	ldr	r1, [sp, #104]	@ 0x68
 800595e:	9805      	ldr	r0, [sp, #20]
 8005960:	f002 fcea 	bl	8008338 <_Bfree>
 8005964:	9b0a      	ldr	r3, [sp, #40]	@ 0x28
 8005966:	931a      	str	r3, [sp, #104]	@ 0x68
 8005968:	2d00      	cmp	r5, #0
 800596a:	dc1d      	bgt.n	80059a8 <_strtod_l+0x778>
 800596c:	9b09      	ldr	r3, [sp, #36]	@ 0x24
 800596e:	2b00      	cmp	r3, #0
 8005970:	dd23      	ble.n	80059ba <_strtod_l+0x78a>
 8005972:	4649      	mov	r1, r9
 8005974:	9a16      	ldr	r2, [sp, #88]	@ 0x58
 8005976:	9805      	ldr	r0, [sp, #20]
 8005978:	f002 fe94 	bl	80086a4 <__pow5mult>
 800597c:	4681      	mov	r9, r0
 800597e:	b9e0      	cbnz	r0, 80059ba <_strtod_l+0x78a>
 8005980:	f04f 0900 	mov.w	r9, #0
 8005984:	e677      	b.n	8005676 <_strtod_l+0x446>
 8005986:	f1c5 457f 	rsb	r5, r5, #4278190080	@ 0xff000000
 800598a:	f505 057f 	add.w	r5, r5, #16711680	@ 0xff0000
 800598e:	f505 457b 	add.w	r5, r5, #64256	@ 0xfb00
 8005992:	35e2      	adds	r5, #226	@ 0xe2
 8005994:	fa01 f305 	lsl.w	r3, r1, r5
 8005998:	9310      	str	r3, [sp, #64]	@ 0x40
 800599a:	9113      	str	r1, [sp, #76]	@ 0x4c
 800599c:	e7ba      	b.n	8005914 <_strtod_l+0x6e4>
 800599e:	2300      	movs	r3, #0
 80059a0:	9310      	str	r3, [sp, #64]	@ 0x40
 80059a2:	2301      	movs	r3, #1
 80059a4:	9313      	str	r3, [sp, #76]	@ 0x4c
 80059a6:	e7b5      	b.n	8005914 <_strtod_l+0x6e4>
 80059a8:	991a      	ldr	r1, [sp, #104]	@ 0x68
 80059aa:	9805      	ldr	r0, [sp, #20]
 80059ac:	462a      	mov	r2, r5
 80059ae:	f002 fed3 	bl	8008758 <__lshift>
 80059b2:	901a      	str	r0, [sp, #104]	@ 0x68
 80059b4:	2800      	cmp	r0, #0
 80059b6:	d1d9      	bne.n	800596c <_strtod_l+0x73c>
 80059b8:	e65d      	b.n	8005676 <_strtod_l+0x446>
 80059ba:	2e00      	cmp	r6, #0
 80059bc:	dd07      	ble.n	80059ce <_strtod_l+0x79e>
 80059be:	4649      	mov	r1, r9
 80059c0:	9805      	ldr	r0, [sp, #20]
 80059c2:	4632      	mov	r2, r6
 80059c4:	f002 fec8 	bl	8008758 <__lshift>
 80059c8:	4681      	mov	r9, r0
 80059ca:	2800      	cmp	r0, #0
 80059cc:	d0d8      	beq.n	8005980 <_strtod_l+0x750>
 80059ce:	2f00      	cmp	r7, #0
 80059d0:	dd08      	ble.n	80059e4 <_strtod_l+0x7b4>
 80059d2:	4641      	mov	r1, r8
 80059d4:	9805      	ldr	r0, [sp, #20]
 80059d6:	463a      	mov	r2, r7
 80059d8:	f002 febe 	bl	8008758 <__lshift>
 80059dc:	4680      	mov	r8, r0
 80059de:	2800      	cmp	r0, #0
 80059e0:	f43f ae49 	beq.w	8005676 <_strtod_l+0x446>
 80059e4:	991a      	ldr	r1, [sp, #104]	@ 0x68
 80059e6:	9805      	ldr	r0, [sp, #20]
 80059e8:	464a      	mov	r2, r9
 80059ea:	f002 ff3d 	bl	8008868 <__mdiff>
 80059ee:	4604      	mov	r4, r0
 80059f0:	2800      	cmp	r0, #0
 80059f2:	f43f ae40 	beq.w	8005676 <_strtod_l+0x446>
 80059f6:	68c3      	ldr	r3, [r0, #12]
 80059f8:	930f      	str	r3, [sp, #60]	@ 0x3c
 80059fa:	2300      	movs	r3, #0
 80059fc:	60c3      	str	r3, [r0, #12]
 80059fe:	4641      	mov	r1, r8
 8005a00:	f002 ff16 	bl	8008830 <__mcmp>
 8005a04:	2800      	cmp	r0, #0
 8005a06:	da45      	bge.n	8005a94 <_strtod_l+0x864>
 8005a08:	9b0f      	ldr	r3, [sp, #60]	@ 0x3c
 8005a0a:	ea53 030a 	orrs.w	r3, r3, sl
 8005a0e:	d16b      	bne.n	8005ae8 <_strtod_l+0x8b8>
 8005a10:	f3cb 0313 	ubfx	r3, fp, #0, #20
 8005a14:	2b00      	cmp	r3, #0
 8005a16:	d167      	bne.n	8005ae8 <_strtod_l+0x8b8>
 8005a18:	f02b 4300 	bic.w	r3, fp, #2147483648	@ 0x80000000
 8005a1c:	0d1b      	lsrs	r3, r3, #20
 8005a1e:	051b      	lsls	r3, r3, #20
 8005a20:	f1b3 6fd6 	cmp.w	r3, #112197632	@ 0x6b00000
 8005a24:	d960      	bls.n	8005ae8 <_strtod_l+0x8b8>
 8005a26:	6963      	ldr	r3, [r4, #20]
 8005a28:	b913      	cbnz	r3, 8005a30 <_strtod_l+0x800>
 8005a2a:	6923      	ldr	r3, [r4, #16]
 8005a2c:	2b01      	cmp	r3, #1
 8005a2e:	dd5b      	ble.n	8005ae8 <_strtod_l+0x8b8>
 8005a30:	4621      	mov	r1, r4
 8005a32:	2201      	movs	r2, #1
 8005a34:	9805      	ldr	r0, [sp, #20]
 8005a36:	f002 fe8f 	bl	8008758 <__lshift>
 8005a3a:	4641      	mov	r1, r8
 8005a3c:	4604      	mov	r4, r0
 8005a3e:	f002 fef7 	bl	8008830 <__mcmp>
 8005a42:	2800      	cmp	r0, #0
 8005a44:	dd50      	ble.n	8005ae8 <_strtod_l+0x8b8>
 8005a46:	f02b 4300 	bic.w	r3, fp, #2147483648	@ 0x80000000
 8005a4a:	9a08      	ldr	r2, [sp, #32]
 8005a4c:	0d1b      	lsrs	r3, r3, #20
 8005a4e:	051b      	lsls	r3, r3, #20
 8005a50:	2a00      	cmp	r2, #0
 8005a52:	d06a      	beq.n	8005b2a <_strtod_l+0x8fa>
 8005a54:	f1b3 6fd6 	cmp.w	r3, #112197632	@ 0x6b00000
 8005a58:	d867      	bhi.n	8005b2a <_strtod_l+0x8fa>
 8005a5a:	f1b3 7f5c 	cmp.w	r3, #57671680	@ 0x3700000
 8005a5e:	f67f ae9d 	bls.w	800579c <_strtod_l+0x56c>
 8005a62:	4b0a      	ldr	r3, [pc, #40]	@ (8005a8c <_strtod_l+0x85c>)
 8005a64:	4650      	mov	r0, sl
 8005a66:	4659      	mov	r1, fp
 8005a68:	2200      	movs	r2, #0
 8005a6a:	f7fa fdcd 	bl	8000608 <__aeabi_dmul>
 8005a6e:	4b08      	ldr	r3, [pc, #32]	@ (8005a90 <_strtod_l+0x860>)
 8005a70:	400b      	ands	r3, r1
 8005a72:	4682      	mov	sl, r0
 8005a74:	468b      	mov	fp, r1
 8005a76:	2b00      	cmp	r3, #0
 8005a78:	f47f ae08 	bne.w	800568c <_strtod_l+0x45c>
 8005a7c:	9a05      	ldr	r2, [sp, #20]
 8005a7e:	2322      	movs	r3, #34	@ 0x22
 8005a80:	6013      	str	r3, [r2, #0]
 8005a82:	e603      	b.n	800568c <_strtod_l+0x45c>
 8005a84:	08009560 	.word	0x08009560
 8005a88:	fffffc02 	.word	0xfffffc02
 8005a8c:	39500000 	.word	0x39500000
 8005a90:	7ff00000 	.word	0x7ff00000
 8005a94:	f8cd b028 	str.w	fp, [sp, #40]	@ 0x28
 8005a98:	d165      	bne.n	8005b66 <_strtod_l+0x936>
 8005a9a:	9a0f      	ldr	r2, [sp, #60]	@ 0x3c
 8005a9c:	f3cb 0313 	ubfx	r3, fp, #0, #20
 8005aa0:	b35a      	cbz	r2, 8005afa <_strtod_l+0x8ca>
 8005aa2:	4a9f      	ldr	r2, [pc, #636]	@ (8005d20 <_strtod_l+0xaf0>)
 8005aa4:	4293      	cmp	r3, r2
 8005aa6:	d12b      	bne.n	8005b00 <_strtod_l+0x8d0>
 8005aa8:	9b08      	ldr	r3, [sp, #32]
 8005aaa:	4651      	mov	r1, sl
 8005aac:	b303      	cbz	r3, 8005af0 <_strtod_l+0x8c0>
 8005aae:	4b9d      	ldr	r3, [pc, #628]	@ (8005d24 <_strtod_l+0xaf4>)
 8005ab0:	465a      	mov	r2, fp
 8005ab2:	4013      	ands	r3, r2
 8005ab4:	f1b3 6fd4 	cmp.w	r3, #111149056	@ 0x6a00000
 8005ab8:	f04f 32ff 	mov.w	r2, #4294967295
 8005abc:	d81b      	bhi.n	8005af6 <_strtod_l+0x8c6>
 8005abe:	0d1b      	lsrs	r3, r3, #20
 8005ac0:	f1c3 036b 	rsb	r3, r3, #107	@ 0x6b
 8005ac4:	fa02 f303 	lsl.w	r3, r2, r3
 8005ac8:	4299      	cmp	r1, r3
 8005aca:	d119      	bne.n	8005b00 <_strtod_l+0x8d0>
 8005acc:	4b96      	ldr	r3, [pc, #600]	@ (8005d28 <_strtod_l+0xaf8>)
 8005ace:	9a0a      	ldr	r2, [sp, #40]	@ 0x28
 8005ad0:	429a      	cmp	r2, r3
 8005ad2:	d102      	bne.n	8005ada <_strtod_l+0x8aa>
 8005ad4:	3101      	adds	r1, #1
 8005ad6:	f43f adce 	beq.w	8005676 <_strtod_l+0x446>
 8005ada:	4b92      	ldr	r3, [pc, #584]	@ (8005d24 <_strtod_l+0xaf4>)
 8005adc:	9a0a      	ldr	r2, [sp, #40]	@ 0x28
 8005ade:	401a      	ands	r2, r3
 8005ae0:	f502 1b80 	add.w	fp, r2, #1048576	@ 0x100000
 8005ae4:	f04f 0a00 	mov.w	sl, #0
 8005ae8:	9b08      	ldr	r3, [sp, #32]
 8005aea:	2b00      	cmp	r3, #0
 8005aec:	d1b9      	bne.n	8005a62 <_strtod_l+0x832>
 8005aee:	e5cd      	b.n	800568c <_strtod_l+0x45c>
 8005af0:	f04f 33ff 	mov.w	r3, #4294967295
 8005af4:	e7e8      	b.n	8005ac8 <_strtod_l+0x898>
 8005af6:	4613      	mov	r3, r2
 8005af8:	e7e6      	b.n	8005ac8 <_strtod_l+0x898>
 8005afa:	ea53 030a 	orrs.w	r3, r3, sl
 8005afe:	d0a2      	beq.n	8005a46 <_strtod_l+0x816>
 8005b00:	9b10      	ldr	r3, [sp, #64]	@ 0x40
 8005b02:	b1db      	cbz	r3, 8005b3c <_strtod_l+0x90c>
 8005b04:	9a0a      	ldr	r2, [sp, #40]	@ 0x28
 8005b06:	4213      	tst	r3, r2
 8005b08:	d0ee      	beq.n	8005ae8 <_strtod_l+0x8b8>
 8005b0a:	9b0f      	ldr	r3, [sp, #60]	@ 0x3c
 8005b0c:	9a08      	ldr	r2, [sp, #32]
 8005b0e:	4650      	mov	r0, sl
 8005b10:	4659      	mov	r1, fp
 8005b12:	b1bb      	cbz	r3, 8005b44 <_strtod_l+0x914>
 8005b14:	f7ff fb6b 	bl	80051ee <sulp>
 8005b18:	e9dd 010c 	ldrd	r0, r1, [sp, #48]	@ 0x30
 8005b1c:	ec53 2b10 	vmov	r2, r3, d0
 8005b20:	f7fa fbbc 	bl	800029c <__adddf3>
 8005b24:	4682      	mov	sl, r0
 8005b26:	468b      	mov	fp, r1
 8005b28:	e7de      	b.n	8005ae8 <_strtod_l+0x8b8>
 8005b2a:	f5a3 1380 	sub.w	r3, r3, #1048576	@ 0x100000
 8005b2e:	ea6f 5b13 	mvn.w	fp, r3, lsr #20
 8005b32:	ea6f 5b0b 	mvn.w	fp, fp, lsl #20
 8005b36:	f04f 3aff 	mov.w	sl, #4294967295
 8005b3a:	e7d5      	b.n	8005ae8 <_strtod_l+0x8b8>
 8005b3c:	9b13      	ldr	r3, [sp, #76]	@ 0x4c
 8005b3e:	ea13 0f0a 	tst.w	r3, sl
 8005b42:	e7e1      	b.n	8005b08 <_strtod_l+0x8d8>
 8005b44:	f7ff fb53 	bl	80051ee <sulp>
 8005b48:	e9dd 010c 	ldrd	r0, r1, [sp, #48]	@ 0x30
 8005b4c:	ec53 2b10 	vmov	r2, r3, d0
 8005b50:	f7fa fba2 	bl	8000298 <__aeabi_dsub>
 8005b54:	2200      	movs	r2, #0
 8005b56:	2300      	movs	r3, #0
 8005b58:	4682      	mov	sl, r0
 8005b5a:	468b      	mov	fp, r1
 8005b5c:	f7fa ffbc 	bl	8000ad8 <__aeabi_dcmpeq>
 8005b60:	2800      	cmp	r0, #0
 8005b62:	d0c1      	beq.n	8005ae8 <_strtod_l+0x8b8>
 8005b64:	e61a      	b.n	800579c <_strtod_l+0x56c>
 8005b66:	4641      	mov	r1, r8
 8005b68:	4620      	mov	r0, r4
 8005b6a:	f002 ffd9 	bl	8008b20 <__ratio>
 8005b6e:	ec57 6b10 	vmov	r6, r7, d0
 8005b72:	2200      	movs	r2, #0
 8005b74:	f04f 4380 	mov.w	r3, #1073741824	@ 0x40000000
 8005b78:	4630      	mov	r0, r6
 8005b7a:	4639      	mov	r1, r7
 8005b7c:	f7fa ffc0 	bl	8000b00 <__aeabi_dcmple>
 8005b80:	2800      	cmp	r0, #0
 8005b82:	d06f      	beq.n	8005c64 <_strtod_l+0xa34>
 8005b84:	9b0f      	ldr	r3, [sp, #60]	@ 0x3c
 8005b86:	2b00      	cmp	r3, #0
 8005b88:	d17a      	bne.n	8005c80 <_strtod_l+0xa50>
 8005b8a:	f1ba 0f00 	cmp.w	sl, #0
 8005b8e:	d158      	bne.n	8005c42 <_strtod_l+0xa12>
 8005b90:	9b0a      	ldr	r3, [sp, #40]	@ 0x28
 8005b92:	f3c3 0313 	ubfx	r3, r3, #0, #20
 8005b96:	2b00      	cmp	r3, #0
 8005b98:	d15a      	bne.n	8005c50 <_strtod_l+0xa20>
 8005b9a:	4b64      	ldr	r3, [pc, #400]	@ (8005d2c <_strtod_l+0xafc>)
 8005b9c:	2200      	movs	r2, #0
 8005b9e:	4630      	mov	r0, r6
 8005ba0:	4639      	mov	r1, r7
 8005ba2:	f7fa ffa3 	bl	8000aec <__aeabi_dcmplt>
 8005ba6:	2800      	cmp	r0, #0
 8005ba8:	d159      	bne.n	8005c5e <_strtod_l+0xa2e>
 8005baa:	4630      	mov	r0, r6
 8005bac:	4639      	mov	r1, r7
 8005bae:	4b60      	ldr	r3, [pc, #384]	@ (8005d30 <_strtod_l+0xb00>)
 8005bb0:	2200      	movs	r2, #0
 8005bb2:	f7fa fd29 	bl	8000608 <__aeabi_dmul>
 8005bb6:	4606      	mov	r6, r0
 8005bb8:	460f      	mov	r7, r1
 8005bba:	f107 4300 	add.w	r3, r7, #2147483648	@ 0x80000000
 8005bbe:	9606      	str	r6, [sp, #24]
 8005bc0:	9307      	str	r3, [sp, #28]
 8005bc2:	e9dd 2306 	ldrd	r2, r3, [sp, #24]
 8005bc6:	4d57      	ldr	r5, [pc, #348]	@ (8005d24 <_strtod_l+0xaf4>)
 8005bc8:	e9cd 2310 	strd	r2, r3, [sp, #64]	@ 0x40
 8005bcc:	9b0a      	ldr	r3, [sp, #40]	@ 0x28
 8005bce:	401d      	ands	r5, r3
 8005bd0:	4b58      	ldr	r3, [pc, #352]	@ (8005d34 <_strtod_l+0xb04>)
 8005bd2:	429d      	cmp	r5, r3
 8005bd4:	f040 80b2 	bne.w	8005d3c <_strtod_l+0xb0c>
 8005bd8:	9b0a      	ldr	r3, [sp, #40]	@ 0x28
 8005bda:	f1a3 7b54 	sub.w	fp, r3, #55574528	@ 0x3500000
 8005bde:	ec4b ab10 	vmov	d0, sl, fp
 8005be2:	f002 fed5 	bl	8008990 <__ulp>
 8005be6:	e9dd 2306 	ldrd	r2, r3, [sp, #24]
 8005bea:	ec51 0b10 	vmov	r0, r1, d0
 8005bee:	f7fa fd0b 	bl	8000608 <__aeabi_dmul>
 8005bf2:	4652      	mov	r2, sl
 8005bf4:	465b      	mov	r3, fp
 8005bf6:	f7fa fb51 	bl	800029c <__adddf3>
 8005bfa:	460b      	mov	r3, r1
 8005bfc:	4949      	ldr	r1, [pc, #292]	@ (8005d24 <_strtod_l+0xaf4>)
 8005bfe:	4a4e      	ldr	r2, [pc, #312]	@ (8005d38 <_strtod_l+0xb08>)
 8005c00:	4019      	ands	r1, r3
 8005c02:	4291      	cmp	r1, r2
 8005c04:	4682      	mov	sl, r0
 8005c06:	d942      	bls.n	8005c8e <_strtod_l+0xa5e>
 8005c08:	9a0d      	ldr	r2, [sp, #52]	@ 0x34
 8005c0a:	4b47      	ldr	r3, [pc, #284]	@ (8005d28 <_strtod_l+0xaf8>)
 8005c0c:	429a      	cmp	r2, r3
 8005c0e:	d103      	bne.n	8005c18 <_strtod_l+0x9e8>
 8005c10:	9b0c      	ldr	r3, [sp, #48]	@ 0x30
 8005c12:	3301      	adds	r3, #1
 8005c14:	f43f ad2f 	beq.w	8005676 <_strtod_l+0x446>
 8005c18:	f8df b10c 	ldr.w	fp, [pc, #268]	@ 8005d28 <_strtod_l+0xaf8>
 8005c1c:	f04f 3aff 	mov.w	sl, #4294967295
 8005c20:	991a      	ldr	r1, [sp, #104]	@ 0x68
 8005c22:	9805      	ldr	r0, [sp, #20]
 8005c24:	f002 fb88 	bl	8008338 <_Bfree>
 8005c28:	9805      	ldr	r0, [sp, #20]
 8005c2a:	4649      	mov	r1, r9
 8005c2c:	f002 fb84 	bl	8008338 <_Bfree>
 8005c30:	9805      	ldr	r0, [sp, #20]
 8005c32:	4641      	mov	r1, r8
 8005c34:	f002 fb80 	bl	8008338 <_Bfree>
 8005c38:	9805      	ldr	r0, [sp, #20]
 8005c3a:	4621      	mov	r1, r4
 8005c3c:	f002 fb7c 	bl	8008338 <_Bfree>
 8005c40:	e619      	b.n	8005876 <_strtod_l+0x646>
 8005c42:	f1ba 0f01 	cmp.w	sl, #1
 8005c46:	d103      	bne.n	8005c50 <_strtod_l+0xa20>
 8005c48:	9b0a      	ldr	r3, [sp, #40]	@ 0x28
 8005c4a:	2b00      	cmp	r3, #0
 8005c4c:	f43f ada6 	beq.w	800579c <_strtod_l+0x56c>
 8005c50:	ed9f 7b2b 	vldr	d7, [pc, #172]	@ 8005d00 <_strtod_l+0xad0>
 8005c54:	4f35      	ldr	r7, [pc, #212]	@ (8005d2c <_strtod_l+0xafc>)
 8005c56:	ed8d 7b06 	vstr	d7, [sp, #24]
 8005c5a:	2600      	movs	r6, #0
 8005c5c:	e7b1      	b.n	8005bc2 <_strtod_l+0x992>
 8005c5e:	4f34      	ldr	r7, [pc, #208]	@ (8005d30 <_strtod_l+0xb00>)
 8005c60:	2600      	movs	r6, #0
 8005c62:	e7aa      	b.n	8005bba <_strtod_l+0x98a>
 8005c64:	4b32      	ldr	r3, [pc, #200]	@ (8005d30 <_strtod_l+0xb00>)
 8005c66:	4630      	mov	r0, r6
 8005c68:	4639      	mov	r1, r7
 8005c6a:	2200      	movs	r2, #0
 8005c6c:	f7fa fccc 	bl	8000608 <__aeabi_dmul>
 8005c70:	9b0f      	ldr	r3, [sp, #60]	@ 0x3c
 8005c72:	4606      	mov	r6, r0
 8005c74:	460f      	mov	r7, r1
 8005c76:	2b00      	cmp	r3, #0
 8005c78:	d09f      	beq.n	8005bba <_strtod_l+0x98a>
 8005c7a:	e9cd 6706 	strd	r6, r7, [sp, #24]
 8005c7e:	e7a0      	b.n	8005bc2 <_strtod_l+0x992>
 8005c80:	ed9f 7b21 	vldr	d7, [pc, #132]	@ 8005d08 <_strtod_l+0xad8>
 8005c84:	ed8d 7b06 	vstr	d7, [sp, #24]
 8005c88:	ec57 6b17 	vmov	r6, r7, d7
 8005c8c:	e799      	b.n	8005bc2 <_strtod_l+0x992>
 8005c8e:	f103 7b54 	add.w	fp, r3, #55574528	@ 0x3500000
 8005c92:	9b08      	ldr	r3, [sp, #32]
 8005c94:	f8cd b028 	str.w	fp, [sp, #40]	@ 0x28
 8005c98:	2b00      	cmp	r3, #0
 8005c9a:	d1c1      	bne.n	8005c20 <_strtod_l+0x9f0>
 8005c9c:	f02b 4300 	bic.w	r3, fp, #2147483648	@ 0x80000000
 8005ca0:	0d1b      	lsrs	r3, r3, #20
 8005ca2:	051b      	lsls	r3, r3, #20
 8005ca4:	429d      	cmp	r5, r3
 8005ca6:	d1bb      	bne.n	8005c20 <_strtod_l+0x9f0>
 8005ca8:	4630      	mov	r0, r6
 8005caa:	4639      	mov	r1, r7
 8005cac:	f7fb f80c 	bl	8000cc8 <__aeabi_d2lz>
 8005cb0:	f7fa fc7c 	bl	80005ac <__aeabi_l2d>
 8005cb4:	4602      	mov	r2, r0
 8005cb6:	460b      	mov	r3, r1
 8005cb8:	4630      	mov	r0, r6
 8005cba:	4639      	mov	r1, r7
 8005cbc:	f7fa faec 	bl	8000298 <__aeabi_dsub>
 8005cc0:	460b      	mov	r3, r1
 8005cc2:	4602      	mov	r2, r0
 8005cc4:	e9cd 230c 	strd	r2, r3, [sp, #48]	@ 0x30
 8005cc8:	f3cb 0613 	ubfx	r6, fp, #0, #20
 8005ccc:	9b0f      	ldr	r3, [sp, #60]	@ 0x3c
 8005cce:	ea46 060a 	orr.w	r6, r6, sl
 8005cd2:	431e      	orrs	r6, r3
 8005cd4:	d06f      	beq.n	8005db6 <_strtod_l+0xb86>
 8005cd6:	a30e      	add	r3, pc, #56	@ (adr r3, 8005d10 <_strtod_l+0xae0>)
 8005cd8:	e9d3 2300 	ldrd	r2, r3, [r3]
 8005cdc:	f7fa ff06 	bl	8000aec <__aeabi_dcmplt>
 8005ce0:	2800      	cmp	r0, #0
 8005ce2:	f47f acd3 	bne.w	800568c <_strtod_l+0x45c>
 8005ce6:	a30c      	add	r3, pc, #48	@ (adr r3, 8005d18 <_strtod_l+0xae8>)
 8005ce8:	e9d3 2300 	ldrd	r2, r3, [r3]
 8005cec:	e9dd 010c 	ldrd	r0, r1, [sp, #48]	@ 0x30
 8005cf0:	f7fa ff1a 	bl	8000b28 <__aeabi_dcmpgt>
 8005cf4:	2800      	cmp	r0, #0
 8005cf6:	d093      	beq.n	8005c20 <_strtod_l+0x9f0>
 8005cf8:	e4c8      	b.n	800568c <_strtod_l+0x45c>
 8005cfa:	bf00      	nop
 8005cfc:	f3af 8000 	nop.w
 8005d00:	00000000 	.word	0x00000000
 8005d04:	bff00000 	.word	0xbff00000
 8005d08:	00000000 	.word	0x00000000
 8005d0c:	3ff00000 	.word	0x3ff00000
 8005d10:	94a03595 	.word	0x94a03595
 8005d14:	3fdfffff 	.word	0x3fdfffff
 8005d18:	35afe535 	.word	0x35afe535
 8005d1c:	3fe00000 	.word	0x3fe00000
 8005d20:	000fffff 	.word	0x000fffff
 8005d24:	7ff00000 	.word	0x7ff00000
 8005d28:	7fefffff 	.word	0x7fefffff
 8005d2c:	3ff00000 	.word	0x3ff00000
 8005d30:	3fe00000 	.word	0x3fe00000
 8005d34:	7fe00000 	.word	0x7fe00000
 8005d38:	7c9fffff 	.word	0x7c9fffff
 8005d3c:	9b08      	ldr	r3, [sp, #32]
 8005d3e:	b323      	cbz	r3, 8005d8a <_strtod_l+0xb5a>
 8005d40:	f1b5 6fd4 	cmp.w	r5, #111149056	@ 0x6a00000
 8005d44:	d821      	bhi.n	8005d8a <_strtod_l+0xb5a>
 8005d46:	a328      	add	r3, pc, #160	@ (adr r3, 8005de8 <_strtod_l+0xbb8>)
 8005d48:	e9d3 2300 	ldrd	r2, r3, [r3]
 8005d4c:	4630      	mov	r0, r6
 8005d4e:	4639      	mov	r1, r7
 8005d50:	f7fa fed6 	bl	8000b00 <__aeabi_dcmple>
 8005d54:	b1a0      	cbz	r0, 8005d80 <_strtod_l+0xb50>
 8005d56:	4639      	mov	r1, r7
 8005d58:	4630      	mov	r0, r6
 8005d5a:	f7fa ff2d 	bl	8000bb8 <__aeabi_d2uiz>
 8005d5e:	2801      	cmp	r0, #1
 8005d60:	bf38      	it	cc
 8005d62:	2001      	movcc	r0, #1
 8005d64:	f7fa fbd6 	bl	8000514 <__aeabi_ui2d>
 8005d68:	9b0f      	ldr	r3, [sp, #60]	@ 0x3c
 8005d6a:	4606      	mov	r6, r0
 8005d6c:	460f      	mov	r7, r1
 8005d6e:	b9fb      	cbnz	r3, 8005db0 <_strtod_l+0xb80>
 8005d70:	f101 4300 	add.w	r3, r1, #2147483648	@ 0x80000000
 8005d74:	9014      	str	r0, [sp, #80]	@ 0x50
 8005d76:	9315      	str	r3, [sp, #84]	@ 0x54
 8005d78:	e9dd 2314 	ldrd	r2, r3, [sp, #80]	@ 0x50
 8005d7c:	e9cd 2310 	strd	r2, r3, [sp, #64]	@ 0x40
 8005d80:	9b11      	ldr	r3, [sp, #68]	@ 0x44
 8005d82:	f103 63d6 	add.w	r3, r3, #112197632	@ 0x6b00000
 8005d86:	1b5b      	subs	r3, r3, r5
 8005d88:	9311      	str	r3, [sp, #68]	@ 0x44
 8005d8a:	ed9d 0b0c 	vldr	d0, [sp, #48]	@ 0x30
 8005d8e:	e9dd ab10 	ldrd	sl, fp, [sp, #64]	@ 0x40
 8005d92:	f002 fdfd 	bl	8008990 <__ulp>
 8005d96:	4650      	mov	r0, sl
 8005d98:	ec53 2b10 	vmov	r2, r3, d0
 8005d9c:	4659      	mov	r1, fp
 8005d9e:	f7fa fc33 	bl	8000608 <__aeabi_dmul>
 8005da2:	e9dd 230c 	ldrd	r2, r3, [sp, #48]	@ 0x30
 8005da6:	f7fa fa79 	bl	800029c <__adddf3>
 8005daa:	4682      	mov	sl, r0
 8005dac:	468b      	mov	fp, r1
 8005dae:	e770      	b.n	8005c92 <_strtod_l+0xa62>
 8005db0:	e9cd 6714 	strd	r6, r7, [sp, #80]	@ 0x50
 8005db4:	e7e0      	b.n	8005d78 <_strtod_l+0xb48>
 8005db6:	a30e      	add	r3, pc, #56	@ (adr r3, 8005df0 <_strtod_l+0xbc0>)
 8005db8:	e9d3 2300 	ldrd	r2, r3, [r3]
 8005dbc:	f7fa fe96 	bl	8000aec <__aeabi_dcmplt>
 8005dc0:	e798      	b.n	8005cf4 <_strtod_l+0xac4>
 8005dc2:	2300      	movs	r3, #0
 8005dc4:	930e      	str	r3, [sp, #56]	@ 0x38
 8005dc6:	9a17      	ldr	r2, [sp, #92]	@ 0x5c
 8005dc8:	9b19      	ldr	r3, [sp, #100]	@ 0x64
 8005dca:	6013      	str	r3, [r2, #0]
 8005dcc:	f7ff ba6d 	b.w	80052aa <_strtod_l+0x7a>
 8005dd0:	2a65      	cmp	r2, #101	@ 0x65
 8005dd2:	f43f ab68 	beq.w	80054a6 <_strtod_l+0x276>
 8005dd6:	2a45      	cmp	r2, #69	@ 0x45
 8005dd8:	f43f ab65 	beq.w	80054a6 <_strtod_l+0x276>
 8005ddc:	2301      	movs	r3, #1
 8005dde:	f7ff bba0 	b.w	8005522 <_strtod_l+0x2f2>
 8005de2:	bf00      	nop
 8005de4:	f3af 8000 	nop.w
 8005de8:	ffc00000 	.word	0xffc00000
 8005dec:	41dfffff 	.word	0x41dfffff
 8005df0:	94a03595 	.word	0x94a03595
 8005df4:	3fcfffff 	.word	0x3fcfffff

08005df8 <strtod>:
 8005df8:	460a      	mov	r2, r1
 8005dfa:	4601      	mov	r1, r0
 8005dfc:	4802      	ldr	r0, [pc, #8]	@ (8005e08 <strtod+0x10>)
 8005dfe:	4b03      	ldr	r3, [pc, #12]	@ (8005e0c <strtod+0x14>)
 8005e00:	6800      	ldr	r0, [r0, #0]
 8005e02:	f7ff ba15 	b.w	8005230 <_strtod_l>
 8005e06:	bf00      	nop
 8005e08:	20000188 	.word	0x20000188
 8005e0c:	2000001c 	.word	0x2000001c

08005e10 <_strtol_l.isra.0>:
 8005e10:	2b24      	cmp	r3, #36	@ 0x24
 8005e12:	e92d 47f0 	stmdb	sp!, {r4, r5, r6, r7, r8, r9, sl, lr}
 8005e16:	4686      	mov	lr, r0
 8005e18:	4690      	mov	r8, r2
 8005e1a:	d801      	bhi.n	8005e20 <_strtol_l.isra.0+0x10>
 8005e1c:	2b01      	cmp	r3, #1
 8005e1e:	d106      	bne.n	8005e2e <_strtol_l.isra.0+0x1e>
 8005e20:	f000 ff62 	bl	8006ce8 <__errno>
 8005e24:	2316      	movs	r3, #22
 8005e26:	6003      	str	r3, [r0, #0]
 8005e28:	2000      	movs	r0, #0
 8005e2a:	e8bd 87f0 	ldmia.w	sp!, {r4, r5, r6, r7, r8, r9, sl, pc}
 8005e2e:	4834      	ldr	r0, [pc, #208]	@ (8005f00 <_strtol_l.isra.0+0xf0>)
 8005e30:	460d      	mov	r5, r1
 8005e32:	462a      	mov	r2, r5
 8005e34:	f815 4b01 	ldrb.w	r4, [r5], #1
 8005e38:	5d06      	ldrb	r6, [r0, r4]
 8005e3a:	f016 0608 	ands.w	r6, r6, #8
 8005e3e:	d1f8      	bne.n	8005e32 <_strtol_l.isra.0+0x22>
 8005e40:	2c2d      	cmp	r4, #45	@ 0x2d
 8005e42:	d110      	bne.n	8005e66 <_strtol_l.isra.0+0x56>
 8005e44:	782c      	ldrb	r4, [r5, #0]
 8005e46:	2601      	movs	r6, #1
 8005e48:	1c95      	adds	r5, r2, #2
 8005e4a:	f033 0210 	bics.w	r2, r3, #16
 8005e4e:	d115      	bne.n	8005e7c <_strtol_l.isra.0+0x6c>
 8005e50:	2c30      	cmp	r4, #48	@ 0x30
 8005e52:	d10d      	bne.n	8005e70 <_strtol_l.isra.0+0x60>
 8005e54:	782a      	ldrb	r2, [r5, #0]
 8005e56:	f002 02df 	and.w	r2, r2, #223	@ 0xdf
 8005e5a:	2a58      	cmp	r2, #88	@ 0x58
 8005e5c:	d108      	bne.n	8005e70 <_strtol_l.isra.0+0x60>
 8005e5e:	786c      	ldrb	r4, [r5, #1]
 8005e60:	3502      	adds	r5, #2
 8005e62:	2310      	movs	r3, #16
 8005e64:	e00a      	b.n	8005e7c <_strtol_l.isra.0+0x6c>
 8005e66:	2c2b      	cmp	r4, #43	@ 0x2b
 8005e68:	bf04      	itt	eq
 8005e6a:	782c      	ldrbeq	r4, [r5, #0]
 8005e6c:	1c95      	addeq	r5, r2, #2
 8005e6e:	e7ec      	b.n	8005e4a <_strtol_l.isra.0+0x3a>
 8005e70:	2b00      	cmp	r3, #0
 8005e72:	d1f6      	bne.n	8005e62 <_strtol_l.isra.0+0x52>
 8005e74:	2c30      	cmp	r4, #48	@ 0x30
 8005e76:	bf14      	ite	ne
 8005e78:	230a      	movne	r3, #10
 8005e7a:	2308      	moveq	r3, #8
 8005e7c:	f106 4c00 	add.w	ip, r6, #2147483648	@ 0x80000000
 8005e80:	f10c 3cff 	add.w	ip, ip, #4294967295
 8005e84:	2200      	movs	r2, #0
 8005e86:	fbbc f9f3 	udiv	r9, ip, r3
 8005e8a:	4610      	mov	r0, r2
 8005e8c:	fb03 ca19 	mls	sl, r3, r9, ip
 8005e90:	f1a4 0730 	sub.w	r7, r4, #48	@ 0x30
 8005e94:	2f09      	cmp	r7, #9
 8005e96:	d80f      	bhi.n	8005eb8 <_strtol_l.isra.0+0xa8>
 8005e98:	463c      	mov	r4, r7
 8005e9a:	42a3      	cmp	r3, r4
 8005e9c:	dd1b      	ble.n	8005ed6 <_strtol_l.isra.0+0xc6>
 8005e9e:	1c57      	adds	r7, r2, #1
 8005ea0:	d007      	beq.n	8005eb2 <_strtol_l.isra.0+0xa2>
 8005ea2:	4581      	cmp	r9, r0
 8005ea4:	d314      	bcc.n	8005ed0 <_strtol_l.isra.0+0xc0>
 8005ea6:	d101      	bne.n	8005eac <_strtol_l.isra.0+0x9c>
 8005ea8:	45a2      	cmp	sl, r4
 8005eaa:	db11      	blt.n	8005ed0 <_strtol_l.isra.0+0xc0>
 8005eac:	fb00 4003 	mla	r0, r0, r3, r4
 8005eb0:	2201      	movs	r2, #1
 8005eb2:	f815 4b01 	ldrb.w	r4, [r5], #1
 8005eb6:	e7eb      	b.n	8005e90 <_strtol_l.isra.0+0x80>
 8005eb8:	f1a4 0741 	sub.w	r7, r4, #65	@ 0x41
 8005ebc:	2f19      	cmp	r7, #25
 8005ebe:	d801      	bhi.n	8005ec4 <_strtol_l.isra.0+0xb4>
 8005ec0:	3c37      	subs	r4, #55	@ 0x37
 8005ec2:	e7ea      	b.n	8005e9a <_strtol_l.isra.0+0x8a>
 8005ec4:	f1a4 0761 	sub.w	r7, r4, #97	@ 0x61
 8005ec8:	2f19      	cmp	r7, #25
 8005eca:	d804      	bhi.n	8005ed6 <_strtol_l.isra.0+0xc6>
 8005ecc:	3c57      	subs	r4, #87	@ 0x57
 8005ece:	e7e4      	b.n	8005e9a <_strtol_l.isra.0+0x8a>
 8005ed0:	f04f 32ff 	mov.w	r2, #4294967295
 8005ed4:	e7ed      	b.n	8005eb2 <_strtol_l.isra.0+0xa2>
 8005ed6:	1c53      	adds	r3, r2, #1
 8005ed8:	d108      	bne.n	8005eec <_strtol_l.isra.0+0xdc>
 8005eda:	2322      	movs	r3, #34	@ 0x22
 8005edc:	f8ce 3000 	str.w	r3, [lr]
 8005ee0:	4660      	mov	r0, ip
 8005ee2:	f1b8 0f00 	cmp.w	r8, #0
 8005ee6:	d0a0      	beq.n	8005e2a <_strtol_l.isra.0+0x1a>
 8005ee8:	1e69      	subs	r1, r5, #1
 8005eea:	e006      	b.n	8005efa <_strtol_l.isra.0+0xea>
 8005eec:	b106      	cbz	r6, 8005ef0 <_strtol_l.isra.0+0xe0>
 8005eee:	4240      	negs	r0, r0
 8005ef0:	f1b8 0f00 	cmp.w	r8, #0
 8005ef4:	d099      	beq.n	8005e2a <_strtol_l.isra.0+0x1a>
 8005ef6:	2a00      	cmp	r2, #0
 8005ef8:	d1f6      	bne.n	8005ee8 <_strtol_l.isra.0+0xd8>
 8005efa:	f8c8 1000 	str.w	r1, [r8]
 8005efe:	e794      	b.n	8005e2a <_strtol_l.isra.0+0x1a>
 8005f00:	08009589 	.word	0x08009589

08005f04 <strtol>:
 8005f04:	4613      	mov	r3, r2
 8005f06:	460a      	mov	r2, r1
 8005f08:	4601      	mov	r1, r0
 8005f0a:	4802      	ldr	r0, [pc, #8]	@ (8005f14 <strtol+0x10>)
 8005f0c:	6800      	ldr	r0, [r0, #0]
 8005f0e:	f7ff bf7f 	b.w	8005e10 <_strtol_l.isra.0>
 8005f12:	bf00      	nop
 8005f14:	20000188 	.word	0x20000188

08005f18 <__cvt>:
 8005f18:	e92d 47ff 	stmdb	sp!, {r0, r1, r2, r3, r4, r5, r6, r7, r8, r9, sl, lr}
 8005f1c:	ec57 6b10 	vmov	r6, r7, d0
 8005f20:	2f00      	cmp	r7, #0
 8005f22:	460c      	mov	r4, r1
 8005f24:	4619      	mov	r1, r3
 8005f26:	463b      	mov	r3, r7
 8005f28:	bfbb      	ittet	lt
 8005f2a:	f107 4300 	addlt.w	r3, r7, #2147483648	@ 0x80000000
 8005f2e:	461f      	movlt	r7, r3
 8005f30:	2300      	movge	r3, #0
 8005f32:	232d      	movlt	r3, #45	@ 0x2d
 8005f34:	700b      	strb	r3, [r1, #0]
 8005f36:	9b0d      	ldr	r3, [sp, #52]	@ 0x34
 8005f38:	f8dd a030 	ldr.w	sl, [sp, #48]	@ 0x30
 8005f3c:	4691      	mov	r9, r2
 8005f3e:	f023 0820 	bic.w	r8, r3, #32
 8005f42:	bfbc      	itt	lt
 8005f44:	4632      	movlt	r2, r6
 8005f46:	4616      	movlt	r6, r2
 8005f48:	f1b8 0f46 	cmp.w	r8, #70	@ 0x46
 8005f4c:	d005      	beq.n	8005f5a <__cvt+0x42>
 8005f4e:	f1b8 0f45 	cmp.w	r8, #69	@ 0x45
 8005f52:	d100      	bne.n	8005f56 <__cvt+0x3e>
 8005f54:	3401      	adds	r4, #1
 8005f56:	2102      	movs	r1, #2
 8005f58:	e000      	b.n	8005f5c <__cvt+0x44>
 8005f5a:	2103      	movs	r1, #3
 8005f5c:	ab03      	add	r3, sp, #12
 8005f5e:	9301      	str	r3, [sp, #4]
 8005f60:	ab02      	add	r3, sp, #8
 8005f62:	9300      	str	r3, [sp, #0]
 8005f64:	ec47 6b10 	vmov	d0, r6, r7
 8005f68:	4653      	mov	r3, sl
 8005f6a:	4622      	mov	r2, r4
 8005f6c:	f000 ff88 	bl	8006e80 <_dtoa_r>
 8005f70:	f1b8 0f47 	cmp.w	r8, #71	@ 0x47
 8005f74:	4605      	mov	r5, r0
 8005f76:	d119      	bne.n	8005fac <__cvt+0x94>
 8005f78:	f019 0f01 	tst.w	r9, #1
 8005f7c:	d00e      	beq.n	8005f9c <__cvt+0x84>
 8005f7e:	eb00 0904 	add.w	r9, r0, r4
 8005f82:	2200      	movs	r2, #0
 8005f84:	2300      	movs	r3, #0
 8005f86:	4630      	mov	r0, r6
 8005f88:	4639      	mov	r1, r7
 8005f8a:	f7fa fda5 	bl	8000ad8 <__aeabi_dcmpeq>
 8005f8e:	b108      	cbz	r0, 8005f94 <__cvt+0x7c>
 8005f90:	f8cd 900c 	str.w	r9, [sp, #12]
 8005f94:	2230      	movs	r2, #48	@ 0x30
 8005f96:	9b03      	ldr	r3, [sp, #12]
 8005f98:	454b      	cmp	r3, r9
 8005f9a:	d31e      	bcc.n	8005fda <__cvt+0xc2>
 8005f9c:	9b03      	ldr	r3, [sp, #12]
 8005f9e:	9a0e      	ldr	r2, [sp, #56]	@ 0x38
 8005fa0:	1b5b      	subs	r3, r3, r5
 8005fa2:	4628      	mov	r0, r5
 8005fa4:	6013      	str	r3, [r2, #0]
 8005fa6:	b004      	add	sp, #16
 8005fa8:	e8bd 87f0 	ldmia.w	sp!, {r4, r5, r6, r7, r8, r9, sl, pc}
 8005fac:	f1b8 0f46 	cmp.w	r8, #70	@ 0x46
 8005fb0:	eb00 0904 	add.w	r9, r0, r4
 8005fb4:	d1e5      	bne.n	8005f82 <__cvt+0x6a>
 8005fb6:	7803      	ldrb	r3, [r0, #0]
 8005fb8:	2b30      	cmp	r3, #48	@ 0x30
 8005fba:	d10a      	bne.n	8005fd2 <__cvt+0xba>
 8005fbc:	2200      	movs	r2, #0
 8005fbe:	2300      	movs	r3, #0
 8005fc0:	4630      	mov	r0, r6
 8005fc2:	4639      	mov	r1, r7
 8005fc4:	f7fa fd88 	bl	8000ad8 <__aeabi_dcmpeq>
 8005fc8:	b918      	cbnz	r0, 8005fd2 <__cvt+0xba>
 8005fca:	f1c4 0401 	rsb	r4, r4, #1
 8005fce:	f8ca 4000 	str.w	r4, [sl]
 8005fd2:	f8da 3000 	ldr.w	r3, [sl]
 8005fd6:	4499      	add	r9, r3
 8005fd8:	e7d3      	b.n	8005f82 <__cvt+0x6a>
 8005fda:	1c59      	adds	r1, r3, #1
 8005fdc:	9103      	str	r1, [sp, #12]
 8005fde:	701a      	strb	r2, [r3, #0]
 8005fe0:	e7d9      	b.n	8005f96 <__cvt+0x7e>

08005fe2 <__exponent>:
 8005fe2:	b5f7      	push	{r0, r1, r2, r4, r5, r6, r7, lr}
 8005fe4:	2900      	cmp	r1, #0
 8005fe6:	bfba      	itte	lt
 8005fe8:	4249      	neglt	r1, r1
 8005fea:	232d      	movlt	r3, #45	@ 0x2d
 8005fec:	232b      	movge	r3, #43	@ 0x2b
 8005fee:	2909      	cmp	r1, #9
 8005ff0:	7002      	strb	r2, [r0, #0]
 8005ff2:	7043      	strb	r3, [r0, #1]
 8005ff4:	dd29      	ble.n	800604a <__exponent+0x68>
 8005ff6:	f10d 0307 	add.w	r3, sp, #7
 8005ffa:	461d      	mov	r5, r3
 8005ffc:	270a      	movs	r7, #10
 8005ffe:	461a      	mov	r2, r3
 8006000:	fbb1 f6f7 	udiv	r6, r1, r7
 8006004:	fb07 1416 	mls	r4, r7, r6, r1
 8006008:	3430      	adds	r4, #48	@ 0x30
 800600a:	f802 4c01 	strb.w	r4, [r2, #-1]
 800600e:	460c      	mov	r4, r1
 8006010:	2c63      	cmp	r4, #99	@ 0x63
 8006012:	f103 33ff 	add.w	r3, r3, #4294967295
 8006016:	4631      	mov	r1, r6
 8006018:	dcf1      	bgt.n	8005ffe <__exponent+0x1c>
 800601a:	3130      	adds	r1, #48	@ 0x30
 800601c:	1e94      	subs	r4, r2, #2
 800601e:	f803 1c01 	strb.w	r1, [r3, #-1]
 8006022:	1c41      	adds	r1, r0, #1
 8006024:	4623      	mov	r3, r4
 8006026:	42ab      	cmp	r3, r5
 8006028:	d30a      	bcc.n	8006040 <__exponent+0x5e>
 800602a:	f10d 0309 	add.w	r3, sp, #9
 800602e:	1a9b      	subs	r3, r3, r2
 8006030:	42ac      	cmp	r4, r5
 8006032:	bf88      	it	hi
 8006034:	2300      	movhi	r3, #0
 8006036:	3302      	adds	r3, #2
 8006038:	4403      	add	r3, r0
 800603a:	1a18      	subs	r0, r3, r0
 800603c:	b003      	add	sp, #12
 800603e:	bdf0      	pop	{r4, r5, r6, r7, pc}
 8006040:	f813 6b01 	ldrb.w	r6, [r3], #1
 8006044:	f801 6f01 	strb.w	r6, [r1, #1]!
 8006048:	e7ed      	b.n	8006026 <__exponent+0x44>
 800604a:	2330      	movs	r3, #48	@ 0x30
 800604c:	3130      	adds	r1, #48	@ 0x30
 800604e:	7083      	strb	r3, [r0, #2]
 8006050:	70c1      	strb	r1, [r0, #3]
 8006052:	1d03      	adds	r3, r0, #4
 8006054:	e7f1      	b.n	800603a <__exponent+0x58>
	...

08006058 <_printf_float>:
 8006058:	e92d 4ff0 	stmdb	sp!, {r4, r5, r6, r7, r8, r9, sl, fp, lr}
 800605c:	b08d      	sub	sp, #52	@ 0x34
 800605e:	460c      	mov	r4, r1
 8006060:	f8dd 8058 	ldr.w	r8, [sp, #88]	@ 0x58
 8006064:	4616      	mov	r6, r2
 8006066:	461f      	mov	r7, r3
 8006068:	4605      	mov	r5, r0
 800606a:	f000 fdf3 	bl	8006c54 <_localeconv_r>
 800606e:	6803      	ldr	r3, [r0, #0]
 8006070:	9304      	str	r3, [sp, #16]
 8006072:	4618      	mov	r0, r3
 8006074:	f7fa f904 	bl	8000280 <strlen>
 8006078:	2300      	movs	r3, #0
 800607a:	930a      	str	r3, [sp, #40]	@ 0x28
 800607c:	f8d8 3000 	ldr.w	r3, [r8]
 8006080:	9005      	str	r0, [sp, #20]
 8006082:	3307      	adds	r3, #7
 8006084:	f023 0307 	bic.w	r3, r3, #7
 8006088:	f103 0208 	add.w	r2, r3, #8
 800608c:	f894 a018 	ldrb.w	sl, [r4, #24]
 8006090:	f8d4 b000 	ldr.w	fp, [r4]
 8006094:	f8c8 2000 	str.w	r2, [r8]
 8006098:	e9d3 8900 	ldrd	r8, r9, [r3]
 800609c:	f029 4300 	bic.w	r3, r9, #2147483648	@ 0x80000000
 80060a0:	9307      	str	r3, [sp, #28]
 80060a2:	f8cd 8018 	str.w	r8, [sp, #24]
 80060a6:	e9c4 8912 	strd	r8, r9, [r4, #72]	@ 0x48
 80060aa:	e9dd 0106 	ldrd	r0, r1, [sp, #24]
 80060ae:	4b9c      	ldr	r3, [pc, #624]	@ (8006320 <_printf_float+0x2c8>)
 80060b0:	f04f 32ff 	mov.w	r2, #4294967295
 80060b4:	f7fa fd42 	bl	8000b3c <__aeabi_dcmpun>
 80060b8:	bb70      	cbnz	r0, 8006118 <_printf_float+0xc0>
 80060ba:	e9dd 0106 	ldrd	r0, r1, [sp, #24]
 80060be:	4b98      	ldr	r3, [pc, #608]	@ (8006320 <_printf_float+0x2c8>)
 80060c0:	f04f 32ff 	mov.w	r2, #4294967295
 80060c4:	f7fa fd1c 	bl	8000b00 <__aeabi_dcmple>
 80060c8:	bb30      	cbnz	r0, 8006118 <_printf_float+0xc0>
 80060ca:	2200      	movs	r2, #0
 80060cc:	2300      	movs	r3, #0
 80060ce:	4640      	mov	r0, r8
 80060d0:	4649      	mov	r1, r9
 80060d2:	f7fa fd0b 	bl	8000aec <__aeabi_dcmplt>
 80060d6:	b110      	cbz	r0, 80060de <_printf_float+0x86>
 80060d8:	232d      	movs	r3, #45	@ 0x2d
 80060da:	f884 3043 	strb.w	r3, [r4, #67]	@ 0x43
 80060de:	4a91      	ldr	r2, [pc, #580]	@ (8006324 <_printf_float+0x2cc>)
 80060e0:	4b91      	ldr	r3, [pc, #580]	@ (8006328 <_printf_float+0x2d0>)
 80060e2:	f1ba 0f47 	cmp.w	sl, #71	@ 0x47
 80060e6:	bf8c      	ite	hi
 80060e8:	4690      	movhi	r8, r2
 80060ea:	4698      	movls	r8, r3
 80060ec:	2303      	movs	r3, #3
 80060ee:	6123      	str	r3, [r4, #16]
 80060f0:	f02b 0304 	bic.w	r3, fp, #4
 80060f4:	6023      	str	r3, [r4, #0]
 80060f6:	f04f 0900 	mov.w	r9, #0
 80060fa:	9700      	str	r7, [sp, #0]
 80060fc:	4633      	mov	r3, r6
 80060fe:	aa0b      	add	r2, sp, #44	@ 0x2c
 8006100:	4621      	mov	r1, r4
 8006102:	4628      	mov	r0, r5
 8006104:	f000 f9d2 	bl	80064ac <_printf_common>
 8006108:	3001      	adds	r0, #1
 800610a:	f040 808d 	bne.w	8006228 <_printf_float+0x1d0>
 800610e:	f04f 30ff 	mov.w	r0, #4294967295
 8006112:	b00d      	add	sp, #52	@ 0x34
 8006114:	e8bd 8ff0 	ldmia.w	sp!, {r4, r5, r6, r7, r8, r9, sl, fp, pc}
 8006118:	4642      	mov	r2, r8
 800611a:	464b      	mov	r3, r9
 800611c:	4640      	mov	r0, r8
 800611e:	4649      	mov	r1, r9
 8006120:	f7fa fd0c 	bl	8000b3c <__aeabi_dcmpun>
 8006124:	b140      	cbz	r0, 8006138 <_printf_float+0xe0>
 8006126:	464b      	mov	r3, r9
 8006128:	2b00      	cmp	r3, #0
 800612a:	bfbc      	itt	lt
 800612c:	232d      	movlt	r3, #45	@ 0x2d
 800612e:	f884 3043 	strblt.w	r3, [r4, #67]	@ 0x43
 8006132:	4a7e      	ldr	r2, [pc, #504]	@ (800632c <_printf_float+0x2d4>)
 8006134:	4b7e      	ldr	r3, [pc, #504]	@ (8006330 <_printf_float+0x2d8>)
 8006136:	e7d4      	b.n	80060e2 <_printf_float+0x8a>
 8006138:	6863      	ldr	r3, [r4, #4]
 800613a:	f00a 02df 	and.w	r2, sl, #223	@ 0xdf
 800613e:	9206      	str	r2, [sp, #24]
 8006140:	1c5a      	adds	r2, r3, #1
 8006142:	d13b      	bne.n	80061bc <_printf_float+0x164>
 8006144:	2306      	movs	r3, #6
 8006146:	6063      	str	r3, [r4, #4]
 8006148:	f44b 6280 	orr.w	r2, fp, #1024	@ 0x400
 800614c:	2300      	movs	r3, #0
 800614e:	6022      	str	r2, [r4, #0]
 8006150:	9303      	str	r3, [sp, #12]
 8006152:	ab0a      	add	r3, sp, #40	@ 0x28
 8006154:	e9cd a301 	strd	sl, r3, [sp, #4]
 8006158:	ab09      	add	r3, sp, #36	@ 0x24
 800615a:	9300      	str	r3, [sp, #0]
 800615c:	6861      	ldr	r1, [r4, #4]
 800615e:	ec49 8b10 	vmov	d0, r8, r9
 8006162:	f10d 0323 	add.w	r3, sp, #35	@ 0x23
 8006166:	4628      	mov	r0, r5
 8006168:	f7ff fed6 	bl	8005f18 <__cvt>
 800616c:	9b06      	ldr	r3, [sp, #24]
 800616e:	9909      	ldr	r1, [sp, #36]	@ 0x24
 8006170:	2b47      	cmp	r3, #71	@ 0x47
 8006172:	4680      	mov	r8, r0
 8006174:	d129      	bne.n	80061ca <_printf_float+0x172>
 8006176:	1cc8      	adds	r0, r1, #3
 8006178:	db02      	blt.n	8006180 <_printf_float+0x128>
 800617a:	6863      	ldr	r3, [r4, #4]
 800617c:	4299      	cmp	r1, r3
 800617e:	dd41      	ble.n	8006204 <_printf_float+0x1ac>
 8006180:	f1aa 0a02 	sub.w	sl, sl, #2
 8006184:	fa5f fa8a 	uxtb.w	sl, sl
 8006188:	3901      	subs	r1, #1
 800618a:	4652      	mov	r2, sl
 800618c:	f104 0050 	add.w	r0, r4, #80	@ 0x50
 8006190:	9109      	str	r1, [sp, #36]	@ 0x24
 8006192:	f7ff ff26 	bl	8005fe2 <__exponent>
 8006196:	9a0a      	ldr	r2, [sp, #40]	@ 0x28
 8006198:	1813      	adds	r3, r2, r0
 800619a:	2a01      	cmp	r2, #1
 800619c:	4681      	mov	r9, r0
 800619e:	6123      	str	r3, [r4, #16]
 80061a0:	dc02      	bgt.n	80061a8 <_printf_float+0x150>
 80061a2:	6822      	ldr	r2, [r4, #0]
 80061a4:	07d2      	lsls	r2, r2, #31
 80061a6:	d501      	bpl.n	80061ac <_printf_float+0x154>
 80061a8:	3301      	adds	r3, #1
 80061aa:	6123      	str	r3, [r4, #16]
 80061ac:	f89d 3023 	ldrb.w	r3, [sp, #35]	@ 0x23
 80061b0:	2b00      	cmp	r3, #0
 80061b2:	d0a2      	beq.n	80060fa <_printf_float+0xa2>
 80061b4:	232d      	movs	r3, #45	@ 0x2d
 80061b6:	f884 3043 	strb.w	r3, [r4, #67]	@ 0x43
 80061ba:	e79e      	b.n	80060fa <_printf_float+0xa2>
 80061bc:	9a06      	ldr	r2, [sp, #24]
 80061be:	2a47      	cmp	r2, #71	@ 0x47
 80061c0:	d1c2      	bne.n	8006148 <_printf_float+0xf0>
 80061c2:	2b00      	cmp	r3, #0
 80061c4:	d1c0      	bne.n	8006148 <_printf_float+0xf0>
 80061c6:	2301      	movs	r3, #1
 80061c8:	e7bd      	b.n	8006146 <_printf_float+0xee>
 80061ca:	f1ba 0f65 	cmp.w	sl, #101	@ 0x65
 80061ce:	d9db      	bls.n	8006188 <_printf_float+0x130>
 80061d0:	f1ba 0f66 	cmp.w	sl, #102	@ 0x66
 80061d4:	d118      	bne.n	8006208 <_printf_float+0x1b0>
 80061d6:	2900      	cmp	r1, #0
 80061d8:	6863      	ldr	r3, [r4, #4]
 80061da:	dd0b      	ble.n	80061f4 <_printf_float+0x19c>
 80061dc:	6121      	str	r1, [r4, #16]
 80061de:	b913      	cbnz	r3, 80061e6 <_printf_float+0x18e>
 80061e0:	6822      	ldr	r2, [r4, #0]
 80061e2:	07d0      	lsls	r0, r2, #31
 80061e4:	d502      	bpl.n	80061ec <_printf_float+0x194>
 80061e6:	3301      	adds	r3, #1
 80061e8:	440b      	add	r3, r1
 80061ea:	6123      	str	r3, [r4, #16]
 80061ec:	65a1      	str	r1, [r4, #88]	@ 0x58
 80061ee:	f04f 0900 	mov.w	r9, #0
 80061f2:	e7db      	b.n	80061ac <_printf_float+0x154>
 80061f4:	b913      	cbnz	r3, 80061fc <_printf_float+0x1a4>
 80061f6:	6822      	ldr	r2, [r4, #0]
 80061f8:	07d2      	lsls	r2, r2, #31
 80061fa:	d501      	bpl.n	8006200 <_printf_float+0x1a8>
 80061fc:	3302      	adds	r3, #2
 80061fe:	e7f4      	b.n	80061ea <_printf_float+0x192>
 8006200:	2301      	movs	r3, #1
 8006202:	e7f2      	b.n	80061ea <_printf_float+0x192>
 8006204:	f04f 0a67 	mov.w	sl, #103	@ 0x67
 8006208:	9b0a      	ldr	r3, [sp, #40]	@ 0x28
 800620a:	4299      	cmp	r1, r3
 800620c:	db05      	blt.n	800621a <_printf_float+0x1c2>
 800620e:	6823      	ldr	r3, [r4, #0]
 8006210:	6121      	str	r1, [r4, #16]
 8006212:	07d8      	lsls	r0, r3, #31
 8006214:	d5ea      	bpl.n	80061ec <_printf_float+0x194>
 8006216:	1c4b      	adds	r3, r1, #1
 8006218:	e7e7      	b.n	80061ea <_printf_float+0x192>
 800621a:	2900      	cmp	r1, #0
 800621c:	bfd4      	ite	le
 800621e:	f1c1 0202 	rsble	r2, r1, #2
 8006222:	2201      	movgt	r2, #1
 8006224:	4413      	add	r3, r2
 8006226:	e7e0      	b.n	80061ea <_printf_float+0x192>
 8006228:	6823      	ldr	r3, [r4, #0]
 800622a:	055a      	lsls	r2, r3, #21
 800622c:	d407      	bmi.n	800623e <_printf_float+0x1e6>
 800622e:	6923      	ldr	r3, [r4, #16]
 8006230:	4642      	mov	r2, r8
 8006232:	4631      	mov	r1, r6
 8006234:	4628      	mov	r0, r5
 8006236:	47b8      	blx	r7
 8006238:	3001      	adds	r0, #1
 800623a:	d12b      	bne.n	8006294 <_printf_float+0x23c>
 800623c:	e767      	b.n	800610e <_printf_float+0xb6>
 800623e:	f1ba 0f65 	cmp.w	sl, #101	@ 0x65
 8006242:	f240 80dd 	bls.w	8006400 <_printf_float+0x3a8>
 8006246:	e9d4 0112 	ldrd	r0, r1, [r4, #72]	@ 0x48
 800624a:	2200      	movs	r2, #0
 800624c:	2300      	movs	r3, #0
 800624e:	f7fa fc43 	bl	8000ad8 <__aeabi_dcmpeq>
 8006252:	2800      	cmp	r0, #0
 8006254:	d033      	beq.n	80062be <_printf_float+0x266>
 8006256:	4a37      	ldr	r2, [pc, #220]	@ (8006334 <_printf_float+0x2dc>)
 8006258:	2301      	movs	r3, #1
 800625a:	4631      	mov	r1, r6
 800625c:	4628      	mov	r0, r5
 800625e:	47b8      	blx	r7
 8006260:	3001      	adds	r0, #1
 8006262:	f43f af54 	beq.w	800610e <_printf_float+0xb6>
 8006266:	e9dd 3809 	ldrd	r3, r8, [sp, #36]	@ 0x24
 800626a:	4543      	cmp	r3, r8
 800626c:	db02      	blt.n	8006274 <_printf_float+0x21c>
 800626e:	6823      	ldr	r3, [r4, #0]
 8006270:	07d8      	lsls	r0, r3, #31
 8006272:	d50f      	bpl.n	8006294 <_printf_float+0x23c>
 8006274:	e9dd 2304 	ldrd	r2, r3, [sp, #16]
 8006278:	4631      	mov	r1, r6
 800627a:	4628      	mov	r0, r5
 800627c:	47b8      	blx	r7
 800627e:	3001      	adds	r0, #1
 8006280:	f43f af45 	beq.w	800610e <_printf_float+0xb6>
 8006284:	f04f 0900 	mov.w	r9, #0
 8006288:	f108 38ff 	add.w	r8, r8, #4294967295
 800628c:	f104 0a1a 	add.w	sl, r4, #26
 8006290:	45c8      	cmp	r8, r9
 8006292:	dc09      	bgt.n	80062a8 <_printf_float+0x250>
 8006294:	6823      	ldr	r3, [r4, #0]
 8006296:	079b      	lsls	r3, r3, #30
 8006298:	f100 8103 	bmi.w	80064a2 <_printf_float+0x44a>
 800629c:	68e0      	ldr	r0, [r4, #12]
 800629e:	9b0b      	ldr	r3, [sp, #44]	@ 0x2c
 80062a0:	4298      	cmp	r0, r3
 80062a2:	bfb8      	it	lt
 80062a4:	4618      	movlt	r0, r3
 80062a6:	e734      	b.n	8006112 <_printf_float+0xba>
 80062a8:	2301      	movs	r3, #1
 80062aa:	4652      	mov	r2, sl
 80062ac:	4631      	mov	r1, r6
 80062ae:	4628      	mov	r0, r5
 80062b0:	47b8      	blx	r7
 80062b2:	3001      	adds	r0, #1
 80062b4:	f43f af2b 	beq.w	800610e <_printf_float+0xb6>
 80062b8:	f109 0901 	add.w	r9, r9, #1
 80062bc:	e7e8      	b.n	8006290 <_printf_float+0x238>
 80062be:	9b09      	ldr	r3, [sp, #36]	@ 0x24
 80062c0:	2b00      	cmp	r3, #0
 80062c2:	dc39      	bgt.n	8006338 <_printf_float+0x2e0>
 80062c4:	4a1b      	ldr	r2, [pc, #108]	@ (8006334 <_printf_float+0x2dc>)
 80062c6:	2301      	movs	r3, #1
 80062c8:	4631      	mov	r1, r6
 80062ca:	4628      	mov	r0, r5
 80062cc:	47b8      	blx	r7
 80062ce:	3001      	adds	r0, #1
 80062d0:	f43f af1d 	beq.w	800610e <_printf_float+0xb6>
 80062d4:	e9dd 3909 	ldrd	r3, r9, [sp, #36]	@ 0x24
 80062d8:	ea59 0303 	orrs.w	r3, r9, r3
 80062dc:	d102      	bne.n	80062e4 <_printf_float+0x28c>
 80062de:	6823      	ldr	r3, [r4, #0]
 80062e0:	07d9      	lsls	r1, r3, #31
 80062e2:	d5d7      	bpl.n	8006294 <_printf_float+0x23c>
 80062e4:	e9dd 2304 	ldrd	r2, r3, [sp, #16]
 80062e8:	4631      	mov	r1, r6
 80062ea:	4628      	mov	r0, r5
 80062ec:	47b8      	blx	r7
 80062ee:	3001      	adds	r0, #1
 80062f0:	f43f af0d 	beq.w	800610e <_printf_float+0xb6>
 80062f4:	f04f 0a00 	mov.w	sl, #0
 80062f8:	f104 0b1a 	add.w	fp, r4, #26
 80062fc:	9b09      	ldr	r3, [sp, #36]	@ 0x24
 80062fe:	425b      	negs	r3, r3
 8006300:	4553      	cmp	r3, sl
 8006302:	dc01      	bgt.n	8006308 <_printf_float+0x2b0>
 8006304:	464b      	mov	r3, r9
 8006306:	e793      	b.n	8006230 <_printf_float+0x1d8>
 8006308:	2301      	movs	r3, #1
 800630a:	465a      	mov	r2, fp
 800630c:	4631      	mov	r1, r6
 800630e:	4628      	mov	r0, r5
 8006310:	47b8      	blx	r7
 8006312:	3001      	adds	r0, #1
 8006314:	f43f aefb 	beq.w	800610e <_printf_float+0xb6>
 8006318:	f10a 0a01 	add.w	sl, sl, #1
 800631c:	e7ee      	b.n	80062fc <_printf_float+0x2a4>
 800631e:	bf00      	nop
 8006320:	7fefffff 	.word	0x7fefffff
 8006324:	08009366 	.word	0x08009366
 8006328:	08009362 	.word	0x08009362
 800632c:	0800936e 	.word	0x0800936e
 8006330:	0800936a 	.word	0x0800936a
 8006334:	08009372 	.word	0x08009372
 8006338:	6da3      	ldr	r3, [r4, #88]	@ 0x58
 800633a:	f8dd a028 	ldr.w	sl, [sp, #40]	@ 0x28
 800633e:	4553      	cmp	r3, sl
 8006340:	bfa8      	it	ge
 8006342:	4653      	movge	r3, sl
 8006344:	2b00      	cmp	r3, #0
 8006346:	4699      	mov	r9, r3
 8006348:	dc36      	bgt.n	80063b8 <_printf_float+0x360>
 800634a:	f04f 0b00 	mov.w	fp, #0
 800634e:	ea29 79e9 	bic.w	r9, r9, r9, asr #31
 8006352:	f104 021a 	add.w	r2, r4, #26
 8006356:	6da3      	ldr	r3, [r4, #88]	@ 0x58
 8006358:	9306      	str	r3, [sp, #24]
 800635a:	eba3 0309 	sub.w	r3, r3, r9
 800635e:	455b      	cmp	r3, fp
 8006360:	dc31      	bgt.n	80063c6 <_printf_float+0x36e>
 8006362:	9b09      	ldr	r3, [sp, #36]	@ 0x24
 8006364:	459a      	cmp	sl, r3
 8006366:	dc3a      	bgt.n	80063de <_printf_float+0x386>
 8006368:	6823      	ldr	r3, [r4, #0]
 800636a:	07da      	lsls	r2, r3, #31
 800636c:	d437      	bmi.n	80063de <_printf_float+0x386>
 800636e:	9b09      	ldr	r3, [sp, #36]	@ 0x24
 8006370:	ebaa 0903 	sub.w	r9, sl, r3
 8006374:	9b06      	ldr	r3, [sp, #24]
 8006376:	ebaa 0303 	sub.w	r3, sl, r3
 800637a:	4599      	cmp	r9, r3
 800637c:	bfa8      	it	ge
 800637e:	4699      	movge	r9, r3
 8006380:	f1b9 0f00 	cmp.w	r9, #0
 8006384:	dc33      	bgt.n	80063ee <_printf_float+0x396>
 8006386:	f04f 0800 	mov.w	r8, #0
 800638a:	ea29 79e9 	bic.w	r9, r9, r9, asr #31
 800638e:	f104 0b1a 	add.w	fp, r4, #26
 8006392:	9b09      	ldr	r3, [sp, #36]	@ 0x24
 8006394:	ebaa 0303 	sub.w	r3, sl, r3
 8006398:	eba3 0309 	sub.w	r3, r3, r9
 800639c:	4543      	cmp	r3, r8
 800639e:	f77f af79 	ble.w	8006294 <_printf_float+0x23c>
 80063a2:	2301      	movs	r3, #1
 80063a4:	465a      	mov	r2, fp
 80063a6:	4631      	mov	r1, r6
 80063a8:	4628      	mov	r0, r5
 80063aa:	47b8      	blx	r7
 80063ac:	3001      	adds	r0, #1
 80063ae:	f43f aeae 	beq.w	800610e <_printf_float+0xb6>
 80063b2:	f108 0801 	add.w	r8, r8, #1
 80063b6:	e7ec      	b.n	8006392 <_printf_float+0x33a>
 80063b8:	4642      	mov	r2, r8
 80063ba:	4631      	mov	r1, r6
 80063bc:	4628      	mov	r0, r5
 80063be:	47b8      	blx	r7
 80063c0:	3001      	adds	r0, #1
 80063c2:	d1c2      	bne.n	800634a <_printf_float+0x2f2>
 80063c4:	e6a3      	b.n	800610e <_printf_float+0xb6>
 80063c6:	2301      	movs	r3, #1
 80063c8:	4631      	mov	r1, r6
 80063ca:	4628      	mov	r0, r5
 80063cc:	9206      	str	r2, [sp, #24]
 80063ce:	47b8      	blx	r7
 80063d0:	3001      	adds	r0, #1
 80063d2:	f43f ae9c 	beq.w	800610e <_printf_float+0xb6>
 80063d6:	9a06      	ldr	r2, [sp, #24]
 80063d8:	f10b 0b01 	add.w	fp, fp, #1
 80063dc:	e7bb      	b.n	8006356 <_printf_float+0x2fe>
 80063de:	e9dd 2304 	ldrd	r2, r3, [sp, #16]
 80063e2:	4631      	mov	r1, r6
 80063e4:	4628      	mov	r0, r5
 80063e6:	47b8      	blx	r7
 80063e8:	3001      	adds	r0, #1
 80063ea:	d1c0      	bne.n	800636e <_printf_float+0x316>
 80063ec:	e68f      	b.n	800610e <_printf_float+0xb6>
 80063ee:	9a06      	ldr	r2, [sp, #24]
 80063f0:	464b      	mov	r3, r9
 80063f2:	4442      	add	r2, r8
 80063f4:	4631      	mov	r1, r6
 80063f6:	4628      	mov	r0, r5
 80063f8:	47b8      	blx	r7
 80063fa:	3001      	adds	r0, #1
 80063fc:	d1c3      	bne.n	8006386 <_printf_float+0x32e>
 80063fe:	e686      	b.n	800610e <_printf_float+0xb6>
 8006400:	f8dd a028 	ldr.w	sl, [sp, #40]	@ 0x28
 8006404:	f1ba 0f01 	cmp.w	sl, #1
 8006408:	dc01      	bgt.n	800640e <_printf_float+0x3b6>
 800640a:	07db      	lsls	r3, r3, #31
 800640c:	d536      	bpl.n	800647c <_printf_float+0x424>
 800640e:	2301      	movs	r3, #1
 8006410:	4642      	mov	r2, r8
 8006412:	4631      	mov	r1, r6
 8006414:	4628      	mov	r0, r5
 8006416:	47b8      	blx	r7
 8006418:	3001      	adds	r0, #1
 800641a:	f43f ae78 	beq.w	800610e <_printf_float+0xb6>
 800641e:	e9dd 2304 	ldrd	r2, r3, [sp, #16]
 8006422:	4631      	mov	r1, r6
 8006424:	4628      	mov	r0, r5
 8006426:	47b8      	blx	r7
 8006428:	3001      	adds	r0, #1
 800642a:	f43f ae70 	beq.w	800610e <_printf_float+0xb6>
 800642e:	e9d4 0112 	ldrd	r0, r1, [r4, #72]	@ 0x48
 8006432:	2200      	movs	r2, #0
 8006434:	2300      	movs	r3, #0
 8006436:	f10a 3aff 	add.w	sl, sl, #4294967295
 800643a:	f7fa fb4d 	bl	8000ad8 <__aeabi_dcmpeq>
 800643e:	b9c0      	cbnz	r0, 8006472 <_printf_float+0x41a>
 8006440:	4653      	mov	r3, sl
 8006442:	f108 0201 	add.w	r2, r8, #1
 8006446:	4631      	mov	r1, r6
 8006448:	4628      	mov	r0, r5
 800644a:	47b8      	blx	r7
 800644c:	3001      	adds	r0, #1
 800644e:	d10c      	bne.n	800646a <_printf_float+0x412>
 8006450:	e65d      	b.n	800610e <_printf_float+0xb6>
 8006452:	2301      	movs	r3, #1
 8006454:	465a      	mov	r2, fp
 8006456:	4631      	mov	r1, r6
 8006458:	4628      	mov	r0, r5
 800645a:	47b8      	blx	r7
 800645c:	3001      	adds	r0, #1
 800645e:	f43f ae56 	beq.w	800610e <_printf_float+0xb6>
 8006462:	f108 0801 	add.w	r8, r8, #1
 8006466:	45d0      	cmp	r8, sl
 8006468:	dbf3      	blt.n	8006452 <_printf_float+0x3fa>
 800646a:	464b      	mov	r3, r9
 800646c:	f104 0250 	add.w	r2, r4, #80	@ 0x50
 8006470:	e6df      	b.n	8006232 <_printf_float+0x1da>
 8006472:	f04f 0800 	mov.w	r8, #0
 8006476:	f104 0b1a 	add.w	fp, r4, #26
 800647a:	e7f4      	b.n	8006466 <_printf_float+0x40e>
 800647c:	2301      	movs	r3, #1
 800647e:	4642      	mov	r2, r8
 8006480:	e7e1      	b.n	8006446 <_printf_float+0x3ee>
 8006482:	2301      	movs	r3, #1
 8006484:	464a      	mov	r2, r9
 8006486:	4631      	mov	r1, r6
 8006488:	4628      	mov	r0, r5
 800648a:	47b8      	blx	r7
 800648c:	3001      	adds	r0, #1
 800648e:	f43f ae3e 	beq.w	800610e <_printf_float+0xb6>
 8006492:	f108 0801 	add.w	r8, r8, #1
 8006496:	68e3      	ldr	r3, [r4, #12]
 8006498:	990b      	ldr	r1, [sp, #44]	@ 0x2c
 800649a:	1a5b      	subs	r3, r3, r1
 800649c:	4543      	cmp	r3, r8
 800649e:	dcf0      	bgt.n	8006482 <_printf_float+0x42a>
 80064a0:	e6fc      	b.n	800629c <_printf_float+0x244>
 80064a2:	f04f 0800 	mov.w	r8, #0
 80064a6:	f104 0919 	add.w	r9, r4, #25
 80064aa:	e7f4      	b.n	8006496 <_printf_float+0x43e>

080064ac <_printf_common>:
 80064ac:	e92d 47f0 	stmdb	sp!, {r4, r5, r6, r7, r8, r9, sl, lr}
 80064b0:	4616      	mov	r6, r2
 80064b2:	4698      	mov	r8, r3
 80064b4:	688a      	ldr	r2, [r1, #8]
 80064b6:	690b      	ldr	r3, [r1, #16]
 80064b8:	f8dd 9020 	ldr.w	r9, [sp, #32]
 80064bc:	4293      	cmp	r3, r2
 80064be:	bfb8      	it	lt
 80064c0:	4613      	movlt	r3, r2
 80064c2:	6033      	str	r3, [r6, #0]
 80064c4:	f891 2043 	ldrb.w	r2, [r1, #67]	@ 0x43
 80064c8:	4607      	mov	r7, r0
 80064ca:	460c      	mov	r4, r1
 80064cc:	b10a      	cbz	r2, 80064d2 <_printf_common+0x26>
 80064ce:	3301      	adds	r3, #1
 80064d0:	6033      	str	r3, [r6, #0]
 80064d2:	6823      	ldr	r3, [r4, #0]
 80064d4:	0699      	lsls	r1, r3, #26
 80064d6:	bf42      	ittt	mi
 80064d8:	6833      	ldrmi	r3, [r6, #0]
 80064da:	3302      	addmi	r3, #2
 80064dc:	6033      	strmi	r3, [r6, #0]
 80064de:	6825      	ldr	r5, [r4, #0]
 80064e0:	f015 0506 	ands.w	r5, r5, #6
 80064e4:	d106      	bne.n	80064f4 <_printf_common+0x48>
 80064e6:	f104 0a19 	add.w	sl, r4, #25
 80064ea:	68e3      	ldr	r3, [r4, #12]
 80064ec:	6832      	ldr	r2, [r6, #0]
 80064ee:	1a9b      	subs	r3, r3, r2
 80064f0:	42ab      	cmp	r3, r5
 80064f2:	dc26      	bgt.n	8006542 <_printf_common+0x96>
 80064f4:	f894 3043 	ldrb.w	r3, [r4, #67]	@ 0x43
 80064f8:	6822      	ldr	r2, [r4, #0]
 80064fa:	3b00      	subs	r3, #0
 80064fc:	bf18      	it	ne
 80064fe:	2301      	movne	r3, #1
 8006500:	0692      	lsls	r2, r2, #26
 8006502:	d42b      	bmi.n	800655c <_printf_common+0xb0>
 8006504:	f104 0243 	add.w	r2, r4, #67	@ 0x43
 8006508:	4641      	mov	r1, r8
 800650a:	4638      	mov	r0, r7
 800650c:	47c8      	blx	r9
 800650e:	3001      	adds	r0, #1
 8006510:	d01e      	beq.n	8006550 <_printf_common+0xa4>
 8006512:	6823      	ldr	r3, [r4, #0]
 8006514:	6922      	ldr	r2, [r4, #16]
 8006516:	f003 0306 	and.w	r3, r3, #6
 800651a:	2b04      	cmp	r3, #4
 800651c:	bf02      	ittt	eq
 800651e:	68e5      	ldreq	r5, [r4, #12]
 8006520:	6833      	ldreq	r3, [r6, #0]
 8006522:	1aed      	subeq	r5, r5, r3
 8006524:	68a3      	ldr	r3, [r4, #8]
 8006526:	bf0c      	ite	eq
 8006528:	ea25 75e5 	biceq.w	r5, r5, r5, asr #31
 800652c:	2500      	movne	r5, #0
 800652e:	4293      	cmp	r3, r2
 8006530:	bfc4      	itt	gt
 8006532:	1a9b      	subgt	r3, r3, r2
 8006534:	18ed      	addgt	r5, r5, r3
 8006536:	2600      	movs	r6, #0
 8006538:	341a      	adds	r4, #26
 800653a:	42b5      	cmp	r5, r6
 800653c:	d11a      	bne.n	8006574 <_printf_common+0xc8>
 800653e:	2000      	movs	r0, #0
 8006540:	e008      	b.n	8006554 <_printf_common+0xa8>
 8006542:	2301      	movs	r3, #1
 8006544:	4652      	mov	r2, sl
 8006546:	4641      	mov	r1, r8
 8006548:	4638      	mov	r0, r7
 800654a:	47c8      	blx	r9
 800654c:	3001      	adds	r0, #1
 800654e:	d103      	bne.n	8006558 <_printf_common+0xac>
 8006550:	f04f 30ff 	mov.w	r0, #4294967295
 8006554:	e8bd 87f0 	ldmia.w	sp!, {r4, r5, r6, r7, r8, r9, sl, pc}
 8006558:	3501      	adds	r5, #1
 800655a:	e7c6      	b.n	80064ea <_printf_common+0x3e>
 800655c:	18e1      	adds	r1, r4, r3
 800655e:	1c5a      	adds	r2, r3, #1
 8006560:	2030      	movs	r0, #48	@ 0x30
 8006562:	f881 0043 	strb.w	r0, [r1, #67]	@ 0x43
 8006566:	4422      	add	r2, r4
 8006568:	f894 1045 	ldrb.w	r1, [r4, #69]	@ 0x45
 800656c:	f882 1043 	strb.w	r1, [r2, #67]	@ 0x43
 8006570:	3302      	adds	r3, #2
 8006572:	e7c7      	b.n	8006504 <_printf_common+0x58>
 8006574:	2301      	movs	r3, #1
 8006576:	4622      	mov	r2, r4
 8006578:	4641      	mov	r1, r8
 800657a:	4638      	mov	r0, r7
 800657c:	47c8      	blx	r9
 800657e:	3001      	adds	r0, #1
 8006580:	d0e6      	beq.n	8006550 <_printf_common+0xa4>
 8006582:	3601      	adds	r6, #1
 8006584:	e7d9      	b.n	800653a <_printf_common+0x8e>
	...

08006588 <_printf_i>:
 8006588:	e92d 47ff 	stmdb	sp!, {r0, r1, r2, r3, r4, r5, r6, r7, r8, r9, sl, lr}
 800658c:	7e0f      	ldrb	r7, [r1, #24]
 800658e:	9e0c      	ldr	r6, [sp, #48]	@ 0x30
 8006590:	2f78      	cmp	r7, #120	@ 0x78
 8006592:	4691      	mov	r9, r2
 8006594:	4680      	mov	r8, r0
 8006596:	460c      	mov	r4, r1
 8006598:	469a      	mov	sl, r3
 800659a:	f101 0243 	add.w	r2, r1, #67	@ 0x43
 800659e:	d807      	bhi.n	80065b0 <_printf_i+0x28>
 80065a0:	2f62      	cmp	r7, #98	@ 0x62
 80065a2:	d80a      	bhi.n	80065ba <_printf_i+0x32>
 80065a4:	2f00      	cmp	r7, #0
 80065a6:	f000 80d1 	beq.w	800674c <_printf_i+0x1c4>
 80065aa:	2f58      	cmp	r7, #88	@ 0x58
 80065ac:	f000 80b8 	beq.w	8006720 <_printf_i+0x198>
 80065b0:	f104 0642 	add.w	r6, r4, #66	@ 0x42
 80065b4:	f884 7042 	strb.w	r7, [r4, #66]	@ 0x42
 80065b8:	e03a      	b.n	8006630 <_printf_i+0xa8>
 80065ba:	f1a7 0363 	sub.w	r3, r7, #99	@ 0x63
 80065be:	2b15      	cmp	r3, #21
 80065c0:	d8f6      	bhi.n	80065b0 <_printf_i+0x28>
 80065c2:	a101      	add	r1, pc, #4	@ (adr r1, 80065c8 <_printf_i+0x40>)
 80065c4:	f851 f023 	ldr.w	pc, [r1, r3, lsl #2]
 80065c8:	08006621 	.word	0x08006621
 80065cc:	08006635 	.word	0x08006635
 80065d0:	080065b1 	.word	0x080065b1
 80065d4:	080065b1 	.word	0x080065b1
 80065d8:	080065b1 	.word	0x080065b1
 80065dc:	080065b1 	.word	0x080065b1
 80065e0:	08006635 	.word	0x08006635
 80065e4:	080065b1 	.word	0x080065b1
 80065e8:	080065b1 	.word	0x080065b1
 80065ec:	080065b1 	.word	0x080065b1
 80065f0:	080065b1 	.word	0x080065b1
 80065f4:	08006733 	.word	0x08006733
 80065f8:	0800665f 	.word	0x0800665f
 80065fc:	080066ed 	.word	0x080066ed
 8006600:	080065b1 	.word	0x080065b1
 8006604:	080065b1 	.word	0x080065b1
 8006608:	08006755 	.word	0x08006755
 800660c:	080065b1 	.word	0x080065b1
 8006610:	0800665f 	.word	0x0800665f
 8006614:	080065b1 	.word	0x080065b1
 8006618:	080065b1 	.word	0x080065b1
 800661c:	080066f5 	.word	0x080066f5
 8006620:	6833      	ldr	r3, [r6, #0]
 8006622:	1d1a      	adds	r2, r3, #4
 8006624:	681b      	ldr	r3, [r3, #0]
 8006626:	6032      	str	r2, [r6, #0]
 8006628:	f104 0642 	add.w	r6, r4, #66	@ 0x42
 800662c:	f884 3042 	strb.w	r3, [r4, #66]	@ 0x42
 8006630:	2301      	movs	r3, #1
 8006632:	e09c      	b.n	800676e <_printf_i+0x1e6>
 8006634:	6833      	ldr	r3, [r6, #0]
 8006636:	6820      	ldr	r0, [r4, #0]
 8006638:	1d19      	adds	r1, r3, #4
 800663a:	6031      	str	r1, [r6, #0]
 800663c:	0606      	lsls	r6, r0, #24
 800663e:	d501      	bpl.n	8006644 <_printf_i+0xbc>
 8006640:	681d      	ldr	r5, [r3, #0]
 8006642:	e003      	b.n	800664c <_printf_i+0xc4>
 8006644:	0645      	lsls	r5, r0, #25
 8006646:	d5fb      	bpl.n	8006640 <_printf_i+0xb8>
 8006648:	f9b3 5000 	ldrsh.w	r5, [r3]
 800664c:	2d00      	cmp	r5, #0
 800664e:	da03      	bge.n	8006658 <_printf_i+0xd0>
 8006650:	232d      	movs	r3, #45	@ 0x2d
 8006652:	426d      	negs	r5, r5
 8006654:	f884 3043 	strb.w	r3, [r4, #67]	@ 0x43
 8006658:	4858      	ldr	r0, [pc, #352]	@ (80067bc <_printf_i+0x234>)
 800665a:	230a      	movs	r3, #10
 800665c:	e011      	b.n	8006682 <_printf_i+0xfa>
 800665e:	6821      	ldr	r1, [r4, #0]
 8006660:	6833      	ldr	r3, [r6, #0]
 8006662:	0608      	lsls	r0, r1, #24
 8006664:	f853 5b04 	ldr.w	r5, [r3], #4
 8006668:	d402      	bmi.n	8006670 <_printf_i+0xe8>
 800666a:	0649      	lsls	r1, r1, #25
 800666c:	bf48      	it	mi
 800666e:	b2ad      	uxthmi	r5, r5
 8006670:	2f6f      	cmp	r7, #111	@ 0x6f
 8006672:	4852      	ldr	r0, [pc, #328]	@ (80067bc <_printf_i+0x234>)
 8006674:	6033      	str	r3, [r6, #0]
 8006676:	bf14      	ite	ne
 8006678:	230a      	movne	r3, #10
 800667a:	2308      	moveq	r3, #8
 800667c:	2100      	movs	r1, #0
 800667e:	f884 1043 	strb.w	r1, [r4, #67]	@ 0x43
 8006682:	6866      	ldr	r6, [r4, #4]
 8006684:	60a6      	str	r6, [r4, #8]
 8006686:	2e00      	cmp	r6, #0
 8006688:	db05      	blt.n	8006696 <_printf_i+0x10e>
 800668a:	6821      	ldr	r1, [r4, #0]
 800668c:	432e      	orrs	r6, r5
 800668e:	f021 0104 	bic.w	r1, r1, #4
 8006692:	6021      	str	r1, [r4, #0]
 8006694:	d04b      	beq.n	800672e <_printf_i+0x1a6>
 8006696:	4616      	mov	r6, r2
 8006698:	fbb5 f1f3 	udiv	r1, r5, r3
 800669c:	fb03 5711 	mls	r7, r3, r1, r5
 80066a0:	5dc7      	ldrb	r7, [r0, r7]
 80066a2:	f806 7d01 	strb.w	r7, [r6, #-1]!
 80066a6:	462f      	mov	r7, r5
 80066a8:	42bb      	cmp	r3, r7
 80066aa:	460d      	mov	r5, r1
 80066ac:	d9f4      	bls.n	8006698 <_printf_i+0x110>
 80066ae:	2b08      	cmp	r3, #8
 80066b0:	d10b      	bne.n	80066ca <_printf_i+0x142>
 80066b2:	6823      	ldr	r3, [r4, #0]
 80066b4:	07df      	lsls	r7, r3, #31
 80066b6:	d508      	bpl.n	80066ca <_printf_i+0x142>
 80066b8:	6923      	ldr	r3, [r4, #16]
 80066ba:	6861      	ldr	r1, [r4, #4]
 80066bc:	4299      	cmp	r1, r3
 80066be:	bfde      	ittt	le
 80066c0:	2330      	movle	r3, #48	@ 0x30
 80066c2:	f806 3c01 	strble.w	r3, [r6, #-1]
 80066c6:	f106 36ff 	addle.w	r6, r6, #4294967295
 80066ca:	1b92      	subs	r2, r2, r6
 80066cc:	6122      	str	r2, [r4, #16]
 80066ce:	f8cd a000 	str.w	sl, [sp]
 80066d2:	464b      	mov	r3, r9
 80066d4:	aa03      	add	r2, sp, #12
 80066d6:	4621      	mov	r1, r4
 80066d8:	4640      	mov	r0, r8
 80066da:	f7ff fee7 	bl	80064ac <_printf_common>
 80066de:	3001      	adds	r0, #1
 80066e0:	d14a      	bne.n	8006778 <_printf_i+0x1f0>
 80066e2:	f04f 30ff 	mov.w	r0, #4294967295
 80066e6:	b004      	add	sp, #16
 80066e8:	e8bd 87f0 	ldmia.w	sp!, {r4, r5, r6, r7, r8, r9, sl, pc}
 80066ec:	6823      	ldr	r3, [r4, #0]
 80066ee:	f043 0320 	orr.w	r3, r3, #32
 80066f2:	6023      	str	r3, [r4, #0]
 80066f4:	4832      	ldr	r0, [pc, #200]	@ (80067c0 <_printf_i+0x238>)
 80066f6:	2778      	movs	r7, #120	@ 0x78
 80066f8:	f884 7045 	strb.w	r7, [r4, #69]	@ 0x45
 80066fc:	6823      	ldr	r3, [r4, #0]
 80066fe:	6831      	ldr	r1, [r6, #0]
 8006700:	061f      	lsls	r7, r3, #24
 8006702:	f851 5b04 	ldr.w	r5, [r1], #4
 8006706:	d402      	bmi.n	800670e <_printf_i+0x186>
 8006708:	065f      	lsls	r7, r3, #25
 800670a:	bf48      	it	mi
 800670c:	b2ad      	uxthmi	r5, r5
 800670e:	6031      	str	r1, [r6, #0]
 8006710:	07d9      	lsls	r1, r3, #31
 8006712:	bf44      	itt	mi
 8006714:	f043 0320 	orrmi.w	r3, r3, #32
 8006718:	6023      	strmi	r3, [r4, #0]
 800671a:	b11d      	cbz	r5, 8006724 <_printf_i+0x19c>
 800671c:	2310      	movs	r3, #16
 800671e:	e7ad      	b.n	800667c <_printf_i+0xf4>
 8006720:	4826      	ldr	r0, [pc, #152]	@ (80067bc <_printf_i+0x234>)
 8006722:	e7e9      	b.n	80066f8 <_printf_i+0x170>
 8006724:	6823      	ldr	r3, [r4, #0]
 8006726:	f023 0320 	bic.w	r3, r3, #32
 800672a:	6023      	str	r3, [r4, #0]
 800672c:	e7f6      	b.n	800671c <_printf_i+0x194>
 800672e:	4616      	mov	r6, r2
 8006730:	e7bd      	b.n	80066ae <_printf_i+0x126>
 8006732:	6833      	ldr	r3, [r6, #0]
 8006734:	6825      	ldr	r5, [r4, #0]
 8006736:	6961      	ldr	r1, [r4, #20]
 8006738:	1d18      	adds	r0, r3, #4
 800673a:	6030      	str	r0, [r6, #0]
 800673c:	062e      	lsls	r6, r5, #24
 800673e:	681b      	ldr	r3, [r3, #0]
 8006740:	d501      	bpl.n	8006746 <_printf_i+0x1be>
 8006742:	6019      	str	r1, [r3, #0]
 8006744:	e002      	b.n	800674c <_printf_i+0x1c4>
 8006746:	0668      	lsls	r0, r5, #25
 8006748:	d5fb      	bpl.n	8006742 <_printf_i+0x1ba>
 800674a:	8019      	strh	r1, [r3, #0]
 800674c:	2300      	movs	r3, #0
 800674e:	6123      	str	r3, [r4, #16]
 8006750:	4616      	mov	r6, r2
 8006752:	e7bc      	b.n	80066ce <_printf_i+0x146>
 8006754:	6833      	ldr	r3, [r6, #0]
 8006756:	1d1a      	adds	r2, r3, #4
 8006758:	6032      	str	r2, [r6, #0]
 800675a:	681e      	ldr	r6, [r3, #0]
 800675c:	6862      	ldr	r2, [r4, #4]
 800675e:	2100      	movs	r1, #0
 8006760:	4630      	mov	r0, r6
 8006762:	f7f9 fd3d 	bl	80001e0 <memchr>
 8006766:	b108      	cbz	r0, 800676c <_printf_i+0x1e4>
 8006768:	1b80      	subs	r0, r0, r6
 800676a:	6060      	str	r0, [r4, #4]
 800676c:	6863      	ldr	r3, [r4, #4]
 800676e:	6123      	str	r3, [r4, #16]
 8006770:	2300      	movs	r3, #0
 8006772:	f884 3043 	strb.w	r3, [r4, #67]	@ 0x43
 8006776:	e7aa      	b.n	80066ce <_printf_i+0x146>
 8006778:	6923      	ldr	r3, [r4, #16]
 800677a:	4632      	mov	r2, r6
 800677c:	4649      	mov	r1, r9
 800677e:	4640      	mov	r0, r8
 8006780:	47d0      	blx	sl
 8006782:	3001      	adds	r0, #1
 8006784:	d0ad      	beq.n	80066e2 <_printf_i+0x15a>
 8006786:	6823      	ldr	r3, [r4, #0]
 8006788:	079b      	lsls	r3, r3, #30
 800678a:	d413      	bmi.n	80067b4 <_printf_i+0x22c>
 800678c:	68e0      	ldr	r0, [r4, #12]
 800678e:	9b03      	ldr	r3, [sp, #12]
 8006790:	4298      	cmp	r0, r3
 8006792:	bfb8      	it	lt
 8006794:	4618      	movlt	r0, r3
 8006796:	e7a6      	b.n	80066e6 <_printf_i+0x15e>
 8006798:	2301      	movs	r3, #1
 800679a:	4632      	mov	r2, r6
 800679c:	4649      	mov	r1, r9
 800679e:	4640      	mov	r0, r8
 80067a0:	47d0      	blx	sl
 80067a2:	3001      	adds	r0, #1
 80067a4:	d09d      	beq.n	80066e2 <_printf_i+0x15a>
 80067a6:	3501      	adds	r5, #1
 80067a8:	68e3      	ldr	r3, [r4, #12]
 80067aa:	9903      	ldr	r1, [sp, #12]
 80067ac:	1a5b      	subs	r3, r3, r1
 80067ae:	42ab      	cmp	r3, r5
 80067b0:	dcf2      	bgt.n	8006798 <_printf_i+0x210>
 80067b2:	e7eb      	b.n	800678c <_printf_i+0x204>
 80067b4:	2500      	movs	r5, #0
 80067b6:	f104 0619 	add.w	r6, r4, #25
 80067ba:	e7f5      	b.n	80067a8 <_printf_i+0x220>
 80067bc:	08009374 	.word	0x08009374
 80067c0:	08009385 	.word	0x08009385

080067c4 <std>:
 80067c4:	2300      	movs	r3, #0
 80067c6:	b510      	push	{r4, lr}
 80067c8:	4604      	mov	r4, r0
 80067ca:	e9c0 3300 	strd	r3, r3, [r0]
 80067ce:	e9c0 3304 	strd	r3, r3, [r0, #16]
 80067d2:	6083      	str	r3, [r0, #8]
 80067d4:	8181      	strh	r1, [r0, #12]
 80067d6:	6643      	str	r3, [r0, #100]	@ 0x64
 80067d8:	81c2      	strh	r2, [r0, #14]
 80067da:	6183      	str	r3, [r0, #24]
 80067dc:	4619      	mov	r1, r3
 80067de:	2208      	movs	r2, #8
 80067e0:	305c      	adds	r0, #92	@ 0x5c
 80067e2:	f000 f9f9 	bl	8006bd8 <memset>
 80067e6:	4b0d      	ldr	r3, [pc, #52]	@ (800681c <std+0x58>)
 80067e8:	6263      	str	r3, [r4, #36]	@ 0x24
 80067ea:	4b0d      	ldr	r3, [pc, #52]	@ (8006820 <std+0x5c>)
 80067ec:	62a3      	str	r3, [r4, #40]	@ 0x28
 80067ee:	4b0d      	ldr	r3, [pc, #52]	@ (8006824 <std+0x60>)
 80067f0:	62e3      	str	r3, [r4, #44]	@ 0x2c
 80067f2:	4b0d      	ldr	r3, [pc, #52]	@ (8006828 <std+0x64>)
 80067f4:	6323      	str	r3, [r4, #48]	@ 0x30
 80067f6:	4b0d      	ldr	r3, [pc, #52]	@ (800682c <std+0x68>)
 80067f8:	6224      	str	r4, [r4, #32]
 80067fa:	429c      	cmp	r4, r3
 80067fc:	d006      	beq.n	800680c <std+0x48>
 80067fe:	f103 0268 	add.w	r2, r3, #104	@ 0x68
 8006802:	4294      	cmp	r4, r2
 8006804:	d002      	beq.n	800680c <std+0x48>
 8006806:	33d0      	adds	r3, #208	@ 0xd0
 8006808:	429c      	cmp	r4, r3
 800680a:	d105      	bne.n	8006818 <std+0x54>
 800680c:	f104 0058 	add.w	r0, r4, #88	@ 0x58
 8006810:	e8bd 4010 	ldmia.w	sp!, {r4, lr}
 8006814:	f000 ba92 	b.w	8006d3c <__retarget_lock_init_recursive>
 8006818:	bd10      	pop	{r4, pc}
 800681a:	bf00      	nop
 800681c:	08006a29 	.word	0x08006a29
 8006820:	08006a4b 	.word	0x08006a4b
 8006824:	08006a83 	.word	0x08006a83
 8006828:	08006aa7 	.word	0x08006aa7
 800682c:	2000039c 	.word	0x2000039c

08006830 <stdio_exit_handler>:
 8006830:	4a02      	ldr	r2, [pc, #8]	@ (800683c <stdio_exit_handler+0xc>)
 8006832:	4903      	ldr	r1, [pc, #12]	@ (8006840 <stdio_exit_handler+0x10>)
 8006834:	4803      	ldr	r0, [pc, #12]	@ (8006844 <stdio_exit_handler+0x14>)
 8006836:	f000 b869 	b.w	800690c <_fwalk_sglue>
 800683a:	bf00      	nop
 800683c:	20000010 	.word	0x20000010
 8006840:	08008fb1 	.word	0x08008fb1
 8006844:	2000018c 	.word	0x2000018c

08006848 <cleanup_stdio>:
 8006848:	6841      	ldr	r1, [r0, #4]
 800684a:	4b0c      	ldr	r3, [pc, #48]	@ (800687c <cleanup_stdio+0x34>)
 800684c:	4299      	cmp	r1, r3
 800684e:	b510      	push	{r4, lr}
 8006850:	4604      	mov	r4, r0
 8006852:	d001      	beq.n	8006858 <cleanup_stdio+0x10>
 8006854:	f002 fbac 	bl	8008fb0 <_fflush_r>
 8006858:	68a1      	ldr	r1, [r4, #8]
 800685a:	4b09      	ldr	r3, [pc, #36]	@ (8006880 <cleanup_stdio+0x38>)
 800685c:	4299      	cmp	r1, r3
 800685e:	d002      	beq.n	8006866 <cleanup_stdio+0x1e>
 8006860:	4620      	mov	r0, r4
 8006862:	f002 fba5 	bl	8008fb0 <_fflush_r>
 8006866:	68e1      	ldr	r1, [r4, #12]
 8006868:	4b06      	ldr	r3, [pc, #24]	@ (8006884 <cleanup_stdio+0x3c>)
 800686a:	4299      	cmp	r1, r3
 800686c:	d004      	beq.n	8006878 <cleanup_stdio+0x30>
 800686e:	4620      	mov	r0, r4
 8006870:	e8bd 4010 	ldmia.w	sp!, {r4, lr}
 8006874:	f002 bb9c 	b.w	8008fb0 <_fflush_r>
 8006878:	bd10      	pop	{r4, pc}
 800687a:	bf00      	nop
 800687c:	2000039c 	.word	0x2000039c
 8006880:	20000404 	.word	0x20000404
 8006884:	2000046c 	.word	0x2000046c

08006888 <global_stdio_init.part.0>:
 8006888:	b510      	push	{r4, lr}
 800688a:	4b0b      	ldr	r3, [pc, #44]	@ (80068b8 <global_stdio_init.part.0+0x30>)
 800688c:	4c0b      	ldr	r4, [pc, #44]	@ (80068bc <global_stdio_init.part.0+0x34>)
 800688e:	4a0c      	ldr	r2, [pc, #48]	@ (80068c0 <global_stdio_init.part.0+0x38>)
 8006890:	601a      	str	r2, [r3, #0]
 8006892:	4620      	mov	r0, r4
 8006894:	2200      	movs	r2, #0
 8006896:	2104      	movs	r1, #4
 8006898:	f7ff ff94 	bl	80067c4 <std>
 800689c:	f104 0068 	add.w	r0, r4, #104	@ 0x68
 80068a0:	2201      	movs	r2, #1
 80068a2:	2109      	movs	r1, #9
 80068a4:	f7ff ff8e 	bl	80067c4 <std>
 80068a8:	f104 00d0 	add.w	r0, r4, #208	@ 0xd0
 80068ac:	2202      	movs	r2, #2
 80068ae:	e8bd 4010 	ldmia.w	sp!, {r4, lr}
 80068b2:	2112      	movs	r1, #18
 80068b4:	f7ff bf86 	b.w	80067c4 <std>
 80068b8:	200004d4 	.word	0x200004d4
 80068bc:	2000039c 	.word	0x2000039c
 80068c0:	08006831 	.word	0x08006831

080068c4 <__sfp_lock_acquire>:
 80068c4:	4801      	ldr	r0, [pc, #4]	@ (80068cc <__sfp_lock_acquire+0x8>)
 80068c6:	f000 ba3a 	b.w	8006d3e <__retarget_lock_acquire_recursive>
 80068ca:	bf00      	nop
 80068cc:	200004dd 	.word	0x200004dd

080068d0 <__sfp_lock_release>:
 80068d0:	4801      	ldr	r0, [pc, #4]	@ (80068d8 <__sfp_lock_release+0x8>)
 80068d2:	f000 ba35 	b.w	8006d40 <__retarget_lock_release_recursive>
 80068d6:	bf00      	nop
 80068d8:	200004dd 	.word	0x200004dd

080068dc <__sinit>:
 80068dc:	b510      	push	{r4, lr}
 80068de:	4604      	mov	r4, r0
 80068e0:	f7ff fff0 	bl	80068c4 <__sfp_lock_acquire>
 80068e4:	6a23      	ldr	r3, [r4, #32]
 80068e6:	b11b      	cbz	r3, 80068f0 <__sinit+0x14>
 80068e8:	e8bd 4010 	ldmia.w	sp!, {r4, lr}
 80068ec:	f7ff bff0 	b.w	80068d0 <__sfp_lock_release>
 80068f0:	4b04      	ldr	r3, [pc, #16]	@ (8006904 <__sinit+0x28>)
 80068f2:	6223      	str	r3, [r4, #32]
 80068f4:	4b04      	ldr	r3, [pc, #16]	@ (8006908 <__sinit+0x2c>)
 80068f6:	681b      	ldr	r3, [r3, #0]
 80068f8:	2b00      	cmp	r3, #0
 80068fa:	d1f5      	bne.n	80068e8 <__sinit+0xc>
 80068fc:	f7ff ffc4 	bl	8006888 <global_stdio_init.part.0>
 8006900:	e7f2      	b.n	80068e8 <__sinit+0xc>
 8006902:	bf00      	nop
 8006904:	08006849 	.word	0x08006849
 8006908:	200004d4 	.word	0x200004d4

0800690c <_fwalk_sglue>:
 800690c:	e92d 43f8 	stmdb	sp!, {r3, r4, r5, r6, r7, r8, r9, lr}
 8006910:	4607      	mov	r7, r0
 8006912:	4688      	mov	r8, r1
 8006914:	4614      	mov	r4, r2
 8006916:	2600      	movs	r6, #0
 8006918:	e9d4 9501 	ldrd	r9, r5, [r4, #4]
 800691c:	f1b9 0901 	subs.w	r9, r9, #1
 8006920:	d505      	bpl.n	800692e <_fwalk_sglue+0x22>
 8006922:	6824      	ldr	r4, [r4, #0]
 8006924:	2c00      	cmp	r4, #0
 8006926:	d1f7      	bne.n	8006918 <_fwalk_sglue+0xc>
 8006928:	4630      	mov	r0, r6
 800692a:	e8bd 83f8 	ldmia.w	sp!, {r3, r4, r5, r6, r7, r8, r9, pc}
 800692e:	89ab      	ldrh	r3, [r5, #12]
 8006930:	2b01      	cmp	r3, #1
 8006932:	d907      	bls.n	8006944 <_fwalk_sglue+0x38>
 8006934:	f9b5 300e 	ldrsh.w	r3, [r5, #14]
 8006938:	3301      	adds	r3, #1
 800693a:	d003      	beq.n	8006944 <_fwalk_sglue+0x38>
 800693c:	4629      	mov	r1, r5
 800693e:	4638      	mov	r0, r7
 8006940:	47c0      	blx	r8
 8006942:	4306      	orrs	r6, r0
 8006944:	3568      	adds	r5, #104	@ 0x68
 8006946:	e7e9      	b.n	800691c <_fwalk_sglue+0x10>

08006948 <iprintf>:
 8006948:	b40f      	push	{r0, r1, r2, r3}
 800694a:	b507      	push	{r0, r1, r2, lr}
 800694c:	4906      	ldr	r1, [pc, #24]	@ (8006968 <iprintf+0x20>)
 800694e:	ab04      	add	r3, sp, #16
 8006950:	6808      	ldr	r0, [r1, #0]
 8006952:	f853 2b04 	ldr.w	r2, [r3], #4
 8006956:	6881      	ldr	r1, [r0, #8]
 8006958:	9301      	str	r3, [sp, #4]
 800695a:	f002 f98d 	bl	8008c78 <_vfiprintf_r>
 800695e:	b003      	add	sp, #12
 8006960:	f85d eb04 	ldr.w	lr, [sp], #4
 8006964:	b004      	add	sp, #16
 8006966:	4770      	bx	lr
 8006968:	20000188 	.word	0x20000188

0800696c <_puts_r>:
 800696c:	6a03      	ldr	r3, [r0, #32]
 800696e:	b570      	push	{r4, r5, r6, lr}
 8006970:	6884      	ldr	r4, [r0, #8]
 8006972:	4605      	mov	r5, r0
 8006974:	460e      	mov	r6, r1
 8006976:	b90b      	cbnz	r3, 800697c <_puts_r+0x10>
 8006978:	f7ff ffb0 	bl	80068dc <__sinit>
 800697c:	6e63      	ldr	r3, [r4, #100]	@ 0x64
 800697e:	07db      	lsls	r3, r3, #31
 8006980:	d405      	bmi.n	800698e <_puts_r+0x22>
 8006982:	89a3      	ldrh	r3, [r4, #12]
 8006984:	0598      	lsls	r0, r3, #22
 8006986:	d402      	bmi.n	800698e <_puts_r+0x22>
 8006988:	6da0      	ldr	r0, [r4, #88]	@ 0x58
 800698a:	f000 f9d8 	bl	8006d3e <__retarget_lock_acquire_recursive>
 800698e:	89a3      	ldrh	r3, [r4, #12]
 8006990:	0719      	lsls	r1, r3, #28
 8006992:	d502      	bpl.n	800699a <_puts_r+0x2e>
 8006994:	6923      	ldr	r3, [r4, #16]
 8006996:	2b00      	cmp	r3, #0
 8006998:	d135      	bne.n	8006a06 <_puts_r+0x9a>
 800699a:	4621      	mov	r1, r4
 800699c:	4628      	mov	r0, r5
 800699e:	f000 f8c5 	bl	8006b2c <__swsetup_r>
 80069a2:	b380      	cbz	r0, 8006a06 <_puts_r+0x9a>
 80069a4:	f04f 35ff 	mov.w	r5, #4294967295
 80069a8:	6e63      	ldr	r3, [r4, #100]	@ 0x64
 80069aa:	07da      	lsls	r2, r3, #31
 80069ac:	d405      	bmi.n	80069ba <_puts_r+0x4e>
 80069ae:	89a3      	ldrh	r3, [r4, #12]
 80069b0:	059b      	lsls	r3, r3, #22
 80069b2:	d402      	bmi.n	80069ba <_puts_r+0x4e>
 80069b4:	6da0      	ldr	r0, [r4, #88]	@ 0x58
 80069b6:	f000 f9c3 	bl	8006d40 <__retarget_lock_release_recursive>
 80069ba:	4628      	mov	r0, r5
 80069bc:	bd70      	pop	{r4, r5, r6, pc}
 80069be:	2b00      	cmp	r3, #0
 80069c0:	da04      	bge.n	80069cc <_puts_r+0x60>
 80069c2:	69a2      	ldr	r2, [r4, #24]
 80069c4:	429a      	cmp	r2, r3
 80069c6:	dc17      	bgt.n	80069f8 <_puts_r+0x8c>
 80069c8:	290a      	cmp	r1, #10
 80069ca:	d015      	beq.n	80069f8 <_puts_r+0x8c>
 80069cc:	6823      	ldr	r3, [r4, #0]
 80069ce:	1c5a      	adds	r2, r3, #1
 80069d0:	6022      	str	r2, [r4, #0]
 80069d2:	7019      	strb	r1, [r3, #0]
 80069d4:	68a3      	ldr	r3, [r4, #8]
 80069d6:	f816 1f01 	ldrb.w	r1, [r6, #1]!
 80069da:	3b01      	subs	r3, #1
 80069dc:	60a3      	str	r3, [r4, #8]
 80069de:	2900      	cmp	r1, #0
 80069e0:	d1ed      	bne.n	80069be <_puts_r+0x52>
 80069e2:	2b00      	cmp	r3, #0
 80069e4:	da11      	bge.n	8006a0a <_puts_r+0x9e>
 80069e6:	4622      	mov	r2, r4
 80069e8:	210a      	movs	r1, #10
 80069ea:	4628      	mov	r0, r5
 80069ec:	f000 f85f 	bl	8006aae <__swbuf_r>
 80069f0:	3001      	adds	r0, #1
 80069f2:	d0d7      	beq.n	80069a4 <_puts_r+0x38>
 80069f4:	250a      	movs	r5, #10
 80069f6:	e7d7      	b.n	80069a8 <_puts_r+0x3c>
 80069f8:	4622      	mov	r2, r4
 80069fa:	4628      	mov	r0, r5
 80069fc:	f000 f857 	bl	8006aae <__swbuf_r>
 8006a00:	3001      	adds	r0, #1
 8006a02:	d1e7      	bne.n	80069d4 <_puts_r+0x68>
 8006a04:	e7ce      	b.n	80069a4 <_puts_r+0x38>
 8006a06:	3e01      	subs	r6, #1
 8006a08:	e7e4      	b.n	80069d4 <_puts_r+0x68>
 8006a0a:	6823      	ldr	r3, [r4, #0]
 8006a0c:	1c5a      	adds	r2, r3, #1
 8006a0e:	6022      	str	r2, [r4, #0]
 8006a10:	220a      	movs	r2, #10
 8006a12:	701a      	strb	r2, [r3, #0]
 8006a14:	e7ee      	b.n	80069f4 <_puts_r+0x88>
	...

08006a18 <puts>:
 8006a18:	4b02      	ldr	r3, [pc, #8]	@ (8006a24 <puts+0xc>)
 8006a1a:	4601      	mov	r1, r0
 8006a1c:	6818      	ldr	r0, [r3, #0]
 8006a1e:	f7ff bfa5 	b.w	800696c <_puts_r>
 8006a22:	bf00      	nop
 8006a24:	20000188 	.word	0x20000188

08006a28 <__sread>:
 8006a28:	b510      	push	{r4, lr}
 8006a2a:	460c      	mov	r4, r1
 8006a2c:	f9b1 100e 	ldrsh.w	r1, [r1, #14]
 8006a30:	f000 f936 	bl	8006ca0 <_read_r>
 8006a34:	2800      	cmp	r0, #0
 8006a36:	bfab      	itete	ge
 8006a38:	6d63      	ldrge	r3, [r4, #84]	@ 0x54
 8006a3a:	89a3      	ldrhlt	r3, [r4, #12]
 8006a3c:	181b      	addge	r3, r3, r0
 8006a3e:	f423 5380 	biclt.w	r3, r3, #4096	@ 0x1000
 8006a42:	bfac      	ite	ge
 8006a44:	6563      	strge	r3, [r4, #84]	@ 0x54
 8006a46:	81a3      	strhlt	r3, [r4, #12]
 8006a48:	bd10      	pop	{r4, pc}

08006a4a <__swrite>:
 8006a4a:	e92d 41f0 	stmdb	sp!, {r4, r5, r6, r7, r8, lr}
 8006a4e:	461f      	mov	r7, r3
 8006a50:	898b      	ldrh	r3, [r1, #12]
 8006a52:	05db      	lsls	r3, r3, #23
 8006a54:	4605      	mov	r5, r0
 8006a56:	460c      	mov	r4, r1
 8006a58:	4616      	mov	r6, r2
 8006a5a:	d505      	bpl.n	8006a68 <__swrite+0x1e>
 8006a5c:	f9b1 100e 	ldrsh.w	r1, [r1, #14]
 8006a60:	2302      	movs	r3, #2
 8006a62:	2200      	movs	r2, #0
 8006a64:	f000 f90a 	bl	8006c7c <_lseek_r>
 8006a68:	89a3      	ldrh	r3, [r4, #12]
 8006a6a:	f9b4 100e 	ldrsh.w	r1, [r4, #14]
 8006a6e:	f423 5380 	bic.w	r3, r3, #4096	@ 0x1000
 8006a72:	81a3      	strh	r3, [r4, #12]
 8006a74:	4632      	mov	r2, r6
 8006a76:	463b      	mov	r3, r7
 8006a78:	4628      	mov	r0, r5
 8006a7a:	e8bd 41f0 	ldmia.w	sp!, {r4, r5, r6, r7, r8, lr}
 8006a7e:	f000 b921 	b.w	8006cc4 <_write_r>

08006a82 <__sseek>:
 8006a82:	b510      	push	{r4, lr}
 8006a84:	460c      	mov	r4, r1
 8006a86:	f9b1 100e 	ldrsh.w	r1, [r1, #14]
 8006a8a:	f000 f8f7 	bl	8006c7c <_lseek_r>
 8006a8e:	1c43      	adds	r3, r0, #1
 8006a90:	89a3      	ldrh	r3, [r4, #12]
 8006a92:	bf15      	itete	ne
 8006a94:	6560      	strne	r0, [r4, #84]	@ 0x54
 8006a96:	f423 5380 	biceq.w	r3, r3, #4096	@ 0x1000
 8006a9a:	f443 5380 	orrne.w	r3, r3, #4096	@ 0x1000
 8006a9e:	81a3      	strheq	r3, [r4, #12]
 8006aa0:	bf18      	it	ne
 8006aa2:	81a3      	strhne	r3, [r4, #12]
 8006aa4:	bd10      	pop	{r4, pc}

08006aa6 <__sclose>:
 8006aa6:	f9b1 100e 	ldrsh.w	r1, [r1, #14]
 8006aaa:	f000 b8d7 	b.w	8006c5c <_close_r>

08006aae <__swbuf_r>:
 8006aae:	b5f8      	push	{r3, r4, r5, r6, r7, lr}
 8006ab0:	460e      	mov	r6, r1
 8006ab2:	4614      	mov	r4, r2
 8006ab4:	4605      	mov	r5, r0
 8006ab6:	b118      	cbz	r0, 8006ac0 <__swbuf_r+0x12>
 8006ab8:	6a03      	ldr	r3, [r0, #32]
 8006aba:	b90b      	cbnz	r3, 8006ac0 <__swbuf_r+0x12>
 8006abc:	f7ff ff0e 	bl	80068dc <__sinit>
 8006ac0:	69a3      	ldr	r3, [r4, #24]
 8006ac2:	60a3      	str	r3, [r4, #8]
 8006ac4:	89a3      	ldrh	r3, [r4, #12]
 8006ac6:	071a      	lsls	r2, r3, #28
 8006ac8:	d501      	bpl.n	8006ace <__swbuf_r+0x20>
 8006aca:	6923      	ldr	r3, [r4, #16]
 8006acc:	b943      	cbnz	r3, 8006ae0 <__swbuf_r+0x32>
 8006ace:	4621      	mov	r1, r4
 8006ad0:	4628      	mov	r0, r5
 8006ad2:	f000 f82b 	bl	8006b2c <__swsetup_r>
 8006ad6:	b118      	cbz	r0, 8006ae0 <__swbuf_r+0x32>
 8006ad8:	f04f 37ff 	mov.w	r7, #4294967295
 8006adc:	4638      	mov	r0, r7
 8006ade:	bdf8      	pop	{r3, r4, r5, r6, r7, pc}
 8006ae0:	6823      	ldr	r3, [r4, #0]
 8006ae2:	6922      	ldr	r2, [r4, #16]
 8006ae4:	1a98      	subs	r0, r3, r2
 8006ae6:	6963      	ldr	r3, [r4, #20]
 8006ae8:	b2f6      	uxtb	r6, r6
 8006aea:	4283      	cmp	r3, r0
 8006aec:	4637      	mov	r7, r6
 8006aee:	dc05      	bgt.n	8006afc <__swbuf_r+0x4e>
 8006af0:	4621      	mov	r1, r4
 8006af2:	4628      	mov	r0, r5
 8006af4:	f002 fa5c 	bl	8008fb0 <_fflush_r>
 8006af8:	2800      	cmp	r0, #0
 8006afa:	d1ed      	bne.n	8006ad8 <__swbuf_r+0x2a>
 8006afc:	68a3      	ldr	r3, [r4, #8]
 8006afe:	3b01      	subs	r3, #1
 8006b00:	60a3      	str	r3, [r4, #8]
 8006b02:	6823      	ldr	r3, [r4, #0]
 8006b04:	1c5a      	adds	r2, r3, #1
 8006b06:	6022      	str	r2, [r4, #0]
 8006b08:	701e      	strb	r6, [r3, #0]
 8006b0a:	6962      	ldr	r2, [r4, #20]
 8006b0c:	1c43      	adds	r3, r0, #1
 8006b0e:	429a      	cmp	r2, r3
 8006b10:	d004      	beq.n	8006b1c <__swbuf_r+0x6e>
 8006b12:	89a3      	ldrh	r3, [r4, #12]
 8006b14:	07db      	lsls	r3, r3, #31
 8006b16:	d5e1      	bpl.n	8006adc <__swbuf_r+0x2e>
 8006b18:	2e0a      	cmp	r6, #10
 8006b1a:	d1df      	bne.n	8006adc <__swbuf_r+0x2e>
 8006b1c:	4621      	mov	r1, r4
 8006b1e:	4628      	mov	r0, r5
 8006b20:	f002 fa46 	bl	8008fb0 <_fflush_r>
 8006b24:	2800      	cmp	r0, #0
 8006b26:	d0d9      	beq.n	8006adc <__swbuf_r+0x2e>
 8006b28:	e7d6      	b.n	8006ad8 <__swbuf_r+0x2a>
	...

08006b2c <__swsetup_r>:
 8006b2c:	b538      	push	{r3, r4, r5, lr}
 8006b2e:	4b29      	ldr	r3, [pc, #164]	@ (8006bd4 <__swsetup_r+0xa8>)
 8006b30:	4605      	mov	r5, r0
 8006b32:	6818      	ldr	r0, [r3, #0]
 8006b34:	460c      	mov	r4, r1
 8006b36:	b118      	cbz	r0, 8006b40 <__swsetup_r+0x14>
 8006b38:	6a03      	ldr	r3, [r0, #32]
 8006b3a:	b90b      	cbnz	r3, 8006b40 <__swsetup_r+0x14>
 8006b3c:	f7ff fece 	bl	80068dc <__sinit>
 8006b40:	f9b4 300c 	ldrsh.w	r3, [r4, #12]
 8006b44:	0719      	lsls	r1, r3, #28
 8006b46:	d422      	bmi.n	8006b8e <__swsetup_r+0x62>
 8006b48:	06da      	lsls	r2, r3, #27
 8006b4a:	d407      	bmi.n	8006b5c <__swsetup_r+0x30>
 8006b4c:	2209      	movs	r2, #9
 8006b4e:	602a      	str	r2, [r5, #0]
 8006b50:	f043 0340 	orr.w	r3, r3, #64	@ 0x40
 8006b54:	81a3      	strh	r3, [r4, #12]
 8006b56:	f04f 30ff 	mov.w	r0, #4294967295
 8006b5a:	e033      	b.n	8006bc4 <__swsetup_r+0x98>
 8006b5c:	0758      	lsls	r0, r3, #29
 8006b5e:	d512      	bpl.n	8006b86 <__swsetup_r+0x5a>
 8006b60:	6b61      	ldr	r1, [r4, #52]	@ 0x34
 8006b62:	b141      	cbz	r1, 8006b76 <__swsetup_r+0x4a>
 8006b64:	f104 0344 	add.w	r3, r4, #68	@ 0x44
 8006b68:	4299      	cmp	r1, r3
 8006b6a:	d002      	beq.n	8006b72 <__swsetup_r+0x46>
 8006b6c:	4628      	mov	r0, r5
 8006b6e:	f000 ff57 	bl	8007a20 <_free_r>
 8006b72:	2300      	movs	r3, #0
 8006b74:	6363      	str	r3, [r4, #52]	@ 0x34
 8006b76:	89a3      	ldrh	r3, [r4, #12]
 8006b78:	f023 0324 	bic.w	r3, r3, #36	@ 0x24
 8006b7c:	81a3      	strh	r3, [r4, #12]
 8006b7e:	2300      	movs	r3, #0
 8006b80:	6063      	str	r3, [r4, #4]
 8006b82:	6923      	ldr	r3, [r4, #16]
 8006b84:	6023      	str	r3, [r4, #0]
 8006b86:	89a3      	ldrh	r3, [r4, #12]
 8006b88:	f043 0308 	orr.w	r3, r3, #8
 8006b8c:	81a3      	strh	r3, [r4, #12]
 8006b8e:	6923      	ldr	r3, [r4, #16]
 8006b90:	b94b      	cbnz	r3, 8006ba6 <__swsetup_r+0x7a>
 8006b92:	89a3      	ldrh	r3, [r4, #12]
 8006b94:	f403 7320 	and.w	r3, r3, #640	@ 0x280
 8006b98:	f5b3 7f00 	cmp.w	r3, #512	@ 0x200
 8006b9c:	d003      	beq.n	8006ba6 <__swsetup_r+0x7a>
 8006b9e:	4621      	mov	r1, r4
 8006ba0:	4628      	mov	r0, r5
 8006ba2:	f002 fa53 	bl	800904c <__smakebuf_r>
 8006ba6:	f9b4 300c 	ldrsh.w	r3, [r4, #12]
 8006baa:	f013 0201 	ands.w	r2, r3, #1
 8006bae:	d00a      	beq.n	8006bc6 <__swsetup_r+0x9a>
 8006bb0:	2200      	movs	r2, #0
 8006bb2:	60a2      	str	r2, [r4, #8]
 8006bb4:	6962      	ldr	r2, [r4, #20]
 8006bb6:	4252      	negs	r2, r2
 8006bb8:	61a2      	str	r2, [r4, #24]
 8006bba:	6922      	ldr	r2, [r4, #16]
 8006bbc:	b942      	cbnz	r2, 8006bd0 <__swsetup_r+0xa4>
 8006bbe:	f013 0080 	ands.w	r0, r3, #128	@ 0x80
 8006bc2:	d1c5      	bne.n	8006b50 <__swsetup_r+0x24>
 8006bc4:	bd38      	pop	{r3, r4, r5, pc}
 8006bc6:	0799      	lsls	r1, r3, #30
 8006bc8:	bf58      	it	pl
 8006bca:	6962      	ldrpl	r2, [r4, #20]
 8006bcc:	60a2      	str	r2, [r4, #8]
 8006bce:	e7f4      	b.n	8006bba <__swsetup_r+0x8e>
 8006bd0:	2000      	movs	r0, #0
 8006bd2:	e7f7      	b.n	8006bc4 <__swsetup_r+0x98>
 8006bd4:	20000188 	.word	0x20000188

08006bd8 <memset>:
 8006bd8:	4402      	add	r2, r0
 8006bda:	4603      	mov	r3, r0
 8006bdc:	4293      	cmp	r3, r2
 8006bde:	d100      	bne.n	8006be2 <memset+0xa>
 8006be0:	4770      	bx	lr
 8006be2:	f803 1b01 	strb.w	r1, [r3], #1
 8006be6:	e7f9      	b.n	8006bdc <memset+0x4>

08006be8 <strchr>:
 8006be8:	b2c9      	uxtb	r1, r1
 8006bea:	4603      	mov	r3, r0
 8006bec:	4618      	mov	r0, r3
 8006bee:	f813 2b01 	ldrb.w	r2, [r3], #1
 8006bf2:	b112      	cbz	r2, 8006bfa <strchr+0x12>
 8006bf4:	428a      	cmp	r2, r1
 8006bf6:	d1f9      	bne.n	8006bec <strchr+0x4>
 8006bf8:	4770      	bx	lr
 8006bfa:	2900      	cmp	r1, #0
 8006bfc:	bf18      	it	ne
 8006bfe:	2000      	movne	r0, #0
 8006c00:	4770      	bx	lr

08006c02 <strncmp>:
 8006c02:	b510      	push	{r4, lr}
 8006c04:	b16a      	cbz	r2, 8006c22 <strncmp+0x20>
 8006c06:	3901      	subs	r1, #1
 8006c08:	1884      	adds	r4, r0, r2
 8006c0a:	f810 2b01 	ldrb.w	r2, [r0], #1
 8006c0e:	f811 3f01 	ldrb.w	r3, [r1, #1]!
 8006c12:	429a      	cmp	r2, r3
 8006c14:	d103      	bne.n	8006c1e <strncmp+0x1c>
 8006c16:	42a0      	cmp	r0, r4
 8006c18:	d001      	beq.n	8006c1e <strncmp+0x1c>
 8006c1a:	2a00      	cmp	r2, #0
 8006c1c:	d1f5      	bne.n	8006c0a <strncmp+0x8>
 8006c1e:	1ad0      	subs	r0, r2, r3
 8006c20:	bd10      	pop	{r4, pc}
 8006c22:	4610      	mov	r0, r2
 8006c24:	e7fc      	b.n	8006c20 <strncmp+0x1e>

08006c26 <strstr>:
 8006c26:	780a      	ldrb	r2, [r1, #0]
 8006c28:	b570      	push	{r4, r5, r6, lr}
 8006c2a:	b96a      	cbnz	r2, 8006c48 <strstr+0x22>
 8006c2c:	bd70      	pop	{r4, r5, r6, pc}
 8006c2e:	429a      	cmp	r2, r3
 8006c30:	d109      	bne.n	8006c46 <strstr+0x20>
 8006c32:	460c      	mov	r4, r1
 8006c34:	4605      	mov	r5, r0
 8006c36:	f814 3f01 	ldrb.w	r3, [r4, #1]!
 8006c3a:	2b00      	cmp	r3, #0
 8006c3c:	d0f6      	beq.n	8006c2c <strstr+0x6>
 8006c3e:	f815 6f01 	ldrb.w	r6, [r5, #1]!
 8006c42:	429e      	cmp	r6, r3
 8006c44:	d0f7      	beq.n	8006c36 <strstr+0x10>
 8006c46:	3001      	adds	r0, #1
 8006c48:	7803      	ldrb	r3, [r0, #0]
 8006c4a:	2b00      	cmp	r3, #0
 8006c4c:	d1ef      	bne.n	8006c2e <strstr+0x8>
 8006c4e:	4618      	mov	r0, r3
 8006c50:	e7ec      	b.n	8006c2c <strstr+0x6>
	...

08006c54 <_localeconv_r>:
 8006c54:	4800      	ldr	r0, [pc, #0]	@ (8006c58 <_localeconv_r+0x4>)
 8006c56:	4770      	bx	lr
 8006c58:	2000010c 	.word	0x2000010c

08006c5c <_close_r>:
 8006c5c:	b538      	push	{r3, r4, r5, lr}
 8006c5e:	4d06      	ldr	r5, [pc, #24]	@ (8006c78 <_close_r+0x1c>)
 8006c60:	2300      	movs	r3, #0
 8006c62:	4604      	mov	r4, r0
 8006c64:	4608      	mov	r0, r1
 8006c66:	602b      	str	r3, [r5, #0]
 8006c68:	f7fb f938 	bl	8001edc <_close>
 8006c6c:	1c43      	adds	r3, r0, #1
 8006c6e:	d102      	bne.n	8006c76 <_close_r+0x1a>
 8006c70:	682b      	ldr	r3, [r5, #0]
 8006c72:	b103      	cbz	r3, 8006c76 <_close_r+0x1a>
 8006c74:	6023      	str	r3, [r4, #0]
 8006c76:	bd38      	pop	{r3, r4, r5, pc}
 8006c78:	200004d8 	.word	0x200004d8

08006c7c <_lseek_r>:
 8006c7c:	b538      	push	{r3, r4, r5, lr}
 8006c7e:	4d07      	ldr	r5, [pc, #28]	@ (8006c9c <_lseek_r+0x20>)
 8006c80:	4604      	mov	r4, r0
 8006c82:	4608      	mov	r0, r1
 8006c84:	4611      	mov	r1, r2
 8006c86:	2200      	movs	r2, #0
 8006c88:	602a      	str	r2, [r5, #0]
 8006c8a:	461a      	mov	r2, r3
 8006c8c:	f7fb f94d 	bl	8001f2a <_lseek>
 8006c90:	1c43      	adds	r3, r0, #1
 8006c92:	d102      	bne.n	8006c9a <_lseek_r+0x1e>
 8006c94:	682b      	ldr	r3, [r5, #0]
 8006c96:	b103      	cbz	r3, 8006c9a <_lseek_r+0x1e>
 8006c98:	6023      	str	r3, [r4, #0]
 8006c9a:	bd38      	pop	{r3, r4, r5, pc}
 8006c9c:	200004d8 	.word	0x200004d8

08006ca0 <_read_r>:
 8006ca0:	b538      	push	{r3, r4, r5, lr}
 8006ca2:	4d07      	ldr	r5, [pc, #28]	@ (8006cc0 <_read_r+0x20>)
 8006ca4:	4604      	mov	r4, r0
 8006ca6:	4608      	mov	r0, r1
 8006ca8:	4611      	mov	r1, r2
 8006caa:	2200      	movs	r2, #0
 8006cac:	602a      	str	r2, [r5, #0]
 8006cae:	461a      	mov	r2, r3
 8006cb0:	f7fb f8f7 	bl	8001ea2 <_read>
 8006cb4:	1c43      	adds	r3, r0, #1
 8006cb6:	d102      	bne.n	8006cbe <_read_r+0x1e>
 8006cb8:	682b      	ldr	r3, [r5, #0]
 8006cba:	b103      	cbz	r3, 8006cbe <_read_r+0x1e>
 8006cbc:	6023      	str	r3, [r4, #0]
 8006cbe:	bd38      	pop	{r3, r4, r5, pc}
 8006cc0:	200004d8 	.word	0x200004d8

08006cc4 <_write_r>:
 8006cc4:	b538      	push	{r3, r4, r5, lr}
 8006cc6:	4d07      	ldr	r5, [pc, #28]	@ (8006ce4 <_write_r+0x20>)
 8006cc8:	4604      	mov	r4, r0
 8006cca:	4608      	mov	r0, r1
 8006ccc:	4611      	mov	r1, r2
 8006cce:	2200      	movs	r2, #0
 8006cd0:	602a      	str	r2, [r5, #0]
 8006cd2:	461a      	mov	r2, r3
 8006cd4:	f7fa fb36 	bl	8001344 <_write>
 8006cd8:	1c43      	adds	r3, r0, #1
 8006cda:	d102      	bne.n	8006ce2 <_write_r+0x1e>
 8006cdc:	682b      	ldr	r3, [r5, #0]
 8006cde:	b103      	cbz	r3, 8006ce2 <_write_r+0x1e>
 8006ce0:	6023      	str	r3, [r4, #0]
 8006ce2:	bd38      	pop	{r3, r4, r5, pc}
 8006ce4:	200004d8 	.word	0x200004d8

08006ce8 <__errno>:
 8006ce8:	4b01      	ldr	r3, [pc, #4]	@ (8006cf0 <__errno+0x8>)
 8006cea:	6818      	ldr	r0, [r3, #0]
 8006cec:	4770      	bx	lr
 8006cee:	bf00      	nop
 8006cf0:	20000188 	.word	0x20000188

08006cf4 <__libc_init_array>:
 8006cf4:	b570      	push	{r4, r5, r6, lr}
 8006cf6:	4d0d      	ldr	r5, [pc, #52]	@ (8006d2c <__libc_init_array+0x38>)
 8006cf8:	4c0d      	ldr	r4, [pc, #52]	@ (8006d30 <__libc_init_array+0x3c>)
 8006cfa:	1b64      	subs	r4, r4, r5
 8006cfc:	10a4      	asrs	r4, r4, #2
 8006cfe:	2600      	movs	r6, #0
 8006d00:	42a6      	cmp	r6, r4
 8006d02:	d109      	bne.n	8006d18 <__libc_init_array+0x24>
 8006d04:	4d0b      	ldr	r5, [pc, #44]	@ (8006d34 <__libc_init_array+0x40>)
 8006d06:	4c0c      	ldr	r4, [pc, #48]	@ (8006d38 <__libc_init_array+0x44>)
 8006d08:	f002 fa9e 	bl	8009248 <_init>
 8006d0c:	1b64      	subs	r4, r4, r5
 8006d0e:	10a4      	asrs	r4, r4, #2
 8006d10:	2600      	movs	r6, #0
 8006d12:	42a6      	cmp	r6, r4
 8006d14:	d105      	bne.n	8006d22 <__libc_init_array+0x2e>
 8006d16:	bd70      	pop	{r4, r5, r6, pc}
 8006d18:	f855 3b04 	ldr.w	r3, [r5], #4
 8006d1c:	4798      	blx	r3
 8006d1e:	3601      	adds	r6, #1
 8006d20:	e7ee      	b.n	8006d00 <__libc_init_array+0xc>
 8006d22:	f855 3b04 	ldr.w	r3, [r5], #4
 8006d26:	4798      	blx	r3
 8006d28:	3601      	adds	r6, #1
 8006d2a:	e7f2      	b.n	8006d12 <__libc_init_array+0x1e>
 8006d2c:	08009790 	.word	0x08009790
 8006d30:	08009790 	.word	0x08009790
 8006d34:	08009790 	.word	0x08009790
 8006d38:	08009794 	.word	0x08009794

08006d3c <__retarget_lock_init_recursive>:
 8006d3c:	4770      	bx	lr

08006d3e <__retarget_lock_acquire_recursive>:
 8006d3e:	4770      	bx	lr

08006d40 <__retarget_lock_release_recursive>:
 8006d40:	4770      	bx	lr

08006d42 <memcpy>:
 8006d42:	440a      	add	r2, r1
 8006d44:	4291      	cmp	r1, r2
 8006d46:	f100 33ff 	add.w	r3, r0, #4294967295
 8006d4a:	d100      	bne.n	8006d4e <memcpy+0xc>
 8006d4c:	4770      	bx	lr
 8006d4e:	b510      	push	{r4, lr}
 8006d50:	f811 4b01 	ldrb.w	r4, [r1], #1
 8006d54:	f803 4f01 	strb.w	r4, [r3, #1]!
 8006d58:	4291      	cmp	r1, r2
 8006d5a:	d1f9      	bne.n	8006d50 <memcpy+0xe>
 8006d5c:	bd10      	pop	{r4, pc}
	...

08006d60 <nan>:
 8006d60:	ed9f 0b01 	vldr	d0, [pc, #4]	@ 8006d68 <nan+0x8>
 8006d64:	4770      	bx	lr
 8006d66:	bf00      	nop
 8006d68:	00000000 	.word	0x00000000
 8006d6c:	7ff80000 	.word	0x7ff80000

08006d70 <quorem>:
 8006d70:	e92d 4ff7 	stmdb	sp!, {r0, r1, r2, r4, r5, r6, r7, r8, r9, sl, fp, lr}
 8006d74:	6903      	ldr	r3, [r0, #16]
 8006d76:	690c      	ldr	r4, [r1, #16]
 8006d78:	42a3      	cmp	r3, r4
 8006d7a:	4607      	mov	r7, r0
 8006d7c:	db7e      	blt.n	8006e7c <quorem+0x10c>
 8006d7e:	3c01      	subs	r4, #1
 8006d80:	f101 0814 	add.w	r8, r1, #20
 8006d84:	00a3      	lsls	r3, r4, #2
 8006d86:	f100 0514 	add.w	r5, r0, #20
 8006d8a:	9300      	str	r3, [sp, #0]
 8006d8c:	eb05 0384 	add.w	r3, r5, r4, lsl #2
 8006d90:	9301      	str	r3, [sp, #4]
 8006d92:	f858 3024 	ldr.w	r3, [r8, r4, lsl #2]
 8006d96:	f855 2024 	ldr.w	r2, [r5, r4, lsl #2]
 8006d9a:	3301      	adds	r3, #1
 8006d9c:	429a      	cmp	r2, r3
 8006d9e:	eb08 0984 	add.w	r9, r8, r4, lsl #2
 8006da2:	fbb2 f6f3 	udiv	r6, r2, r3
 8006da6:	d32e      	bcc.n	8006e06 <quorem+0x96>
 8006da8:	f04f 0a00 	mov.w	sl, #0
 8006dac:	46c4      	mov	ip, r8
 8006dae:	46ae      	mov	lr, r5
 8006db0:	46d3      	mov	fp, sl
 8006db2:	f85c 3b04 	ldr.w	r3, [ip], #4
 8006db6:	b298      	uxth	r0, r3
 8006db8:	fb06 a000 	mla	r0, r6, r0, sl
 8006dbc:	0c02      	lsrs	r2, r0, #16
 8006dbe:	0c1b      	lsrs	r3, r3, #16
 8006dc0:	fb06 2303 	mla	r3, r6, r3, r2
 8006dc4:	f8de 2000 	ldr.w	r2, [lr]
 8006dc8:	b280      	uxth	r0, r0
 8006dca:	b292      	uxth	r2, r2
 8006dcc:	1a12      	subs	r2, r2, r0
 8006dce:	445a      	add	r2, fp
 8006dd0:	f8de 0000 	ldr.w	r0, [lr]
 8006dd4:	ea4f 4a13 	mov.w	sl, r3, lsr #16
 8006dd8:	b29b      	uxth	r3, r3
 8006dda:	ebc3 4322 	rsb	r3, r3, r2, asr #16
 8006dde:	eb03 4310 	add.w	r3, r3, r0, lsr #16
 8006de2:	b292      	uxth	r2, r2
 8006de4:	ea42 4203 	orr.w	r2, r2, r3, lsl #16
 8006de8:	45e1      	cmp	r9, ip
 8006dea:	f84e 2b04 	str.w	r2, [lr], #4
 8006dee:	ea4f 4b23 	mov.w	fp, r3, asr #16
 8006df2:	d2de      	bcs.n	8006db2 <quorem+0x42>
 8006df4:	9b00      	ldr	r3, [sp, #0]
 8006df6:	58eb      	ldr	r3, [r5, r3]
 8006df8:	b92b      	cbnz	r3, 8006e06 <quorem+0x96>
 8006dfa:	9b01      	ldr	r3, [sp, #4]
 8006dfc:	3b04      	subs	r3, #4
 8006dfe:	429d      	cmp	r5, r3
 8006e00:	461a      	mov	r2, r3
 8006e02:	d32f      	bcc.n	8006e64 <quorem+0xf4>
 8006e04:	613c      	str	r4, [r7, #16]
 8006e06:	4638      	mov	r0, r7
 8006e08:	f001 fd12 	bl	8008830 <__mcmp>
 8006e0c:	2800      	cmp	r0, #0
 8006e0e:	db25      	blt.n	8006e5c <quorem+0xec>
 8006e10:	4629      	mov	r1, r5
 8006e12:	2000      	movs	r0, #0
 8006e14:	f858 2b04 	ldr.w	r2, [r8], #4
 8006e18:	f8d1 c000 	ldr.w	ip, [r1]
 8006e1c:	fa1f fe82 	uxth.w	lr, r2
 8006e20:	fa1f f38c 	uxth.w	r3, ip
 8006e24:	eba3 030e 	sub.w	r3, r3, lr
 8006e28:	4403      	add	r3, r0
 8006e2a:	0c12      	lsrs	r2, r2, #16
 8006e2c:	ebc2 4223 	rsb	r2, r2, r3, asr #16
 8006e30:	eb02 421c 	add.w	r2, r2, ip, lsr #16
 8006e34:	b29b      	uxth	r3, r3
 8006e36:	ea43 4302 	orr.w	r3, r3, r2, lsl #16
 8006e3a:	45c1      	cmp	r9, r8
 8006e3c:	f841 3b04 	str.w	r3, [r1], #4
 8006e40:	ea4f 4022 	mov.w	r0, r2, asr #16
 8006e44:	d2e6      	bcs.n	8006e14 <quorem+0xa4>
 8006e46:	f855 2024 	ldr.w	r2, [r5, r4, lsl #2]
 8006e4a:	eb05 0384 	add.w	r3, r5, r4, lsl #2
 8006e4e:	b922      	cbnz	r2, 8006e5a <quorem+0xea>
 8006e50:	3b04      	subs	r3, #4
 8006e52:	429d      	cmp	r5, r3
 8006e54:	461a      	mov	r2, r3
 8006e56:	d30b      	bcc.n	8006e70 <quorem+0x100>
 8006e58:	613c      	str	r4, [r7, #16]
 8006e5a:	3601      	adds	r6, #1
 8006e5c:	4630      	mov	r0, r6
 8006e5e:	b003      	add	sp, #12
 8006e60:	e8bd 8ff0 	ldmia.w	sp!, {r4, r5, r6, r7, r8, r9, sl, fp, pc}
 8006e64:	6812      	ldr	r2, [r2, #0]
 8006e66:	3b04      	subs	r3, #4
 8006e68:	2a00      	cmp	r2, #0
 8006e6a:	d1cb      	bne.n	8006e04 <quorem+0x94>
 8006e6c:	3c01      	subs	r4, #1
 8006e6e:	e7c6      	b.n	8006dfe <quorem+0x8e>
 8006e70:	6812      	ldr	r2, [r2, #0]
 8006e72:	3b04      	subs	r3, #4
 8006e74:	2a00      	cmp	r2, #0
 8006e76:	d1ef      	bne.n	8006e58 <quorem+0xe8>
 8006e78:	3c01      	subs	r4, #1
 8006e7a:	e7ea      	b.n	8006e52 <quorem+0xe2>
 8006e7c:	2000      	movs	r0, #0
 8006e7e:	e7ee      	b.n	8006e5e <quorem+0xee>

08006e80 <_dtoa_r>:
 8006e80:	e92d 4ff0 	stmdb	sp!, {r4, r5, r6, r7, r8, r9, sl, fp, lr}
 8006e84:	69c7      	ldr	r7, [r0, #28]
 8006e86:	b097      	sub	sp, #92	@ 0x5c
 8006e88:	ed8d 0b04 	vstr	d0, [sp, #16]
 8006e8c:	ec55 4b10 	vmov	r4, r5, d0
 8006e90:	9e20      	ldr	r6, [sp, #128]	@ 0x80
 8006e92:	9107      	str	r1, [sp, #28]
 8006e94:	4681      	mov	r9, r0
 8006e96:	920c      	str	r2, [sp, #48]	@ 0x30
 8006e98:	9311      	str	r3, [sp, #68]	@ 0x44
 8006e9a:	b97f      	cbnz	r7, 8006ebc <_dtoa_r+0x3c>
 8006e9c:	2010      	movs	r0, #16
 8006e9e:	f001 f943 	bl	8008128 <malloc>
 8006ea2:	4602      	mov	r2, r0
 8006ea4:	f8c9 001c 	str.w	r0, [r9, #28]
 8006ea8:	b920      	cbnz	r0, 8006eb4 <_dtoa_r+0x34>
 8006eaa:	4ba9      	ldr	r3, [pc, #676]	@ (8007150 <_dtoa_r+0x2d0>)
 8006eac:	21ef      	movs	r1, #239	@ 0xef
 8006eae:	48a9      	ldr	r0, [pc, #676]	@ (8007154 <_dtoa_r+0x2d4>)
 8006eb0:	f002 f93a 	bl	8009128 <__assert_func>
 8006eb4:	e9c0 7701 	strd	r7, r7, [r0, #4]
 8006eb8:	6007      	str	r7, [r0, #0]
 8006eba:	60c7      	str	r7, [r0, #12]
 8006ebc:	f8d9 301c 	ldr.w	r3, [r9, #28]
 8006ec0:	6819      	ldr	r1, [r3, #0]
 8006ec2:	b159      	cbz	r1, 8006edc <_dtoa_r+0x5c>
 8006ec4:	685a      	ldr	r2, [r3, #4]
 8006ec6:	604a      	str	r2, [r1, #4]
 8006ec8:	2301      	movs	r3, #1
 8006eca:	4093      	lsls	r3, r2
 8006ecc:	608b      	str	r3, [r1, #8]
 8006ece:	4648      	mov	r0, r9
 8006ed0:	f001 fa32 	bl	8008338 <_Bfree>
 8006ed4:	f8d9 301c 	ldr.w	r3, [r9, #28]
 8006ed8:	2200      	movs	r2, #0
 8006eda:	601a      	str	r2, [r3, #0]
 8006edc:	1e2b      	subs	r3, r5, #0
 8006ede:	bfb9      	ittee	lt
 8006ee0:	f023 4300 	biclt.w	r3, r3, #2147483648	@ 0x80000000
 8006ee4:	9305      	strlt	r3, [sp, #20]
 8006ee6:	2300      	movge	r3, #0
 8006ee8:	6033      	strge	r3, [r6, #0]
 8006eea:	9f05      	ldr	r7, [sp, #20]
 8006eec:	4b9a      	ldr	r3, [pc, #616]	@ (8007158 <_dtoa_r+0x2d8>)
 8006eee:	bfbc      	itt	lt
 8006ef0:	2201      	movlt	r2, #1
 8006ef2:	6032      	strlt	r2, [r6, #0]
 8006ef4:	43bb      	bics	r3, r7
 8006ef6:	d112      	bne.n	8006f1e <_dtoa_r+0x9e>
 8006ef8:	9a11      	ldr	r2, [sp, #68]	@ 0x44
 8006efa:	f242 730f 	movw	r3, #9999	@ 0x270f
 8006efe:	6013      	str	r3, [r2, #0]
 8006f00:	f3c7 0313 	ubfx	r3, r7, #0, #20
 8006f04:	4323      	orrs	r3, r4
 8006f06:	f000 855a 	beq.w	80079be <_dtoa_r+0xb3e>
 8006f0a:	9b21      	ldr	r3, [sp, #132]	@ 0x84
 8006f0c:	f8df a25c 	ldr.w	sl, [pc, #604]	@ 800716c <_dtoa_r+0x2ec>
 8006f10:	2b00      	cmp	r3, #0
 8006f12:	f000 855c 	beq.w	80079ce <_dtoa_r+0xb4e>
 8006f16:	f10a 0303 	add.w	r3, sl, #3
 8006f1a:	f000 bd56 	b.w	80079ca <_dtoa_r+0xb4a>
 8006f1e:	ed9d 7b04 	vldr	d7, [sp, #16]
 8006f22:	2200      	movs	r2, #0
 8006f24:	ec51 0b17 	vmov	r0, r1, d7
 8006f28:	2300      	movs	r3, #0
 8006f2a:	ed8d 7b0a 	vstr	d7, [sp, #40]	@ 0x28
 8006f2e:	f7f9 fdd3 	bl	8000ad8 <__aeabi_dcmpeq>
 8006f32:	4680      	mov	r8, r0
 8006f34:	b158      	cbz	r0, 8006f4e <_dtoa_r+0xce>
 8006f36:	9a11      	ldr	r2, [sp, #68]	@ 0x44
 8006f38:	2301      	movs	r3, #1
 8006f3a:	6013      	str	r3, [r2, #0]
 8006f3c:	9b21      	ldr	r3, [sp, #132]	@ 0x84
 8006f3e:	b113      	cbz	r3, 8006f46 <_dtoa_r+0xc6>
 8006f40:	9a21      	ldr	r2, [sp, #132]	@ 0x84
 8006f42:	4b86      	ldr	r3, [pc, #536]	@ (800715c <_dtoa_r+0x2dc>)
 8006f44:	6013      	str	r3, [r2, #0]
 8006f46:	f8df a228 	ldr.w	sl, [pc, #552]	@ 8007170 <_dtoa_r+0x2f0>
 8006f4a:	f000 bd40 	b.w	80079ce <_dtoa_r+0xb4e>
 8006f4e:	ed9d 0b0a 	vldr	d0, [sp, #40]	@ 0x28
 8006f52:	aa14      	add	r2, sp, #80	@ 0x50
 8006f54:	a915      	add	r1, sp, #84	@ 0x54
 8006f56:	4648      	mov	r0, r9
 8006f58:	f001 fd8a 	bl	8008a70 <__d2b>
 8006f5c:	f3c7 560a 	ubfx	r6, r7, #20, #11
 8006f60:	9002      	str	r0, [sp, #8]
 8006f62:	2e00      	cmp	r6, #0
 8006f64:	d078      	beq.n	8007058 <_dtoa_r+0x1d8>
 8006f66:	9b0b      	ldr	r3, [sp, #44]	@ 0x2c
 8006f68:	f8cd 8048 	str.w	r8, [sp, #72]	@ 0x48
 8006f6c:	f3c3 0313 	ubfx	r3, r3, #0, #20
 8006f70:	e9dd 010a 	ldrd	r0, r1, [sp, #40]	@ 0x28
 8006f74:	f043 537f 	orr.w	r3, r3, #1069547520	@ 0x3fc00000
 8006f78:	f443 1340 	orr.w	r3, r3, #3145728	@ 0x300000
 8006f7c:	f2a6 36ff 	subw	r6, r6, #1023	@ 0x3ff
 8006f80:	4619      	mov	r1, r3
 8006f82:	2200      	movs	r2, #0
 8006f84:	4b76      	ldr	r3, [pc, #472]	@ (8007160 <_dtoa_r+0x2e0>)
 8006f86:	f7f9 f987 	bl	8000298 <__aeabi_dsub>
 8006f8a:	a36b      	add	r3, pc, #428	@ (adr r3, 8007138 <_dtoa_r+0x2b8>)
 8006f8c:	e9d3 2300 	ldrd	r2, r3, [r3]
 8006f90:	f7f9 fb3a 	bl	8000608 <__aeabi_dmul>
 8006f94:	a36a      	add	r3, pc, #424	@ (adr r3, 8007140 <_dtoa_r+0x2c0>)
 8006f96:	e9d3 2300 	ldrd	r2, r3, [r3]
 8006f9a:	f7f9 f97f 	bl	800029c <__adddf3>
 8006f9e:	4604      	mov	r4, r0
 8006fa0:	4630      	mov	r0, r6
 8006fa2:	460d      	mov	r5, r1
 8006fa4:	f7f9 fac6 	bl	8000534 <__aeabi_i2d>
 8006fa8:	a367      	add	r3, pc, #412	@ (adr r3, 8007148 <_dtoa_r+0x2c8>)
 8006faa:	e9d3 2300 	ldrd	r2, r3, [r3]
 8006fae:	f7f9 fb2b 	bl	8000608 <__aeabi_dmul>
 8006fb2:	4602      	mov	r2, r0
 8006fb4:	460b      	mov	r3, r1
 8006fb6:	4620      	mov	r0, r4
 8006fb8:	4629      	mov	r1, r5
 8006fba:	f7f9 f96f 	bl	800029c <__adddf3>
 8006fbe:	4604      	mov	r4, r0
 8006fc0:	460d      	mov	r5, r1
 8006fc2:	f7f9 fdd1 	bl	8000b68 <__aeabi_d2iz>
 8006fc6:	2200      	movs	r2, #0
 8006fc8:	4607      	mov	r7, r0
 8006fca:	2300      	movs	r3, #0
 8006fcc:	4620      	mov	r0, r4
 8006fce:	4629      	mov	r1, r5
 8006fd0:	f7f9 fd8c 	bl	8000aec <__aeabi_dcmplt>
 8006fd4:	b140      	cbz	r0, 8006fe8 <_dtoa_r+0x168>
 8006fd6:	4638      	mov	r0, r7
 8006fd8:	f7f9 faac 	bl	8000534 <__aeabi_i2d>
 8006fdc:	4622      	mov	r2, r4
 8006fde:	462b      	mov	r3, r5
 8006fe0:	f7f9 fd7a 	bl	8000ad8 <__aeabi_dcmpeq>
 8006fe4:	b900      	cbnz	r0, 8006fe8 <_dtoa_r+0x168>
 8006fe6:	3f01      	subs	r7, #1
 8006fe8:	2f16      	cmp	r7, #22
 8006fea:	d852      	bhi.n	8007092 <_dtoa_r+0x212>
 8006fec:	4b5d      	ldr	r3, [pc, #372]	@ (8007164 <_dtoa_r+0x2e4>)
 8006fee:	eb03 03c7 	add.w	r3, r3, r7, lsl #3
 8006ff2:	e9d3 2300 	ldrd	r2, r3, [r3]
 8006ff6:	e9dd 010a 	ldrd	r0, r1, [sp, #40]	@ 0x28
 8006ffa:	f7f9 fd77 	bl	8000aec <__aeabi_dcmplt>
 8006ffe:	2800      	cmp	r0, #0
 8007000:	d049      	beq.n	8007096 <_dtoa_r+0x216>
 8007002:	3f01      	subs	r7, #1
 8007004:	2300      	movs	r3, #0
 8007006:	9310      	str	r3, [sp, #64]	@ 0x40
 8007008:	9b14      	ldr	r3, [sp, #80]	@ 0x50
 800700a:	1b9b      	subs	r3, r3, r6
 800700c:	1e5a      	subs	r2, r3, #1
 800700e:	bf45      	ittet	mi
 8007010:	f1c3 0301 	rsbmi	r3, r3, #1
 8007014:	9300      	strmi	r3, [sp, #0]
 8007016:	2300      	movpl	r3, #0
 8007018:	2300      	movmi	r3, #0
 800701a:	9206      	str	r2, [sp, #24]
 800701c:	bf54      	ite	pl
 800701e:	9300      	strpl	r3, [sp, #0]
 8007020:	9306      	strmi	r3, [sp, #24]
 8007022:	2f00      	cmp	r7, #0
 8007024:	db39      	blt.n	800709a <_dtoa_r+0x21a>
 8007026:	9b06      	ldr	r3, [sp, #24]
 8007028:	970d      	str	r7, [sp, #52]	@ 0x34
 800702a:	443b      	add	r3, r7
 800702c:	9306      	str	r3, [sp, #24]
 800702e:	2300      	movs	r3, #0
 8007030:	9308      	str	r3, [sp, #32]
 8007032:	9b07      	ldr	r3, [sp, #28]
 8007034:	2b09      	cmp	r3, #9
 8007036:	d863      	bhi.n	8007100 <_dtoa_r+0x280>
 8007038:	2b05      	cmp	r3, #5
 800703a:	bfc4      	itt	gt
 800703c:	3b04      	subgt	r3, #4
 800703e:	9307      	strgt	r3, [sp, #28]
 8007040:	9b07      	ldr	r3, [sp, #28]
 8007042:	f1a3 0302 	sub.w	r3, r3, #2
 8007046:	bfcc      	ite	gt
 8007048:	2400      	movgt	r4, #0
 800704a:	2401      	movle	r4, #1
 800704c:	2b03      	cmp	r3, #3
 800704e:	d863      	bhi.n	8007118 <_dtoa_r+0x298>
 8007050:	e8df f003 	tbb	[pc, r3]
 8007054:	2b375452 	.word	0x2b375452
 8007058:	e9dd 6314 	ldrd	r6, r3, [sp, #80]	@ 0x50
 800705c:	441e      	add	r6, r3
 800705e:	f206 4332 	addw	r3, r6, #1074	@ 0x432
 8007062:	2b20      	cmp	r3, #32
 8007064:	bfc1      	itttt	gt
 8007066:	f1c3 0340 	rsbgt	r3, r3, #64	@ 0x40
 800706a:	409f      	lslgt	r7, r3
 800706c:	f206 4312 	addwgt	r3, r6, #1042	@ 0x412
 8007070:	fa24 f303 	lsrgt.w	r3, r4, r3
 8007074:	bfd6      	itet	le
 8007076:	f1c3 0320 	rsble	r3, r3, #32
 800707a:	ea47 0003 	orrgt.w	r0, r7, r3
 800707e:	fa04 f003 	lslle.w	r0, r4, r3
 8007082:	f7f9 fa47 	bl	8000514 <__aeabi_ui2d>
 8007086:	2201      	movs	r2, #1
 8007088:	f1a1 73f8 	sub.w	r3, r1, #32505856	@ 0x1f00000
 800708c:	3e01      	subs	r6, #1
 800708e:	9212      	str	r2, [sp, #72]	@ 0x48
 8007090:	e776      	b.n	8006f80 <_dtoa_r+0x100>
 8007092:	2301      	movs	r3, #1
 8007094:	e7b7      	b.n	8007006 <_dtoa_r+0x186>
 8007096:	9010      	str	r0, [sp, #64]	@ 0x40
 8007098:	e7b6      	b.n	8007008 <_dtoa_r+0x188>
 800709a:	9b00      	ldr	r3, [sp, #0]
 800709c:	1bdb      	subs	r3, r3, r7
 800709e:	9300      	str	r3, [sp, #0]
 80070a0:	427b      	negs	r3, r7
 80070a2:	9308      	str	r3, [sp, #32]
 80070a4:	2300      	movs	r3, #0
 80070a6:	930d      	str	r3, [sp, #52]	@ 0x34
 80070a8:	e7c3      	b.n	8007032 <_dtoa_r+0x1b2>
 80070aa:	2301      	movs	r3, #1
 80070ac:	9309      	str	r3, [sp, #36]	@ 0x24
 80070ae:	9b0c      	ldr	r3, [sp, #48]	@ 0x30
 80070b0:	eb07 0b03 	add.w	fp, r7, r3
 80070b4:	f10b 0301 	add.w	r3, fp, #1
 80070b8:	2b01      	cmp	r3, #1
 80070ba:	9303      	str	r3, [sp, #12]
 80070bc:	bfb8      	it	lt
 80070be:	2301      	movlt	r3, #1
 80070c0:	e006      	b.n	80070d0 <_dtoa_r+0x250>
 80070c2:	2301      	movs	r3, #1
 80070c4:	9309      	str	r3, [sp, #36]	@ 0x24
 80070c6:	9b0c      	ldr	r3, [sp, #48]	@ 0x30
 80070c8:	2b00      	cmp	r3, #0
 80070ca:	dd28      	ble.n	800711e <_dtoa_r+0x29e>
 80070cc:	469b      	mov	fp, r3
 80070ce:	9303      	str	r3, [sp, #12]
 80070d0:	f8d9 001c 	ldr.w	r0, [r9, #28]
 80070d4:	2100      	movs	r1, #0
 80070d6:	2204      	movs	r2, #4
 80070d8:	f102 0514 	add.w	r5, r2, #20
 80070dc:	429d      	cmp	r5, r3
 80070de:	d926      	bls.n	800712e <_dtoa_r+0x2ae>
 80070e0:	6041      	str	r1, [r0, #4]
 80070e2:	4648      	mov	r0, r9
 80070e4:	f001 f8e8 	bl	80082b8 <_Balloc>
 80070e8:	4682      	mov	sl, r0
 80070ea:	2800      	cmp	r0, #0
 80070ec:	d142      	bne.n	8007174 <_dtoa_r+0x2f4>
 80070ee:	4b1e      	ldr	r3, [pc, #120]	@ (8007168 <_dtoa_r+0x2e8>)
 80070f0:	4602      	mov	r2, r0
 80070f2:	f240 11af 	movw	r1, #431	@ 0x1af
 80070f6:	e6da      	b.n	8006eae <_dtoa_r+0x2e>
 80070f8:	2300      	movs	r3, #0
 80070fa:	e7e3      	b.n	80070c4 <_dtoa_r+0x244>
 80070fc:	2300      	movs	r3, #0
 80070fe:	e7d5      	b.n	80070ac <_dtoa_r+0x22c>
 8007100:	2401      	movs	r4, #1
 8007102:	2300      	movs	r3, #0
 8007104:	9307      	str	r3, [sp, #28]
 8007106:	9409      	str	r4, [sp, #36]	@ 0x24
 8007108:	f04f 3bff 	mov.w	fp, #4294967295
 800710c:	2200      	movs	r2, #0
 800710e:	f8cd b00c 	str.w	fp, [sp, #12]
 8007112:	2312      	movs	r3, #18
 8007114:	920c      	str	r2, [sp, #48]	@ 0x30
 8007116:	e7db      	b.n	80070d0 <_dtoa_r+0x250>
 8007118:	2301      	movs	r3, #1
 800711a:	9309      	str	r3, [sp, #36]	@ 0x24
 800711c:	e7f4      	b.n	8007108 <_dtoa_r+0x288>
 800711e:	f04f 0b01 	mov.w	fp, #1
 8007122:	f8cd b00c 	str.w	fp, [sp, #12]
 8007126:	465b      	mov	r3, fp
 8007128:	f8cd b030 	str.w	fp, [sp, #48]	@ 0x30
 800712c:	e7d0      	b.n	80070d0 <_dtoa_r+0x250>
 800712e:	3101      	adds	r1, #1
 8007130:	0052      	lsls	r2, r2, #1
 8007132:	e7d1      	b.n	80070d8 <_dtoa_r+0x258>
 8007134:	f3af 8000 	nop.w
 8007138:	636f4361 	.word	0x636f4361
 800713c:	3fd287a7 	.word	0x3fd287a7
 8007140:	8b60c8b3 	.word	0x8b60c8b3
 8007144:	3fc68a28 	.word	0x3fc68a28
 8007148:	509f79fb 	.word	0x509f79fb
 800714c:	3fd34413 	.word	0x3fd34413
 8007150:	080093ab 	.word	0x080093ab
 8007154:	080093c2 	.word	0x080093c2
 8007158:	7ff00000 	.word	0x7ff00000
 800715c:	08009373 	.word	0x08009373
 8007160:	3ff80000 	.word	0x3ff80000
 8007164:	080096c0 	.word	0x080096c0
 8007168:	0800941a 	.word	0x0800941a
 800716c:	080093a7 	.word	0x080093a7
 8007170:	08009372 	.word	0x08009372
 8007174:	f8d9 301c 	ldr.w	r3, [r9, #28]
 8007178:	6018      	str	r0, [r3, #0]
 800717a:	9b03      	ldr	r3, [sp, #12]
 800717c:	2b0e      	cmp	r3, #14
 800717e:	f200 80a1 	bhi.w	80072c4 <_dtoa_r+0x444>
 8007182:	2c00      	cmp	r4, #0
 8007184:	f000 809e 	beq.w	80072c4 <_dtoa_r+0x444>
 8007188:	2f00      	cmp	r7, #0
 800718a:	dd33      	ble.n	80071f4 <_dtoa_r+0x374>
 800718c:	4b9c      	ldr	r3, [pc, #624]	@ (8007400 <_dtoa_r+0x580>)
 800718e:	f007 020f 	and.w	r2, r7, #15
 8007192:	eb03 03c2 	add.w	r3, r3, r2, lsl #3
 8007196:	ed93 7b00 	vldr	d7, [r3]
 800719a:	05f8      	lsls	r0, r7, #23
 800719c:	ed8d 7b0e 	vstr	d7, [sp, #56]	@ 0x38
 80071a0:	ea4f 1427 	mov.w	r4, r7, asr #4
 80071a4:	d516      	bpl.n	80071d4 <_dtoa_r+0x354>
 80071a6:	4b97      	ldr	r3, [pc, #604]	@ (8007404 <_dtoa_r+0x584>)
 80071a8:	e9dd 010a 	ldrd	r0, r1, [sp, #40]	@ 0x28
 80071ac:	e9d3 2308 	ldrd	r2, r3, [r3, #32]
 80071b0:	f7f9 fb54 	bl	800085c <__aeabi_ddiv>
 80071b4:	e9cd 0104 	strd	r0, r1, [sp, #16]
 80071b8:	f004 040f 	and.w	r4, r4, #15
 80071bc:	2603      	movs	r6, #3
 80071be:	4d91      	ldr	r5, [pc, #580]	@ (8007404 <_dtoa_r+0x584>)
 80071c0:	b954      	cbnz	r4, 80071d8 <_dtoa_r+0x358>
 80071c2:	e9dd 230e 	ldrd	r2, r3, [sp, #56]	@ 0x38
 80071c6:	e9dd 0104 	ldrd	r0, r1, [sp, #16]
 80071ca:	f7f9 fb47 	bl	800085c <__aeabi_ddiv>
 80071ce:	e9cd 0104 	strd	r0, r1, [sp, #16]
 80071d2:	e028      	b.n	8007226 <_dtoa_r+0x3a6>
 80071d4:	2602      	movs	r6, #2
 80071d6:	e7f2      	b.n	80071be <_dtoa_r+0x33e>
 80071d8:	07e1      	lsls	r1, r4, #31
 80071da:	d508      	bpl.n	80071ee <_dtoa_r+0x36e>
 80071dc:	e9dd 010e 	ldrd	r0, r1, [sp, #56]	@ 0x38
 80071e0:	e9d5 2300 	ldrd	r2, r3, [r5]
 80071e4:	f7f9 fa10 	bl	8000608 <__aeabi_dmul>
 80071e8:	e9cd 010e 	strd	r0, r1, [sp, #56]	@ 0x38
 80071ec:	3601      	adds	r6, #1
 80071ee:	1064      	asrs	r4, r4, #1
 80071f0:	3508      	adds	r5, #8
 80071f2:	e7e5      	b.n	80071c0 <_dtoa_r+0x340>
 80071f4:	f000 80af 	beq.w	8007356 <_dtoa_r+0x4d6>
 80071f8:	427c      	negs	r4, r7
 80071fa:	4b81      	ldr	r3, [pc, #516]	@ (8007400 <_dtoa_r+0x580>)
 80071fc:	4d81      	ldr	r5, [pc, #516]	@ (8007404 <_dtoa_r+0x584>)
 80071fe:	f004 020f 	and.w	r2, r4, #15
 8007202:	eb03 03c2 	add.w	r3, r3, r2, lsl #3
 8007206:	e9d3 2300 	ldrd	r2, r3, [r3]
 800720a:	e9dd 010a 	ldrd	r0, r1, [sp, #40]	@ 0x28
 800720e:	f7f9 f9fb 	bl	8000608 <__aeabi_dmul>
 8007212:	e9cd 0104 	strd	r0, r1, [sp, #16]
 8007216:	1124      	asrs	r4, r4, #4
 8007218:	2300      	movs	r3, #0
 800721a:	2602      	movs	r6, #2
 800721c:	2c00      	cmp	r4, #0
 800721e:	f040 808f 	bne.w	8007340 <_dtoa_r+0x4c0>
 8007222:	2b00      	cmp	r3, #0
 8007224:	d1d3      	bne.n	80071ce <_dtoa_r+0x34e>
 8007226:	9b10      	ldr	r3, [sp, #64]	@ 0x40
 8007228:	e9dd 4504 	ldrd	r4, r5, [sp, #16]
 800722c:	2b00      	cmp	r3, #0
 800722e:	f000 8094 	beq.w	800735a <_dtoa_r+0x4da>
 8007232:	4b75      	ldr	r3, [pc, #468]	@ (8007408 <_dtoa_r+0x588>)
 8007234:	2200      	movs	r2, #0
 8007236:	4620      	mov	r0, r4
 8007238:	4629      	mov	r1, r5
 800723a:	f7f9 fc57 	bl	8000aec <__aeabi_dcmplt>
 800723e:	2800      	cmp	r0, #0
 8007240:	f000 808b 	beq.w	800735a <_dtoa_r+0x4da>
 8007244:	9b03      	ldr	r3, [sp, #12]
 8007246:	2b00      	cmp	r3, #0
 8007248:	f000 8087 	beq.w	800735a <_dtoa_r+0x4da>
 800724c:	f1bb 0f00 	cmp.w	fp, #0
 8007250:	dd34      	ble.n	80072bc <_dtoa_r+0x43c>
 8007252:	4620      	mov	r0, r4
 8007254:	4b6d      	ldr	r3, [pc, #436]	@ (800740c <_dtoa_r+0x58c>)
 8007256:	2200      	movs	r2, #0
 8007258:	4629      	mov	r1, r5
 800725a:	f7f9 f9d5 	bl	8000608 <__aeabi_dmul>
 800725e:	e9cd 0104 	strd	r0, r1, [sp, #16]
 8007262:	f107 38ff 	add.w	r8, r7, #4294967295
 8007266:	3601      	adds	r6, #1
 8007268:	465c      	mov	r4, fp
 800726a:	4630      	mov	r0, r6
 800726c:	f7f9 f962 	bl	8000534 <__aeabi_i2d>
 8007270:	e9dd 2304 	ldrd	r2, r3, [sp, #16]
 8007274:	f7f9 f9c8 	bl	8000608 <__aeabi_dmul>
 8007278:	4b65      	ldr	r3, [pc, #404]	@ (8007410 <_dtoa_r+0x590>)
 800727a:	2200      	movs	r2, #0
 800727c:	f7f9 f80e 	bl	800029c <__adddf3>
 8007280:	4605      	mov	r5, r0
 8007282:	f1a1 7650 	sub.w	r6, r1, #54525952	@ 0x3400000
 8007286:	2c00      	cmp	r4, #0
 8007288:	d16a      	bne.n	8007360 <_dtoa_r+0x4e0>
 800728a:	e9dd 0104 	ldrd	r0, r1, [sp, #16]
 800728e:	4b61      	ldr	r3, [pc, #388]	@ (8007414 <_dtoa_r+0x594>)
 8007290:	2200      	movs	r2, #0
 8007292:	f7f9 f801 	bl	8000298 <__aeabi_dsub>
 8007296:	4602      	mov	r2, r0
 8007298:	460b      	mov	r3, r1
 800729a:	e9cd 2304 	strd	r2, r3, [sp, #16]
 800729e:	462a      	mov	r2, r5
 80072a0:	4633      	mov	r3, r6
 80072a2:	f7f9 fc41 	bl	8000b28 <__aeabi_dcmpgt>
 80072a6:	2800      	cmp	r0, #0
 80072a8:	f040 8298 	bne.w	80077dc <_dtoa_r+0x95c>
 80072ac:	e9dd 0104 	ldrd	r0, r1, [sp, #16]
 80072b0:	462a      	mov	r2, r5
 80072b2:	f106 4300 	add.w	r3, r6, #2147483648	@ 0x80000000
 80072b6:	f7f9 fc19 	bl	8000aec <__aeabi_dcmplt>
 80072ba:	bb38      	cbnz	r0, 800730c <_dtoa_r+0x48c>
 80072bc:	e9dd 340a 	ldrd	r3, r4, [sp, #40]	@ 0x28
 80072c0:	e9cd 3404 	strd	r3, r4, [sp, #16]
 80072c4:	9b15      	ldr	r3, [sp, #84]	@ 0x54
 80072c6:	2b00      	cmp	r3, #0
 80072c8:	f2c0 8157 	blt.w	800757a <_dtoa_r+0x6fa>
 80072cc:	2f0e      	cmp	r7, #14
 80072ce:	f300 8154 	bgt.w	800757a <_dtoa_r+0x6fa>
 80072d2:	4b4b      	ldr	r3, [pc, #300]	@ (8007400 <_dtoa_r+0x580>)
 80072d4:	eb03 03c7 	add.w	r3, r3, r7, lsl #3
 80072d8:	ed93 7b00 	vldr	d7, [r3]
 80072dc:	9b0c      	ldr	r3, [sp, #48]	@ 0x30
 80072de:	2b00      	cmp	r3, #0
 80072e0:	ed8d 7b00 	vstr	d7, [sp]
 80072e4:	f280 80e5 	bge.w	80074b2 <_dtoa_r+0x632>
 80072e8:	9b03      	ldr	r3, [sp, #12]
 80072ea:	2b00      	cmp	r3, #0
 80072ec:	f300 80e1 	bgt.w	80074b2 <_dtoa_r+0x632>
 80072f0:	d10c      	bne.n	800730c <_dtoa_r+0x48c>
 80072f2:	4b48      	ldr	r3, [pc, #288]	@ (8007414 <_dtoa_r+0x594>)
 80072f4:	2200      	movs	r2, #0
 80072f6:	ec51 0b17 	vmov	r0, r1, d7
 80072fa:	f7f9 f985 	bl	8000608 <__aeabi_dmul>
 80072fe:	e9dd 2304 	ldrd	r2, r3, [sp, #16]
 8007302:	f7f9 fc07 	bl	8000b14 <__aeabi_dcmpge>
 8007306:	2800      	cmp	r0, #0
 8007308:	f000 8266 	beq.w	80077d8 <_dtoa_r+0x958>
 800730c:	2400      	movs	r4, #0
 800730e:	4625      	mov	r5, r4
 8007310:	9b0c      	ldr	r3, [sp, #48]	@ 0x30
 8007312:	4656      	mov	r6, sl
 8007314:	ea6f 0803 	mvn.w	r8, r3
 8007318:	2700      	movs	r7, #0
 800731a:	4621      	mov	r1, r4
 800731c:	4648      	mov	r0, r9
 800731e:	f001 f80b 	bl	8008338 <_Bfree>
 8007322:	2d00      	cmp	r5, #0
 8007324:	f000 80bd 	beq.w	80074a2 <_dtoa_r+0x622>
 8007328:	b12f      	cbz	r7, 8007336 <_dtoa_r+0x4b6>
 800732a:	42af      	cmp	r7, r5
 800732c:	d003      	beq.n	8007336 <_dtoa_r+0x4b6>
 800732e:	4639      	mov	r1, r7
 8007330:	4648      	mov	r0, r9
 8007332:	f001 f801 	bl	8008338 <_Bfree>
 8007336:	4629      	mov	r1, r5
 8007338:	4648      	mov	r0, r9
 800733a:	f000 fffd 	bl	8008338 <_Bfree>
 800733e:	e0b0      	b.n	80074a2 <_dtoa_r+0x622>
 8007340:	07e2      	lsls	r2, r4, #31
 8007342:	d505      	bpl.n	8007350 <_dtoa_r+0x4d0>
 8007344:	e9d5 2300 	ldrd	r2, r3, [r5]
 8007348:	f7f9 f95e 	bl	8000608 <__aeabi_dmul>
 800734c:	3601      	adds	r6, #1
 800734e:	2301      	movs	r3, #1
 8007350:	1064      	asrs	r4, r4, #1
 8007352:	3508      	adds	r5, #8
 8007354:	e762      	b.n	800721c <_dtoa_r+0x39c>
 8007356:	2602      	movs	r6, #2
 8007358:	e765      	b.n	8007226 <_dtoa_r+0x3a6>
 800735a:	9c03      	ldr	r4, [sp, #12]
 800735c:	46b8      	mov	r8, r7
 800735e:	e784      	b.n	800726a <_dtoa_r+0x3ea>
 8007360:	4b27      	ldr	r3, [pc, #156]	@ (8007400 <_dtoa_r+0x580>)
 8007362:	9909      	ldr	r1, [sp, #36]	@ 0x24
 8007364:	eb03 03c4 	add.w	r3, r3, r4, lsl #3
 8007368:	e953 2302 	ldrd	r2, r3, [r3, #-8]
 800736c:	4454      	add	r4, sl
 800736e:	2900      	cmp	r1, #0
 8007370:	d054      	beq.n	800741c <_dtoa_r+0x59c>
 8007372:	4929      	ldr	r1, [pc, #164]	@ (8007418 <_dtoa_r+0x598>)
 8007374:	2000      	movs	r0, #0
 8007376:	f7f9 fa71 	bl	800085c <__aeabi_ddiv>
 800737a:	4633      	mov	r3, r6
 800737c:	462a      	mov	r2, r5
 800737e:	f7f8 ff8b 	bl	8000298 <__aeabi_dsub>
 8007382:	e9cd 010e 	strd	r0, r1, [sp, #56]	@ 0x38
 8007386:	4656      	mov	r6, sl
 8007388:	e9dd 0104 	ldrd	r0, r1, [sp, #16]
 800738c:	f7f9 fbec 	bl	8000b68 <__aeabi_d2iz>
 8007390:	4605      	mov	r5, r0
 8007392:	f7f9 f8cf 	bl	8000534 <__aeabi_i2d>
 8007396:	4602      	mov	r2, r0
 8007398:	460b      	mov	r3, r1
 800739a:	e9dd 0104 	ldrd	r0, r1, [sp, #16]
 800739e:	f7f8 ff7b 	bl	8000298 <__aeabi_dsub>
 80073a2:	3530      	adds	r5, #48	@ 0x30
 80073a4:	4602      	mov	r2, r0
 80073a6:	460b      	mov	r3, r1
 80073a8:	e9cd 2304 	strd	r2, r3, [sp, #16]
 80073ac:	f806 5b01 	strb.w	r5, [r6], #1
 80073b0:	e9dd 230e 	ldrd	r2, r3, [sp, #56]	@ 0x38
 80073b4:	f7f9 fb9a 	bl	8000aec <__aeabi_dcmplt>
 80073b8:	2800      	cmp	r0, #0
 80073ba:	d172      	bne.n	80074a2 <_dtoa_r+0x622>
 80073bc:	e9dd 2304 	ldrd	r2, r3, [sp, #16]
 80073c0:	4911      	ldr	r1, [pc, #68]	@ (8007408 <_dtoa_r+0x588>)
 80073c2:	2000      	movs	r0, #0
 80073c4:	f7f8 ff68 	bl	8000298 <__aeabi_dsub>
 80073c8:	e9dd 230e 	ldrd	r2, r3, [sp, #56]	@ 0x38
 80073cc:	f7f9 fb8e 	bl	8000aec <__aeabi_dcmplt>
 80073d0:	2800      	cmp	r0, #0
 80073d2:	f040 80b4 	bne.w	800753e <_dtoa_r+0x6be>
 80073d6:	42a6      	cmp	r6, r4
 80073d8:	f43f af70 	beq.w	80072bc <_dtoa_r+0x43c>
 80073dc:	e9dd 010e 	ldrd	r0, r1, [sp, #56]	@ 0x38
 80073e0:	4b0a      	ldr	r3, [pc, #40]	@ (800740c <_dtoa_r+0x58c>)
 80073e2:	2200      	movs	r2, #0
 80073e4:	f7f9 f910 	bl	8000608 <__aeabi_dmul>
 80073e8:	4b08      	ldr	r3, [pc, #32]	@ (800740c <_dtoa_r+0x58c>)
 80073ea:	e9cd 010e 	strd	r0, r1, [sp, #56]	@ 0x38
 80073ee:	2200      	movs	r2, #0
 80073f0:	e9dd 0104 	ldrd	r0, r1, [sp, #16]
 80073f4:	f7f9 f908 	bl	8000608 <__aeabi_dmul>
 80073f8:	e9cd 0104 	strd	r0, r1, [sp, #16]
 80073fc:	e7c4      	b.n	8007388 <_dtoa_r+0x508>
 80073fe:	bf00      	nop
 8007400:	080096c0 	.word	0x080096c0
 8007404:	08009698 	.word	0x08009698
 8007408:	3ff00000 	.word	0x3ff00000
 800740c:	40240000 	.word	0x40240000
 8007410:	401c0000 	.word	0x401c0000
 8007414:	40140000 	.word	0x40140000
 8007418:	3fe00000 	.word	0x3fe00000
 800741c:	4631      	mov	r1, r6
 800741e:	4628      	mov	r0, r5
 8007420:	f7f9 f8f2 	bl	8000608 <__aeabi_dmul>
 8007424:	e9cd 010e 	strd	r0, r1, [sp, #56]	@ 0x38
 8007428:	9413      	str	r4, [sp, #76]	@ 0x4c
 800742a:	4656      	mov	r6, sl
 800742c:	e9dd 0104 	ldrd	r0, r1, [sp, #16]
 8007430:	f7f9 fb9a 	bl	8000b68 <__aeabi_d2iz>
 8007434:	4605      	mov	r5, r0
 8007436:	f7f9 f87d 	bl	8000534 <__aeabi_i2d>
 800743a:	4602      	mov	r2, r0
 800743c:	460b      	mov	r3, r1
 800743e:	e9dd 0104 	ldrd	r0, r1, [sp, #16]
 8007442:	f7f8 ff29 	bl	8000298 <__aeabi_dsub>
 8007446:	3530      	adds	r5, #48	@ 0x30
 8007448:	f806 5b01 	strb.w	r5, [r6], #1
 800744c:	4602      	mov	r2, r0
 800744e:	460b      	mov	r3, r1
 8007450:	42a6      	cmp	r6, r4
 8007452:	e9cd 2304 	strd	r2, r3, [sp, #16]
 8007456:	f04f 0200 	mov.w	r2, #0
 800745a:	d124      	bne.n	80074a6 <_dtoa_r+0x626>
 800745c:	4baf      	ldr	r3, [pc, #700]	@ (800771c <_dtoa_r+0x89c>)
 800745e:	e9dd 010e 	ldrd	r0, r1, [sp, #56]	@ 0x38
 8007462:	f7f8 ff1b 	bl	800029c <__adddf3>
 8007466:	4602      	mov	r2, r0
 8007468:	460b      	mov	r3, r1
 800746a:	e9dd 0104 	ldrd	r0, r1, [sp, #16]
 800746e:	f7f9 fb5b 	bl	8000b28 <__aeabi_dcmpgt>
 8007472:	2800      	cmp	r0, #0
 8007474:	d163      	bne.n	800753e <_dtoa_r+0x6be>
 8007476:	e9dd 230e 	ldrd	r2, r3, [sp, #56]	@ 0x38
 800747a:	49a8      	ldr	r1, [pc, #672]	@ (800771c <_dtoa_r+0x89c>)
 800747c:	2000      	movs	r0, #0
 800747e:	f7f8 ff0b 	bl	8000298 <__aeabi_dsub>
 8007482:	4602      	mov	r2, r0
 8007484:	460b      	mov	r3, r1
 8007486:	e9dd 0104 	ldrd	r0, r1, [sp, #16]
 800748a:	f7f9 fb2f 	bl	8000aec <__aeabi_dcmplt>
 800748e:	2800      	cmp	r0, #0
 8007490:	f43f af14 	beq.w	80072bc <_dtoa_r+0x43c>
 8007494:	9e13      	ldr	r6, [sp, #76]	@ 0x4c
 8007496:	1e73      	subs	r3, r6, #1
 8007498:	9313      	str	r3, [sp, #76]	@ 0x4c
 800749a:	f816 3c01 	ldrb.w	r3, [r6, #-1]
 800749e:	2b30      	cmp	r3, #48	@ 0x30
 80074a0:	d0f8      	beq.n	8007494 <_dtoa_r+0x614>
 80074a2:	4647      	mov	r7, r8
 80074a4:	e03b      	b.n	800751e <_dtoa_r+0x69e>
 80074a6:	4b9e      	ldr	r3, [pc, #632]	@ (8007720 <_dtoa_r+0x8a0>)
 80074a8:	f7f9 f8ae 	bl	8000608 <__aeabi_dmul>
 80074ac:	e9cd 0104 	strd	r0, r1, [sp, #16]
 80074b0:	e7bc      	b.n	800742c <_dtoa_r+0x5ac>
 80074b2:	e9dd 4504 	ldrd	r4, r5, [sp, #16]
 80074b6:	4656      	mov	r6, sl
 80074b8:	e9dd 2300 	ldrd	r2, r3, [sp]
 80074bc:	4620      	mov	r0, r4
 80074be:	4629      	mov	r1, r5
 80074c0:	f7f9 f9cc 	bl	800085c <__aeabi_ddiv>
 80074c4:	f7f9 fb50 	bl	8000b68 <__aeabi_d2iz>
 80074c8:	4680      	mov	r8, r0
 80074ca:	f7f9 f833 	bl	8000534 <__aeabi_i2d>
 80074ce:	e9dd 2300 	ldrd	r2, r3, [sp]
 80074d2:	f7f9 f899 	bl	8000608 <__aeabi_dmul>
 80074d6:	4602      	mov	r2, r0
 80074d8:	460b      	mov	r3, r1
 80074da:	4620      	mov	r0, r4
 80074dc:	4629      	mov	r1, r5
 80074de:	f108 0430 	add.w	r4, r8, #48	@ 0x30
 80074e2:	f7f8 fed9 	bl	8000298 <__aeabi_dsub>
 80074e6:	f806 4b01 	strb.w	r4, [r6], #1
 80074ea:	9d03      	ldr	r5, [sp, #12]
 80074ec:	eba6 040a 	sub.w	r4, r6, sl
 80074f0:	42a5      	cmp	r5, r4
 80074f2:	4602      	mov	r2, r0
 80074f4:	460b      	mov	r3, r1
 80074f6:	d133      	bne.n	8007560 <_dtoa_r+0x6e0>
 80074f8:	f7f8 fed0 	bl	800029c <__adddf3>
 80074fc:	e9dd 2300 	ldrd	r2, r3, [sp]
 8007500:	4604      	mov	r4, r0
 8007502:	460d      	mov	r5, r1
 8007504:	f7f9 fb10 	bl	8000b28 <__aeabi_dcmpgt>
 8007508:	b9c0      	cbnz	r0, 800753c <_dtoa_r+0x6bc>
 800750a:	e9dd 2300 	ldrd	r2, r3, [sp]
 800750e:	4620      	mov	r0, r4
 8007510:	4629      	mov	r1, r5
 8007512:	f7f9 fae1 	bl	8000ad8 <__aeabi_dcmpeq>
 8007516:	b110      	cbz	r0, 800751e <_dtoa_r+0x69e>
 8007518:	f018 0f01 	tst.w	r8, #1
 800751c:	d10e      	bne.n	800753c <_dtoa_r+0x6bc>
 800751e:	9902      	ldr	r1, [sp, #8]
 8007520:	4648      	mov	r0, r9
 8007522:	f000 ff09 	bl	8008338 <_Bfree>
 8007526:	2300      	movs	r3, #0
 8007528:	7033      	strb	r3, [r6, #0]
 800752a:	9b11      	ldr	r3, [sp, #68]	@ 0x44
 800752c:	3701      	adds	r7, #1
 800752e:	601f      	str	r7, [r3, #0]
 8007530:	9b21      	ldr	r3, [sp, #132]	@ 0x84
 8007532:	2b00      	cmp	r3, #0
 8007534:	f000 824b 	beq.w	80079ce <_dtoa_r+0xb4e>
 8007538:	601e      	str	r6, [r3, #0]
 800753a:	e248      	b.n	80079ce <_dtoa_r+0xb4e>
 800753c:	46b8      	mov	r8, r7
 800753e:	4633      	mov	r3, r6
 8007540:	461e      	mov	r6, r3
 8007542:	f813 2d01 	ldrb.w	r2, [r3, #-1]!
 8007546:	2a39      	cmp	r2, #57	@ 0x39
 8007548:	d106      	bne.n	8007558 <_dtoa_r+0x6d8>
 800754a:	459a      	cmp	sl, r3
 800754c:	d1f8      	bne.n	8007540 <_dtoa_r+0x6c0>
 800754e:	2230      	movs	r2, #48	@ 0x30
 8007550:	f108 0801 	add.w	r8, r8, #1
 8007554:	f88a 2000 	strb.w	r2, [sl]
 8007558:	781a      	ldrb	r2, [r3, #0]
 800755a:	3201      	adds	r2, #1
 800755c:	701a      	strb	r2, [r3, #0]
 800755e:	e7a0      	b.n	80074a2 <_dtoa_r+0x622>
 8007560:	4b6f      	ldr	r3, [pc, #444]	@ (8007720 <_dtoa_r+0x8a0>)
 8007562:	2200      	movs	r2, #0
 8007564:	f7f9 f850 	bl	8000608 <__aeabi_dmul>
 8007568:	2200      	movs	r2, #0
 800756a:	2300      	movs	r3, #0
 800756c:	4604      	mov	r4, r0
 800756e:	460d      	mov	r5, r1
 8007570:	f7f9 fab2 	bl	8000ad8 <__aeabi_dcmpeq>
 8007574:	2800      	cmp	r0, #0
 8007576:	d09f      	beq.n	80074b8 <_dtoa_r+0x638>
 8007578:	e7d1      	b.n	800751e <_dtoa_r+0x69e>
 800757a:	9a09      	ldr	r2, [sp, #36]	@ 0x24
 800757c:	2a00      	cmp	r2, #0
 800757e:	f000 80ea 	beq.w	8007756 <_dtoa_r+0x8d6>
 8007582:	9a07      	ldr	r2, [sp, #28]
 8007584:	2a01      	cmp	r2, #1
 8007586:	f300 80cd 	bgt.w	8007724 <_dtoa_r+0x8a4>
 800758a:	9a12      	ldr	r2, [sp, #72]	@ 0x48
 800758c:	2a00      	cmp	r2, #0
 800758e:	f000 80c1 	beq.w	8007714 <_dtoa_r+0x894>
 8007592:	f203 4333 	addw	r3, r3, #1075	@ 0x433
 8007596:	9c08      	ldr	r4, [sp, #32]
 8007598:	9e00      	ldr	r6, [sp, #0]
 800759a:	9a00      	ldr	r2, [sp, #0]
 800759c:	441a      	add	r2, r3
 800759e:	9200      	str	r2, [sp, #0]
 80075a0:	9a06      	ldr	r2, [sp, #24]
 80075a2:	2101      	movs	r1, #1
 80075a4:	441a      	add	r2, r3
 80075a6:	4648      	mov	r0, r9
 80075a8:	9206      	str	r2, [sp, #24]
 80075aa:	f000 ffc3 	bl	8008534 <__i2b>
 80075ae:	4605      	mov	r5, r0
 80075b0:	b166      	cbz	r6, 80075cc <_dtoa_r+0x74c>
 80075b2:	9b06      	ldr	r3, [sp, #24]
 80075b4:	2b00      	cmp	r3, #0
 80075b6:	dd09      	ble.n	80075cc <_dtoa_r+0x74c>
 80075b8:	42b3      	cmp	r3, r6
 80075ba:	9a00      	ldr	r2, [sp, #0]
 80075bc:	bfa8      	it	ge
 80075be:	4633      	movge	r3, r6
 80075c0:	1ad2      	subs	r2, r2, r3
 80075c2:	9200      	str	r2, [sp, #0]
 80075c4:	9a06      	ldr	r2, [sp, #24]
 80075c6:	1af6      	subs	r6, r6, r3
 80075c8:	1ad3      	subs	r3, r2, r3
 80075ca:	9306      	str	r3, [sp, #24]
 80075cc:	9b08      	ldr	r3, [sp, #32]
 80075ce:	b30b      	cbz	r3, 8007614 <_dtoa_r+0x794>
 80075d0:	9b09      	ldr	r3, [sp, #36]	@ 0x24
 80075d2:	2b00      	cmp	r3, #0
 80075d4:	f000 80c6 	beq.w	8007764 <_dtoa_r+0x8e4>
 80075d8:	2c00      	cmp	r4, #0
 80075da:	f000 80c0 	beq.w	800775e <_dtoa_r+0x8de>
 80075de:	4629      	mov	r1, r5
 80075e0:	4622      	mov	r2, r4
 80075e2:	4648      	mov	r0, r9
 80075e4:	f001 f85e 	bl	80086a4 <__pow5mult>
 80075e8:	9a02      	ldr	r2, [sp, #8]
 80075ea:	4601      	mov	r1, r0
 80075ec:	4605      	mov	r5, r0
 80075ee:	4648      	mov	r0, r9
 80075f0:	f000 ffb6 	bl	8008560 <__multiply>
 80075f4:	9902      	ldr	r1, [sp, #8]
 80075f6:	4680      	mov	r8, r0
 80075f8:	4648      	mov	r0, r9
 80075fa:	f000 fe9d 	bl	8008338 <_Bfree>
 80075fe:	9b08      	ldr	r3, [sp, #32]
 8007600:	1b1b      	subs	r3, r3, r4
 8007602:	9308      	str	r3, [sp, #32]
 8007604:	f000 80b1 	beq.w	800776a <_dtoa_r+0x8ea>
 8007608:	9a08      	ldr	r2, [sp, #32]
 800760a:	4641      	mov	r1, r8
 800760c:	4648      	mov	r0, r9
 800760e:	f001 f849 	bl	80086a4 <__pow5mult>
 8007612:	9002      	str	r0, [sp, #8]
 8007614:	2101      	movs	r1, #1
 8007616:	4648      	mov	r0, r9
 8007618:	f000 ff8c 	bl	8008534 <__i2b>
 800761c:	9b0d      	ldr	r3, [sp, #52]	@ 0x34
 800761e:	4604      	mov	r4, r0
 8007620:	2b00      	cmp	r3, #0
 8007622:	f000 81d8 	beq.w	80079d6 <_dtoa_r+0xb56>
 8007626:	461a      	mov	r2, r3
 8007628:	4601      	mov	r1, r0
 800762a:	4648      	mov	r0, r9
 800762c:	f001 f83a 	bl	80086a4 <__pow5mult>
 8007630:	9b07      	ldr	r3, [sp, #28]
 8007632:	2b01      	cmp	r3, #1
 8007634:	4604      	mov	r4, r0
 8007636:	f300 809f 	bgt.w	8007778 <_dtoa_r+0x8f8>
 800763a:	9b04      	ldr	r3, [sp, #16]
 800763c:	2b00      	cmp	r3, #0
 800763e:	f040 8097 	bne.w	8007770 <_dtoa_r+0x8f0>
 8007642:	9b05      	ldr	r3, [sp, #20]
 8007644:	f3c3 0313 	ubfx	r3, r3, #0, #20
 8007648:	2b00      	cmp	r3, #0
 800764a:	f040 8093 	bne.w	8007774 <_dtoa_r+0x8f4>
 800764e:	9b05      	ldr	r3, [sp, #20]
 8007650:	f023 4300 	bic.w	r3, r3, #2147483648	@ 0x80000000
 8007654:	0d1b      	lsrs	r3, r3, #20
 8007656:	051b      	lsls	r3, r3, #20
 8007658:	b133      	cbz	r3, 8007668 <_dtoa_r+0x7e8>
 800765a:	9b00      	ldr	r3, [sp, #0]
 800765c:	3301      	adds	r3, #1
 800765e:	9300      	str	r3, [sp, #0]
 8007660:	9b06      	ldr	r3, [sp, #24]
 8007662:	3301      	adds	r3, #1
 8007664:	9306      	str	r3, [sp, #24]
 8007666:	2301      	movs	r3, #1
 8007668:	9308      	str	r3, [sp, #32]
 800766a:	9b0d      	ldr	r3, [sp, #52]	@ 0x34
 800766c:	2b00      	cmp	r3, #0
 800766e:	f000 81b8 	beq.w	80079e2 <_dtoa_r+0xb62>
 8007672:	6923      	ldr	r3, [r4, #16]
 8007674:	eb04 0383 	add.w	r3, r4, r3, lsl #2
 8007678:	6918      	ldr	r0, [r3, #16]
 800767a:	f000 ff0f 	bl	800849c <__hi0bits>
 800767e:	f1c0 0020 	rsb	r0, r0, #32
 8007682:	9b06      	ldr	r3, [sp, #24]
 8007684:	4418      	add	r0, r3
 8007686:	f010 001f 	ands.w	r0, r0, #31
 800768a:	f000 8082 	beq.w	8007792 <_dtoa_r+0x912>
 800768e:	f1c0 0320 	rsb	r3, r0, #32
 8007692:	2b04      	cmp	r3, #4
 8007694:	dd73      	ble.n	800777e <_dtoa_r+0x8fe>
 8007696:	9b00      	ldr	r3, [sp, #0]
 8007698:	f1c0 001c 	rsb	r0, r0, #28
 800769c:	4403      	add	r3, r0
 800769e:	9300      	str	r3, [sp, #0]
 80076a0:	9b06      	ldr	r3, [sp, #24]
 80076a2:	4403      	add	r3, r0
 80076a4:	4406      	add	r6, r0
 80076a6:	9306      	str	r3, [sp, #24]
 80076a8:	9b00      	ldr	r3, [sp, #0]
 80076aa:	2b00      	cmp	r3, #0
 80076ac:	dd05      	ble.n	80076ba <_dtoa_r+0x83a>
 80076ae:	9902      	ldr	r1, [sp, #8]
 80076b0:	461a      	mov	r2, r3
 80076b2:	4648      	mov	r0, r9
 80076b4:	f001 f850 	bl	8008758 <__lshift>
 80076b8:	9002      	str	r0, [sp, #8]
 80076ba:	9b06      	ldr	r3, [sp, #24]
 80076bc:	2b00      	cmp	r3, #0
 80076be:	dd05      	ble.n	80076cc <_dtoa_r+0x84c>
 80076c0:	4621      	mov	r1, r4
 80076c2:	461a      	mov	r2, r3
 80076c4:	4648      	mov	r0, r9
 80076c6:	f001 f847 	bl	8008758 <__lshift>
 80076ca:	4604      	mov	r4, r0
 80076cc:	9b10      	ldr	r3, [sp, #64]	@ 0x40
 80076ce:	2b00      	cmp	r3, #0
 80076d0:	d061      	beq.n	8007796 <_dtoa_r+0x916>
 80076d2:	9802      	ldr	r0, [sp, #8]
 80076d4:	4621      	mov	r1, r4
 80076d6:	f001 f8ab 	bl	8008830 <__mcmp>
 80076da:	2800      	cmp	r0, #0
 80076dc:	da5b      	bge.n	8007796 <_dtoa_r+0x916>
 80076de:	2300      	movs	r3, #0
 80076e0:	9902      	ldr	r1, [sp, #8]
 80076e2:	220a      	movs	r2, #10
 80076e4:	4648      	mov	r0, r9
 80076e6:	f000 fe49 	bl	800837c <__multadd>
 80076ea:	9b09      	ldr	r3, [sp, #36]	@ 0x24
 80076ec:	9002      	str	r0, [sp, #8]
 80076ee:	f107 38ff 	add.w	r8, r7, #4294967295
 80076f2:	2b00      	cmp	r3, #0
 80076f4:	f000 8177 	beq.w	80079e6 <_dtoa_r+0xb66>
 80076f8:	4629      	mov	r1, r5
 80076fa:	2300      	movs	r3, #0
 80076fc:	220a      	movs	r2, #10
 80076fe:	4648      	mov	r0, r9
 8007700:	f000 fe3c 	bl	800837c <__multadd>
 8007704:	f1bb 0f00 	cmp.w	fp, #0
 8007708:	4605      	mov	r5, r0
 800770a:	dc6f      	bgt.n	80077ec <_dtoa_r+0x96c>
 800770c:	9b07      	ldr	r3, [sp, #28]
 800770e:	2b02      	cmp	r3, #2
 8007710:	dc49      	bgt.n	80077a6 <_dtoa_r+0x926>
 8007712:	e06b      	b.n	80077ec <_dtoa_r+0x96c>
 8007714:	9b14      	ldr	r3, [sp, #80]	@ 0x50
 8007716:	f1c3 0336 	rsb	r3, r3, #54	@ 0x36
 800771a:	e73c      	b.n	8007596 <_dtoa_r+0x716>
 800771c:	3fe00000 	.word	0x3fe00000
 8007720:	40240000 	.word	0x40240000
 8007724:	9b03      	ldr	r3, [sp, #12]
 8007726:	1e5c      	subs	r4, r3, #1
 8007728:	9b08      	ldr	r3, [sp, #32]
 800772a:	42a3      	cmp	r3, r4
 800772c:	db09      	blt.n	8007742 <_dtoa_r+0x8c2>
 800772e:	1b1c      	subs	r4, r3, r4
 8007730:	9b03      	ldr	r3, [sp, #12]
 8007732:	2b00      	cmp	r3, #0
 8007734:	f6bf af30 	bge.w	8007598 <_dtoa_r+0x718>
 8007738:	9b00      	ldr	r3, [sp, #0]
 800773a:	9a03      	ldr	r2, [sp, #12]
 800773c:	1a9e      	subs	r6, r3, r2
 800773e:	2300      	movs	r3, #0
 8007740:	e72b      	b.n	800759a <_dtoa_r+0x71a>
 8007742:	9b08      	ldr	r3, [sp, #32]
 8007744:	9a0d      	ldr	r2, [sp, #52]	@ 0x34
 8007746:	9408      	str	r4, [sp, #32]
 8007748:	1ae3      	subs	r3, r4, r3
 800774a:	441a      	add	r2, r3
 800774c:	9e00      	ldr	r6, [sp, #0]
 800774e:	9b03      	ldr	r3, [sp, #12]
 8007750:	920d      	str	r2, [sp, #52]	@ 0x34
 8007752:	2400      	movs	r4, #0
 8007754:	e721      	b.n	800759a <_dtoa_r+0x71a>
 8007756:	9c08      	ldr	r4, [sp, #32]
 8007758:	9e00      	ldr	r6, [sp, #0]
 800775a:	9d09      	ldr	r5, [sp, #36]	@ 0x24
 800775c:	e728      	b.n	80075b0 <_dtoa_r+0x730>
 800775e:	f8dd 8008 	ldr.w	r8, [sp, #8]
 8007762:	e751      	b.n	8007608 <_dtoa_r+0x788>
 8007764:	9a08      	ldr	r2, [sp, #32]
 8007766:	9902      	ldr	r1, [sp, #8]
 8007768:	e750      	b.n	800760c <_dtoa_r+0x78c>
 800776a:	f8cd 8008 	str.w	r8, [sp, #8]
 800776e:	e751      	b.n	8007614 <_dtoa_r+0x794>
 8007770:	2300      	movs	r3, #0
 8007772:	e779      	b.n	8007668 <_dtoa_r+0x7e8>
 8007774:	9b04      	ldr	r3, [sp, #16]
 8007776:	e777      	b.n	8007668 <_dtoa_r+0x7e8>
 8007778:	2300      	movs	r3, #0
 800777a:	9308      	str	r3, [sp, #32]
 800777c:	e779      	b.n	8007672 <_dtoa_r+0x7f2>
 800777e:	d093      	beq.n	80076a8 <_dtoa_r+0x828>
 8007780:	9a00      	ldr	r2, [sp, #0]
 8007782:	331c      	adds	r3, #28
 8007784:	441a      	add	r2, r3
 8007786:	9200      	str	r2, [sp, #0]
 8007788:	9a06      	ldr	r2, [sp, #24]
 800778a:	441a      	add	r2, r3
 800778c:	441e      	add	r6, r3
 800778e:	9206      	str	r2, [sp, #24]
 8007790:	e78a      	b.n	80076a8 <_dtoa_r+0x828>
 8007792:	4603      	mov	r3, r0
 8007794:	e7f4      	b.n	8007780 <_dtoa_r+0x900>
 8007796:	9b03      	ldr	r3, [sp, #12]
 8007798:	2b00      	cmp	r3, #0
 800779a:	46b8      	mov	r8, r7
 800779c:	dc20      	bgt.n	80077e0 <_dtoa_r+0x960>
 800779e:	469b      	mov	fp, r3
 80077a0:	9b07      	ldr	r3, [sp, #28]
 80077a2:	2b02      	cmp	r3, #2
 80077a4:	dd1e      	ble.n	80077e4 <_dtoa_r+0x964>
 80077a6:	f1bb 0f00 	cmp.w	fp, #0
 80077aa:	f47f adb1 	bne.w	8007310 <_dtoa_r+0x490>
 80077ae:	4621      	mov	r1, r4
 80077b0:	465b      	mov	r3, fp
 80077b2:	2205      	movs	r2, #5
 80077b4:	4648      	mov	r0, r9
 80077b6:	f000 fde1 	bl	800837c <__multadd>
 80077ba:	4601      	mov	r1, r0
 80077bc:	4604      	mov	r4, r0
 80077be:	9802      	ldr	r0, [sp, #8]
 80077c0:	f001 f836 	bl	8008830 <__mcmp>
 80077c4:	2800      	cmp	r0, #0
 80077c6:	f77f ada3 	ble.w	8007310 <_dtoa_r+0x490>
 80077ca:	4656      	mov	r6, sl
 80077cc:	2331      	movs	r3, #49	@ 0x31
 80077ce:	f806 3b01 	strb.w	r3, [r6], #1
 80077d2:	f108 0801 	add.w	r8, r8, #1
 80077d6:	e59f      	b.n	8007318 <_dtoa_r+0x498>
 80077d8:	9c03      	ldr	r4, [sp, #12]
 80077da:	46b8      	mov	r8, r7
 80077dc:	4625      	mov	r5, r4
 80077de:	e7f4      	b.n	80077ca <_dtoa_r+0x94a>
 80077e0:	f8dd b00c 	ldr.w	fp, [sp, #12]
 80077e4:	9b09      	ldr	r3, [sp, #36]	@ 0x24
 80077e6:	2b00      	cmp	r3, #0
 80077e8:	f000 8101 	beq.w	80079ee <_dtoa_r+0xb6e>
 80077ec:	2e00      	cmp	r6, #0
 80077ee:	dd05      	ble.n	80077fc <_dtoa_r+0x97c>
 80077f0:	4629      	mov	r1, r5
 80077f2:	4632      	mov	r2, r6
 80077f4:	4648      	mov	r0, r9
 80077f6:	f000 ffaf 	bl	8008758 <__lshift>
 80077fa:	4605      	mov	r5, r0
 80077fc:	9b08      	ldr	r3, [sp, #32]
 80077fe:	2b00      	cmp	r3, #0
 8007800:	d05c      	beq.n	80078bc <_dtoa_r+0xa3c>
 8007802:	6869      	ldr	r1, [r5, #4]
 8007804:	4648      	mov	r0, r9
 8007806:	f000 fd57 	bl	80082b8 <_Balloc>
 800780a:	4606      	mov	r6, r0
 800780c:	b928      	cbnz	r0, 800781a <_dtoa_r+0x99a>
 800780e:	4b82      	ldr	r3, [pc, #520]	@ (8007a18 <_dtoa_r+0xb98>)
 8007810:	4602      	mov	r2, r0
 8007812:	f240 21ef 	movw	r1, #751	@ 0x2ef
 8007816:	f7ff bb4a 	b.w	8006eae <_dtoa_r+0x2e>
 800781a:	692a      	ldr	r2, [r5, #16]
 800781c:	3202      	adds	r2, #2
 800781e:	0092      	lsls	r2, r2, #2
 8007820:	f105 010c 	add.w	r1, r5, #12
 8007824:	300c      	adds	r0, #12
 8007826:	f7ff fa8c 	bl	8006d42 <memcpy>
 800782a:	2201      	movs	r2, #1
 800782c:	4631      	mov	r1, r6
 800782e:	4648      	mov	r0, r9
 8007830:	f000 ff92 	bl	8008758 <__lshift>
 8007834:	f10a 0301 	add.w	r3, sl, #1
 8007838:	9300      	str	r3, [sp, #0]
 800783a:	eb0a 030b 	add.w	r3, sl, fp
 800783e:	9308      	str	r3, [sp, #32]
 8007840:	9b04      	ldr	r3, [sp, #16]
 8007842:	f003 0301 	and.w	r3, r3, #1
 8007846:	462f      	mov	r7, r5
 8007848:	9306      	str	r3, [sp, #24]
 800784a:	4605      	mov	r5, r0
 800784c:	9b00      	ldr	r3, [sp, #0]
 800784e:	9802      	ldr	r0, [sp, #8]
 8007850:	4621      	mov	r1, r4
 8007852:	f103 3bff 	add.w	fp, r3, #4294967295
 8007856:	f7ff fa8b 	bl	8006d70 <quorem>
 800785a:	4603      	mov	r3, r0
 800785c:	3330      	adds	r3, #48	@ 0x30
 800785e:	9003      	str	r0, [sp, #12]
 8007860:	4639      	mov	r1, r7
 8007862:	9802      	ldr	r0, [sp, #8]
 8007864:	9309      	str	r3, [sp, #36]	@ 0x24
 8007866:	f000 ffe3 	bl	8008830 <__mcmp>
 800786a:	462a      	mov	r2, r5
 800786c:	9004      	str	r0, [sp, #16]
 800786e:	4621      	mov	r1, r4
 8007870:	4648      	mov	r0, r9
 8007872:	f000 fff9 	bl	8008868 <__mdiff>
 8007876:	68c2      	ldr	r2, [r0, #12]
 8007878:	9b09      	ldr	r3, [sp, #36]	@ 0x24
 800787a:	4606      	mov	r6, r0
 800787c:	bb02      	cbnz	r2, 80078c0 <_dtoa_r+0xa40>
 800787e:	4601      	mov	r1, r0
 8007880:	9802      	ldr	r0, [sp, #8]
 8007882:	f000 ffd5 	bl	8008830 <__mcmp>
 8007886:	9b09      	ldr	r3, [sp, #36]	@ 0x24
 8007888:	4602      	mov	r2, r0
 800788a:	4631      	mov	r1, r6
 800788c:	4648      	mov	r0, r9
 800788e:	920c      	str	r2, [sp, #48]	@ 0x30
 8007890:	9309      	str	r3, [sp, #36]	@ 0x24
 8007892:	f000 fd51 	bl	8008338 <_Bfree>
 8007896:	9b07      	ldr	r3, [sp, #28]
 8007898:	9a0c      	ldr	r2, [sp, #48]	@ 0x30
 800789a:	9e00      	ldr	r6, [sp, #0]
 800789c:	ea42 0103 	orr.w	r1, r2, r3
 80078a0:	9b06      	ldr	r3, [sp, #24]
 80078a2:	4319      	orrs	r1, r3
 80078a4:	9b09      	ldr	r3, [sp, #36]	@ 0x24
 80078a6:	d10d      	bne.n	80078c4 <_dtoa_r+0xa44>
 80078a8:	2b39      	cmp	r3, #57	@ 0x39
 80078aa:	d027      	beq.n	80078fc <_dtoa_r+0xa7c>
 80078ac:	9a04      	ldr	r2, [sp, #16]
 80078ae:	2a00      	cmp	r2, #0
 80078b0:	dd01      	ble.n	80078b6 <_dtoa_r+0xa36>
 80078b2:	9b03      	ldr	r3, [sp, #12]
 80078b4:	3331      	adds	r3, #49	@ 0x31
 80078b6:	f88b 3000 	strb.w	r3, [fp]
 80078ba:	e52e      	b.n	800731a <_dtoa_r+0x49a>
 80078bc:	4628      	mov	r0, r5
 80078be:	e7b9      	b.n	8007834 <_dtoa_r+0x9b4>
 80078c0:	2201      	movs	r2, #1
 80078c2:	e7e2      	b.n	800788a <_dtoa_r+0xa0a>
 80078c4:	9904      	ldr	r1, [sp, #16]
 80078c6:	2900      	cmp	r1, #0
 80078c8:	db04      	blt.n	80078d4 <_dtoa_r+0xa54>
 80078ca:	9807      	ldr	r0, [sp, #28]
 80078cc:	4301      	orrs	r1, r0
 80078ce:	9806      	ldr	r0, [sp, #24]
 80078d0:	4301      	orrs	r1, r0
 80078d2:	d120      	bne.n	8007916 <_dtoa_r+0xa96>
 80078d4:	2a00      	cmp	r2, #0
 80078d6:	ddee      	ble.n	80078b6 <_dtoa_r+0xa36>
 80078d8:	9902      	ldr	r1, [sp, #8]
 80078da:	9300      	str	r3, [sp, #0]
 80078dc:	2201      	movs	r2, #1
 80078de:	4648      	mov	r0, r9
 80078e0:	f000 ff3a 	bl	8008758 <__lshift>
 80078e4:	4621      	mov	r1, r4
 80078e6:	9002      	str	r0, [sp, #8]
 80078e8:	f000 ffa2 	bl	8008830 <__mcmp>
 80078ec:	2800      	cmp	r0, #0
 80078ee:	9b00      	ldr	r3, [sp, #0]
 80078f0:	dc02      	bgt.n	80078f8 <_dtoa_r+0xa78>
 80078f2:	d1e0      	bne.n	80078b6 <_dtoa_r+0xa36>
 80078f4:	07da      	lsls	r2, r3, #31
 80078f6:	d5de      	bpl.n	80078b6 <_dtoa_r+0xa36>
 80078f8:	2b39      	cmp	r3, #57	@ 0x39
 80078fa:	d1da      	bne.n	80078b2 <_dtoa_r+0xa32>
 80078fc:	2339      	movs	r3, #57	@ 0x39
 80078fe:	f88b 3000 	strb.w	r3, [fp]
 8007902:	4633      	mov	r3, r6
 8007904:	461e      	mov	r6, r3
 8007906:	3b01      	subs	r3, #1
 8007908:	f816 2c01 	ldrb.w	r2, [r6, #-1]
 800790c:	2a39      	cmp	r2, #57	@ 0x39
 800790e:	d04e      	beq.n	80079ae <_dtoa_r+0xb2e>
 8007910:	3201      	adds	r2, #1
 8007912:	701a      	strb	r2, [r3, #0]
 8007914:	e501      	b.n	800731a <_dtoa_r+0x49a>
 8007916:	2a00      	cmp	r2, #0
 8007918:	dd03      	ble.n	8007922 <_dtoa_r+0xaa2>
 800791a:	2b39      	cmp	r3, #57	@ 0x39
 800791c:	d0ee      	beq.n	80078fc <_dtoa_r+0xa7c>
 800791e:	3301      	adds	r3, #1
 8007920:	e7c9      	b.n	80078b6 <_dtoa_r+0xa36>
 8007922:	9a00      	ldr	r2, [sp, #0]
 8007924:	9908      	ldr	r1, [sp, #32]
 8007926:	f802 3c01 	strb.w	r3, [r2, #-1]
 800792a:	428a      	cmp	r2, r1
 800792c:	d028      	beq.n	8007980 <_dtoa_r+0xb00>
 800792e:	9902      	ldr	r1, [sp, #8]
 8007930:	2300      	movs	r3, #0
 8007932:	220a      	movs	r2, #10
 8007934:	4648      	mov	r0, r9
 8007936:	f000 fd21 	bl	800837c <__multadd>
 800793a:	42af      	cmp	r7, r5
 800793c:	9002      	str	r0, [sp, #8]
 800793e:	f04f 0300 	mov.w	r3, #0
 8007942:	f04f 020a 	mov.w	r2, #10
 8007946:	4639      	mov	r1, r7
 8007948:	4648      	mov	r0, r9
 800794a:	d107      	bne.n	800795c <_dtoa_r+0xadc>
 800794c:	f000 fd16 	bl	800837c <__multadd>
 8007950:	4607      	mov	r7, r0
 8007952:	4605      	mov	r5, r0
 8007954:	9b00      	ldr	r3, [sp, #0]
 8007956:	3301      	adds	r3, #1
 8007958:	9300      	str	r3, [sp, #0]
 800795a:	e777      	b.n	800784c <_dtoa_r+0x9cc>
 800795c:	f000 fd0e 	bl	800837c <__multadd>
 8007960:	4629      	mov	r1, r5
 8007962:	4607      	mov	r7, r0
 8007964:	2300      	movs	r3, #0
 8007966:	220a      	movs	r2, #10
 8007968:	4648      	mov	r0, r9
 800796a:	f000 fd07 	bl	800837c <__multadd>
 800796e:	4605      	mov	r5, r0
 8007970:	e7f0      	b.n	8007954 <_dtoa_r+0xad4>
 8007972:	f1bb 0f00 	cmp.w	fp, #0
 8007976:	bfcc      	ite	gt
 8007978:	465e      	movgt	r6, fp
 800797a:	2601      	movle	r6, #1
 800797c:	4456      	add	r6, sl
 800797e:	2700      	movs	r7, #0
 8007980:	9902      	ldr	r1, [sp, #8]
 8007982:	9300      	str	r3, [sp, #0]
 8007984:	2201      	movs	r2, #1
 8007986:	4648      	mov	r0, r9
 8007988:	f000 fee6 	bl	8008758 <__lshift>
 800798c:	4621      	mov	r1, r4
 800798e:	9002      	str	r0, [sp, #8]
 8007990:	f000 ff4e 	bl	8008830 <__mcmp>
 8007994:	2800      	cmp	r0, #0
 8007996:	dcb4      	bgt.n	8007902 <_dtoa_r+0xa82>
 8007998:	d102      	bne.n	80079a0 <_dtoa_r+0xb20>
 800799a:	9b00      	ldr	r3, [sp, #0]
 800799c:	07db      	lsls	r3, r3, #31
 800799e:	d4b0      	bmi.n	8007902 <_dtoa_r+0xa82>
 80079a0:	4633      	mov	r3, r6
 80079a2:	461e      	mov	r6, r3
 80079a4:	f813 2d01 	ldrb.w	r2, [r3, #-1]!
 80079a8:	2a30      	cmp	r2, #48	@ 0x30
 80079aa:	d0fa      	beq.n	80079a2 <_dtoa_r+0xb22>
 80079ac:	e4b5      	b.n	800731a <_dtoa_r+0x49a>
 80079ae:	459a      	cmp	sl, r3
 80079b0:	d1a8      	bne.n	8007904 <_dtoa_r+0xa84>
 80079b2:	2331      	movs	r3, #49	@ 0x31
 80079b4:	f108 0801 	add.w	r8, r8, #1
 80079b8:	f88a 3000 	strb.w	r3, [sl]
 80079bc:	e4ad      	b.n	800731a <_dtoa_r+0x49a>
 80079be:	9b21      	ldr	r3, [sp, #132]	@ 0x84
 80079c0:	f8df a058 	ldr.w	sl, [pc, #88]	@ 8007a1c <_dtoa_r+0xb9c>
 80079c4:	b11b      	cbz	r3, 80079ce <_dtoa_r+0xb4e>
 80079c6:	f10a 0308 	add.w	r3, sl, #8
 80079ca:	9a21      	ldr	r2, [sp, #132]	@ 0x84
 80079cc:	6013      	str	r3, [r2, #0]
 80079ce:	4650      	mov	r0, sl
 80079d0:	b017      	add	sp, #92	@ 0x5c
 80079d2:	e8bd 8ff0 	ldmia.w	sp!, {r4, r5, r6, r7, r8, r9, sl, fp, pc}
 80079d6:	9b07      	ldr	r3, [sp, #28]
 80079d8:	2b01      	cmp	r3, #1
 80079da:	f77f ae2e 	ble.w	800763a <_dtoa_r+0x7ba>
 80079de:	9b0d      	ldr	r3, [sp, #52]	@ 0x34
 80079e0:	9308      	str	r3, [sp, #32]
 80079e2:	2001      	movs	r0, #1
 80079e4:	e64d      	b.n	8007682 <_dtoa_r+0x802>
 80079e6:	f1bb 0f00 	cmp.w	fp, #0
 80079ea:	f77f aed9 	ble.w	80077a0 <_dtoa_r+0x920>
 80079ee:	4656      	mov	r6, sl
 80079f0:	9802      	ldr	r0, [sp, #8]
 80079f2:	4621      	mov	r1, r4
 80079f4:	f7ff f9bc 	bl	8006d70 <quorem>
 80079f8:	f100 0330 	add.w	r3, r0, #48	@ 0x30
 80079fc:	f806 3b01 	strb.w	r3, [r6], #1
 8007a00:	eba6 020a 	sub.w	r2, r6, sl
 8007a04:	4593      	cmp	fp, r2
 8007a06:	ddb4      	ble.n	8007972 <_dtoa_r+0xaf2>
 8007a08:	9902      	ldr	r1, [sp, #8]
 8007a0a:	2300      	movs	r3, #0
 8007a0c:	220a      	movs	r2, #10
 8007a0e:	4648      	mov	r0, r9
 8007a10:	f000 fcb4 	bl	800837c <__multadd>
 8007a14:	9002      	str	r0, [sp, #8]
 8007a16:	e7eb      	b.n	80079f0 <_dtoa_r+0xb70>
 8007a18:	0800941a 	.word	0x0800941a
 8007a1c:	0800939e 	.word	0x0800939e

08007a20 <_free_r>:
 8007a20:	b538      	push	{r3, r4, r5, lr}
 8007a22:	4605      	mov	r5, r0
 8007a24:	2900      	cmp	r1, #0
 8007a26:	d041      	beq.n	8007aac <_free_r+0x8c>
 8007a28:	f851 3c04 	ldr.w	r3, [r1, #-4]
 8007a2c:	1f0c      	subs	r4, r1, #4
 8007a2e:	2b00      	cmp	r3, #0
 8007a30:	bfb8      	it	lt
 8007a32:	18e4      	addlt	r4, r4, r3
 8007a34:	f000 fc34 	bl	80082a0 <__malloc_lock>
 8007a38:	4a1d      	ldr	r2, [pc, #116]	@ (8007ab0 <_free_r+0x90>)
 8007a3a:	6813      	ldr	r3, [r2, #0]
 8007a3c:	b933      	cbnz	r3, 8007a4c <_free_r+0x2c>
 8007a3e:	6063      	str	r3, [r4, #4]
 8007a40:	6014      	str	r4, [r2, #0]
 8007a42:	4628      	mov	r0, r5
 8007a44:	e8bd 4038 	ldmia.w	sp!, {r3, r4, r5, lr}
 8007a48:	f000 bc30 	b.w	80082ac <__malloc_unlock>
 8007a4c:	42a3      	cmp	r3, r4
 8007a4e:	d908      	bls.n	8007a62 <_free_r+0x42>
 8007a50:	6820      	ldr	r0, [r4, #0]
 8007a52:	1821      	adds	r1, r4, r0
 8007a54:	428b      	cmp	r3, r1
 8007a56:	bf01      	itttt	eq
 8007a58:	6819      	ldreq	r1, [r3, #0]
 8007a5a:	685b      	ldreq	r3, [r3, #4]
 8007a5c:	1809      	addeq	r1, r1, r0
 8007a5e:	6021      	streq	r1, [r4, #0]
 8007a60:	e7ed      	b.n	8007a3e <_free_r+0x1e>
 8007a62:	461a      	mov	r2, r3
 8007a64:	685b      	ldr	r3, [r3, #4]
 8007a66:	b10b      	cbz	r3, 8007a6c <_free_r+0x4c>
 8007a68:	42a3      	cmp	r3, r4
 8007a6a:	d9fa      	bls.n	8007a62 <_free_r+0x42>
 8007a6c:	6811      	ldr	r1, [r2, #0]
 8007a6e:	1850      	adds	r0, r2, r1
 8007a70:	42a0      	cmp	r0, r4
 8007a72:	d10b      	bne.n	8007a8c <_free_r+0x6c>
 8007a74:	6820      	ldr	r0, [r4, #0]
 8007a76:	4401      	add	r1, r0
 8007a78:	1850      	adds	r0, r2, r1
 8007a7a:	4283      	cmp	r3, r0
 8007a7c:	6011      	str	r1, [r2, #0]
 8007a7e:	d1e0      	bne.n	8007a42 <_free_r+0x22>
 8007a80:	6818      	ldr	r0, [r3, #0]
 8007a82:	685b      	ldr	r3, [r3, #4]
 8007a84:	6053      	str	r3, [r2, #4]
 8007a86:	4408      	add	r0, r1
 8007a88:	6010      	str	r0, [r2, #0]
 8007a8a:	e7da      	b.n	8007a42 <_free_r+0x22>
 8007a8c:	d902      	bls.n	8007a94 <_free_r+0x74>
 8007a8e:	230c      	movs	r3, #12
 8007a90:	602b      	str	r3, [r5, #0]
 8007a92:	e7d6      	b.n	8007a42 <_free_r+0x22>
 8007a94:	6820      	ldr	r0, [r4, #0]
 8007a96:	1821      	adds	r1, r4, r0
 8007a98:	428b      	cmp	r3, r1
 8007a9a:	bf04      	itt	eq
 8007a9c:	6819      	ldreq	r1, [r3, #0]
 8007a9e:	685b      	ldreq	r3, [r3, #4]
 8007aa0:	6063      	str	r3, [r4, #4]
 8007aa2:	bf04      	itt	eq
 8007aa4:	1809      	addeq	r1, r1, r0
 8007aa6:	6021      	streq	r1, [r4, #0]
 8007aa8:	6054      	str	r4, [r2, #4]
 8007aaa:	e7ca      	b.n	8007a42 <_free_r+0x22>
 8007aac:	bd38      	pop	{r3, r4, r5, pc}
 8007aae:	bf00      	nop
 8007ab0:	200004e4 	.word	0x200004e4

08007ab4 <rshift>:
 8007ab4:	6903      	ldr	r3, [r0, #16]
 8007ab6:	ebb3 1f61 	cmp.w	r3, r1, asr #5
 8007aba:	e92d 43f0 	stmdb	sp!, {r4, r5, r6, r7, r8, r9, lr}
 8007abe:	ea4f 1261 	mov.w	r2, r1, asr #5
 8007ac2:	f100 0414 	add.w	r4, r0, #20
 8007ac6:	dd45      	ble.n	8007b54 <rshift+0xa0>
 8007ac8:	f011 011f 	ands.w	r1, r1, #31
 8007acc:	eb04 0683 	add.w	r6, r4, r3, lsl #2
 8007ad0:	eb04 0582 	add.w	r5, r4, r2, lsl #2
 8007ad4:	d10c      	bne.n	8007af0 <rshift+0x3c>
 8007ad6:	f100 0710 	add.w	r7, r0, #16
 8007ada:	4629      	mov	r1, r5
 8007adc:	42b1      	cmp	r1, r6
 8007ade:	d334      	bcc.n	8007b4a <rshift+0x96>
 8007ae0:	1a9b      	subs	r3, r3, r2
 8007ae2:	009b      	lsls	r3, r3, #2
 8007ae4:	1eea      	subs	r2, r5, #3
 8007ae6:	4296      	cmp	r6, r2
 8007ae8:	bf38      	it	cc
 8007aea:	2300      	movcc	r3, #0
 8007aec:	4423      	add	r3, r4
 8007aee:	e015      	b.n	8007b1c <rshift+0x68>
 8007af0:	f854 7022 	ldr.w	r7, [r4, r2, lsl #2]
 8007af4:	f1c1 0820 	rsb	r8, r1, #32
 8007af8:	40cf      	lsrs	r7, r1
 8007afa:	f105 0e04 	add.w	lr, r5, #4
 8007afe:	46a1      	mov	r9, r4
 8007b00:	4576      	cmp	r6, lr
 8007b02:	46f4      	mov	ip, lr
 8007b04:	d815      	bhi.n	8007b32 <rshift+0x7e>
 8007b06:	1a9a      	subs	r2, r3, r2
 8007b08:	0092      	lsls	r2, r2, #2
 8007b0a:	3a04      	subs	r2, #4
 8007b0c:	3501      	adds	r5, #1
 8007b0e:	42ae      	cmp	r6, r5
 8007b10:	bf38      	it	cc
 8007b12:	2200      	movcc	r2, #0
 8007b14:	18a3      	adds	r3, r4, r2
 8007b16:	50a7      	str	r7, [r4, r2]
 8007b18:	b107      	cbz	r7, 8007b1c <rshift+0x68>
 8007b1a:	3304      	adds	r3, #4
 8007b1c:	1b1a      	subs	r2, r3, r4
 8007b1e:	42a3      	cmp	r3, r4
 8007b20:	ea4f 02a2 	mov.w	r2, r2, asr #2
 8007b24:	bf08      	it	eq
 8007b26:	2300      	moveq	r3, #0
 8007b28:	6102      	str	r2, [r0, #16]
 8007b2a:	bf08      	it	eq
 8007b2c:	6143      	streq	r3, [r0, #20]
 8007b2e:	e8bd 83f0 	ldmia.w	sp!, {r4, r5, r6, r7, r8, r9, pc}
 8007b32:	f8dc c000 	ldr.w	ip, [ip]
 8007b36:	fa0c fc08 	lsl.w	ip, ip, r8
 8007b3a:	ea4c 0707 	orr.w	r7, ip, r7
 8007b3e:	f849 7b04 	str.w	r7, [r9], #4
 8007b42:	f85e 7b04 	ldr.w	r7, [lr], #4
 8007b46:	40cf      	lsrs	r7, r1
 8007b48:	e7da      	b.n	8007b00 <rshift+0x4c>
 8007b4a:	f851 cb04 	ldr.w	ip, [r1], #4
 8007b4e:	f847 cf04 	str.w	ip, [r7, #4]!
 8007b52:	e7c3      	b.n	8007adc <rshift+0x28>
 8007b54:	4623      	mov	r3, r4
 8007b56:	e7e1      	b.n	8007b1c <rshift+0x68>

08007b58 <__hexdig_fun>:
 8007b58:	f1a0 0330 	sub.w	r3, r0, #48	@ 0x30
 8007b5c:	2b09      	cmp	r3, #9
 8007b5e:	d802      	bhi.n	8007b66 <__hexdig_fun+0xe>
 8007b60:	3820      	subs	r0, #32
 8007b62:	b2c0      	uxtb	r0, r0
 8007b64:	4770      	bx	lr
 8007b66:	f1a0 0361 	sub.w	r3, r0, #97	@ 0x61
 8007b6a:	2b05      	cmp	r3, #5
 8007b6c:	d801      	bhi.n	8007b72 <__hexdig_fun+0x1a>
 8007b6e:	3847      	subs	r0, #71	@ 0x47
 8007b70:	e7f7      	b.n	8007b62 <__hexdig_fun+0xa>
 8007b72:	f1a0 0341 	sub.w	r3, r0, #65	@ 0x41
 8007b76:	2b05      	cmp	r3, #5
 8007b78:	d801      	bhi.n	8007b7e <__hexdig_fun+0x26>
 8007b7a:	3827      	subs	r0, #39	@ 0x27
 8007b7c:	e7f1      	b.n	8007b62 <__hexdig_fun+0xa>
 8007b7e:	2000      	movs	r0, #0
 8007b80:	4770      	bx	lr
	...

08007b84 <__gethex>:
 8007b84:	e92d 4ff0 	stmdb	sp!, {r4, r5, r6, r7, r8, r9, sl, fp, lr}
 8007b88:	b085      	sub	sp, #20
 8007b8a:	468a      	mov	sl, r1
 8007b8c:	9302      	str	r3, [sp, #8]
 8007b8e:	680b      	ldr	r3, [r1, #0]
 8007b90:	9001      	str	r0, [sp, #4]
 8007b92:	4690      	mov	r8, r2
 8007b94:	1c9c      	adds	r4, r3, #2
 8007b96:	46a1      	mov	r9, r4
 8007b98:	f814 0b01 	ldrb.w	r0, [r4], #1
 8007b9c:	2830      	cmp	r0, #48	@ 0x30
 8007b9e:	d0fa      	beq.n	8007b96 <__gethex+0x12>
 8007ba0:	eba9 0303 	sub.w	r3, r9, r3
 8007ba4:	f1a3 0b02 	sub.w	fp, r3, #2
 8007ba8:	f7ff ffd6 	bl	8007b58 <__hexdig_fun>
 8007bac:	4605      	mov	r5, r0
 8007bae:	2800      	cmp	r0, #0
 8007bb0:	d168      	bne.n	8007c84 <__gethex+0x100>
 8007bb2:	49a0      	ldr	r1, [pc, #640]	@ (8007e34 <__gethex+0x2b0>)
 8007bb4:	2201      	movs	r2, #1
 8007bb6:	4648      	mov	r0, r9
 8007bb8:	f7ff f823 	bl	8006c02 <strncmp>
 8007bbc:	4607      	mov	r7, r0
 8007bbe:	2800      	cmp	r0, #0
 8007bc0:	d167      	bne.n	8007c92 <__gethex+0x10e>
 8007bc2:	f899 0001 	ldrb.w	r0, [r9, #1]
 8007bc6:	4626      	mov	r6, r4
 8007bc8:	f7ff ffc6 	bl	8007b58 <__hexdig_fun>
 8007bcc:	2800      	cmp	r0, #0
 8007bce:	d062      	beq.n	8007c96 <__gethex+0x112>
 8007bd0:	4623      	mov	r3, r4
 8007bd2:	7818      	ldrb	r0, [r3, #0]
 8007bd4:	2830      	cmp	r0, #48	@ 0x30
 8007bd6:	4699      	mov	r9, r3
 8007bd8:	f103 0301 	add.w	r3, r3, #1
 8007bdc:	d0f9      	beq.n	8007bd2 <__gethex+0x4e>
 8007bde:	f7ff ffbb 	bl	8007b58 <__hexdig_fun>
 8007be2:	fab0 f580 	clz	r5, r0
 8007be6:	096d      	lsrs	r5, r5, #5
 8007be8:	f04f 0b01 	mov.w	fp, #1
 8007bec:	464a      	mov	r2, r9
 8007bee:	4616      	mov	r6, r2
 8007bf0:	3201      	adds	r2, #1
 8007bf2:	7830      	ldrb	r0, [r6, #0]
 8007bf4:	f7ff ffb0 	bl	8007b58 <__hexdig_fun>
 8007bf8:	2800      	cmp	r0, #0
 8007bfa:	d1f8      	bne.n	8007bee <__gethex+0x6a>
 8007bfc:	498d      	ldr	r1, [pc, #564]	@ (8007e34 <__gethex+0x2b0>)
 8007bfe:	2201      	movs	r2, #1
 8007c00:	4630      	mov	r0, r6
 8007c02:	f7fe fffe 	bl	8006c02 <strncmp>
 8007c06:	2800      	cmp	r0, #0
 8007c08:	d13f      	bne.n	8007c8a <__gethex+0x106>
 8007c0a:	b944      	cbnz	r4, 8007c1e <__gethex+0x9a>
 8007c0c:	1c74      	adds	r4, r6, #1
 8007c0e:	4622      	mov	r2, r4
 8007c10:	4616      	mov	r6, r2
 8007c12:	3201      	adds	r2, #1
 8007c14:	7830      	ldrb	r0, [r6, #0]
 8007c16:	f7ff ff9f 	bl	8007b58 <__hexdig_fun>
 8007c1a:	2800      	cmp	r0, #0
 8007c1c:	d1f8      	bne.n	8007c10 <__gethex+0x8c>
 8007c1e:	1ba4      	subs	r4, r4, r6
 8007c20:	00a7      	lsls	r7, r4, #2
 8007c22:	7833      	ldrb	r3, [r6, #0]
 8007c24:	f003 03df 	and.w	r3, r3, #223	@ 0xdf
 8007c28:	2b50      	cmp	r3, #80	@ 0x50
 8007c2a:	d13e      	bne.n	8007caa <__gethex+0x126>
 8007c2c:	7873      	ldrb	r3, [r6, #1]
 8007c2e:	2b2b      	cmp	r3, #43	@ 0x2b
 8007c30:	d033      	beq.n	8007c9a <__gethex+0x116>
 8007c32:	2b2d      	cmp	r3, #45	@ 0x2d
 8007c34:	d034      	beq.n	8007ca0 <__gethex+0x11c>
 8007c36:	1c71      	adds	r1, r6, #1
 8007c38:	2400      	movs	r4, #0
 8007c3a:	7808      	ldrb	r0, [r1, #0]
 8007c3c:	f7ff ff8c 	bl	8007b58 <__hexdig_fun>
 8007c40:	1e43      	subs	r3, r0, #1
 8007c42:	b2db      	uxtb	r3, r3
 8007c44:	2b18      	cmp	r3, #24
 8007c46:	d830      	bhi.n	8007caa <__gethex+0x126>
 8007c48:	f1a0 0210 	sub.w	r2, r0, #16
 8007c4c:	f811 0f01 	ldrb.w	r0, [r1, #1]!
 8007c50:	f7ff ff82 	bl	8007b58 <__hexdig_fun>
 8007c54:	f100 3cff 	add.w	ip, r0, #4294967295
 8007c58:	fa5f fc8c 	uxtb.w	ip, ip
 8007c5c:	f1bc 0f18 	cmp.w	ip, #24
 8007c60:	f04f 030a 	mov.w	r3, #10
 8007c64:	d91e      	bls.n	8007ca4 <__gethex+0x120>
 8007c66:	b104      	cbz	r4, 8007c6a <__gethex+0xe6>
 8007c68:	4252      	negs	r2, r2
 8007c6a:	4417      	add	r7, r2
 8007c6c:	f8ca 1000 	str.w	r1, [sl]
 8007c70:	b1ed      	cbz	r5, 8007cae <__gethex+0x12a>
 8007c72:	f1bb 0f00 	cmp.w	fp, #0
 8007c76:	bf0c      	ite	eq
 8007c78:	2506      	moveq	r5, #6
 8007c7a:	2500      	movne	r5, #0
 8007c7c:	4628      	mov	r0, r5
 8007c7e:	b005      	add	sp, #20
 8007c80:	e8bd 8ff0 	ldmia.w	sp!, {r4, r5, r6, r7, r8, r9, sl, fp, pc}
 8007c84:	2500      	movs	r5, #0
 8007c86:	462c      	mov	r4, r5
 8007c88:	e7b0      	b.n	8007bec <__gethex+0x68>
 8007c8a:	2c00      	cmp	r4, #0
 8007c8c:	d1c7      	bne.n	8007c1e <__gethex+0x9a>
 8007c8e:	4627      	mov	r7, r4
 8007c90:	e7c7      	b.n	8007c22 <__gethex+0x9e>
 8007c92:	464e      	mov	r6, r9
 8007c94:	462f      	mov	r7, r5
 8007c96:	2501      	movs	r5, #1
 8007c98:	e7c3      	b.n	8007c22 <__gethex+0x9e>
 8007c9a:	2400      	movs	r4, #0
 8007c9c:	1cb1      	adds	r1, r6, #2
 8007c9e:	e7cc      	b.n	8007c3a <__gethex+0xb6>
 8007ca0:	2401      	movs	r4, #1
 8007ca2:	e7fb      	b.n	8007c9c <__gethex+0x118>
 8007ca4:	fb03 0002 	mla	r0, r3, r2, r0
 8007ca8:	e7ce      	b.n	8007c48 <__gethex+0xc4>
 8007caa:	4631      	mov	r1, r6
 8007cac:	e7de      	b.n	8007c6c <__gethex+0xe8>
 8007cae:	eba6 0309 	sub.w	r3, r6, r9
 8007cb2:	3b01      	subs	r3, #1
 8007cb4:	4629      	mov	r1, r5
 8007cb6:	2b07      	cmp	r3, #7
 8007cb8:	dc0a      	bgt.n	8007cd0 <__gethex+0x14c>
 8007cba:	9801      	ldr	r0, [sp, #4]
 8007cbc:	f000 fafc 	bl	80082b8 <_Balloc>
 8007cc0:	4604      	mov	r4, r0
 8007cc2:	b940      	cbnz	r0, 8007cd6 <__gethex+0x152>
 8007cc4:	4b5c      	ldr	r3, [pc, #368]	@ (8007e38 <__gethex+0x2b4>)
 8007cc6:	4602      	mov	r2, r0
 8007cc8:	21e4      	movs	r1, #228	@ 0xe4
 8007cca:	485c      	ldr	r0, [pc, #368]	@ (8007e3c <__gethex+0x2b8>)
 8007ccc:	f001 fa2c 	bl	8009128 <__assert_func>
 8007cd0:	3101      	adds	r1, #1
 8007cd2:	105b      	asrs	r3, r3, #1
 8007cd4:	e7ef      	b.n	8007cb6 <__gethex+0x132>
 8007cd6:	f100 0a14 	add.w	sl, r0, #20
 8007cda:	2300      	movs	r3, #0
 8007cdc:	4655      	mov	r5, sl
 8007cde:	469b      	mov	fp, r3
 8007ce0:	45b1      	cmp	r9, r6
 8007ce2:	d337      	bcc.n	8007d54 <__gethex+0x1d0>
 8007ce4:	f845 bb04 	str.w	fp, [r5], #4
 8007ce8:	eba5 050a 	sub.w	r5, r5, sl
 8007cec:	10ad      	asrs	r5, r5, #2
 8007cee:	6125      	str	r5, [r4, #16]
 8007cf0:	4658      	mov	r0, fp
 8007cf2:	f000 fbd3 	bl	800849c <__hi0bits>
 8007cf6:	016d      	lsls	r5, r5, #5
 8007cf8:	f8d8 6000 	ldr.w	r6, [r8]
 8007cfc:	1a2d      	subs	r5, r5, r0
 8007cfe:	42b5      	cmp	r5, r6
 8007d00:	dd54      	ble.n	8007dac <__gethex+0x228>
 8007d02:	1bad      	subs	r5, r5, r6
 8007d04:	4629      	mov	r1, r5
 8007d06:	4620      	mov	r0, r4
 8007d08:	f000 ff5f 	bl	8008bca <__any_on>
 8007d0c:	4681      	mov	r9, r0
 8007d0e:	b178      	cbz	r0, 8007d30 <__gethex+0x1ac>
 8007d10:	1e6b      	subs	r3, r5, #1
 8007d12:	1159      	asrs	r1, r3, #5
 8007d14:	f003 021f 	and.w	r2, r3, #31
 8007d18:	f85a 1021 	ldr.w	r1, [sl, r1, lsl #2]
 8007d1c:	f04f 0901 	mov.w	r9, #1
 8007d20:	fa09 f202 	lsl.w	r2, r9, r2
 8007d24:	420a      	tst	r2, r1
 8007d26:	d003      	beq.n	8007d30 <__gethex+0x1ac>
 8007d28:	454b      	cmp	r3, r9
 8007d2a:	dc36      	bgt.n	8007d9a <__gethex+0x216>
 8007d2c:	f04f 0902 	mov.w	r9, #2
 8007d30:	4629      	mov	r1, r5
 8007d32:	4620      	mov	r0, r4
 8007d34:	f7ff febe 	bl	8007ab4 <rshift>
 8007d38:	442f      	add	r7, r5
 8007d3a:	f8d8 3008 	ldr.w	r3, [r8, #8]
 8007d3e:	42bb      	cmp	r3, r7
 8007d40:	da42      	bge.n	8007dc8 <__gethex+0x244>
 8007d42:	9801      	ldr	r0, [sp, #4]
 8007d44:	4621      	mov	r1, r4
 8007d46:	f000 faf7 	bl	8008338 <_Bfree>
 8007d4a:	9a0e      	ldr	r2, [sp, #56]	@ 0x38
 8007d4c:	2300      	movs	r3, #0
 8007d4e:	6013      	str	r3, [r2, #0]
 8007d50:	25a3      	movs	r5, #163	@ 0xa3
 8007d52:	e793      	b.n	8007c7c <__gethex+0xf8>
 8007d54:	f816 2d01 	ldrb.w	r2, [r6, #-1]!
 8007d58:	2a2e      	cmp	r2, #46	@ 0x2e
 8007d5a:	d012      	beq.n	8007d82 <__gethex+0x1fe>
 8007d5c:	2b20      	cmp	r3, #32
 8007d5e:	d104      	bne.n	8007d6a <__gethex+0x1e6>
 8007d60:	f845 bb04 	str.w	fp, [r5], #4
 8007d64:	f04f 0b00 	mov.w	fp, #0
 8007d68:	465b      	mov	r3, fp
 8007d6a:	7830      	ldrb	r0, [r6, #0]
 8007d6c:	9303      	str	r3, [sp, #12]
 8007d6e:	f7ff fef3 	bl	8007b58 <__hexdig_fun>
 8007d72:	9b03      	ldr	r3, [sp, #12]
 8007d74:	f000 000f 	and.w	r0, r0, #15
 8007d78:	4098      	lsls	r0, r3
 8007d7a:	ea4b 0b00 	orr.w	fp, fp, r0
 8007d7e:	3304      	adds	r3, #4
 8007d80:	e7ae      	b.n	8007ce0 <__gethex+0x15c>
 8007d82:	45b1      	cmp	r9, r6
 8007d84:	d8ea      	bhi.n	8007d5c <__gethex+0x1d8>
 8007d86:	492b      	ldr	r1, [pc, #172]	@ (8007e34 <__gethex+0x2b0>)
 8007d88:	9303      	str	r3, [sp, #12]
 8007d8a:	2201      	movs	r2, #1
 8007d8c:	4630      	mov	r0, r6
 8007d8e:	f7fe ff38 	bl	8006c02 <strncmp>
 8007d92:	9b03      	ldr	r3, [sp, #12]
 8007d94:	2800      	cmp	r0, #0
 8007d96:	d1e1      	bne.n	8007d5c <__gethex+0x1d8>
 8007d98:	e7a2      	b.n	8007ce0 <__gethex+0x15c>
 8007d9a:	1ea9      	subs	r1, r5, #2
 8007d9c:	4620      	mov	r0, r4
 8007d9e:	f000 ff14 	bl	8008bca <__any_on>
 8007da2:	2800      	cmp	r0, #0
 8007da4:	d0c2      	beq.n	8007d2c <__gethex+0x1a8>
 8007da6:	f04f 0903 	mov.w	r9, #3
 8007daa:	e7c1      	b.n	8007d30 <__gethex+0x1ac>
 8007dac:	da09      	bge.n	8007dc2 <__gethex+0x23e>
 8007dae:	1b75      	subs	r5, r6, r5
 8007db0:	4621      	mov	r1, r4
 8007db2:	9801      	ldr	r0, [sp, #4]
 8007db4:	462a      	mov	r2, r5
 8007db6:	f000 fccf 	bl	8008758 <__lshift>
 8007dba:	1b7f      	subs	r7, r7, r5
 8007dbc:	4604      	mov	r4, r0
 8007dbe:	f100 0a14 	add.w	sl, r0, #20
 8007dc2:	f04f 0900 	mov.w	r9, #0
 8007dc6:	e7b8      	b.n	8007d3a <__gethex+0x1b6>
 8007dc8:	f8d8 5004 	ldr.w	r5, [r8, #4]
 8007dcc:	42bd      	cmp	r5, r7
 8007dce:	dd6f      	ble.n	8007eb0 <__gethex+0x32c>
 8007dd0:	1bed      	subs	r5, r5, r7
 8007dd2:	42ae      	cmp	r6, r5
 8007dd4:	dc34      	bgt.n	8007e40 <__gethex+0x2bc>
 8007dd6:	f8d8 300c 	ldr.w	r3, [r8, #12]
 8007dda:	2b02      	cmp	r3, #2
 8007ddc:	d022      	beq.n	8007e24 <__gethex+0x2a0>
 8007dde:	2b03      	cmp	r3, #3
 8007de0:	d024      	beq.n	8007e2c <__gethex+0x2a8>
 8007de2:	2b01      	cmp	r3, #1
 8007de4:	d115      	bne.n	8007e12 <__gethex+0x28e>
 8007de6:	42ae      	cmp	r6, r5
 8007de8:	d113      	bne.n	8007e12 <__gethex+0x28e>
 8007dea:	2e01      	cmp	r6, #1
 8007dec:	d10b      	bne.n	8007e06 <__gethex+0x282>
 8007dee:	9a02      	ldr	r2, [sp, #8]
 8007df0:	f8d8 3004 	ldr.w	r3, [r8, #4]
 8007df4:	6013      	str	r3, [r2, #0]
 8007df6:	2301      	movs	r3, #1
 8007df8:	6123      	str	r3, [r4, #16]
 8007dfa:	f8ca 3000 	str.w	r3, [sl]
 8007dfe:	9b0e      	ldr	r3, [sp, #56]	@ 0x38
 8007e00:	2562      	movs	r5, #98	@ 0x62
 8007e02:	601c      	str	r4, [r3, #0]
 8007e04:	e73a      	b.n	8007c7c <__gethex+0xf8>
 8007e06:	1e71      	subs	r1, r6, #1
 8007e08:	4620      	mov	r0, r4
 8007e0a:	f000 fede 	bl	8008bca <__any_on>
 8007e0e:	2800      	cmp	r0, #0
 8007e10:	d1ed      	bne.n	8007dee <__gethex+0x26a>
 8007e12:	9801      	ldr	r0, [sp, #4]
 8007e14:	4621      	mov	r1, r4
 8007e16:	f000 fa8f 	bl	8008338 <_Bfree>
 8007e1a:	9a0e      	ldr	r2, [sp, #56]	@ 0x38
 8007e1c:	2300      	movs	r3, #0
 8007e1e:	6013      	str	r3, [r2, #0]
 8007e20:	2550      	movs	r5, #80	@ 0x50
 8007e22:	e72b      	b.n	8007c7c <__gethex+0xf8>
 8007e24:	9b0f      	ldr	r3, [sp, #60]	@ 0x3c
 8007e26:	2b00      	cmp	r3, #0
 8007e28:	d1f3      	bne.n	8007e12 <__gethex+0x28e>
 8007e2a:	e7e0      	b.n	8007dee <__gethex+0x26a>
 8007e2c:	9b0f      	ldr	r3, [sp, #60]	@ 0x3c
 8007e2e:	2b00      	cmp	r3, #0
 8007e30:	d1dd      	bne.n	8007dee <__gethex+0x26a>
 8007e32:	e7ee      	b.n	8007e12 <__gethex+0x28e>
 8007e34:	08009360 	.word	0x08009360
 8007e38:	0800941a 	.word	0x0800941a
 8007e3c:	0800942b 	.word	0x0800942b
 8007e40:	1e6f      	subs	r7, r5, #1
 8007e42:	f1b9 0f00 	cmp.w	r9, #0
 8007e46:	d130      	bne.n	8007eaa <__gethex+0x326>
 8007e48:	b127      	cbz	r7, 8007e54 <__gethex+0x2d0>
 8007e4a:	4639      	mov	r1, r7
 8007e4c:	4620      	mov	r0, r4
 8007e4e:	f000 febc 	bl	8008bca <__any_on>
 8007e52:	4681      	mov	r9, r0
 8007e54:	117a      	asrs	r2, r7, #5
 8007e56:	2301      	movs	r3, #1
 8007e58:	f85a 2022 	ldr.w	r2, [sl, r2, lsl #2]
 8007e5c:	f007 071f 	and.w	r7, r7, #31
 8007e60:	40bb      	lsls	r3, r7
 8007e62:	4213      	tst	r3, r2
 8007e64:	4629      	mov	r1, r5
 8007e66:	4620      	mov	r0, r4
 8007e68:	bf18      	it	ne
 8007e6a:	f049 0902 	orrne.w	r9, r9, #2
 8007e6e:	f7ff fe21 	bl	8007ab4 <rshift>
 8007e72:	f8d8 7004 	ldr.w	r7, [r8, #4]
 8007e76:	1b76      	subs	r6, r6, r5
 8007e78:	2502      	movs	r5, #2
 8007e7a:	f1b9 0f00 	cmp.w	r9, #0
 8007e7e:	d047      	beq.n	8007f10 <__gethex+0x38c>
 8007e80:	f8d8 300c 	ldr.w	r3, [r8, #12]
 8007e84:	2b02      	cmp	r3, #2
 8007e86:	d015      	beq.n	8007eb4 <__gethex+0x330>
 8007e88:	2b03      	cmp	r3, #3
 8007e8a:	d017      	beq.n	8007ebc <__gethex+0x338>
 8007e8c:	2b01      	cmp	r3, #1
 8007e8e:	d109      	bne.n	8007ea4 <__gethex+0x320>
 8007e90:	f019 0f02 	tst.w	r9, #2
 8007e94:	d006      	beq.n	8007ea4 <__gethex+0x320>
 8007e96:	f8da 3000 	ldr.w	r3, [sl]
 8007e9a:	ea49 0903 	orr.w	r9, r9, r3
 8007e9e:	f019 0f01 	tst.w	r9, #1
 8007ea2:	d10e      	bne.n	8007ec2 <__gethex+0x33e>
 8007ea4:	f045 0510 	orr.w	r5, r5, #16
 8007ea8:	e032      	b.n	8007f10 <__gethex+0x38c>
 8007eaa:	f04f 0901 	mov.w	r9, #1
 8007eae:	e7d1      	b.n	8007e54 <__gethex+0x2d0>
 8007eb0:	2501      	movs	r5, #1
 8007eb2:	e7e2      	b.n	8007e7a <__gethex+0x2f6>
 8007eb4:	9b0f      	ldr	r3, [sp, #60]	@ 0x3c
 8007eb6:	f1c3 0301 	rsb	r3, r3, #1
 8007eba:	930f      	str	r3, [sp, #60]	@ 0x3c
 8007ebc:	9b0f      	ldr	r3, [sp, #60]	@ 0x3c
 8007ebe:	2b00      	cmp	r3, #0
 8007ec0:	d0f0      	beq.n	8007ea4 <__gethex+0x320>
 8007ec2:	f8d4 b010 	ldr.w	fp, [r4, #16]
 8007ec6:	f104 0314 	add.w	r3, r4, #20
 8007eca:	ea4f 0a8b 	mov.w	sl, fp, lsl #2
 8007ece:	eb03 018b 	add.w	r1, r3, fp, lsl #2
 8007ed2:	f04f 0c00 	mov.w	ip, #0
 8007ed6:	4618      	mov	r0, r3
 8007ed8:	f853 2b04 	ldr.w	r2, [r3], #4
 8007edc:	f1b2 3fff 	cmp.w	r2, #4294967295
 8007ee0:	d01b      	beq.n	8007f1a <__gethex+0x396>
 8007ee2:	3201      	adds	r2, #1
 8007ee4:	6002      	str	r2, [r0, #0]
 8007ee6:	2d02      	cmp	r5, #2
 8007ee8:	f104 0314 	add.w	r3, r4, #20
 8007eec:	d13c      	bne.n	8007f68 <__gethex+0x3e4>
 8007eee:	f8d8 2000 	ldr.w	r2, [r8]
 8007ef2:	3a01      	subs	r2, #1
 8007ef4:	42b2      	cmp	r2, r6
 8007ef6:	d109      	bne.n	8007f0c <__gethex+0x388>
 8007ef8:	1171      	asrs	r1, r6, #5
 8007efa:	2201      	movs	r2, #1
 8007efc:	f853 3021 	ldr.w	r3, [r3, r1, lsl #2]
 8007f00:	f006 061f 	and.w	r6, r6, #31
 8007f04:	fa02 f606 	lsl.w	r6, r2, r6
 8007f08:	421e      	tst	r6, r3
 8007f0a:	d13a      	bne.n	8007f82 <__gethex+0x3fe>
 8007f0c:	f045 0520 	orr.w	r5, r5, #32
 8007f10:	9b0e      	ldr	r3, [sp, #56]	@ 0x38
 8007f12:	601c      	str	r4, [r3, #0]
 8007f14:	9b02      	ldr	r3, [sp, #8]
 8007f16:	601f      	str	r7, [r3, #0]
 8007f18:	e6b0      	b.n	8007c7c <__gethex+0xf8>
 8007f1a:	4299      	cmp	r1, r3
 8007f1c:	f843 cc04 	str.w	ip, [r3, #-4]
 8007f20:	d8d9      	bhi.n	8007ed6 <__gethex+0x352>
 8007f22:	68a3      	ldr	r3, [r4, #8]
 8007f24:	459b      	cmp	fp, r3
 8007f26:	db17      	blt.n	8007f58 <__gethex+0x3d4>
 8007f28:	6861      	ldr	r1, [r4, #4]
 8007f2a:	9801      	ldr	r0, [sp, #4]
 8007f2c:	3101      	adds	r1, #1
 8007f2e:	f000 f9c3 	bl	80082b8 <_Balloc>
 8007f32:	4681      	mov	r9, r0
 8007f34:	b918      	cbnz	r0, 8007f3e <__gethex+0x3ba>
 8007f36:	4b1a      	ldr	r3, [pc, #104]	@ (8007fa0 <__gethex+0x41c>)
 8007f38:	4602      	mov	r2, r0
 8007f3a:	2184      	movs	r1, #132	@ 0x84
 8007f3c:	e6c5      	b.n	8007cca <__gethex+0x146>
 8007f3e:	6922      	ldr	r2, [r4, #16]
 8007f40:	3202      	adds	r2, #2
 8007f42:	f104 010c 	add.w	r1, r4, #12
 8007f46:	0092      	lsls	r2, r2, #2
 8007f48:	300c      	adds	r0, #12
 8007f4a:	f7fe fefa 	bl	8006d42 <memcpy>
 8007f4e:	4621      	mov	r1, r4
 8007f50:	9801      	ldr	r0, [sp, #4]
 8007f52:	f000 f9f1 	bl	8008338 <_Bfree>
 8007f56:	464c      	mov	r4, r9
 8007f58:	6923      	ldr	r3, [r4, #16]
 8007f5a:	1c5a      	adds	r2, r3, #1
 8007f5c:	eb04 0383 	add.w	r3, r4, r3, lsl #2
 8007f60:	6122      	str	r2, [r4, #16]
 8007f62:	2201      	movs	r2, #1
 8007f64:	615a      	str	r2, [r3, #20]
 8007f66:	e7be      	b.n	8007ee6 <__gethex+0x362>
 8007f68:	6922      	ldr	r2, [r4, #16]
 8007f6a:	455a      	cmp	r2, fp
 8007f6c:	dd0b      	ble.n	8007f86 <__gethex+0x402>
 8007f6e:	2101      	movs	r1, #1
 8007f70:	4620      	mov	r0, r4
 8007f72:	f7ff fd9f 	bl	8007ab4 <rshift>
 8007f76:	f8d8 3008 	ldr.w	r3, [r8, #8]
 8007f7a:	3701      	adds	r7, #1
 8007f7c:	42bb      	cmp	r3, r7
 8007f7e:	f6ff aee0 	blt.w	8007d42 <__gethex+0x1be>
 8007f82:	2501      	movs	r5, #1
 8007f84:	e7c2      	b.n	8007f0c <__gethex+0x388>
 8007f86:	f016 061f 	ands.w	r6, r6, #31
 8007f8a:	d0fa      	beq.n	8007f82 <__gethex+0x3fe>
 8007f8c:	4453      	add	r3, sl
 8007f8e:	f1c6 0620 	rsb	r6, r6, #32
 8007f92:	f853 0c04 	ldr.w	r0, [r3, #-4]
 8007f96:	f000 fa81 	bl	800849c <__hi0bits>
 8007f9a:	42b0      	cmp	r0, r6
 8007f9c:	dbe7      	blt.n	8007f6e <__gethex+0x3ea>
 8007f9e:	e7f0      	b.n	8007f82 <__gethex+0x3fe>
 8007fa0:	0800941a 	.word	0x0800941a

08007fa4 <L_shift>:
 8007fa4:	f1c2 0208 	rsb	r2, r2, #8
 8007fa8:	0092      	lsls	r2, r2, #2
 8007faa:	b570      	push	{r4, r5, r6, lr}
 8007fac:	f1c2 0620 	rsb	r6, r2, #32
 8007fb0:	6843      	ldr	r3, [r0, #4]
 8007fb2:	6804      	ldr	r4, [r0, #0]
 8007fb4:	fa03 f506 	lsl.w	r5, r3, r6
 8007fb8:	432c      	orrs	r4, r5
 8007fba:	40d3      	lsrs	r3, r2
 8007fbc:	6004      	str	r4, [r0, #0]
 8007fbe:	f840 3f04 	str.w	r3, [r0, #4]!
 8007fc2:	4288      	cmp	r0, r1
 8007fc4:	d3f4      	bcc.n	8007fb0 <L_shift+0xc>
 8007fc6:	bd70      	pop	{r4, r5, r6, pc}

08007fc8 <__match>:
 8007fc8:	b530      	push	{r4, r5, lr}
 8007fca:	6803      	ldr	r3, [r0, #0]
 8007fcc:	3301      	adds	r3, #1
 8007fce:	f811 4b01 	ldrb.w	r4, [r1], #1
 8007fd2:	b914      	cbnz	r4, 8007fda <__match+0x12>
 8007fd4:	6003      	str	r3, [r0, #0]
 8007fd6:	2001      	movs	r0, #1
 8007fd8:	bd30      	pop	{r4, r5, pc}
 8007fda:	f813 2b01 	ldrb.w	r2, [r3], #1
 8007fde:	f1a2 0541 	sub.w	r5, r2, #65	@ 0x41
 8007fe2:	2d19      	cmp	r5, #25
 8007fe4:	bf98      	it	ls
 8007fe6:	3220      	addls	r2, #32
 8007fe8:	42a2      	cmp	r2, r4
 8007fea:	d0f0      	beq.n	8007fce <__match+0x6>
 8007fec:	2000      	movs	r0, #0
 8007fee:	e7f3      	b.n	8007fd8 <__match+0x10>

08007ff0 <__hexnan>:
 8007ff0:	e92d 4ff0 	stmdb	sp!, {r4, r5, r6, r7, r8, r9, sl, fp, lr}
 8007ff4:	680b      	ldr	r3, [r1, #0]
 8007ff6:	6801      	ldr	r1, [r0, #0]
 8007ff8:	115e      	asrs	r6, r3, #5
 8007ffa:	eb02 0686 	add.w	r6, r2, r6, lsl #2
 8007ffe:	f013 031f 	ands.w	r3, r3, #31
 8008002:	b087      	sub	sp, #28
 8008004:	bf18      	it	ne
 8008006:	3604      	addne	r6, #4
 8008008:	2500      	movs	r5, #0
 800800a:	1f37      	subs	r7, r6, #4
 800800c:	4682      	mov	sl, r0
 800800e:	4690      	mov	r8, r2
 8008010:	9301      	str	r3, [sp, #4]
 8008012:	f846 5c04 	str.w	r5, [r6, #-4]
 8008016:	46b9      	mov	r9, r7
 8008018:	463c      	mov	r4, r7
 800801a:	9502      	str	r5, [sp, #8]
 800801c:	46ab      	mov	fp, r5
 800801e:	784a      	ldrb	r2, [r1, #1]
 8008020:	1c4b      	adds	r3, r1, #1
 8008022:	9303      	str	r3, [sp, #12]
 8008024:	b342      	cbz	r2, 8008078 <__hexnan+0x88>
 8008026:	4610      	mov	r0, r2
 8008028:	9105      	str	r1, [sp, #20]
 800802a:	9204      	str	r2, [sp, #16]
 800802c:	f7ff fd94 	bl	8007b58 <__hexdig_fun>
 8008030:	2800      	cmp	r0, #0
 8008032:	d151      	bne.n	80080d8 <__hexnan+0xe8>
 8008034:	9a04      	ldr	r2, [sp, #16]
 8008036:	9905      	ldr	r1, [sp, #20]
 8008038:	2a20      	cmp	r2, #32
 800803a:	d818      	bhi.n	800806e <__hexnan+0x7e>
 800803c:	9b02      	ldr	r3, [sp, #8]
 800803e:	459b      	cmp	fp, r3
 8008040:	dd13      	ble.n	800806a <__hexnan+0x7a>
 8008042:	454c      	cmp	r4, r9
 8008044:	d206      	bcs.n	8008054 <__hexnan+0x64>
 8008046:	2d07      	cmp	r5, #7
 8008048:	dc04      	bgt.n	8008054 <__hexnan+0x64>
 800804a:	462a      	mov	r2, r5
 800804c:	4649      	mov	r1, r9
 800804e:	4620      	mov	r0, r4
 8008050:	f7ff ffa8 	bl	8007fa4 <L_shift>
 8008054:	4544      	cmp	r4, r8
 8008056:	d952      	bls.n	80080fe <__hexnan+0x10e>
 8008058:	2300      	movs	r3, #0
 800805a:	f1a4 0904 	sub.w	r9, r4, #4
 800805e:	f844 3c04 	str.w	r3, [r4, #-4]
 8008062:	f8cd b008 	str.w	fp, [sp, #8]
 8008066:	464c      	mov	r4, r9
 8008068:	461d      	mov	r5, r3
 800806a:	9903      	ldr	r1, [sp, #12]
 800806c:	e7d7      	b.n	800801e <__hexnan+0x2e>
 800806e:	2a29      	cmp	r2, #41	@ 0x29
 8008070:	d157      	bne.n	8008122 <__hexnan+0x132>
 8008072:	3102      	adds	r1, #2
 8008074:	f8ca 1000 	str.w	r1, [sl]
 8008078:	f1bb 0f00 	cmp.w	fp, #0
 800807c:	d051      	beq.n	8008122 <__hexnan+0x132>
 800807e:	454c      	cmp	r4, r9
 8008080:	d206      	bcs.n	8008090 <__hexnan+0xa0>
 8008082:	2d07      	cmp	r5, #7
 8008084:	dc04      	bgt.n	8008090 <__hexnan+0xa0>
 8008086:	462a      	mov	r2, r5
 8008088:	4649      	mov	r1, r9
 800808a:	4620      	mov	r0, r4
 800808c:	f7ff ff8a 	bl	8007fa4 <L_shift>
 8008090:	4544      	cmp	r4, r8
 8008092:	d936      	bls.n	8008102 <__hexnan+0x112>
 8008094:	f1a8 0204 	sub.w	r2, r8, #4
 8008098:	4623      	mov	r3, r4
 800809a:	f853 1b04 	ldr.w	r1, [r3], #4
 800809e:	f842 1f04 	str.w	r1, [r2, #4]!
 80080a2:	429f      	cmp	r7, r3
 80080a4:	d2f9      	bcs.n	800809a <__hexnan+0xaa>
 80080a6:	1b3b      	subs	r3, r7, r4
 80080a8:	f023 0303 	bic.w	r3, r3, #3
 80080ac:	3304      	adds	r3, #4
 80080ae:	3401      	adds	r4, #1
 80080b0:	3e03      	subs	r6, #3
 80080b2:	42b4      	cmp	r4, r6
 80080b4:	bf88      	it	hi
 80080b6:	2304      	movhi	r3, #4
 80080b8:	4443      	add	r3, r8
 80080ba:	2200      	movs	r2, #0
 80080bc:	f843 2b04 	str.w	r2, [r3], #4
 80080c0:	429f      	cmp	r7, r3
 80080c2:	d2fb      	bcs.n	80080bc <__hexnan+0xcc>
 80080c4:	683b      	ldr	r3, [r7, #0]
 80080c6:	b91b      	cbnz	r3, 80080d0 <__hexnan+0xe0>
 80080c8:	4547      	cmp	r7, r8
 80080ca:	d128      	bne.n	800811e <__hexnan+0x12e>
 80080cc:	2301      	movs	r3, #1
 80080ce:	603b      	str	r3, [r7, #0]
 80080d0:	2005      	movs	r0, #5
 80080d2:	b007      	add	sp, #28
 80080d4:	e8bd 8ff0 	ldmia.w	sp!, {r4, r5, r6, r7, r8, r9, sl, fp, pc}
 80080d8:	3501      	adds	r5, #1
 80080da:	2d08      	cmp	r5, #8
 80080dc:	f10b 0b01 	add.w	fp, fp, #1
 80080e0:	dd06      	ble.n	80080f0 <__hexnan+0x100>
 80080e2:	4544      	cmp	r4, r8
 80080e4:	d9c1      	bls.n	800806a <__hexnan+0x7a>
 80080e6:	2300      	movs	r3, #0
 80080e8:	f844 3c04 	str.w	r3, [r4, #-4]
 80080ec:	2501      	movs	r5, #1
 80080ee:	3c04      	subs	r4, #4
 80080f0:	6822      	ldr	r2, [r4, #0]
 80080f2:	f000 000f 	and.w	r0, r0, #15
 80080f6:	ea40 1002 	orr.w	r0, r0, r2, lsl #4
 80080fa:	6020      	str	r0, [r4, #0]
 80080fc:	e7b5      	b.n	800806a <__hexnan+0x7a>
 80080fe:	2508      	movs	r5, #8
 8008100:	e7b3      	b.n	800806a <__hexnan+0x7a>
 8008102:	9b01      	ldr	r3, [sp, #4]
 8008104:	2b00      	cmp	r3, #0
 8008106:	d0dd      	beq.n	80080c4 <__hexnan+0xd4>
 8008108:	f1c3 0320 	rsb	r3, r3, #32
 800810c:	f04f 32ff 	mov.w	r2, #4294967295
 8008110:	40da      	lsrs	r2, r3
 8008112:	f856 3c04 	ldr.w	r3, [r6, #-4]
 8008116:	4013      	ands	r3, r2
 8008118:	f846 3c04 	str.w	r3, [r6, #-4]
 800811c:	e7d2      	b.n	80080c4 <__hexnan+0xd4>
 800811e:	3f04      	subs	r7, #4
 8008120:	e7d0      	b.n	80080c4 <__hexnan+0xd4>
 8008122:	2004      	movs	r0, #4
 8008124:	e7d5      	b.n	80080d2 <__hexnan+0xe2>
	...

08008128 <malloc>:
 8008128:	4b02      	ldr	r3, [pc, #8]	@ (8008134 <malloc+0xc>)
 800812a:	4601      	mov	r1, r0
 800812c:	6818      	ldr	r0, [r3, #0]
 800812e:	f000 b825 	b.w	800817c <_malloc_r>
 8008132:	bf00      	nop
 8008134:	20000188 	.word	0x20000188

08008138 <sbrk_aligned>:
 8008138:	b570      	push	{r4, r5, r6, lr}
 800813a:	4e0f      	ldr	r6, [pc, #60]	@ (8008178 <sbrk_aligned+0x40>)
 800813c:	460c      	mov	r4, r1
 800813e:	6831      	ldr	r1, [r6, #0]
 8008140:	4605      	mov	r5, r0
 8008142:	b911      	cbnz	r1, 800814a <sbrk_aligned+0x12>
 8008144:	f000 ffe0 	bl	8009108 <_sbrk_r>
 8008148:	6030      	str	r0, [r6, #0]
 800814a:	4621      	mov	r1, r4
 800814c:	4628      	mov	r0, r5
 800814e:	f000 ffdb 	bl	8009108 <_sbrk_r>
 8008152:	1c43      	adds	r3, r0, #1
 8008154:	d103      	bne.n	800815e <sbrk_aligned+0x26>
 8008156:	f04f 34ff 	mov.w	r4, #4294967295
 800815a:	4620      	mov	r0, r4
 800815c:	bd70      	pop	{r4, r5, r6, pc}
 800815e:	1cc4      	adds	r4, r0, #3
 8008160:	f024 0403 	bic.w	r4, r4, #3
 8008164:	42a0      	cmp	r0, r4
 8008166:	d0f8      	beq.n	800815a <sbrk_aligned+0x22>
 8008168:	1a21      	subs	r1, r4, r0
 800816a:	4628      	mov	r0, r5
 800816c:	f000 ffcc 	bl	8009108 <_sbrk_r>
 8008170:	3001      	adds	r0, #1
 8008172:	d1f2      	bne.n	800815a <sbrk_aligned+0x22>
 8008174:	e7ef      	b.n	8008156 <sbrk_aligned+0x1e>
 8008176:	bf00      	nop
 8008178:	200004e0 	.word	0x200004e0

0800817c <_malloc_r>:
 800817c:	e92d 43f8 	stmdb	sp!, {r3, r4, r5, r6, r7, r8, r9, lr}
 8008180:	1ccd      	adds	r5, r1, #3
 8008182:	f025 0503 	bic.w	r5, r5, #3
 8008186:	3508      	adds	r5, #8
 8008188:	2d0c      	cmp	r5, #12
 800818a:	bf38      	it	cc
 800818c:	250c      	movcc	r5, #12
 800818e:	2d00      	cmp	r5, #0
 8008190:	4606      	mov	r6, r0
 8008192:	db01      	blt.n	8008198 <_malloc_r+0x1c>
 8008194:	42a9      	cmp	r1, r5
 8008196:	d904      	bls.n	80081a2 <_malloc_r+0x26>
 8008198:	230c      	movs	r3, #12
 800819a:	6033      	str	r3, [r6, #0]
 800819c:	2000      	movs	r0, #0
 800819e:	e8bd 83f8 	ldmia.w	sp!, {r3, r4, r5, r6, r7, r8, r9, pc}
 80081a2:	f8df 80d4 	ldr.w	r8, [pc, #212]	@ 8008278 <_malloc_r+0xfc>
 80081a6:	f000 f87b 	bl	80082a0 <__malloc_lock>
 80081aa:	f8d8 3000 	ldr.w	r3, [r8]
 80081ae:	461c      	mov	r4, r3
 80081b0:	bb44      	cbnz	r4, 8008204 <_malloc_r+0x88>
 80081b2:	4629      	mov	r1, r5
 80081b4:	4630      	mov	r0, r6
 80081b6:	f7ff ffbf 	bl	8008138 <sbrk_aligned>
 80081ba:	1c43      	adds	r3, r0, #1
 80081bc:	4604      	mov	r4, r0
 80081be:	d158      	bne.n	8008272 <_malloc_r+0xf6>
 80081c0:	f8d8 4000 	ldr.w	r4, [r8]
 80081c4:	4627      	mov	r7, r4
 80081c6:	2f00      	cmp	r7, #0
 80081c8:	d143      	bne.n	8008252 <_malloc_r+0xd6>
 80081ca:	2c00      	cmp	r4, #0
 80081cc:	d04b      	beq.n	8008266 <_malloc_r+0xea>
 80081ce:	6823      	ldr	r3, [r4, #0]
 80081d0:	4639      	mov	r1, r7
 80081d2:	4630      	mov	r0, r6
 80081d4:	eb04 0903 	add.w	r9, r4, r3
 80081d8:	f000 ff96 	bl	8009108 <_sbrk_r>
 80081dc:	4581      	cmp	r9, r0
 80081de:	d142      	bne.n	8008266 <_malloc_r+0xea>
 80081e0:	6821      	ldr	r1, [r4, #0]
 80081e2:	1a6d      	subs	r5, r5, r1
 80081e4:	4629      	mov	r1, r5
 80081e6:	4630      	mov	r0, r6
 80081e8:	f7ff ffa6 	bl	8008138 <sbrk_aligned>
 80081ec:	3001      	adds	r0, #1
 80081ee:	d03a      	beq.n	8008266 <_malloc_r+0xea>
 80081f0:	6823      	ldr	r3, [r4, #0]
 80081f2:	442b      	add	r3, r5
 80081f4:	6023      	str	r3, [r4, #0]
 80081f6:	f8d8 3000 	ldr.w	r3, [r8]
 80081fa:	685a      	ldr	r2, [r3, #4]
 80081fc:	bb62      	cbnz	r2, 8008258 <_malloc_r+0xdc>
 80081fe:	f8c8 7000 	str.w	r7, [r8]
 8008202:	e00f      	b.n	8008224 <_malloc_r+0xa8>
 8008204:	6822      	ldr	r2, [r4, #0]
 8008206:	1b52      	subs	r2, r2, r5
 8008208:	d420      	bmi.n	800824c <_malloc_r+0xd0>
 800820a:	2a0b      	cmp	r2, #11
 800820c:	d917      	bls.n	800823e <_malloc_r+0xc2>
 800820e:	1961      	adds	r1, r4, r5
 8008210:	42a3      	cmp	r3, r4
 8008212:	6025      	str	r5, [r4, #0]
 8008214:	bf18      	it	ne
 8008216:	6059      	strne	r1, [r3, #4]
 8008218:	6863      	ldr	r3, [r4, #4]
 800821a:	bf08      	it	eq
 800821c:	f8c8 1000 	streq.w	r1, [r8]
 8008220:	5162      	str	r2, [r4, r5]
 8008222:	604b      	str	r3, [r1, #4]
 8008224:	4630      	mov	r0, r6
 8008226:	f000 f841 	bl	80082ac <__malloc_unlock>
 800822a:	f104 000b 	add.w	r0, r4, #11
 800822e:	1d23      	adds	r3, r4, #4
 8008230:	f020 0007 	bic.w	r0, r0, #7
 8008234:	1ac2      	subs	r2, r0, r3
 8008236:	bf1c      	itt	ne
 8008238:	1a1b      	subne	r3, r3, r0
 800823a:	50a3      	strne	r3, [r4, r2]
 800823c:	e7af      	b.n	800819e <_malloc_r+0x22>
 800823e:	6862      	ldr	r2, [r4, #4]
 8008240:	42a3      	cmp	r3, r4
 8008242:	bf0c      	ite	eq
 8008244:	f8c8 2000 	streq.w	r2, [r8]
 8008248:	605a      	strne	r2, [r3, #4]
 800824a:	e7eb      	b.n	8008224 <_malloc_r+0xa8>
 800824c:	4623      	mov	r3, r4
 800824e:	6864      	ldr	r4, [r4, #4]
 8008250:	e7ae      	b.n	80081b0 <_malloc_r+0x34>
 8008252:	463c      	mov	r4, r7
 8008254:	687f      	ldr	r7, [r7, #4]
 8008256:	e7b6      	b.n	80081c6 <_malloc_r+0x4a>
 8008258:	461a      	mov	r2, r3
 800825a:	685b      	ldr	r3, [r3, #4]
 800825c:	42a3      	cmp	r3, r4
 800825e:	d1fb      	bne.n	8008258 <_malloc_r+0xdc>
 8008260:	2300      	movs	r3, #0
 8008262:	6053      	str	r3, [r2, #4]
 8008264:	e7de      	b.n	8008224 <_malloc_r+0xa8>
 8008266:	230c      	movs	r3, #12
 8008268:	6033      	str	r3, [r6, #0]
 800826a:	4630      	mov	r0, r6
 800826c:	f000 f81e 	bl	80082ac <__malloc_unlock>
 8008270:	e794      	b.n	800819c <_malloc_r+0x20>
 8008272:	6005      	str	r5, [r0, #0]
 8008274:	e7d6      	b.n	8008224 <_malloc_r+0xa8>
 8008276:	bf00      	nop
 8008278:	200004e4 	.word	0x200004e4

0800827c <__ascii_mbtowc>:
 800827c:	b082      	sub	sp, #8
 800827e:	b901      	cbnz	r1, 8008282 <__ascii_mbtowc+0x6>
 8008280:	a901      	add	r1, sp, #4
 8008282:	b142      	cbz	r2, 8008296 <__ascii_mbtowc+0x1a>
 8008284:	b14b      	cbz	r3, 800829a <__ascii_mbtowc+0x1e>
 8008286:	7813      	ldrb	r3, [r2, #0]
 8008288:	600b      	str	r3, [r1, #0]
 800828a:	7812      	ldrb	r2, [r2, #0]
 800828c:	1e10      	subs	r0, r2, #0
 800828e:	bf18      	it	ne
 8008290:	2001      	movne	r0, #1
 8008292:	b002      	add	sp, #8
 8008294:	4770      	bx	lr
 8008296:	4610      	mov	r0, r2
 8008298:	e7fb      	b.n	8008292 <__ascii_mbtowc+0x16>
 800829a:	f06f 0001 	mvn.w	r0, #1
 800829e:	e7f8      	b.n	8008292 <__ascii_mbtowc+0x16>

080082a0 <__malloc_lock>:
 80082a0:	4801      	ldr	r0, [pc, #4]	@ (80082a8 <__malloc_lock+0x8>)
 80082a2:	f7fe bd4c 	b.w	8006d3e <__retarget_lock_acquire_recursive>
 80082a6:	bf00      	nop
 80082a8:	200004dc 	.word	0x200004dc

080082ac <__malloc_unlock>:
 80082ac:	4801      	ldr	r0, [pc, #4]	@ (80082b4 <__malloc_unlock+0x8>)
 80082ae:	f7fe bd47 	b.w	8006d40 <__retarget_lock_release_recursive>
 80082b2:	bf00      	nop
 80082b4:	200004dc 	.word	0x200004dc

080082b8 <_Balloc>:
 80082b8:	b570      	push	{r4, r5, r6, lr}
 80082ba:	69c6      	ldr	r6, [r0, #28]
 80082bc:	4604      	mov	r4, r0
 80082be:	460d      	mov	r5, r1
 80082c0:	b976      	cbnz	r6, 80082e0 <_Balloc+0x28>
 80082c2:	2010      	movs	r0, #16
 80082c4:	f7ff ff30 	bl	8008128 <malloc>
 80082c8:	4602      	mov	r2, r0
 80082ca:	61e0      	str	r0, [r4, #28]
 80082cc:	b920      	cbnz	r0, 80082d8 <_Balloc+0x20>
 80082ce:	4b18      	ldr	r3, [pc, #96]	@ (8008330 <_Balloc+0x78>)
 80082d0:	4818      	ldr	r0, [pc, #96]	@ (8008334 <_Balloc+0x7c>)
 80082d2:	216b      	movs	r1, #107	@ 0x6b
 80082d4:	f000 ff28 	bl	8009128 <__assert_func>
 80082d8:	e9c0 6601 	strd	r6, r6, [r0, #4]
 80082dc:	6006      	str	r6, [r0, #0]
 80082de:	60c6      	str	r6, [r0, #12]
 80082e0:	69e6      	ldr	r6, [r4, #28]
 80082e2:	68f3      	ldr	r3, [r6, #12]
 80082e4:	b183      	cbz	r3, 8008308 <_Balloc+0x50>
 80082e6:	69e3      	ldr	r3, [r4, #28]
 80082e8:	68db      	ldr	r3, [r3, #12]
 80082ea:	f853 0025 	ldr.w	r0, [r3, r5, lsl #2]
 80082ee:	b9b8      	cbnz	r0, 8008320 <_Balloc+0x68>
 80082f0:	2101      	movs	r1, #1
 80082f2:	fa01 f605 	lsl.w	r6, r1, r5
 80082f6:	1d72      	adds	r2, r6, #5
 80082f8:	0092      	lsls	r2, r2, #2
 80082fa:	4620      	mov	r0, r4
 80082fc:	f000 ff32 	bl	8009164 <_calloc_r>
 8008300:	b160      	cbz	r0, 800831c <_Balloc+0x64>
 8008302:	e9c0 5601 	strd	r5, r6, [r0, #4]
 8008306:	e00e      	b.n	8008326 <_Balloc+0x6e>
 8008308:	2221      	movs	r2, #33	@ 0x21
 800830a:	2104      	movs	r1, #4
 800830c:	4620      	mov	r0, r4
 800830e:	f000 ff29 	bl	8009164 <_calloc_r>
 8008312:	69e3      	ldr	r3, [r4, #28]
 8008314:	60f0      	str	r0, [r6, #12]
 8008316:	68db      	ldr	r3, [r3, #12]
 8008318:	2b00      	cmp	r3, #0
 800831a:	d1e4      	bne.n	80082e6 <_Balloc+0x2e>
 800831c:	2000      	movs	r0, #0
 800831e:	bd70      	pop	{r4, r5, r6, pc}
 8008320:	6802      	ldr	r2, [r0, #0]
 8008322:	f843 2025 	str.w	r2, [r3, r5, lsl #2]
 8008326:	2300      	movs	r3, #0
 8008328:	e9c0 3303 	strd	r3, r3, [r0, #12]
 800832c:	e7f7      	b.n	800831e <_Balloc+0x66>
 800832e:	bf00      	nop
 8008330:	080093ab 	.word	0x080093ab
 8008334:	0800948b 	.word	0x0800948b

08008338 <_Bfree>:
 8008338:	b570      	push	{r4, r5, r6, lr}
 800833a:	69c6      	ldr	r6, [r0, #28]
 800833c:	4605      	mov	r5, r0
 800833e:	460c      	mov	r4, r1
 8008340:	b976      	cbnz	r6, 8008360 <_Bfree+0x28>
 8008342:	2010      	movs	r0, #16
 8008344:	f7ff fef0 	bl	8008128 <malloc>
 8008348:	4602      	mov	r2, r0
 800834a:	61e8      	str	r0, [r5, #28]
 800834c:	b920      	cbnz	r0, 8008358 <_Bfree+0x20>
 800834e:	4b09      	ldr	r3, [pc, #36]	@ (8008374 <_Bfree+0x3c>)
 8008350:	4809      	ldr	r0, [pc, #36]	@ (8008378 <_Bfree+0x40>)
 8008352:	218f      	movs	r1, #143	@ 0x8f
 8008354:	f000 fee8 	bl	8009128 <__assert_func>
 8008358:	e9c0 6601 	strd	r6, r6, [r0, #4]
 800835c:	6006      	str	r6, [r0, #0]
 800835e:	60c6      	str	r6, [r0, #12]
 8008360:	b13c      	cbz	r4, 8008372 <_Bfree+0x3a>
 8008362:	69eb      	ldr	r3, [r5, #28]
 8008364:	6862      	ldr	r2, [r4, #4]
 8008366:	68db      	ldr	r3, [r3, #12]
 8008368:	f853 1022 	ldr.w	r1, [r3, r2, lsl #2]
 800836c:	6021      	str	r1, [r4, #0]
 800836e:	f843 4022 	str.w	r4, [r3, r2, lsl #2]
 8008372:	bd70      	pop	{r4, r5, r6, pc}
 8008374:	080093ab 	.word	0x080093ab
 8008378:	0800948b 	.word	0x0800948b

0800837c <__multadd>:
 800837c:	e92d 41f0 	stmdb	sp!, {r4, r5, r6, r7, r8, lr}
 8008380:	690d      	ldr	r5, [r1, #16]
 8008382:	4607      	mov	r7, r0
 8008384:	460c      	mov	r4, r1
 8008386:	461e      	mov	r6, r3
 8008388:	f101 0c14 	add.w	ip, r1, #20
 800838c:	2000      	movs	r0, #0
 800838e:	f8dc 3000 	ldr.w	r3, [ip]
 8008392:	b299      	uxth	r1, r3
 8008394:	fb02 6101 	mla	r1, r2, r1, r6
 8008398:	0c1e      	lsrs	r6, r3, #16
 800839a:	0c0b      	lsrs	r3, r1, #16
 800839c:	fb02 3306 	mla	r3, r2, r6, r3
 80083a0:	b289      	uxth	r1, r1
 80083a2:	3001      	adds	r0, #1
 80083a4:	eb01 4103 	add.w	r1, r1, r3, lsl #16
 80083a8:	4285      	cmp	r5, r0
 80083aa:	f84c 1b04 	str.w	r1, [ip], #4
 80083ae:	ea4f 4613 	mov.w	r6, r3, lsr #16
 80083b2:	dcec      	bgt.n	800838e <__multadd+0x12>
 80083b4:	b30e      	cbz	r6, 80083fa <__multadd+0x7e>
 80083b6:	68a3      	ldr	r3, [r4, #8]
 80083b8:	42ab      	cmp	r3, r5
 80083ba:	dc19      	bgt.n	80083f0 <__multadd+0x74>
 80083bc:	6861      	ldr	r1, [r4, #4]
 80083be:	4638      	mov	r0, r7
 80083c0:	3101      	adds	r1, #1
 80083c2:	f7ff ff79 	bl	80082b8 <_Balloc>
 80083c6:	4680      	mov	r8, r0
 80083c8:	b928      	cbnz	r0, 80083d6 <__multadd+0x5a>
 80083ca:	4602      	mov	r2, r0
 80083cc:	4b0c      	ldr	r3, [pc, #48]	@ (8008400 <__multadd+0x84>)
 80083ce:	480d      	ldr	r0, [pc, #52]	@ (8008404 <__multadd+0x88>)
 80083d0:	21ba      	movs	r1, #186	@ 0xba
 80083d2:	f000 fea9 	bl	8009128 <__assert_func>
 80083d6:	6922      	ldr	r2, [r4, #16]
 80083d8:	3202      	adds	r2, #2
 80083da:	f104 010c 	add.w	r1, r4, #12
 80083de:	0092      	lsls	r2, r2, #2
 80083e0:	300c      	adds	r0, #12
 80083e2:	f7fe fcae 	bl	8006d42 <memcpy>
 80083e6:	4621      	mov	r1, r4
 80083e8:	4638      	mov	r0, r7
 80083ea:	f7ff ffa5 	bl	8008338 <_Bfree>
 80083ee:	4644      	mov	r4, r8
 80083f0:	eb04 0385 	add.w	r3, r4, r5, lsl #2
 80083f4:	3501      	adds	r5, #1
 80083f6:	615e      	str	r6, [r3, #20]
 80083f8:	6125      	str	r5, [r4, #16]
 80083fa:	4620      	mov	r0, r4
 80083fc:	e8bd 81f0 	ldmia.w	sp!, {r4, r5, r6, r7, r8, pc}
 8008400:	0800941a 	.word	0x0800941a
 8008404:	0800948b 	.word	0x0800948b

08008408 <__s2b>:
 8008408:	e92d 43f8 	stmdb	sp!, {r3, r4, r5, r6, r7, r8, r9, lr}
 800840c:	460c      	mov	r4, r1
 800840e:	4615      	mov	r5, r2
 8008410:	461f      	mov	r7, r3
 8008412:	2209      	movs	r2, #9
 8008414:	3308      	adds	r3, #8
 8008416:	4606      	mov	r6, r0
 8008418:	fb93 f3f2 	sdiv	r3, r3, r2
 800841c:	2100      	movs	r1, #0
 800841e:	2201      	movs	r2, #1
 8008420:	429a      	cmp	r2, r3
 8008422:	db09      	blt.n	8008438 <__s2b+0x30>
 8008424:	4630      	mov	r0, r6
 8008426:	f7ff ff47 	bl	80082b8 <_Balloc>
 800842a:	b940      	cbnz	r0, 800843e <__s2b+0x36>
 800842c:	4602      	mov	r2, r0
 800842e:	4b19      	ldr	r3, [pc, #100]	@ (8008494 <__s2b+0x8c>)
 8008430:	4819      	ldr	r0, [pc, #100]	@ (8008498 <__s2b+0x90>)
 8008432:	21d3      	movs	r1, #211	@ 0xd3
 8008434:	f000 fe78 	bl	8009128 <__assert_func>
 8008438:	0052      	lsls	r2, r2, #1
 800843a:	3101      	adds	r1, #1
 800843c:	e7f0      	b.n	8008420 <__s2b+0x18>
 800843e:	9b08      	ldr	r3, [sp, #32]
 8008440:	6143      	str	r3, [r0, #20]
 8008442:	2d09      	cmp	r5, #9
 8008444:	f04f 0301 	mov.w	r3, #1
 8008448:	6103      	str	r3, [r0, #16]
 800844a:	dd16      	ble.n	800847a <__s2b+0x72>
 800844c:	f104 0909 	add.w	r9, r4, #9
 8008450:	46c8      	mov	r8, r9
 8008452:	442c      	add	r4, r5
 8008454:	f818 3b01 	ldrb.w	r3, [r8], #1
 8008458:	4601      	mov	r1, r0
 800845a:	3b30      	subs	r3, #48	@ 0x30
 800845c:	220a      	movs	r2, #10
 800845e:	4630      	mov	r0, r6
 8008460:	f7ff ff8c 	bl	800837c <__multadd>
 8008464:	45a0      	cmp	r8, r4
 8008466:	d1f5      	bne.n	8008454 <__s2b+0x4c>
 8008468:	f1a5 0408 	sub.w	r4, r5, #8
 800846c:	444c      	add	r4, r9
 800846e:	1b2d      	subs	r5, r5, r4
 8008470:	1963      	adds	r3, r4, r5
 8008472:	42bb      	cmp	r3, r7
 8008474:	db04      	blt.n	8008480 <__s2b+0x78>
 8008476:	e8bd 83f8 	ldmia.w	sp!, {r3, r4, r5, r6, r7, r8, r9, pc}
 800847a:	340a      	adds	r4, #10
 800847c:	2509      	movs	r5, #9
 800847e:	e7f6      	b.n	800846e <__s2b+0x66>
 8008480:	f814 3b01 	ldrb.w	r3, [r4], #1
 8008484:	4601      	mov	r1, r0
 8008486:	3b30      	subs	r3, #48	@ 0x30
 8008488:	220a      	movs	r2, #10
 800848a:	4630      	mov	r0, r6
 800848c:	f7ff ff76 	bl	800837c <__multadd>
 8008490:	e7ee      	b.n	8008470 <__s2b+0x68>
 8008492:	bf00      	nop
 8008494:	0800941a 	.word	0x0800941a
 8008498:	0800948b 	.word	0x0800948b

0800849c <__hi0bits>:
 800849c:	f5b0 3f80 	cmp.w	r0, #65536	@ 0x10000
 80084a0:	4603      	mov	r3, r0
 80084a2:	bf36      	itet	cc
 80084a4:	0403      	lslcc	r3, r0, #16
 80084a6:	2000      	movcs	r0, #0
 80084a8:	2010      	movcc	r0, #16
 80084aa:	f1b3 7f80 	cmp.w	r3, #16777216	@ 0x1000000
 80084ae:	bf3c      	itt	cc
 80084b0:	021b      	lslcc	r3, r3, #8
 80084b2:	3008      	addcc	r0, #8
 80084b4:	f1b3 5f80 	cmp.w	r3, #268435456	@ 0x10000000
 80084b8:	bf3c      	itt	cc
 80084ba:	011b      	lslcc	r3, r3, #4
 80084bc:	3004      	addcc	r0, #4
 80084be:	f1b3 4f80 	cmp.w	r3, #1073741824	@ 0x40000000
 80084c2:	bf3c      	itt	cc
 80084c4:	009b      	lslcc	r3, r3, #2
 80084c6:	3002      	addcc	r0, #2
 80084c8:	2b00      	cmp	r3, #0
 80084ca:	db05      	blt.n	80084d8 <__hi0bits+0x3c>
 80084cc:	f013 4f80 	tst.w	r3, #1073741824	@ 0x40000000
 80084d0:	f100 0001 	add.w	r0, r0, #1
 80084d4:	bf08      	it	eq
 80084d6:	2020      	moveq	r0, #32
 80084d8:	4770      	bx	lr

080084da <__lo0bits>:
 80084da:	6803      	ldr	r3, [r0, #0]
 80084dc:	4602      	mov	r2, r0
 80084de:	f013 0007 	ands.w	r0, r3, #7
 80084e2:	d00b      	beq.n	80084fc <__lo0bits+0x22>
 80084e4:	07d9      	lsls	r1, r3, #31
 80084e6:	d421      	bmi.n	800852c <__lo0bits+0x52>
 80084e8:	0798      	lsls	r0, r3, #30
 80084ea:	bf49      	itett	mi
 80084ec:	085b      	lsrmi	r3, r3, #1
 80084ee:	089b      	lsrpl	r3, r3, #2
 80084f0:	2001      	movmi	r0, #1
 80084f2:	6013      	strmi	r3, [r2, #0]
 80084f4:	bf5c      	itt	pl
 80084f6:	6013      	strpl	r3, [r2, #0]
 80084f8:	2002      	movpl	r0, #2
 80084fa:	4770      	bx	lr
 80084fc:	b299      	uxth	r1, r3
 80084fe:	b909      	cbnz	r1, 8008504 <__lo0bits+0x2a>
 8008500:	0c1b      	lsrs	r3, r3, #16
 8008502:	2010      	movs	r0, #16
 8008504:	b2d9      	uxtb	r1, r3
 8008506:	b909      	cbnz	r1, 800850c <__lo0bits+0x32>
 8008508:	3008      	adds	r0, #8
 800850a:	0a1b      	lsrs	r3, r3, #8
 800850c:	0719      	lsls	r1, r3, #28
 800850e:	bf04      	itt	eq
 8008510:	091b      	lsreq	r3, r3, #4
 8008512:	3004      	addeq	r0, #4
 8008514:	0799      	lsls	r1, r3, #30
 8008516:	bf04      	itt	eq
 8008518:	089b      	lsreq	r3, r3, #2
 800851a:	3002      	addeq	r0, #2
 800851c:	07d9      	lsls	r1, r3, #31
 800851e:	d403      	bmi.n	8008528 <__lo0bits+0x4e>
 8008520:	085b      	lsrs	r3, r3, #1
 8008522:	f100 0001 	add.w	r0, r0, #1
 8008526:	d003      	beq.n	8008530 <__lo0bits+0x56>
 8008528:	6013      	str	r3, [r2, #0]
 800852a:	4770      	bx	lr
 800852c:	2000      	movs	r0, #0
 800852e:	4770      	bx	lr
 8008530:	2020      	movs	r0, #32
 8008532:	4770      	bx	lr

08008534 <__i2b>:
 8008534:	b510      	push	{r4, lr}
 8008536:	460c      	mov	r4, r1
 8008538:	2101      	movs	r1, #1
 800853a:	f7ff febd 	bl	80082b8 <_Balloc>
 800853e:	4602      	mov	r2, r0
 8008540:	b928      	cbnz	r0, 800854e <__i2b+0x1a>
 8008542:	4b05      	ldr	r3, [pc, #20]	@ (8008558 <__i2b+0x24>)
 8008544:	4805      	ldr	r0, [pc, #20]	@ (800855c <__i2b+0x28>)
 8008546:	f240 1145 	movw	r1, #325	@ 0x145
 800854a:	f000 fded 	bl	8009128 <__assert_func>
 800854e:	2301      	movs	r3, #1
 8008550:	6144      	str	r4, [r0, #20]
 8008552:	6103      	str	r3, [r0, #16]
 8008554:	bd10      	pop	{r4, pc}
 8008556:	bf00      	nop
 8008558:	0800941a 	.word	0x0800941a
 800855c:	0800948b 	.word	0x0800948b

08008560 <__multiply>:
 8008560:	e92d 4ff0 	stmdb	sp!, {r4, r5, r6, r7, r8, r9, sl, fp, lr}
 8008564:	4617      	mov	r7, r2
 8008566:	690a      	ldr	r2, [r1, #16]
 8008568:	693b      	ldr	r3, [r7, #16]
 800856a:	429a      	cmp	r2, r3
 800856c:	bfa8      	it	ge
 800856e:	463b      	movge	r3, r7
 8008570:	4689      	mov	r9, r1
 8008572:	bfa4      	itt	ge
 8008574:	460f      	movge	r7, r1
 8008576:	4699      	movge	r9, r3
 8008578:	693d      	ldr	r5, [r7, #16]
 800857a:	f8d9 a010 	ldr.w	sl, [r9, #16]
 800857e:	68bb      	ldr	r3, [r7, #8]
 8008580:	6879      	ldr	r1, [r7, #4]
 8008582:	eb05 060a 	add.w	r6, r5, sl
 8008586:	42b3      	cmp	r3, r6
 8008588:	b085      	sub	sp, #20
 800858a:	bfb8      	it	lt
 800858c:	3101      	addlt	r1, #1
 800858e:	f7ff fe93 	bl	80082b8 <_Balloc>
 8008592:	b930      	cbnz	r0, 80085a2 <__multiply+0x42>
 8008594:	4602      	mov	r2, r0
 8008596:	4b41      	ldr	r3, [pc, #260]	@ (800869c <__multiply+0x13c>)
 8008598:	4841      	ldr	r0, [pc, #260]	@ (80086a0 <__multiply+0x140>)
 800859a:	f44f 71b1 	mov.w	r1, #354	@ 0x162
 800859e:	f000 fdc3 	bl	8009128 <__assert_func>
 80085a2:	f100 0414 	add.w	r4, r0, #20
 80085a6:	eb04 0e86 	add.w	lr, r4, r6, lsl #2
 80085aa:	4623      	mov	r3, r4
 80085ac:	2200      	movs	r2, #0
 80085ae:	4573      	cmp	r3, lr
 80085b0:	d320      	bcc.n	80085f4 <__multiply+0x94>
 80085b2:	f107 0814 	add.w	r8, r7, #20
 80085b6:	f109 0114 	add.w	r1, r9, #20
 80085ba:	eb08 0585 	add.w	r5, r8, r5, lsl #2
 80085be:	eb01 038a 	add.w	r3, r1, sl, lsl #2
 80085c2:	9302      	str	r3, [sp, #8]
 80085c4:	1beb      	subs	r3, r5, r7
 80085c6:	3b15      	subs	r3, #21
 80085c8:	f023 0303 	bic.w	r3, r3, #3
 80085cc:	3304      	adds	r3, #4
 80085ce:	3715      	adds	r7, #21
 80085d0:	42bd      	cmp	r5, r7
 80085d2:	bf38      	it	cc
 80085d4:	2304      	movcc	r3, #4
 80085d6:	9301      	str	r3, [sp, #4]
 80085d8:	9b02      	ldr	r3, [sp, #8]
 80085da:	9103      	str	r1, [sp, #12]
 80085dc:	428b      	cmp	r3, r1
 80085de:	d80c      	bhi.n	80085fa <__multiply+0x9a>
 80085e0:	2e00      	cmp	r6, #0
 80085e2:	dd03      	ble.n	80085ec <__multiply+0x8c>
 80085e4:	f85e 3d04 	ldr.w	r3, [lr, #-4]!
 80085e8:	2b00      	cmp	r3, #0
 80085ea:	d055      	beq.n	8008698 <__multiply+0x138>
 80085ec:	6106      	str	r6, [r0, #16]
 80085ee:	b005      	add	sp, #20
 80085f0:	e8bd 8ff0 	ldmia.w	sp!, {r4, r5, r6, r7, r8, r9, sl, fp, pc}
 80085f4:	f843 2b04 	str.w	r2, [r3], #4
 80085f8:	e7d9      	b.n	80085ae <__multiply+0x4e>
 80085fa:	f8b1 a000 	ldrh.w	sl, [r1]
 80085fe:	f1ba 0f00 	cmp.w	sl, #0
 8008602:	d01f      	beq.n	8008644 <__multiply+0xe4>
 8008604:	46c4      	mov	ip, r8
 8008606:	46a1      	mov	r9, r4
 8008608:	2700      	movs	r7, #0
 800860a:	f85c 2b04 	ldr.w	r2, [ip], #4
 800860e:	f8d9 3000 	ldr.w	r3, [r9]
 8008612:	fa1f fb82 	uxth.w	fp, r2
 8008616:	b29b      	uxth	r3, r3
 8008618:	fb0a 330b 	mla	r3, sl, fp, r3
 800861c:	443b      	add	r3, r7
 800861e:	f8d9 7000 	ldr.w	r7, [r9]
 8008622:	0c12      	lsrs	r2, r2, #16
 8008624:	0c3f      	lsrs	r7, r7, #16
 8008626:	fb0a 7202 	mla	r2, sl, r2, r7
 800862a:	eb02 4213 	add.w	r2, r2, r3, lsr #16
 800862e:	b29b      	uxth	r3, r3
 8008630:	ea43 4302 	orr.w	r3, r3, r2, lsl #16
 8008634:	4565      	cmp	r5, ip
 8008636:	f849 3b04 	str.w	r3, [r9], #4
 800863a:	ea4f 4712 	mov.w	r7, r2, lsr #16
 800863e:	d8e4      	bhi.n	800860a <__multiply+0xaa>
 8008640:	9b01      	ldr	r3, [sp, #4]
 8008642:	50e7      	str	r7, [r4, r3]
 8008644:	9b03      	ldr	r3, [sp, #12]
 8008646:	f8b3 9002 	ldrh.w	r9, [r3, #2]
 800864a:	3104      	adds	r1, #4
 800864c:	f1b9 0f00 	cmp.w	r9, #0
 8008650:	d020      	beq.n	8008694 <__multiply+0x134>
 8008652:	6823      	ldr	r3, [r4, #0]
 8008654:	4647      	mov	r7, r8
 8008656:	46a4      	mov	ip, r4
 8008658:	f04f 0a00 	mov.w	sl, #0
 800865c:	f8b7 b000 	ldrh.w	fp, [r7]
 8008660:	f8bc 2002 	ldrh.w	r2, [ip, #2]
 8008664:	fb09 220b 	mla	r2, r9, fp, r2
 8008668:	4452      	add	r2, sl
 800866a:	b29b      	uxth	r3, r3
 800866c:	ea43 4302 	orr.w	r3, r3, r2, lsl #16
 8008670:	f84c 3b04 	str.w	r3, [ip], #4
 8008674:	f857 3b04 	ldr.w	r3, [r7], #4
 8008678:	ea4f 4a13 	mov.w	sl, r3, lsr #16
 800867c:	f8bc 3000 	ldrh.w	r3, [ip]
 8008680:	fb09 330a 	mla	r3, r9, sl, r3
 8008684:	eb03 4312 	add.w	r3, r3, r2, lsr #16
 8008688:	42bd      	cmp	r5, r7
 800868a:	ea4f 4a13 	mov.w	sl, r3, lsr #16
 800868e:	d8e5      	bhi.n	800865c <__multiply+0xfc>
 8008690:	9a01      	ldr	r2, [sp, #4]
 8008692:	50a3      	str	r3, [r4, r2]
 8008694:	3404      	adds	r4, #4
 8008696:	e79f      	b.n	80085d8 <__multiply+0x78>
 8008698:	3e01      	subs	r6, #1
 800869a:	e7a1      	b.n	80085e0 <__multiply+0x80>
 800869c:	0800941a 	.word	0x0800941a
 80086a0:	0800948b 	.word	0x0800948b

080086a4 <__pow5mult>:
 80086a4:	e92d 43f8 	stmdb	sp!, {r3, r4, r5, r6, r7, r8, r9, lr}
 80086a8:	4615      	mov	r5, r2
 80086aa:	f012 0203 	ands.w	r2, r2, #3
 80086ae:	4607      	mov	r7, r0
 80086b0:	460e      	mov	r6, r1
 80086b2:	d007      	beq.n	80086c4 <__pow5mult+0x20>
 80086b4:	4c25      	ldr	r4, [pc, #148]	@ (800874c <__pow5mult+0xa8>)
 80086b6:	3a01      	subs	r2, #1
 80086b8:	2300      	movs	r3, #0
 80086ba:	f854 2022 	ldr.w	r2, [r4, r2, lsl #2]
 80086be:	f7ff fe5d 	bl	800837c <__multadd>
 80086c2:	4606      	mov	r6, r0
 80086c4:	10ad      	asrs	r5, r5, #2
 80086c6:	d03d      	beq.n	8008744 <__pow5mult+0xa0>
 80086c8:	69fc      	ldr	r4, [r7, #28]
 80086ca:	b97c      	cbnz	r4, 80086ec <__pow5mult+0x48>
 80086cc:	2010      	movs	r0, #16
 80086ce:	f7ff fd2b 	bl	8008128 <malloc>
 80086d2:	4602      	mov	r2, r0
 80086d4:	61f8      	str	r0, [r7, #28]
 80086d6:	b928      	cbnz	r0, 80086e4 <__pow5mult+0x40>
 80086d8:	4b1d      	ldr	r3, [pc, #116]	@ (8008750 <__pow5mult+0xac>)
 80086da:	481e      	ldr	r0, [pc, #120]	@ (8008754 <__pow5mult+0xb0>)
 80086dc:	f240 11b3 	movw	r1, #435	@ 0x1b3
 80086e0:	f000 fd22 	bl	8009128 <__assert_func>
 80086e4:	e9c0 4401 	strd	r4, r4, [r0, #4]
 80086e8:	6004      	str	r4, [r0, #0]
 80086ea:	60c4      	str	r4, [r0, #12]
 80086ec:	f8d7 801c 	ldr.w	r8, [r7, #28]
 80086f0:	f8d8 4008 	ldr.w	r4, [r8, #8]
 80086f4:	b94c      	cbnz	r4, 800870a <__pow5mult+0x66>
 80086f6:	f240 2171 	movw	r1, #625	@ 0x271
 80086fa:	4638      	mov	r0, r7
 80086fc:	f7ff ff1a 	bl	8008534 <__i2b>
 8008700:	2300      	movs	r3, #0
 8008702:	f8c8 0008 	str.w	r0, [r8, #8]
 8008706:	4604      	mov	r4, r0
 8008708:	6003      	str	r3, [r0, #0]
 800870a:	f04f 0900 	mov.w	r9, #0
 800870e:	07eb      	lsls	r3, r5, #31
 8008710:	d50a      	bpl.n	8008728 <__pow5mult+0x84>
 8008712:	4631      	mov	r1, r6
 8008714:	4622      	mov	r2, r4
 8008716:	4638      	mov	r0, r7
 8008718:	f7ff ff22 	bl	8008560 <__multiply>
 800871c:	4631      	mov	r1, r6
 800871e:	4680      	mov	r8, r0
 8008720:	4638      	mov	r0, r7
 8008722:	f7ff fe09 	bl	8008338 <_Bfree>
 8008726:	4646      	mov	r6, r8
 8008728:	106d      	asrs	r5, r5, #1
 800872a:	d00b      	beq.n	8008744 <__pow5mult+0xa0>
 800872c:	6820      	ldr	r0, [r4, #0]
 800872e:	b938      	cbnz	r0, 8008740 <__pow5mult+0x9c>
 8008730:	4622      	mov	r2, r4
 8008732:	4621      	mov	r1, r4
 8008734:	4638      	mov	r0, r7
 8008736:	f7ff ff13 	bl	8008560 <__multiply>
 800873a:	6020      	str	r0, [r4, #0]
 800873c:	f8c0 9000 	str.w	r9, [r0]
 8008740:	4604      	mov	r4, r0
 8008742:	e7e4      	b.n	800870e <__pow5mult+0x6a>
 8008744:	4630      	mov	r0, r6
 8008746:	e8bd 83f8 	ldmia.w	sp!, {r3, r4, r5, r6, r7, r8, r9, pc}
 800874a:	bf00      	nop
 800874c:	0800968c 	.word	0x0800968c
 8008750:	080093ab 	.word	0x080093ab
 8008754:	0800948b 	.word	0x0800948b

08008758 <__lshift>:
 8008758:	e92d 47f0 	stmdb	sp!, {r4, r5, r6, r7, r8, r9, sl, lr}
 800875c:	460c      	mov	r4, r1
 800875e:	6849      	ldr	r1, [r1, #4]
 8008760:	6923      	ldr	r3, [r4, #16]
 8008762:	eb03 1862 	add.w	r8, r3, r2, asr #5
 8008766:	68a3      	ldr	r3, [r4, #8]
 8008768:	4607      	mov	r7, r0
 800876a:	4691      	mov	r9, r2
 800876c:	ea4f 1a62 	mov.w	sl, r2, asr #5
 8008770:	f108 0601 	add.w	r6, r8, #1
 8008774:	42b3      	cmp	r3, r6
 8008776:	db0b      	blt.n	8008790 <__lshift+0x38>
 8008778:	4638      	mov	r0, r7
 800877a:	f7ff fd9d 	bl	80082b8 <_Balloc>
 800877e:	4605      	mov	r5, r0
 8008780:	b948      	cbnz	r0, 8008796 <__lshift+0x3e>
 8008782:	4602      	mov	r2, r0
 8008784:	4b28      	ldr	r3, [pc, #160]	@ (8008828 <__lshift+0xd0>)
 8008786:	4829      	ldr	r0, [pc, #164]	@ (800882c <__lshift+0xd4>)
 8008788:	f44f 71ef 	mov.w	r1, #478	@ 0x1de
 800878c:	f000 fccc 	bl	8009128 <__assert_func>
 8008790:	3101      	adds	r1, #1
 8008792:	005b      	lsls	r3, r3, #1
 8008794:	e7ee      	b.n	8008774 <__lshift+0x1c>
 8008796:	2300      	movs	r3, #0
 8008798:	f100 0114 	add.w	r1, r0, #20
 800879c:	f100 0210 	add.w	r2, r0, #16
 80087a0:	4618      	mov	r0, r3
 80087a2:	4553      	cmp	r3, sl
 80087a4:	db33      	blt.n	800880e <__lshift+0xb6>
 80087a6:	6920      	ldr	r0, [r4, #16]
 80087a8:	ea2a 7aea 	bic.w	sl, sl, sl, asr #31
 80087ac:	f104 0314 	add.w	r3, r4, #20
 80087b0:	f019 091f 	ands.w	r9, r9, #31
 80087b4:	eb01 018a 	add.w	r1, r1, sl, lsl #2
 80087b8:	eb03 0c80 	add.w	ip, r3, r0, lsl #2
 80087bc:	d02b      	beq.n	8008816 <__lshift+0xbe>
 80087be:	f1c9 0e20 	rsb	lr, r9, #32
 80087c2:	468a      	mov	sl, r1
 80087c4:	2200      	movs	r2, #0
 80087c6:	6818      	ldr	r0, [r3, #0]
 80087c8:	fa00 f009 	lsl.w	r0, r0, r9
 80087cc:	4310      	orrs	r0, r2
 80087ce:	f84a 0b04 	str.w	r0, [sl], #4
 80087d2:	f853 2b04 	ldr.w	r2, [r3], #4
 80087d6:	459c      	cmp	ip, r3
 80087d8:	fa22 f20e 	lsr.w	r2, r2, lr
 80087dc:	d8f3      	bhi.n	80087c6 <__lshift+0x6e>
 80087de:	ebac 0304 	sub.w	r3, ip, r4
 80087e2:	3b15      	subs	r3, #21
 80087e4:	f023 0303 	bic.w	r3, r3, #3
 80087e8:	3304      	adds	r3, #4
 80087ea:	f104 0015 	add.w	r0, r4, #21
 80087ee:	4560      	cmp	r0, ip
 80087f0:	bf88      	it	hi
 80087f2:	2304      	movhi	r3, #4
 80087f4:	50ca      	str	r2, [r1, r3]
 80087f6:	b10a      	cbz	r2, 80087fc <__lshift+0xa4>
 80087f8:	f108 0602 	add.w	r6, r8, #2
 80087fc:	3e01      	subs	r6, #1
 80087fe:	4638      	mov	r0, r7
 8008800:	612e      	str	r6, [r5, #16]
 8008802:	4621      	mov	r1, r4
 8008804:	f7ff fd98 	bl	8008338 <_Bfree>
 8008808:	4628      	mov	r0, r5
 800880a:	e8bd 87f0 	ldmia.w	sp!, {r4, r5, r6, r7, r8, r9, sl, pc}
 800880e:	f842 0f04 	str.w	r0, [r2, #4]!
 8008812:	3301      	adds	r3, #1
 8008814:	e7c5      	b.n	80087a2 <__lshift+0x4a>
 8008816:	3904      	subs	r1, #4
 8008818:	f853 2b04 	ldr.w	r2, [r3], #4
 800881c:	f841 2f04 	str.w	r2, [r1, #4]!
 8008820:	459c      	cmp	ip, r3
 8008822:	d8f9      	bhi.n	8008818 <__lshift+0xc0>
 8008824:	e7ea      	b.n	80087fc <__lshift+0xa4>
 8008826:	bf00      	nop
 8008828:	0800941a 	.word	0x0800941a
 800882c:	0800948b 	.word	0x0800948b

08008830 <__mcmp>:
 8008830:	690a      	ldr	r2, [r1, #16]
 8008832:	4603      	mov	r3, r0
 8008834:	6900      	ldr	r0, [r0, #16]
 8008836:	1a80      	subs	r0, r0, r2
 8008838:	b530      	push	{r4, r5, lr}
 800883a:	d10e      	bne.n	800885a <__mcmp+0x2a>
 800883c:	3314      	adds	r3, #20
 800883e:	3114      	adds	r1, #20
 8008840:	eb03 0482 	add.w	r4, r3, r2, lsl #2
 8008844:	eb01 0182 	add.w	r1, r1, r2, lsl #2
 8008848:	f854 5d04 	ldr.w	r5, [r4, #-4]!
 800884c:	f851 2d04 	ldr.w	r2, [r1, #-4]!
 8008850:	4295      	cmp	r5, r2
 8008852:	d003      	beq.n	800885c <__mcmp+0x2c>
 8008854:	d205      	bcs.n	8008862 <__mcmp+0x32>
 8008856:	f04f 30ff 	mov.w	r0, #4294967295
 800885a:	bd30      	pop	{r4, r5, pc}
 800885c:	42a3      	cmp	r3, r4
 800885e:	d3f3      	bcc.n	8008848 <__mcmp+0x18>
 8008860:	e7fb      	b.n	800885a <__mcmp+0x2a>
 8008862:	2001      	movs	r0, #1
 8008864:	e7f9      	b.n	800885a <__mcmp+0x2a>
	...

08008868 <__mdiff>:
 8008868:	e92d 4ff7 	stmdb	sp!, {r0, r1, r2, r4, r5, r6, r7, r8, r9, sl, fp, lr}
 800886c:	4689      	mov	r9, r1
 800886e:	4606      	mov	r6, r0
 8008870:	4611      	mov	r1, r2
 8008872:	4648      	mov	r0, r9
 8008874:	4614      	mov	r4, r2
 8008876:	f7ff ffdb 	bl	8008830 <__mcmp>
 800887a:	1e05      	subs	r5, r0, #0
 800887c:	d112      	bne.n	80088a4 <__mdiff+0x3c>
 800887e:	4629      	mov	r1, r5
 8008880:	4630      	mov	r0, r6
 8008882:	f7ff fd19 	bl	80082b8 <_Balloc>
 8008886:	4602      	mov	r2, r0
 8008888:	b928      	cbnz	r0, 8008896 <__mdiff+0x2e>
 800888a:	4b3f      	ldr	r3, [pc, #252]	@ (8008988 <__mdiff+0x120>)
 800888c:	f240 2137 	movw	r1, #567	@ 0x237
 8008890:	483e      	ldr	r0, [pc, #248]	@ (800898c <__mdiff+0x124>)
 8008892:	f000 fc49 	bl	8009128 <__assert_func>
 8008896:	2301      	movs	r3, #1
 8008898:	e9c0 3504 	strd	r3, r5, [r0, #16]
 800889c:	4610      	mov	r0, r2
 800889e:	b003      	add	sp, #12
 80088a0:	e8bd 8ff0 	ldmia.w	sp!, {r4, r5, r6, r7, r8, r9, sl, fp, pc}
 80088a4:	bfbc      	itt	lt
 80088a6:	464b      	movlt	r3, r9
 80088a8:	46a1      	movlt	r9, r4
 80088aa:	4630      	mov	r0, r6
 80088ac:	f8d9 1004 	ldr.w	r1, [r9, #4]
 80088b0:	bfba      	itte	lt
 80088b2:	461c      	movlt	r4, r3
 80088b4:	2501      	movlt	r5, #1
 80088b6:	2500      	movge	r5, #0
 80088b8:	f7ff fcfe 	bl	80082b8 <_Balloc>
 80088bc:	4602      	mov	r2, r0
 80088be:	b918      	cbnz	r0, 80088c8 <__mdiff+0x60>
 80088c0:	4b31      	ldr	r3, [pc, #196]	@ (8008988 <__mdiff+0x120>)
 80088c2:	f240 2145 	movw	r1, #581	@ 0x245
 80088c6:	e7e3      	b.n	8008890 <__mdiff+0x28>
 80088c8:	f8d9 7010 	ldr.w	r7, [r9, #16]
 80088cc:	6926      	ldr	r6, [r4, #16]
 80088ce:	60c5      	str	r5, [r0, #12]
 80088d0:	f109 0310 	add.w	r3, r9, #16
 80088d4:	f109 0514 	add.w	r5, r9, #20
 80088d8:	f104 0e14 	add.w	lr, r4, #20
 80088dc:	f100 0b14 	add.w	fp, r0, #20
 80088e0:	eb05 0887 	add.w	r8, r5, r7, lsl #2
 80088e4:	eb0e 0686 	add.w	r6, lr, r6, lsl #2
 80088e8:	9301      	str	r3, [sp, #4]
 80088ea:	46d9      	mov	r9, fp
 80088ec:	f04f 0c00 	mov.w	ip, #0
 80088f0:	9b01      	ldr	r3, [sp, #4]
 80088f2:	f85e 0b04 	ldr.w	r0, [lr], #4
 80088f6:	f853 af04 	ldr.w	sl, [r3, #4]!
 80088fa:	9301      	str	r3, [sp, #4]
 80088fc:	fa1f f38a 	uxth.w	r3, sl
 8008900:	4619      	mov	r1, r3
 8008902:	b283      	uxth	r3, r0
 8008904:	1acb      	subs	r3, r1, r3
 8008906:	0c00      	lsrs	r0, r0, #16
 8008908:	4463      	add	r3, ip
 800890a:	ebc0 401a 	rsb	r0, r0, sl, lsr #16
 800890e:	eb00 4023 	add.w	r0, r0, r3, asr #16
 8008912:	b29b      	uxth	r3, r3
 8008914:	ea43 4300 	orr.w	r3, r3, r0, lsl #16
 8008918:	4576      	cmp	r6, lr
 800891a:	f849 3b04 	str.w	r3, [r9], #4
 800891e:	ea4f 4c20 	mov.w	ip, r0, asr #16
 8008922:	d8e5      	bhi.n	80088f0 <__mdiff+0x88>
 8008924:	1b33      	subs	r3, r6, r4
 8008926:	3b15      	subs	r3, #21
 8008928:	f023 0303 	bic.w	r3, r3, #3
 800892c:	3415      	adds	r4, #21
 800892e:	3304      	adds	r3, #4
 8008930:	42a6      	cmp	r6, r4
 8008932:	bf38      	it	cc
 8008934:	2304      	movcc	r3, #4
 8008936:	441d      	add	r5, r3
 8008938:	445b      	add	r3, fp
 800893a:	461e      	mov	r6, r3
 800893c:	462c      	mov	r4, r5
 800893e:	4544      	cmp	r4, r8
 8008940:	d30e      	bcc.n	8008960 <__mdiff+0xf8>
 8008942:	f108 0103 	add.w	r1, r8, #3
 8008946:	1b49      	subs	r1, r1, r5
 8008948:	f021 0103 	bic.w	r1, r1, #3
 800894c:	3d03      	subs	r5, #3
 800894e:	45a8      	cmp	r8, r5
 8008950:	bf38      	it	cc
 8008952:	2100      	movcc	r1, #0
 8008954:	440b      	add	r3, r1
 8008956:	f853 1d04 	ldr.w	r1, [r3, #-4]!
 800895a:	b191      	cbz	r1, 8008982 <__mdiff+0x11a>
 800895c:	6117      	str	r7, [r2, #16]
 800895e:	e79d      	b.n	800889c <__mdiff+0x34>
 8008960:	f854 1b04 	ldr.w	r1, [r4], #4
 8008964:	46e6      	mov	lr, ip
 8008966:	0c08      	lsrs	r0, r1, #16
 8008968:	fa1c fc81 	uxtah	ip, ip, r1
 800896c:	4471      	add	r1, lr
 800896e:	eb00 402c 	add.w	r0, r0, ip, asr #16
 8008972:	b289      	uxth	r1, r1
 8008974:	ea41 4100 	orr.w	r1, r1, r0, lsl #16
 8008978:	f846 1b04 	str.w	r1, [r6], #4
 800897c:	ea4f 4c20 	mov.w	ip, r0, asr #16
 8008980:	e7dd      	b.n	800893e <__mdiff+0xd6>
 8008982:	3f01      	subs	r7, #1
 8008984:	e7e7      	b.n	8008956 <__mdiff+0xee>
 8008986:	bf00      	nop
 8008988:	0800941a 	.word	0x0800941a
 800898c:	0800948b 	.word	0x0800948b

08008990 <__ulp>:
 8008990:	b082      	sub	sp, #8
 8008992:	ed8d 0b00 	vstr	d0, [sp]
 8008996:	9a01      	ldr	r2, [sp, #4]
 8008998:	4b0f      	ldr	r3, [pc, #60]	@ (80089d8 <__ulp+0x48>)
 800899a:	4013      	ands	r3, r2
 800899c:	f1a3 7350 	sub.w	r3, r3, #54525952	@ 0x3400000
 80089a0:	2b00      	cmp	r3, #0
 80089a2:	dc08      	bgt.n	80089b6 <__ulp+0x26>
 80089a4:	425b      	negs	r3, r3
 80089a6:	f1b3 7fa0 	cmp.w	r3, #20971520	@ 0x1400000
 80089aa:	ea4f 5223 	mov.w	r2, r3, asr #20
 80089ae:	da04      	bge.n	80089ba <__ulp+0x2a>
 80089b0:	f44f 2300 	mov.w	r3, #524288	@ 0x80000
 80089b4:	4113      	asrs	r3, r2
 80089b6:	2200      	movs	r2, #0
 80089b8:	e008      	b.n	80089cc <__ulp+0x3c>
 80089ba:	f1a2 0314 	sub.w	r3, r2, #20
 80089be:	2b1e      	cmp	r3, #30
 80089c0:	bfda      	itte	le
 80089c2:	f04f 4200 	movle.w	r2, #2147483648	@ 0x80000000
 80089c6:	40da      	lsrle	r2, r3
 80089c8:	2201      	movgt	r2, #1
 80089ca:	2300      	movs	r3, #0
 80089cc:	4619      	mov	r1, r3
 80089ce:	4610      	mov	r0, r2
 80089d0:	ec41 0b10 	vmov	d0, r0, r1
 80089d4:	b002      	add	sp, #8
 80089d6:	4770      	bx	lr
 80089d8:	7ff00000 	.word	0x7ff00000

080089dc <__b2d>:
 80089dc:	e92d 41f0 	stmdb	sp!, {r4, r5, r6, r7, r8, lr}
 80089e0:	6906      	ldr	r6, [r0, #16]
 80089e2:	f100 0814 	add.w	r8, r0, #20
 80089e6:	eb08 0686 	add.w	r6, r8, r6, lsl #2
 80089ea:	1f37      	subs	r7, r6, #4
 80089ec:	f856 2c04 	ldr.w	r2, [r6, #-4]
 80089f0:	4610      	mov	r0, r2
 80089f2:	f7ff fd53 	bl	800849c <__hi0bits>
 80089f6:	f1c0 0320 	rsb	r3, r0, #32
 80089fa:	280a      	cmp	r0, #10
 80089fc:	600b      	str	r3, [r1, #0]
 80089fe:	491b      	ldr	r1, [pc, #108]	@ (8008a6c <__b2d+0x90>)
 8008a00:	dc15      	bgt.n	8008a2e <__b2d+0x52>
 8008a02:	f1c0 0c0b 	rsb	ip, r0, #11
 8008a06:	fa22 f30c 	lsr.w	r3, r2, ip
 8008a0a:	45b8      	cmp	r8, r7
 8008a0c:	ea43 0501 	orr.w	r5, r3, r1
 8008a10:	bf34      	ite	cc
 8008a12:	f856 3c08 	ldrcc.w	r3, [r6, #-8]
 8008a16:	2300      	movcs	r3, #0
 8008a18:	3015      	adds	r0, #21
 8008a1a:	fa02 f000 	lsl.w	r0, r2, r0
 8008a1e:	fa23 f30c 	lsr.w	r3, r3, ip
 8008a22:	4303      	orrs	r3, r0
 8008a24:	461c      	mov	r4, r3
 8008a26:	ec45 4b10 	vmov	d0, r4, r5
 8008a2a:	e8bd 81f0 	ldmia.w	sp!, {r4, r5, r6, r7, r8, pc}
 8008a2e:	45b8      	cmp	r8, r7
 8008a30:	bf3a      	itte	cc
 8008a32:	f856 3c08 	ldrcc.w	r3, [r6, #-8]
 8008a36:	f1a6 0708 	subcc.w	r7, r6, #8
 8008a3a:	2300      	movcs	r3, #0
 8008a3c:	380b      	subs	r0, #11
 8008a3e:	d012      	beq.n	8008a66 <__b2d+0x8a>
 8008a40:	f1c0 0120 	rsb	r1, r0, #32
 8008a44:	fa23 f401 	lsr.w	r4, r3, r1
 8008a48:	4082      	lsls	r2, r0
 8008a4a:	4322      	orrs	r2, r4
 8008a4c:	4547      	cmp	r7, r8
 8008a4e:	f042 557f 	orr.w	r5, r2, #1069547520	@ 0x3fc00000
 8008a52:	bf8c      	ite	hi
 8008a54:	f857 2c04 	ldrhi.w	r2, [r7, #-4]
 8008a58:	2200      	movls	r2, #0
 8008a5a:	4083      	lsls	r3, r0
 8008a5c:	40ca      	lsrs	r2, r1
 8008a5e:	f445 1540 	orr.w	r5, r5, #3145728	@ 0x300000
 8008a62:	4313      	orrs	r3, r2
 8008a64:	e7de      	b.n	8008a24 <__b2d+0x48>
 8008a66:	ea42 0501 	orr.w	r5, r2, r1
 8008a6a:	e7db      	b.n	8008a24 <__b2d+0x48>
 8008a6c:	3ff00000 	.word	0x3ff00000

08008a70 <__d2b>:
 8008a70:	e92d 43f7 	stmdb	sp!, {r0, r1, r2, r4, r5, r6, r7, r8, r9, lr}
 8008a74:	460f      	mov	r7, r1
 8008a76:	2101      	movs	r1, #1
 8008a78:	ec59 8b10 	vmov	r8, r9, d0
 8008a7c:	4616      	mov	r6, r2
 8008a7e:	f7ff fc1b 	bl	80082b8 <_Balloc>
 8008a82:	4604      	mov	r4, r0
 8008a84:	b930      	cbnz	r0, 8008a94 <__d2b+0x24>
 8008a86:	4602      	mov	r2, r0
 8008a88:	4b23      	ldr	r3, [pc, #140]	@ (8008b18 <__d2b+0xa8>)
 8008a8a:	4824      	ldr	r0, [pc, #144]	@ (8008b1c <__d2b+0xac>)
 8008a8c:	f240 310f 	movw	r1, #783	@ 0x30f
 8008a90:	f000 fb4a 	bl	8009128 <__assert_func>
 8008a94:	f3c9 550a 	ubfx	r5, r9, #20, #11
 8008a98:	f3c9 0313 	ubfx	r3, r9, #0, #20
 8008a9c:	b10d      	cbz	r5, 8008aa2 <__d2b+0x32>
 8008a9e:	f443 1380 	orr.w	r3, r3, #1048576	@ 0x100000
 8008aa2:	9301      	str	r3, [sp, #4]
 8008aa4:	f1b8 0300 	subs.w	r3, r8, #0
 8008aa8:	d023      	beq.n	8008af2 <__d2b+0x82>
 8008aaa:	4668      	mov	r0, sp
 8008aac:	9300      	str	r3, [sp, #0]
 8008aae:	f7ff fd14 	bl	80084da <__lo0bits>
 8008ab2:	e9dd 1200 	ldrd	r1, r2, [sp]
 8008ab6:	b1d0      	cbz	r0, 8008aee <__d2b+0x7e>
 8008ab8:	f1c0 0320 	rsb	r3, r0, #32
 8008abc:	fa02 f303 	lsl.w	r3, r2, r3
 8008ac0:	430b      	orrs	r3, r1
 8008ac2:	40c2      	lsrs	r2, r0
 8008ac4:	6163      	str	r3, [r4, #20]
 8008ac6:	9201      	str	r2, [sp, #4]
 8008ac8:	9b01      	ldr	r3, [sp, #4]
 8008aca:	61a3      	str	r3, [r4, #24]
 8008acc:	2b00      	cmp	r3, #0
 8008ace:	bf0c      	ite	eq
 8008ad0:	2201      	moveq	r2, #1
 8008ad2:	2202      	movne	r2, #2
 8008ad4:	6122      	str	r2, [r4, #16]
 8008ad6:	b1a5      	cbz	r5, 8008b02 <__d2b+0x92>
 8008ad8:	f2a5 4533 	subw	r5, r5, #1075	@ 0x433
 8008adc:	4405      	add	r5, r0
 8008ade:	603d      	str	r5, [r7, #0]
 8008ae0:	f1c0 0035 	rsb	r0, r0, #53	@ 0x35
 8008ae4:	6030      	str	r0, [r6, #0]
 8008ae6:	4620      	mov	r0, r4
 8008ae8:	b003      	add	sp, #12
 8008aea:	e8bd 83f0 	ldmia.w	sp!, {r4, r5, r6, r7, r8, r9, pc}
 8008aee:	6161      	str	r1, [r4, #20]
 8008af0:	e7ea      	b.n	8008ac8 <__d2b+0x58>
 8008af2:	a801      	add	r0, sp, #4
 8008af4:	f7ff fcf1 	bl	80084da <__lo0bits>
 8008af8:	9b01      	ldr	r3, [sp, #4]
 8008afa:	6163      	str	r3, [r4, #20]
 8008afc:	3020      	adds	r0, #32
 8008afe:	2201      	movs	r2, #1
 8008b00:	e7e8      	b.n	8008ad4 <__d2b+0x64>
 8008b02:	eb04 0382 	add.w	r3, r4, r2, lsl #2
 8008b06:	f2a0 4032 	subw	r0, r0, #1074	@ 0x432
 8008b0a:	6038      	str	r0, [r7, #0]
 8008b0c:	6918      	ldr	r0, [r3, #16]
 8008b0e:	f7ff fcc5 	bl	800849c <__hi0bits>
 8008b12:	ebc0 1042 	rsb	r0, r0, r2, lsl #5
 8008b16:	e7e5      	b.n	8008ae4 <__d2b+0x74>
 8008b18:	0800941a 	.word	0x0800941a
 8008b1c:	0800948b 	.word	0x0800948b

08008b20 <__ratio>:
 8008b20:	e92d 4ff0 	stmdb	sp!, {r4, r5, r6, r7, r8, r9, sl, fp, lr}
 8008b24:	b085      	sub	sp, #20
 8008b26:	e9cd 1000 	strd	r1, r0, [sp]
 8008b2a:	a902      	add	r1, sp, #8
 8008b2c:	f7ff ff56 	bl	80089dc <__b2d>
 8008b30:	9800      	ldr	r0, [sp, #0]
 8008b32:	a903      	add	r1, sp, #12
 8008b34:	ec55 4b10 	vmov	r4, r5, d0
 8008b38:	f7ff ff50 	bl	80089dc <__b2d>
 8008b3c:	9b01      	ldr	r3, [sp, #4]
 8008b3e:	6919      	ldr	r1, [r3, #16]
 8008b40:	9b00      	ldr	r3, [sp, #0]
 8008b42:	691b      	ldr	r3, [r3, #16]
 8008b44:	1ac9      	subs	r1, r1, r3
 8008b46:	e9dd 3202 	ldrd	r3, r2, [sp, #8]
 8008b4a:	1a9b      	subs	r3, r3, r2
 8008b4c:	ec5b ab10 	vmov	sl, fp, d0
 8008b50:	eb03 1341 	add.w	r3, r3, r1, lsl #5
 8008b54:	2b00      	cmp	r3, #0
 8008b56:	bfce      	itee	gt
 8008b58:	462a      	movgt	r2, r5
 8008b5a:	ebc3 3303 	rsble	r3, r3, r3, lsl #12
 8008b5e:	465a      	movle	r2, fp
 8008b60:	462f      	mov	r7, r5
 8008b62:	46d9      	mov	r9, fp
 8008b64:	bfcc      	ite	gt
 8008b66:	eb02 5703 	addgt.w	r7, r2, r3, lsl #20
 8008b6a:	eb02 5903 	addle.w	r9, r2, r3, lsl #20
 8008b6e:	464b      	mov	r3, r9
 8008b70:	4652      	mov	r2, sl
 8008b72:	4620      	mov	r0, r4
 8008b74:	4639      	mov	r1, r7
 8008b76:	f7f7 fe71 	bl	800085c <__aeabi_ddiv>
 8008b7a:	ec41 0b10 	vmov	d0, r0, r1
 8008b7e:	b005      	add	sp, #20
 8008b80:	e8bd 8ff0 	ldmia.w	sp!, {r4, r5, r6, r7, r8, r9, sl, fp, pc}

08008b84 <__copybits>:
 8008b84:	3901      	subs	r1, #1
 8008b86:	b570      	push	{r4, r5, r6, lr}
 8008b88:	1149      	asrs	r1, r1, #5
 8008b8a:	6914      	ldr	r4, [r2, #16]
 8008b8c:	3101      	adds	r1, #1
 8008b8e:	f102 0314 	add.w	r3, r2, #20
 8008b92:	eb00 0181 	add.w	r1, r0, r1, lsl #2
 8008b96:	eb03 0484 	add.w	r4, r3, r4, lsl #2
 8008b9a:	1f05      	subs	r5, r0, #4
 8008b9c:	42a3      	cmp	r3, r4
 8008b9e:	d30c      	bcc.n	8008bba <__copybits+0x36>
 8008ba0:	1aa3      	subs	r3, r4, r2
 8008ba2:	3b11      	subs	r3, #17
 8008ba4:	f023 0303 	bic.w	r3, r3, #3
 8008ba8:	3211      	adds	r2, #17
 8008baa:	42a2      	cmp	r2, r4
 8008bac:	bf88      	it	hi
 8008bae:	2300      	movhi	r3, #0
 8008bb0:	4418      	add	r0, r3
 8008bb2:	2300      	movs	r3, #0
 8008bb4:	4288      	cmp	r0, r1
 8008bb6:	d305      	bcc.n	8008bc4 <__copybits+0x40>
 8008bb8:	bd70      	pop	{r4, r5, r6, pc}
 8008bba:	f853 6b04 	ldr.w	r6, [r3], #4
 8008bbe:	f845 6f04 	str.w	r6, [r5, #4]!
 8008bc2:	e7eb      	b.n	8008b9c <__copybits+0x18>
 8008bc4:	f840 3b04 	str.w	r3, [r0], #4
 8008bc8:	e7f4      	b.n	8008bb4 <__copybits+0x30>

08008bca <__any_on>:
 8008bca:	f100 0214 	add.w	r2, r0, #20
 8008bce:	6900      	ldr	r0, [r0, #16]
 8008bd0:	114b      	asrs	r3, r1, #5
 8008bd2:	4298      	cmp	r0, r3
 8008bd4:	b510      	push	{r4, lr}
 8008bd6:	db11      	blt.n	8008bfc <__any_on+0x32>
 8008bd8:	dd0a      	ble.n	8008bf0 <__any_on+0x26>
 8008bda:	f011 011f 	ands.w	r1, r1, #31
 8008bde:	d007      	beq.n	8008bf0 <__any_on+0x26>
 8008be0:	f852 4023 	ldr.w	r4, [r2, r3, lsl #2]
 8008be4:	fa24 f001 	lsr.w	r0, r4, r1
 8008be8:	fa00 f101 	lsl.w	r1, r0, r1
 8008bec:	428c      	cmp	r4, r1
 8008bee:	d10b      	bne.n	8008c08 <__any_on+0x3e>
 8008bf0:	eb02 0383 	add.w	r3, r2, r3, lsl #2
 8008bf4:	4293      	cmp	r3, r2
 8008bf6:	d803      	bhi.n	8008c00 <__any_on+0x36>
 8008bf8:	2000      	movs	r0, #0
 8008bfa:	bd10      	pop	{r4, pc}
 8008bfc:	4603      	mov	r3, r0
 8008bfe:	e7f7      	b.n	8008bf0 <__any_on+0x26>
 8008c00:	f853 1d04 	ldr.w	r1, [r3, #-4]!
 8008c04:	2900      	cmp	r1, #0
 8008c06:	d0f5      	beq.n	8008bf4 <__any_on+0x2a>
 8008c08:	2001      	movs	r0, #1
 8008c0a:	e7f6      	b.n	8008bfa <__any_on+0x30>

08008c0c <__ascii_wctomb>:
 8008c0c:	4603      	mov	r3, r0
 8008c0e:	4608      	mov	r0, r1
 8008c10:	b141      	cbz	r1, 8008c24 <__ascii_wctomb+0x18>
 8008c12:	2aff      	cmp	r2, #255	@ 0xff
 8008c14:	d904      	bls.n	8008c20 <__ascii_wctomb+0x14>
 8008c16:	228a      	movs	r2, #138	@ 0x8a
 8008c18:	601a      	str	r2, [r3, #0]
 8008c1a:	f04f 30ff 	mov.w	r0, #4294967295
 8008c1e:	4770      	bx	lr
 8008c20:	700a      	strb	r2, [r1, #0]
 8008c22:	2001      	movs	r0, #1
 8008c24:	4770      	bx	lr

08008c26 <__sfputc_r>:
 8008c26:	6893      	ldr	r3, [r2, #8]
 8008c28:	3b01      	subs	r3, #1
 8008c2a:	2b00      	cmp	r3, #0
 8008c2c:	b410      	push	{r4}
 8008c2e:	6093      	str	r3, [r2, #8]
 8008c30:	da08      	bge.n	8008c44 <__sfputc_r+0x1e>
 8008c32:	6994      	ldr	r4, [r2, #24]
 8008c34:	42a3      	cmp	r3, r4
 8008c36:	db01      	blt.n	8008c3c <__sfputc_r+0x16>
 8008c38:	290a      	cmp	r1, #10
 8008c3a:	d103      	bne.n	8008c44 <__sfputc_r+0x1e>
 8008c3c:	f85d 4b04 	ldr.w	r4, [sp], #4
 8008c40:	f7fd bf35 	b.w	8006aae <__swbuf_r>
 8008c44:	6813      	ldr	r3, [r2, #0]
 8008c46:	1c58      	adds	r0, r3, #1
 8008c48:	6010      	str	r0, [r2, #0]
 8008c4a:	7019      	strb	r1, [r3, #0]
 8008c4c:	4608      	mov	r0, r1
 8008c4e:	f85d 4b04 	ldr.w	r4, [sp], #4
 8008c52:	4770      	bx	lr

08008c54 <__sfputs_r>:
 8008c54:	b5f8      	push	{r3, r4, r5, r6, r7, lr}
 8008c56:	4606      	mov	r6, r0
 8008c58:	460f      	mov	r7, r1
 8008c5a:	4614      	mov	r4, r2
 8008c5c:	18d5      	adds	r5, r2, r3
 8008c5e:	42ac      	cmp	r4, r5
 8008c60:	d101      	bne.n	8008c66 <__sfputs_r+0x12>
 8008c62:	2000      	movs	r0, #0
 8008c64:	e007      	b.n	8008c76 <__sfputs_r+0x22>
 8008c66:	f814 1b01 	ldrb.w	r1, [r4], #1
 8008c6a:	463a      	mov	r2, r7
 8008c6c:	4630      	mov	r0, r6
 8008c6e:	f7ff ffda 	bl	8008c26 <__sfputc_r>
 8008c72:	1c43      	adds	r3, r0, #1
 8008c74:	d1f3      	bne.n	8008c5e <__sfputs_r+0xa>
 8008c76:	bdf8      	pop	{r3, r4, r5, r6, r7, pc}

08008c78 <_vfiprintf_r>:
 8008c78:	e92d 4ff0 	stmdb	sp!, {r4, r5, r6, r7, r8, r9, sl, fp, lr}
 8008c7c:	460d      	mov	r5, r1
 8008c7e:	b09d      	sub	sp, #116	@ 0x74
 8008c80:	4614      	mov	r4, r2
 8008c82:	4698      	mov	r8, r3
 8008c84:	4606      	mov	r6, r0
 8008c86:	b118      	cbz	r0, 8008c90 <_vfiprintf_r+0x18>
 8008c88:	6a03      	ldr	r3, [r0, #32]
 8008c8a:	b90b      	cbnz	r3, 8008c90 <_vfiprintf_r+0x18>
 8008c8c:	f7fd fe26 	bl	80068dc <__sinit>
 8008c90:	6e6b      	ldr	r3, [r5, #100]	@ 0x64
 8008c92:	07d9      	lsls	r1, r3, #31
 8008c94:	d405      	bmi.n	8008ca2 <_vfiprintf_r+0x2a>
 8008c96:	89ab      	ldrh	r3, [r5, #12]
 8008c98:	059a      	lsls	r2, r3, #22
 8008c9a:	d402      	bmi.n	8008ca2 <_vfiprintf_r+0x2a>
 8008c9c:	6da8      	ldr	r0, [r5, #88]	@ 0x58
 8008c9e:	f7fe f84e 	bl	8006d3e <__retarget_lock_acquire_recursive>
 8008ca2:	89ab      	ldrh	r3, [r5, #12]
 8008ca4:	071b      	lsls	r3, r3, #28
 8008ca6:	d501      	bpl.n	8008cac <_vfiprintf_r+0x34>
 8008ca8:	692b      	ldr	r3, [r5, #16]
 8008caa:	b99b      	cbnz	r3, 8008cd4 <_vfiprintf_r+0x5c>
 8008cac:	4629      	mov	r1, r5
 8008cae:	4630      	mov	r0, r6
 8008cb0:	f7fd ff3c 	bl	8006b2c <__swsetup_r>
 8008cb4:	b170      	cbz	r0, 8008cd4 <_vfiprintf_r+0x5c>
 8008cb6:	6e6b      	ldr	r3, [r5, #100]	@ 0x64
 8008cb8:	07dc      	lsls	r4, r3, #31
 8008cba:	d504      	bpl.n	8008cc6 <_vfiprintf_r+0x4e>
 8008cbc:	f04f 30ff 	mov.w	r0, #4294967295
 8008cc0:	b01d      	add	sp, #116	@ 0x74
 8008cc2:	e8bd 8ff0 	ldmia.w	sp!, {r4, r5, r6, r7, r8, r9, sl, fp, pc}
 8008cc6:	89ab      	ldrh	r3, [r5, #12]
 8008cc8:	0598      	lsls	r0, r3, #22
 8008cca:	d4f7      	bmi.n	8008cbc <_vfiprintf_r+0x44>
 8008ccc:	6da8      	ldr	r0, [r5, #88]	@ 0x58
 8008cce:	f7fe f837 	bl	8006d40 <__retarget_lock_release_recursive>
 8008cd2:	e7f3      	b.n	8008cbc <_vfiprintf_r+0x44>
 8008cd4:	2300      	movs	r3, #0
 8008cd6:	9309      	str	r3, [sp, #36]	@ 0x24
 8008cd8:	2320      	movs	r3, #32
 8008cda:	f88d 3029 	strb.w	r3, [sp, #41]	@ 0x29
 8008cde:	f8cd 800c 	str.w	r8, [sp, #12]
 8008ce2:	2330      	movs	r3, #48	@ 0x30
 8008ce4:	f8df 81ac 	ldr.w	r8, [pc, #428]	@ 8008e94 <_vfiprintf_r+0x21c>
 8008ce8:	f88d 302a 	strb.w	r3, [sp, #42]	@ 0x2a
 8008cec:	f04f 0901 	mov.w	r9, #1
 8008cf0:	4623      	mov	r3, r4
 8008cf2:	469a      	mov	sl, r3
 8008cf4:	f813 2b01 	ldrb.w	r2, [r3], #1
 8008cf8:	b10a      	cbz	r2, 8008cfe <_vfiprintf_r+0x86>
 8008cfa:	2a25      	cmp	r2, #37	@ 0x25
 8008cfc:	d1f9      	bne.n	8008cf2 <_vfiprintf_r+0x7a>
 8008cfe:	ebba 0b04 	subs.w	fp, sl, r4
 8008d02:	d00b      	beq.n	8008d1c <_vfiprintf_r+0xa4>
 8008d04:	465b      	mov	r3, fp
 8008d06:	4622      	mov	r2, r4
 8008d08:	4629      	mov	r1, r5
 8008d0a:	4630      	mov	r0, r6
 8008d0c:	f7ff ffa2 	bl	8008c54 <__sfputs_r>
 8008d10:	3001      	adds	r0, #1
 8008d12:	f000 80a7 	beq.w	8008e64 <_vfiprintf_r+0x1ec>
 8008d16:	9a09      	ldr	r2, [sp, #36]	@ 0x24
 8008d18:	445a      	add	r2, fp
 8008d1a:	9209      	str	r2, [sp, #36]	@ 0x24
 8008d1c:	f89a 3000 	ldrb.w	r3, [sl]
 8008d20:	2b00      	cmp	r3, #0
 8008d22:	f000 809f 	beq.w	8008e64 <_vfiprintf_r+0x1ec>
 8008d26:	2300      	movs	r3, #0
 8008d28:	f04f 32ff 	mov.w	r2, #4294967295
 8008d2c:	e9cd 2305 	strd	r2, r3, [sp, #20]
 8008d30:	f10a 0a01 	add.w	sl, sl, #1
 8008d34:	9304      	str	r3, [sp, #16]
 8008d36:	9307      	str	r3, [sp, #28]
 8008d38:	f88d 3053 	strb.w	r3, [sp, #83]	@ 0x53
 8008d3c:	931a      	str	r3, [sp, #104]	@ 0x68
 8008d3e:	4654      	mov	r4, sl
 8008d40:	2205      	movs	r2, #5
 8008d42:	f814 1b01 	ldrb.w	r1, [r4], #1
 8008d46:	4853      	ldr	r0, [pc, #332]	@ (8008e94 <_vfiprintf_r+0x21c>)
 8008d48:	f7f7 fa4a 	bl	80001e0 <memchr>
 8008d4c:	9a04      	ldr	r2, [sp, #16]
 8008d4e:	b9d8      	cbnz	r0, 8008d88 <_vfiprintf_r+0x110>
 8008d50:	06d1      	lsls	r1, r2, #27
 8008d52:	bf44      	itt	mi
 8008d54:	2320      	movmi	r3, #32
 8008d56:	f88d 3053 	strbmi.w	r3, [sp, #83]	@ 0x53
 8008d5a:	0713      	lsls	r3, r2, #28
 8008d5c:	bf44      	itt	mi
 8008d5e:	232b      	movmi	r3, #43	@ 0x2b
 8008d60:	f88d 3053 	strbmi.w	r3, [sp, #83]	@ 0x53
 8008d64:	f89a 3000 	ldrb.w	r3, [sl]
 8008d68:	2b2a      	cmp	r3, #42	@ 0x2a
 8008d6a:	d015      	beq.n	8008d98 <_vfiprintf_r+0x120>
 8008d6c:	9a07      	ldr	r2, [sp, #28]
 8008d6e:	4654      	mov	r4, sl
 8008d70:	2000      	movs	r0, #0
 8008d72:	f04f 0c0a 	mov.w	ip, #10
 8008d76:	4621      	mov	r1, r4
 8008d78:	f811 3b01 	ldrb.w	r3, [r1], #1
 8008d7c:	3b30      	subs	r3, #48	@ 0x30
 8008d7e:	2b09      	cmp	r3, #9
 8008d80:	d94b      	bls.n	8008e1a <_vfiprintf_r+0x1a2>
 8008d82:	b1b0      	cbz	r0, 8008db2 <_vfiprintf_r+0x13a>
 8008d84:	9207      	str	r2, [sp, #28]
 8008d86:	e014      	b.n	8008db2 <_vfiprintf_r+0x13a>
 8008d88:	eba0 0308 	sub.w	r3, r0, r8
 8008d8c:	fa09 f303 	lsl.w	r3, r9, r3
 8008d90:	4313      	orrs	r3, r2
 8008d92:	9304      	str	r3, [sp, #16]
 8008d94:	46a2      	mov	sl, r4
 8008d96:	e7d2      	b.n	8008d3e <_vfiprintf_r+0xc6>
 8008d98:	9b03      	ldr	r3, [sp, #12]
 8008d9a:	1d19      	adds	r1, r3, #4
 8008d9c:	681b      	ldr	r3, [r3, #0]
 8008d9e:	9103      	str	r1, [sp, #12]
 8008da0:	2b00      	cmp	r3, #0
 8008da2:	bfbb      	ittet	lt
 8008da4:	425b      	neglt	r3, r3
 8008da6:	f042 0202 	orrlt.w	r2, r2, #2
 8008daa:	9307      	strge	r3, [sp, #28]
 8008dac:	9307      	strlt	r3, [sp, #28]
 8008dae:	bfb8      	it	lt
 8008db0:	9204      	strlt	r2, [sp, #16]
 8008db2:	7823      	ldrb	r3, [r4, #0]
 8008db4:	2b2e      	cmp	r3, #46	@ 0x2e
 8008db6:	d10a      	bne.n	8008dce <_vfiprintf_r+0x156>
 8008db8:	7863      	ldrb	r3, [r4, #1]
 8008dba:	2b2a      	cmp	r3, #42	@ 0x2a
 8008dbc:	d132      	bne.n	8008e24 <_vfiprintf_r+0x1ac>
 8008dbe:	9b03      	ldr	r3, [sp, #12]
 8008dc0:	1d1a      	adds	r2, r3, #4
 8008dc2:	681b      	ldr	r3, [r3, #0]
 8008dc4:	9203      	str	r2, [sp, #12]
 8008dc6:	ea43 73e3 	orr.w	r3, r3, r3, asr #31
 8008dca:	3402      	adds	r4, #2
 8008dcc:	9305      	str	r3, [sp, #20]
 8008dce:	f8df a0d4 	ldr.w	sl, [pc, #212]	@ 8008ea4 <_vfiprintf_r+0x22c>
 8008dd2:	7821      	ldrb	r1, [r4, #0]
 8008dd4:	2203      	movs	r2, #3
 8008dd6:	4650      	mov	r0, sl
 8008dd8:	f7f7 fa02 	bl	80001e0 <memchr>
 8008ddc:	b138      	cbz	r0, 8008dee <_vfiprintf_r+0x176>
 8008dde:	9b04      	ldr	r3, [sp, #16]
 8008de0:	eba0 000a 	sub.w	r0, r0, sl
 8008de4:	2240      	movs	r2, #64	@ 0x40
 8008de6:	4082      	lsls	r2, r0
 8008de8:	4313      	orrs	r3, r2
 8008dea:	3401      	adds	r4, #1
 8008dec:	9304      	str	r3, [sp, #16]
 8008dee:	f814 1b01 	ldrb.w	r1, [r4], #1
 8008df2:	4829      	ldr	r0, [pc, #164]	@ (8008e98 <_vfiprintf_r+0x220>)
 8008df4:	f88d 1028 	strb.w	r1, [sp, #40]	@ 0x28
 8008df8:	2206      	movs	r2, #6
 8008dfa:	f7f7 f9f1 	bl	80001e0 <memchr>
 8008dfe:	2800      	cmp	r0, #0
 8008e00:	d03f      	beq.n	8008e82 <_vfiprintf_r+0x20a>
 8008e02:	4b26      	ldr	r3, [pc, #152]	@ (8008e9c <_vfiprintf_r+0x224>)
 8008e04:	bb1b      	cbnz	r3, 8008e4e <_vfiprintf_r+0x1d6>
 8008e06:	9b03      	ldr	r3, [sp, #12]
 8008e08:	3307      	adds	r3, #7
 8008e0a:	f023 0307 	bic.w	r3, r3, #7
 8008e0e:	3308      	adds	r3, #8
 8008e10:	9303      	str	r3, [sp, #12]
 8008e12:	9b09      	ldr	r3, [sp, #36]	@ 0x24
 8008e14:	443b      	add	r3, r7
 8008e16:	9309      	str	r3, [sp, #36]	@ 0x24
 8008e18:	e76a      	b.n	8008cf0 <_vfiprintf_r+0x78>
 8008e1a:	fb0c 3202 	mla	r2, ip, r2, r3
 8008e1e:	460c      	mov	r4, r1
 8008e20:	2001      	movs	r0, #1
 8008e22:	e7a8      	b.n	8008d76 <_vfiprintf_r+0xfe>
 8008e24:	2300      	movs	r3, #0
 8008e26:	3401      	adds	r4, #1
 8008e28:	9305      	str	r3, [sp, #20]
 8008e2a:	4619      	mov	r1, r3
 8008e2c:	f04f 0c0a 	mov.w	ip, #10
 8008e30:	4620      	mov	r0, r4
 8008e32:	f810 2b01 	ldrb.w	r2, [r0], #1
 8008e36:	3a30      	subs	r2, #48	@ 0x30
 8008e38:	2a09      	cmp	r2, #9
 8008e3a:	d903      	bls.n	8008e44 <_vfiprintf_r+0x1cc>
 8008e3c:	2b00      	cmp	r3, #0
 8008e3e:	d0c6      	beq.n	8008dce <_vfiprintf_r+0x156>
 8008e40:	9105      	str	r1, [sp, #20]
 8008e42:	e7c4      	b.n	8008dce <_vfiprintf_r+0x156>
 8008e44:	fb0c 2101 	mla	r1, ip, r1, r2
 8008e48:	4604      	mov	r4, r0
 8008e4a:	2301      	movs	r3, #1
 8008e4c:	e7f0      	b.n	8008e30 <_vfiprintf_r+0x1b8>
 8008e4e:	ab03      	add	r3, sp, #12
 8008e50:	9300      	str	r3, [sp, #0]
 8008e52:	462a      	mov	r2, r5
 8008e54:	4b12      	ldr	r3, [pc, #72]	@ (8008ea0 <_vfiprintf_r+0x228>)
 8008e56:	a904      	add	r1, sp, #16
 8008e58:	4630      	mov	r0, r6
 8008e5a:	f7fd f8fd 	bl	8006058 <_printf_float>
 8008e5e:	4607      	mov	r7, r0
 8008e60:	1c78      	adds	r0, r7, #1
 8008e62:	d1d6      	bne.n	8008e12 <_vfiprintf_r+0x19a>
 8008e64:	6e6b      	ldr	r3, [r5, #100]	@ 0x64
 8008e66:	07d9      	lsls	r1, r3, #31
 8008e68:	d405      	bmi.n	8008e76 <_vfiprintf_r+0x1fe>
 8008e6a:	89ab      	ldrh	r3, [r5, #12]
 8008e6c:	059a      	lsls	r2, r3, #22
 8008e6e:	d402      	bmi.n	8008e76 <_vfiprintf_r+0x1fe>
 8008e70:	6da8      	ldr	r0, [r5, #88]	@ 0x58
 8008e72:	f7fd ff65 	bl	8006d40 <__retarget_lock_release_recursive>
 8008e76:	89ab      	ldrh	r3, [r5, #12]
 8008e78:	065b      	lsls	r3, r3, #25
 8008e7a:	f53f af1f 	bmi.w	8008cbc <_vfiprintf_r+0x44>
 8008e7e:	9809      	ldr	r0, [sp, #36]	@ 0x24
 8008e80:	e71e      	b.n	8008cc0 <_vfiprintf_r+0x48>
 8008e82:	ab03      	add	r3, sp, #12
 8008e84:	9300      	str	r3, [sp, #0]
 8008e86:	462a      	mov	r2, r5
 8008e88:	4b05      	ldr	r3, [pc, #20]	@ (8008ea0 <_vfiprintf_r+0x228>)
 8008e8a:	a904      	add	r1, sp, #16
 8008e8c:	4630      	mov	r0, r6
 8008e8e:	f7fd fb7b 	bl	8006588 <_printf_i>
 8008e92:	e7e4      	b.n	8008e5e <_vfiprintf_r+0x1e6>
 8008e94:	080094e4 	.word	0x080094e4
 8008e98:	080094ee 	.word	0x080094ee
 8008e9c:	08006059 	.word	0x08006059
 8008ea0:	08008c55 	.word	0x08008c55
 8008ea4:	080094ea 	.word	0x080094ea

08008ea8 <__sflush_r>:
 8008ea8:	f9b1 200c 	ldrsh.w	r2, [r1, #12]
 8008eac:	e92d 41f0 	stmdb	sp!, {r4, r5, r6, r7, r8, lr}
 8008eb0:	0716      	lsls	r6, r2, #28
 8008eb2:	4605      	mov	r5, r0
 8008eb4:	460c      	mov	r4, r1
 8008eb6:	d454      	bmi.n	8008f62 <__sflush_r+0xba>
 8008eb8:	684b      	ldr	r3, [r1, #4]
 8008eba:	2b00      	cmp	r3, #0
 8008ebc:	dc02      	bgt.n	8008ec4 <__sflush_r+0x1c>
 8008ebe:	6c0b      	ldr	r3, [r1, #64]	@ 0x40
 8008ec0:	2b00      	cmp	r3, #0
 8008ec2:	dd48      	ble.n	8008f56 <__sflush_r+0xae>
 8008ec4:	6ae6      	ldr	r6, [r4, #44]	@ 0x2c
 8008ec6:	2e00      	cmp	r6, #0
 8008ec8:	d045      	beq.n	8008f56 <__sflush_r+0xae>
 8008eca:	2300      	movs	r3, #0
 8008ecc:	f412 5280 	ands.w	r2, r2, #4096	@ 0x1000
 8008ed0:	682f      	ldr	r7, [r5, #0]
 8008ed2:	6a21      	ldr	r1, [r4, #32]
 8008ed4:	602b      	str	r3, [r5, #0]
 8008ed6:	d030      	beq.n	8008f3a <__sflush_r+0x92>
 8008ed8:	6d62      	ldr	r2, [r4, #84]	@ 0x54
 8008eda:	89a3      	ldrh	r3, [r4, #12]
 8008edc:	0759      	lsls	r1, r3, #29
 8008ede:	d505      	bpl.n	8008eec <__sflush_r+0x44>
 8008ee0:	6863      	ldr	r3, [r4, #4]
 8008ee2:	1ad2      	subs	r2, r2, r3
 8008ee4:	6b63      	ldr	r3, [r4, #52]	@ 0x34
 8008ee6:	b10b      	cbz	r3, 8008eec <__sflush_r+0x44>
 8008ee8:	6c23      	ldr	r3, [r4, #64]	@ 0x40
 8008eea:	1ad2      	subs	r2, r2, r3
 8008eec:	2300      	movs	r3, #0
 8008eee:	6ae6      	ldr	r6, [r4, #44]	@ 0x2c
 8008ef0:	6a21      	ldr	r1, [r4, #32]
 8008ef2:	4628      	mov	r0, r5
 8008ef4:	47b0      	blx	r6
 8008ef6:	1c43      	adds	r3, r0, #1
 8008ef8:	89a3      	ldrh	r3, [r4, #12]
 8008efa:	d106      	bne.n	8008f0a <__sflush_r+0x62>
 8008efc:	6829      	ldr	r1, [r5, #0]
 8008efe:	291d      	cmp	r1, #29
 8008f00:	d82b      	bhi.n	8008f5a <__sflush_r+0xb2>
 8008f02:	4a2a      	ldr	r2, [pc, #168]	@ (8008fac <__sflush_r+0x104>)
 8008f04:	40ca      	lsrs	r2, r1
 8008f06:	07d6      	lsls	r6, r2, #31
 8008f08:	d527      	bpl.n	8008f5a <__sflush_r+0xb2>
 8008f0a:	2200      	movs	r2, #0
 8008f0c:	6062      	str	r2, [r4, #4]
 8008f0e:	04d9      	lsls	r1, r3, #19
 8008f10:	6922      	ldr	r2, [r4, #16]
 8008f12:	6022      	str	r2, [r4, #0]
 8008f14:	d504      	bpl.n	8008f20 <__sflush_r+0x78>
 8008f16:	1c42      	adds	r2, r0, #1
 8008f18:	d101      	bne.n	8008f1e <__sflush_r+0x76>
 8008f1a:	682b      	ldr	r3, [r5, #0]
 8008f1c:	b903      	cbnz	r3, 8008f20 <__sflush_r+0x78>
 8008f1e:	6560      	str	r0, [r4, #84]	@ 0x54
 8008f20:	6b61      	ldr	r1, [r4, #52]	@ 0x34
 8008f22:	602f      	str	r7, [r5, #0]
 8008f24:	b1b9      	cbz	r1, 8008f56 <__sflush_r+0xae>
 8008f26:	f104 0344 	add.w	r3, r4, #68	@ 0x44
 8008f2a:	4299      	cmp	r1, r3
 8008f2c:	d002      	beq.n	8008f34 <__sflush_r+0x8c>
 8008f2e:	4628      	mov	r0, r5
 8008f30:	f7fe fd76 	bl	8007a20 <_free_r>
 8008f34:	2300      	movs	r3, #0
 8008f36:	6363      	str	r3, [r4, #52]	@ 0x34
 8008f38:	e00d      	b.n	8008f56 <__sflush_r+0xae>
 8008f3a:	2301      	movs	r3, #1
 8008f3c:	4628      	mov	r0, r5
 8008f3e:	47b0      	blx	r6
 8008f40:	4602      	mov	r2, r0
 8008f42:	1c50      	adds	r0, r2, #1
 8008f44:	d1c9      	bne.n	8008eda <__sflush_r+0x32>
 8008f46:	682b      	ldr	r3, [r5, #0]
 8008f48:	2b00      	cmp	r3, #0
 8008f4a:	d0c6      	beq.n	8008eda <__sflush_r+0x32>
 8008f4c:	2b1d      	cmp	r3, #29
 8008f4e:	d001      	beq.n	8008f54 <__sflush_r+0xac>
 8008f50:	2b16      	cmp	r3, #22
 8008f52:	d11e      	bne.n	8008f92 <__sflush_r+0xea>
 8008f54:	602f      	str	r7, [r5, #0]
 8008f56:	2000      	movs	r0, #0
 8008f58:	e022      	b.n	8008fa0 <__sflush_r+0xf8>
 8008f5a:	f043 0340 	orr.w	r3, r3, #64	@ 0x40
 8008f5e:	b21b      	sxth	r3, r3
 8008f60:	e01b      	b.n	8008f9a <__sflush_r+0xf2>
 8008f62:	690f      	ldr	r7, [r1, #16]
 8008f64:	2f00      	cmp	r7, #0
 8008f66:	d0f6      	beq.n	8008f56 <__sflush_r+0xae>
 8008f68:	0793      	lsls	r3, r2, #30
 8008f6a:	680e      	ldr	r6, [r1, #0]
 8008f6c:	bf08      	it	eq
 8008f6e:	694b      	ldreq	r3, [r1, #20]
 8008f70:	600f      	str	r7, [r1, #0]
 8008f72:	bf18      	it	ne
 8008f74:	2300      	movne	r3, #0
 8008f76:	eba6 0807 	sub.w	r8, r6, r7
 8008f7a:	608b      	str	r3, [r1, #8]
 8008f7c:	f1b8 0f00 	cmp.w	r8, #0
 8008f80:	dde9      	ble.n	8008f56 <__sflush_r+0xae>
 8008f82:	6a21      	ldr	r1, [r4, #32]
 8008f84:	6aa6      	ldr	r6, [r4, #40]	@ 0x28
 8008f86:	4643      	mov	r3, r8
 8008f88:	463a      	mov	r2, r7
 8008f8a:	4628      	mov	r0, r5
 8008f8c:	47b0      	blx	r6
 8008f8e:	2800      	cmp	r0, #0
 8008f90:	dc08      	bgt.n	8008fa4 <__sflush_r+0xfc>
 8008f92:	f9b4 300c 	ldrsh.w	r3, [r4, #12]
 8008f96:	f043 0340 	orr.w	r3, r3, #64	@ 0x40
 8008f9a:	81a3      	strh	r3, [r4, #12]
 8008f9c:	f04f 30ff 	mov.w	r0, #4294967295
 8008fa0:	e8bd 81f0 	ldmia.w	sp!, {r4, r5, r6, r7, r8, pc}
 8008fa4:	4407      	add	r7, r0
 8008fa6:	eba8 0800 	sub.w	r8, r8, r0
 8008faa:	e7e7      	b.n	8008f7c <__sflush_r+0xd4>
 8008fac:	20400001 	.word	0x20400001

08008fb0 <_fflush_r>:
 8008fb0:	b538      	push	{r3, r4, r5, lr}
 8008fb2:	690b      	ldr	r3, [r1, #16]
 8008fb4:	4605      	mov	r5, r0
 8008fb6:	460c      	mov	r4, r1
 8008fb8:	b913      	cbnz	r3, 8008fc0 <_fflush_r+0x10>
 8008fba:	2500      	movs	r5, #0
 8008fbc:	4628      	mov	r0, r5
 8008fbe:	bd38      	pop	{r3, r4, r5, pc}
 8008fc0:	b118      	cbz	r0, 8008fca <_fflush_r+0x1a>
 8008fc2:	6a03      	ldr	r3, [r0, #32]
 8008fc4:	b90b      	cbnz	r3, 8008fca <_fflush_r+0x1a>
 8008fc6:	f7fd fc89 	bl	80068dc <__sinit>
 8008fca:	f9b4 300c 	ldrsh.w	r3, [r4, #12]
 8008fce:	2b00      	cmp	r3, #0
 8008fd0:	d0f3      	beq.n	8008fba <_fflush_r+0xa>
 8008fd2:	6e62      	ldr	r2, [r4, #100]	@ 0x64
 8008fd4:	07d0      	lsls	r0, r2, #31
 8008fd6:	d404      	bmi.n	8008fe2 <_fflush_r+0x32>
 8008fd8:	0599      	lsls	r1, r3, #22
 8008fda:	d402      	bmi.n	8008fe2 <_fflush_r+0x32>
 8008fdc:	6da0      	ldr	r0, [r4, #88]	@ 0x58
 8008fde:	f7fd feae 	bl	8006d3e <__retarget_lock_acquire_recursive>
 8008fe2:	4628      	mov	r0, r5
 8008fe4:	4621      	mov	r1, r4
 8008fe6:	f7ff ff5f 	bl	8008ea8 <__sflush_r>
 8008fea:	6e63      	ldr	r3, [r4, #100]	@ 0x64
 8008fec:	07da      	lsls	r2, r3, #31
 8008fee:	4605      	mov	r5, r0
 8008ff0:	d4e4      	bmi.n	8008fbc <_fflush_r+0xc>
 8008ff2:	89a3      	ldrh	r3, [r4, #12]
 8008ff4:	059b      	lsls	r3, r3, #22
 8008ff6:	d4e1      	bmi.n	8008fbc <_fflush_r+0xc>
 8008ff8:	6da0      	ldr	r0, [r4, #88]	@ 0x58
 8008ffa:	f7fd fea1 	bl	8006d40 <__retarget_lock_release_recursive>
 8008ffe:	e7dd      	b.n	8008fbc <_fflush_r+0xc>

08009000 <__swhatbuf_r>:
 8009000:	b570      	push	{r4, r5, r6, lr}
 8009002:	460c      	mov	r4, r1
 8009004:	f9b1 100e 	ldrsh.w	r1, [r1, #14]
 8009008:	2900      	cmp	r1, #0
 800900a:	b096      	sub	sp, #88	@ 0x58
 800900c:	4615      	mov	r5, r2
 800900e:	461e      	mov	r6, r3
 8009010:	da0d      	bge.n	800902e <__swhatbuf_r+0x2e>
 8009012:	89a3      	ldrh	r3, [r4, #12]
 8009014:	f013 0f80 	tst.w	r3, #128	@ 0x80
 8009018:	f04f 0100 	mov.w	r1, #0
 800901c:	bf14      	ite	ne
 800901e:	2340      	movne	r3, #64	@ 0x40
 8009020:	f44f 6380 	moveq.w	r3, #1024	@ 0x400
 8009024:	2000      	movs	r0, #0
 8009026:	6031      	str	r1, [r6, #0]
 8009028:	602b      	str	r3, [r5, #0]
 800902a:	b016      	add	sp, #88	@ 0x58
 800902c:	bd70      	pop	{r4, r5, r6, pc}
 800902e:	466a      	mov	r2, sp
 8009030:	f000 f848 	bl	80090c4 <_fstat_r>
 8009034:	2800      	cmp	r0, #0
 8009036:	dbec      	blt.n	8009012 <__swhatbuf_r+0x12>
 8009038:	9901      	ldr	r1, [sp, #4]
 800903a:	f401 4170 	and.w	r1, r1, #61440	@ 0xf000
 800903e:	f5a1 5300 	sub.w	r3, r1, #8192	@ 0x2000
 8009042:	4259      	negs	r1, r3
 8009044:	4159      	adcs	r1, r3
 8009046:	f44f 6380 	mov.w	r3, #1024	@ 0x400
 800904a:	e7eb      	b.n	8009024 <__swhatbuf_r+0x24>

0800904c <__smakebuf_r>:
 800904c:	898b      	ldrh	r3, [r1, #12]
 800904e:	b5f7      	push	{r0, r1, r2, r4, r5, r6, r7, lr}
 8009050:	079d      	lsls	r5, r3, #30
 8009052:	4606      	mov	r6, r0
 8009054:	460c      	mov	r4, r1
 8009056:	d507      	bpl.n	8009068 <__smakebuf_r+0x1c>
 8009058:	f104 0347 	add.w	r3, r4, #71	@ 0x47
 800905c:	6023      	str	r3, [r4, #0]
 800905e:	6123      	str	r3, [r4, #16]
 8009060:	2301      	movs	r3, #1
 8009062:	6163      	str	r3, [r4, #20]
 8009064:	b003      	add	sp, #12
 8009066:	bdf0      	pop	{r4, r5, r6, r7, pc}
 8009068:	ab01      	add	r3, sp, #4
 800906a:	466a      	mov	r2, sp
 800906c:	f7ff ffc8 	bl	8009000 <__swhatbuf_r>
 8009070:	9f00      	ldr	r7, [sp, #0]
 8009072:	4605      	mov	r5, r0
 8009074:	4639      	mov	r1, r7
 8009076:	4630      	mov	r0, r6
 8009078:	f7ff f880 	bl	800817c <_malloc_r>
 800907c:	b948      	cbnz	r0, 8009092 <__smakebuf_r+0x46>
 800907e:	f9b4 300c 	ldrsh.w	r3, [r4, #12]
 8009082:	059a      	lsls	r2, r3, #22
 8009084:	d4ee      	bmi.n	8009064 <__smakebuf_r+0x18>
 8009086:	f023 0303 	bic.w	r3, r3, #3
 800908a:	f043 0302 	orr.w	r3, r3, #2
 800908e:	81a3      	strh	r3, [r4, #12]
 8009090:	e7e2      	b.n	8009058 <__smakebuf_r+0xc>
 8009092:	89a3      	ldrh	r3, [r4, #12]
 8009094:	6020      	str	r0, [r4, #0]
 8009096:	f043 0380 	orr.w	r3, r3, #128	@ 0x80
 800909a:	81a3      	strh	r3, [r4, #12]
 800909c:	9b01      	ldr	r3, [sp, #4]
 800909e:	e9c4 0704 	strd	r0, r7, [r4, #16]
 80090a2:	b15b      	cbz	r3, 80090bc <__smakebuf_r+0x70>
 80090a4:	f9b4 100e 	ldrsh.w	r1, [r4, #14]
 80090a8:	4630      	mov	r0, r6
 80090aa:	f000 f81d 	bl	80090e8 <_isatty_r>
 80090ae:	b128      	cbz	r0, 80090bc <__smakebuf_r+0x70>
 80090b0:	89a3      	ldrh	r3, [r4, #12]
 80090b2:	f023 0303 	bic.w	r3, r3, #3
 80090b6:	f043 0301 	orr.w	r3, r3, #1
 80090ba:	81a3      	strh	r3, [r4, #12]
 80090bc:	89a3      	ldrh	r3, [r4, #12]
 80090be:	431d      	orrs	r5, r3
 80090c0:	81a5      	strh	r5, [r4, #12]
 80090c2:	e7cf      	b.n	8009064 <__smakebuf_r+0x18>

080090c4 <_fstat_r>:
 80090c4:	b538      	push	{r3, r4, r5, lr}
 80090c6:	4d07      	ldr	r5, [pc, #28]	@ (80090e4 <_fstat_r+0x20>)
 80090c8:	2300      	movs	r3, #0
 80090ca:	4604      	mov	r4, r0
 80090cc:	4608      	mov	r0, r1
 80090ce:	4611      	mov	r1, r2
 80090d0:	602b      	str	r3, [r5, #0]
 80090d2:	f7f8 ff0f 	bl	8001ef4 <_fstat>
 80090d6:	1c43      	adds	r3, r0, #1
 80090d8:	d102      	bne.n	80090e0 <_fstat_r+0x1c>
 80090da:	682b      	ldr	r3, [r5, #0]
 80090dc:	b103      	cbz	r3, 80090e0 <_fstat_r+0x1c>
 80090de:	6023      	str	r3, [r4, #0]
 80090e0:	bd38      	pop	{r3, r4, r5, pc}
 80090e2:	bf00      	nop
 80090e4:	200004d8 	.word	0x200004d8

080090e8 <_isatty_r>:
 80090e8:	b538      	push	{r3, r4, r5, lr}
 80090ea:	4d06      	ldr	r5, [pc, #24]	@ (8009104 <_isatty_r+0x1c>)
 80090ec:	2300      	movs	r3, #0
 80090ee:	4604      	mov	r4, r0
 80090f0:	4608      	mov	r0, r1
 80090f2:	602b      	str	r3, [r5, #0]
 80090f4:	f7f8 ff0e 	bl	8001f14 <_isatty>
 80090f8:	1c43      	adds	r3, r0, #1
 80090fa:	d102      	bne.n	8009102 <_isatty_r+0x1a>
 80090fc:	682b      	ldr	r3, [r5, #0]
 80090fe:	b103      	cbz	r3, 8009102 <_isatty_r+0x1a>
 8009100:	6023      	str	r3, [r4, #0]
 8009102:	bd38      	pop	{r3, r4, r5, pc}
 8009104:	200004d8 	.word	0x200004d8

08009108 <_sbrk_r>:
 8009108:	b538      	push	{r3, r4, r5, lr}
 800910a:	4d06      	ldr	r5, [pc, #24]	@ (8009124 <_sbrk_r+0x1c>)
 800910c:	2300      	movs	r3, #0
 800910e:	4604      	mov	r4, r0
 8009110:	4608      	mov	r0, r1
 8009112:	602b      	str	r3, [r5, #0]
 8009114:	f7f8 ff16 	bl	8001f44 <_sbrk>
 8009118:	1c43      	adds	r3, r0, #1
 800911a:	d102      	bne.n	8009122 <_sbrk_r+0x1a>
 800911c:	682b      	ldr	r3, [r5, #0]
 800911e:	b103      	cbz	r3, 8009122 <_sbrk_r+0x1a>
 8009120:	6023      	str	r3, [r4, #0]
 8009122:	bd38      	pop	{r3, r4, r5, pc}
 8009124:	200004d8 	.word	0x200004d8

08009128 <__assert_func>:
 8009128:	b51f      	push	{r0, r1, r2, r3, r4, lr}
 800912a:	4614      	mov	r4, r2
 800912c:	461a      	mov	r2, r3
 800912e:	4b09      	ldr	r3, [pc, #36]	@ (8009154 <__assert_func+0x2c>)
 8009130:	681b      	ldr	r3, [r3, #0]
 8009132:	4605      	mov	r5, r0
 8009134:	68d8      	ldr	r0, [r3, #12]
 8009136:	b14c      	cbz	r4, 800914c <__assert_func+0x24>
 8009138:	4b07      	ldr	r3, [pc, #28]	@ (8009158 <__assert_func+0x30>)
 800913a:	9100      	str	r1, [sp, #0]
 800913c:	e9cd 3401 	strd	r3, r4, [sp, #4]
 8009140:	4906      	ldr	r1, [pc, #24]	@ (800915c <__assert_func+0x34>)
 8009142:	462b      	mov	r3, r5
 8009144:	f000 f822 	bl	800918c <fiprintf>
 8009148:	f000 f832 	bl	80091b0 <abort>
 800914c:	4b04      	ldr	r3, [pc, #16]	@ (8009160 <__assert_func+0x38>)
 800914e:	461c      	mov	r4, r3
 8009150:	e7f3      	b.n	800913a <__assert_func+0x12>
 8009152:	bf00      	nop
 8009154:	20000188 	.word	0x20000188
 8009158:	080094f5 	.word	0x080094f5
 800915c:	08009502 	.word	0x08009502
 8009160:	08009530 	.word	0x08009530

08009164 <_calloc_r>:
 8009164:	b570      	push	{r4, r5, r6, lr}
 8009166:	fba1 5402 	umull	r5, r4, r1, r2
 800916a:	b934      	cbnz	r4, 800917a <_calloc_r+0x16>
 800916c:	4629      	mov	r1, r5
 800916e:	f7ff f805 	bl	800817c <_malloc_r>
 8009172:	4606      	mov	r6, r0
 8009174:	b928      	cbnz	r0, 8009182 <_calloc_r+0x1e>
 8009176:	4630      	mov	r0, r6
 8009178:	bd70      	pop	{r4, r5, r6, pc}
 800917a:	220c      	movs	r2, #12
 800917c:	6002      	str	r2, [r0, #0]
 800917e:	2600      	movs	r6, #0
 8009180:	e7f9      	b.n	8009176 <_calloc_r+0x12>
 8009182:	462a      	mov	r2, r5
 8009184:	4621      	mov	r1, r4
 8009186:	f7fd fd27 	bl	8006bd8 <memset>
 800918a:	e7f4      	b.n	8009176 <_calloc_r+0x12>

0800918c <fiprintf>:
 800918c:	b40e      	push	{r1, r2, r3}
 800918e:	b503      	push	{r0, r1, lr}
 8009190:	4601      	mov	r1, r0
 8009192:	ab03      	add	r3, sp, #12
 8009194:	4805      	ldr	r0, [pc, #20]	@ (80091ac <fiprintf+0x20>)
 8009196:	f853 2b04 	ldr.w	r2, [r3], #4
 800919a:	6800      	ldr	r0, [r0, #0]
 800919c:	9301      	str	r3, [sp, #4]
 800919e:	f7ff fd6b 	bl	8008c78 <_vfiprintf_r>
 80091a2:	b002      	add	sp, #8
 80091a4:	f85d eb04 	ldr.w	lr, [sp], #4
 80091a8:	b003      	add	sp, #12
 80091aa:	4770      	bx	lr
 80091ac:	20000188 	.word	0x20000188

080091b0 <abort>:
 80091b0:	b508      	push	{r3, lr}
 80091b2:	2006      	movs	r0, #6
 80091b4:	f000 f82c 	bl	8009210 <raise>
 80091b8:	2001      	movs	r0, #1
 80091ba:	f7f8 fe67 	bl	8001e8c <_exit>

080091be <_raise_r>:
 80091be:	291f      	cmp	r1, #31
 80091c0:	b538      	push	{r3, r4, r5, lr}
 80091c2:	4605      	mov	r5, r0
 80091c4:	460c      	mov	r4, r1
 80091c6:	d904      	bls.n	80091d2 <_raise_r+0x14>
 80091c8:	2316      	movs	r3, #22
 80091ca:	6003      	str	r3, [r0, #0]
 80091cc:	f04f 30ff 	mov.w	r0, #4294967295
 80091d0:	bd38      	pop	{r3, r4, r5, pc}
 80091d2:	6bc2      	ldr	r2, [r0, #60]	@ 0x3c
 80091d4:	b112      	cbz	r2, 80091dc <_raise_r+0x1e>
 80091d6:	f852 3021 	ldr.w	r3, [r2, r1, lsl #2]
 80091da:	b94b      	cbnz	r3, 80091f0 <_raise_r+0x32>
 80091dc:	4628      	mov	r0, r5
 80091de:	f000 f831 	bl	8009244 <_getpid_r>
 80091e2:	4622      	mov	r2, r4
 80091e4:	4601      	mov	r1, r0
 80091e6:	4628      	mov	r0, r5
 80091e8:	e8bd 4038 	ldmia.w	sp!, {r3, r4, r5, lr}
 80091ec:	f000 b818 	b.w	8009220 <_kill_r>
 80091f0:	2b01      	cmp	r3, #1
 80091f2:	d00a      	beq.n	800920a <_raise_r+0x4c>
 80091f4:	1c59      	adds	r1, r3, #1
 80091f6:	d103      	bne.n	8009200 <_raise_r+0x42>
 80091f8:	2316      	movs	r3, #22
 80091fa:	6003      	str	r3, [r0, #0]
 80091fc:	2001      	movs	r0, #1
 80091fe:	e7e7      	b.n	80091d0 <_raise_r+0x12>
 8009200:	2100      	movs	r1, #0
 8009202:	f842 1024 	str.w	r1, [r2, r4, lsl #2]
 8009206:	4620      	mov	r0, r4
 8009208:	4798      	blx	r3
 800920a:	2000      	movs	r0, #0
 800920c:	e7e0      	b.n	80091d0 <_raise_r+0x12>
	...

08009210 <raise>:
 8009210:	4b02      	ldr	r3, [pc, #8]	@ (800921c <raise+0xc>)
 8009212:	4601      	mov	r1, r0
 8009214:	6818      	ldr	r0, [r3, #0]
 8009216:	f7ff bfd2 	b.w	80091be <_raise_r>
 800921a:	bf00      	nop
 800921c:	20000188 	.word	0x20000188

08009220 <_kill_r>:
 8009220:	b538      	push	{r3, r4, r5, lr}
 8009222:	4d07      	ldr	r5, [pc, #28]	@ (8009240 <_kill_r+0x20>)
 8009224:	2300      	movs	r3, #0
 8009226:	4604      	mov	r4, r0
 8009228:	4608      	mov	r0, r1
 800922a:	4611      	mov	r1, r2
 800922c:	602b      	str	r3, [r5, #0]
 800922e:	f7f8 fe1d 	bl	8001e6c <_kill>
 8009232:	1c43      	adds	r3, r0, #1
 8009234:	d102      	bne.n	800923c <_kill_r+0x1c>
 8009236:	682b      	ldr	r3, [r5, #0]
 8009238:	b103      	cbz	r3, 800923c <_kill_r+0x1c>
 800923a:	6023      	str	r3, [r4, #0]
 800923c:	bd38      	pop	{r3, r4, r5, pc}
 800923e:	bf00      	nop
 8009240:	200004d8 	.word	0x200004d8

08009244 <_getpid_r>:
 8009244:	f7f8 be0a 	b.w	8001e5c <_getpid>

08009248 <_init>:
 8009248:	b5f8      	push	{r3, r4, r5, r6, r7, lr}
 800924a:	bf00      	nop
 800924c:	bcf8      	pop	{r3, r4, r5, r6, r7}
 800924e:	bc08      	pop	{r3}
 8009250:	469e      	mov	lr, r3
 8009252:	4770      	bx	lr

08009254 <_fini>:
 8009254:	b5f8      	push	{r3, r4, r5, r6, r7, lr}
 8009256:	bf00      	nop
 8009258:	bcf8      	pop	{r3, r4, r5, r6, r7}
 800925a:	bc08      	pop	{r3}
 800925c:	469e      	mov	lr, r3
 800925e:	4770      	bx	lr
