
testSTM.elf:     file format elf32-littlearm

Sections:
Idx Name          Size      VMA       LMA       File off  Algn
  0 .isr_vector   00000194  08000000  08000000  00001000  2**0
                  CONTENTS, ALLOC, LOAD, READONLY, DATA
  1 .text         00009878  080001a0  080001a0  000011a0  2**4
                  CONTENTS, ALLOC, LOAD, READONLY, CODE
  2 .rodata       00000450  08009a18  08009a18  0000aa18  2**3
                  CONTENTS, ALLOC, LOAD, READONLY, DATA
  3 .ARM.extab    00000000  08009e68  08009e68  0000b1d8  2**0
                  CONTENTS, READONLY
  4 .ARM          00000008  08009e68  08009e68  0000ae68  2**2
                  CONTENTS, ALLOC, LOAD, READONLY, DATA
  5 .preinit_array 00000000  08009e70  08009e70  0000b1d8  2**0
                  CONTENTS, ALLOC, LOAD, DATA
  6 .init_array   00000004  08009e70  08009e70  0000ae70  2**2
                  CONTENTS, ALLOC, LOAD, READONLY, DATA
  7 .fini_array   00000004  08009e74  08009e74  0000ae74  2**2
                  CONTENTS, ALLOC, LOAD, READONLY, DATA
  8 .data         000001d8  20000000  08009e78  0000b000  2**2
                  CONTENTS, ALLOC, LOAD, DATA
  9 .bss          00000310  200001d8  0800a050  0000b1d8  2**2
                  ALLOC
 10 ._user_heap_stack 00000600  200004e8  0800a050  0000b4e8  2**0
                  ALLOC
 11 .ARM.attributes 00000030  00000000  00000000  0000b1d8  2**0
                  CONTENTS, READONLY
 12 .debug_info   0000bf4f  00000000  00000000  0000b208  2**0
                  CONTENTS, READONLY, DEBUGGING, OCTETS
 13 .debug_abbrev 00001c4e  00000000  00000000  00017157  2**0
                  CONTENTS, READONLY, DEBUGGING, OCTETS
 14 .debug_aranges 00000aa0  00000000  00000000  00018da8  2**3
                  CONTENTS, READONLY, DEBUGGING, OCTETS
 15 .debug_rnglists 0000086c  00000000  00000000  00019848  2**0
                  CONTENTS, READONLY, DEBUGGING, OCTETS
 16 .debug_macro  00015a92  00000000  00000000  0001a0b4  2**0
                  CONTENTS, READONLY, DEBUGGING, OCTETS
 17 .debug_line   0000d850  00000000  00000000  0002fb46  2**0
                  CONTENTS, READONLY, DEBUGGING, OCTETS
 18 .debug_str    0008a0cd  00000000  00000000  0003d396  2**0
                  CONTENTS, READONLY, DEBUGGING, OCTETS
 19 .comment      00000043  00000000  00000000  000c7463  2**0
                  CONTENTS, READONLY
 20 .debug_frame  000040ac  00000000  00000000  000c74a8  2**2
                  CONTENTS, READONLY, DEBUGGING, OCTETS
 21 .debug_line_str 0000005d  00000000  00000000  000cb554  2**0
                  CONTENTS, READONLY, DEBUGGING, OCTETS

Disassembly of section .text:

080001a0 <__do_global_dtors_aux>:
 80001a0:	b510      	push	{r4, lr}
 80001a2:	4c05      	ldr	r4, [pc, #20]	@ (80001b8 <__do_global_dtors_aux+0x18>)
 80001a4:	7823      	ldrb	r3, [r4, #0]
 80001a6:	b933      	cbnz	r3, 80001b6 <__do_global_dtors_aux+0x16>
 80001a8:	4b04      	ldr	r3, [pc, #16]	@ (80001bc <__do_global_dtors_aux+0x1c>)
 80001aa:	b113      	cbz	r3, 80001b2 <__do_global_dtors_aux+0x12>
 80001ac:	4804      	ldr	r0, [pc, #16]	@ (80001c0 <__do_global_dtors_aux+0x20>)
 80001ae:	f3af 8000 	nop.w
 80001b2:	2301      	movs	r3, #1
 80001b4:	7023      	strb	r3, [r4, #0]
 80001b6:	bd10      	pop	{r4, pc}
 80001b8:	200001d8 	.word	0x200001d8
 80001bc:	00000000 	.word	0x00000000
 80001c0:	08009a00 	.word	0x08009a00

080001c4 <frame_dummy>:
 80001c4:	b508      	push	{r3, lr}
 80001c6:	4b03      	ldr	r3, [pc, #12]	@ (80001d4 <frame_dummy+0x10>)
 80001c8:	b11b      	cbz	r3, 80001d2 <frame_dummy+0xe>
 80001ca:	4903      	ldr	r1, [pc, #12]	@ (80001d8 <frame_dummy+0x14>)
 80001cc:	4803      	ldr	r0, [pc, #12]	@ (80001dc <frame_dummy+0x18>)
 80001ce:	f3af 8000 	nop.w
 80001d2:	bd08      	pop	{r3, pc}
 80001d4:	00000000 	.word	0x00000000
 80001d8:	200001dc 	.word	0x200001dc
 80001dc:	08009a00 	.word	0x08009a00

080001e0 <memchr>:
 80001e0:	f001 01ff 	and.w	r1, r1, #255	@ 0xff
 80001e4:	2a10      	cmp	r2, #16
 80001e6:	db2b      	blt.n	8000240 <memchr+0x60>
 80001e8:	f010 0f07 	tst.w	r0, #7
 80001ec:	d008      	beq.n	8000200 <memchr+0x20>
 80001ee:	f810 3b01 	ldrb.w	r3, [r0], #1
 80001f2:	3a01      	subs	r2, #1
 80001f4:	428b      	cmp	r3, r1
 80001f6:	d02d      	beq.n	8000254 <memchr+0x74>
 80001f8:	f010 0f07 	tst.w	r0, #7
 80001fc:	b342      	cbz	r2, 8000250 <memchr+0x70>
 80001fe:	d1f6      	bne.n	80001ee <memchr+0xe>
 8000200:	b4f0      	push	{r4, r5, r6, r7}
 8000202:	ea41 2101 	orr.w	r1, r1, r1, lsl #8
 8000206:	ea41 4101 	orr.w	r1, r1, r1, lsl #16
 800020a:	f022 0407 	bic.w	r4, r2, #7
 800020e:	f07f 0700 	mvns.w	r7, #0
 8000212:	2300      	movs	r3, #0
 8000214:	e8f0 5602 	ldrd	r5, r6, [r0], #8
 8000218:	3c08      	subs	r4, #8
 800021a:	ea85 0501 	eor.w	r5, r5, r1
 800021e:	ea86 0601 	eor.w	r6, r6, r1
 8000222:	fa85 f547 	uadd8	r5, r5, r7
 8000226:	faa3 f587 	sel	r5, r3, r7
 800022a:	fa86 f647 	uadd8	r6, r6, r7
 800022e:	faa5 f687 	sel	r6, r5, r7
 8000232:	b98e      	cbnz	r6, 8000258 <memchr+0x78>
 8000234:	d1ee      	bne.n	8000214 <memchr+0x34>
 8000236:	bcf0      	pop	{r4, r5, r6, r7}
 8000238:	f001 01ff 	and.w	r1, r1, #255	@ 0xff
 800023c:	f002 0207 	and.w	r2, r2, #7
 8000240:	b132      	cbz	r2, 8000250 <memchr+0x70>
 8000242:	f810 3b01 	ldrb.w	r3, [r0], #1
 8000246:	3a01      	subs	r2, #1
 8000248:	ea83 0301 	eor.w	r3, r3, r1
 800024c:	b113      	cbz	r3, 8000254 <memchr+0x74>
 800024e:	d1f8      	bne.n	8000242 <memchr+0x62>
 8000250:	2000      	movs	r0, #0
 8000252:	4770      	bx	lr
 8000254:	3801      	subs	r0, #1
 8000256:	4770      	bx	lr
 8000258:	2d00      	cmp	r5, #0
 800025a:	bf06      	itte	eq
 800025c:	4635      	moveq	r5, r6
 800025e:	3803      	subeq	r0, #3
 8000260:	3807      	subne	r0, #7
 8000262:	f015 0f01 	tst.w	r5, #1
 8000266:	d107      	bne.n	8000278 <memchr+0x98>
 8000268:	3001      	adds	r0, #1
 800026a:	f415 7f80 	tst.w	r5, #256	@ 0x100
 800026e:	bf02      	ittt	eq
 8000270:	3001      	addeq	r0, #1
 8000272:	f415 3fc0 	tsteq.w	r5, #98304	@ 0x18000
 8000276:	3001      	addeq	r0, #1
 8000278:	bcf0      	pop	{r4, r5, r6, r7}
 800027a:	3801      	subs	r0, #1
 800027c:	4770      	bx	lr
 800027e:	bf00      	nop

08000280 <strlen>:
 8000280:	4603      	mov	r3, r0
 8000282:	f813 2b01 	ldrb.w	r2, [r3], #1
 8000286:	2a00      	cmp	r2, #0
 8000288:	d1fb      	bne.n	8000282 <strlen+0x2>
 800028a:	1a18      	subs	r0, r3, r0
 800028c:	3801      	subs	r0, #1
 800028e:	4770      	bx	lr

08000290 <__aeabi_drsub>:
 8000290:	f081 4100 	eor.w	r1, r1, #2147483648	@ 0x80000000
 8000294:	e002      	b.n	800029c <__adddf3>
 8000296:	bf00      	nop

08000298 <__aeabi_dsub>:
 8000298:	f083 4300 	eor.w	r3, r3, #2147483648	@ 0x80000000

0800029c <__adddf3>:
 800029c:	b530      	push	{r4, r5, lr}
 800029e:	ea4f 0441 	mov.w	r4, r1, lsl #1
 80002a2:	ea4f 0543 	mov.w	r5, r3, lsl #1
 80002a6:	ea94 0f05 	teq	r4, r5
 80002aa:	bf08      	it	eq
 80002ac:	ea90 0f02 	teqeq	r0, r2
 80002b0:	bf1f      	itttt	ne
 80002b2:	ea54 0c00 	orrsne.w	ip, r4, r0
 80002b6:	ea55 0c02 	orrsne.w	ip, r5, r2
 80002ba:	ea7f 5c64 	mvnsne.w	ip, r4, asr #21
 80002be:	ea7f 5c65 	mvnsne.w	ip, r5, asr #21
 80002c2:	f000 80e2 	beq.w	800048a <__adddf3+0x1ee>
 80002c6:	ea4f 5454 	mov.w	r4, r4, lsr #21
 80002ca:	ebd4 5555 	rsbs	r5, r4, r5, lsr #21
 80002ce:	bfb8      	it	lt
 80002d0:	426d      	neglt	r5, r5
 80002d2:	dd0c      	ble.n	80002ee <__adddf3+0x52>
 80002d4:	442c      	add	r4, r5
 80002d6:	ea80 0202 	eor.w	r2, r0, r2
 80002da:	ea81 0303 	eor.w	r3, r1, r3
 80002de:	ea82 0000 	eor.w	r0, r2, r0
 80002e2:	ea83 0101 	eor.w	r1, r3, r1
 80002e6:	ea80 0202 	eor.w	r2, r0, r2
 80002ea:	ea81 0303 	eor.w	r3, r1, r3
 80002ee:	2d36      	cmp	r5, #54	@ 0x36
 80002f0:	bf88      	it	hi
 80002f2:	bd30      	pophi	{r4, r5, pc}
 80002f4:	f011 4f00 	tst.w	r1, #2147483648	@ 0x80000000
 80002f8:	ea4f 3101 	mov.w	r1, r1, lsl #12
 80002fc:	f44f 1c80 	mov.w	ip, #1048576	@ 0x100000
 8000300:	ea4c 3111 	orr.w	r1, ip, r1, lsr #12
 8000304:	d002      	beq.n	800030c <__adddf3+0x70>
 8000306:	4240      	negs	r0, r0
 8000308:	eb61 0141 	sbc.w	r1, r1, r1, lsl #1
 800030c:	f013 4f00 	tst.w	r3, #2147483648	@ 0x80000000
 8000310:	ea4f 3303 	mov.w	r3, r3, lsl #12
 8000314:	ea4c 3313 	orr.w	r3, ip, r3, lsr #12
 8000318:	d002      	beq.n	8000320 <__adddf3+0x84>
 800031a:	4252      	negs	r2, r2
 800031c:	eb63 0343 	sbc.w	r3, r3, r3, lsl #1
 8000320:	ea94 0f05 	teq	r4, r5
 8000324:	f000 80a7 	beq.w	8000476 <__adddf3+0x1da>
 8000328:	f1a4 0401 	sub.w	r4, r4, #1
 800032c:	f1d5 0e20 	rsbs	lr, r5, #32
 8000330:	db0d      	blt.n	800034e <__adddf3+0xb2>
 8000332:	fa02 fc0e 	lsl.w	ip, r2, lr
 8000336:	fa22 f205 	lsr.w	r2, r2, r5
 800033a:	1880      	adds	r0, r0, r2
 800033c:	f141 0100 	adc.w	r1, r1, #0
 8000340:	fa03 f20e 	lsl.w	r2, r3, lr
 8000344:	1880      	adds	r0, r0, r2
 8000346:	fa43 f305 	asr.w	r3, r3, r5
 800034a:	4159      	adcs	r1, r3
 800034c:	e00e      	b.n	800036c <__adddf3+0xd0>
 800034e:	f1a5 0520 	sub.w	r5, r5, #32
 8000352:	f10e 0e20 	add.w	lr, lr, #32
 8000356:	2a01      	cmp	r2, #1
 8000358:	fa03 fc0e 	lsl.w	ip, r3, lr
 800035c:	bf28      	it	cs
 800035e:	f04c 0c02 	orrcs.w	ip, ip, #2
 8000362:	fa43 f305 	asr.w	r3, r3, r5
 8000366:	18c0      	adds	r0, r0, r3
 8000368:	eb51 71e3 	adcs.w	r1, r1, r3, asr #31
 800036c:	f001 4500 	and.w	r5, r1, #2147483648	@ 0x80000000
 8000370:	d507      	bpl.n	8000382 <__adddf3+0xe6>
 8000372:	f04f 0e00 	mov.w	lr, #0
 8000376:	f1dc 0c00 	rsbs	ip, ip, #0
 800037a:	eb7e 0000 	sbcs.w	r0, lr, r0
 800037e:	eb6e 0101 	sbc.w	r1, lr, r1
 8000382:	f5b1 1f80 	cmp.w	r1, #1048576	@ 0x100000
 8000386:	d31b      	bcc.n	80003c0 <__adddf3+0x124>
 8000388:	f5b1 1f00 	cmp.w	r1, #2097152	@ 0x200000
 800038c:	d30c      	bcc.n	80003a8 <__adddf3+0x10c>
 800038e:	0849      	lsrs	r1, r1, #1
 8000390:	ea5f 0030 	movs.w	r0, r0, rrx
 8000394:	ea4f 0c3c 	mov.w	ip, ip, rrx
 8000398:	f104 0401 	add.w	r4, r4, #1
 800039c:	ea4f 5244 	mov.w	r2, r4, lsl #21
 80003a0:	f512 0f80 	cmn.w	r2, #4194304	@ 0x400000
 80003a4:	f080 809a 	bcs.w	80004dc <__adddf3+0x240>
 80003a8:	f1bc 4f00 	cmp.w	ip, #2147483648	@ 0x80000000
 80003ac:	bf08      	it	eq
 80003ae:	ea5f 0c50 	movseq.w	ip, r0, lsr #1
 80003b2:	f150 0000 	adcs.w	r0, r0, #0
 80003b6:	eb41 5104 	adc.w	r1, r1, r4, lsl #20
 80003ba:	ea41 0105 	orr.w	r1, r1, r5
 80003be:	bd30      	pop	{r4, r5, pc}
 80003c0:	ea5f 0c4c 	movs.w	ip, ip, lsl #1
 80003c4:	4140      	adcs	r0, r0
 80003c6:	eb41 0101 	adc.w	r1, r1, r1
 80003ca:	3c01      	subs	r4, #1
 80003cc:	bf28      	it	cs
 80003ce:	f5b1 1f80 	cmpcs.w	r1, #1048576	@ 0x100000
 80003d2:	d2e9      	bcs.n	80003a8 <__adddf3+0x10c>
 80003d4:	f091 0f00 	teq	r1, #0
 80003d8:	bf04      	itt	eq
 80003da:	4601      	moveq	r1, r0
 80003dc:	2000      	moveq	r0, #0
 80003de:	fab1 f381 	clz	r3, r1
 80003e2:	bf08      	it	eq
 80003e4:	3320      	addeq	r3, #32
 80003e6:	f1a3 030b 	sub.w	r3, r3, #11
 80003ea:	f1b3 0220 	subs.w	r2, r3, #32
 80003ee:	da0c      	bge.n	800040a <__adddf3+0x16e>
 80003f0:	320c      	adds	r2, #12
 80003f2:	dd08      	ble.n	8000406 <__adddf3+0x16a>
 80003f4:	f102 0c14 	add.w	ip, r2, #20
 80003f8:	f1c2 020c 	rsb	r2, r2, #12
 80003fc:	fa01 f00c 	lsl.w	r0, r1, ip
 8000400:	fa21 f102 	lsr.w	r1, r1, r2
 8000404:	e00c      	b.n	8000420 <__adddf3+0x184>
 8000406:	f102 0214 	add.w	r2, r2, #20
 800040a:	bfd8      	it	le
 800040c:	f1c2 0c20 	rsble	ip, r2, #32
 8000410:	fa01 f102 	lsl.w	r1, r1, r2
 8000414:	fa20 fc0c 	lsr.w	ip, r0, ip
 8000418:	bfdc      	itt	le
 800041a:	ea41 010c 	orrle.w	r1, r1, ip
 800041e:	4090      	lslle	r0, r2
 8000420:	1ae4      	subs	r4, r4, r3
 8000422:	bfa2      	ittt	ge
 8000424:	eb01 5104 	addge.w	r1, r1, r4, lsl #20
 8000428:	4329      	orrge	r1, r5
 800042a:	bd30      	popge	{r4, r5, pc}
 800042c:	ea6f 0404 	mvn.w	r4, r4
 8000430:	3c1f      	subs	r4, #31
 8000432:	da1c      	bge.n	800046e <__adddf3+0x1d2>
 8000434:	340c      	adds	r4, #12
 8000436:	dc0e      	bgt.n	8000456 <__adddf3+0x1ba>
 8000438:	f104 0414 	add.w	r4, r4, #20
 800043c:	f1c4 0220 	rsb	r2, r4, #32
 8000440:	fa20 f004 	lsr.w	r0, r0, r4
 8000444:	fa01 f302 	lsl.w	r3, r1, r2
 8000448:	ea40 0003 	orr.w	r0, r0, r3
 800044c:	fa21 f304 	lsr.w	r3, r1, r4
 8000450:	ea45 0103 	orr.w	r1, r5, r3
 8000454:	bd30      	pop	{r4, r5, pc}
 8000456:	f1c4 040c 	rsb	r4, r4, #12
 800045a:	f1c4 0220 	rsb	r2, r4, #32
 800045e:	fa20 f002 	lsr.w	r0, r0, r2
 8000462:	fa01 f304 	lsl.w	r3, r1, r4
 8000466:	ea40 0003 	orr.w	r0, r0, r3
 800046a:	4629      	mov	r1, r5
 800046c:	bd30      	pop	{r4, r5, pc}
 800046e:	fa21 f004 	lsr.w	r0, r1, r4
 8000472:	4629      	mov	r1, r5
 8000474:	bd30      	pop	{r4, r5, pc}
 8000476:	f094 0f00 	teq	r4, #0
 800047a:	f483 1380 	eor.w	r3, r3, #1048576	@ 0x100000
 800047e:	bf06      	itte	eq
 8000480:	f481 1180 	eoreq.w	r1, r1, #1048576	@ 0x100000
 8000484:	3401      	addeq	r4, #1
 8000486:	3d01      	subne	r5, #1
 8000488:	e74e      	b.n	8000328 <__adddf3+0x8c>
 800048a:	ea7f 5c64 	mvns.w	ip, r4, asr #21
 800048e:	bf18      	it	ne
 8000490:	ea7f 5c65 	mvnsne.w	ip, r5, asr #21
 8000494:	d029      	beq.n	80004ea <__adddf3+0x24e>
 8000496:	ea94 0f05 	teq	r4, r5
 800049a:	bf08      	it	eq
 800049c:	ea90 0f02 	teqeq	r0, r2
 80004a0:	d005      	beq.n	80004ae <__adddf3+0x212>
 80004a2:	ea54 0c00 	orrs.w	ip, r4, r0
 80004a6:	bf04      	itt	eq
 80004a8:	4619      	moveq	r1, r3
 80004aa:	4610      	moveq	r0, r2
 80004ac:	bd30      	pop	{r4, r5, pc}
 80004ae:	ea91 0f03 	teq	r1, r3
 80004b2:	bf1e      	ittt	ne
 80004b4:	2100      	movne	r1, #0
 80004b6:	2000      	movne	r0, #0
 80004b8:	bd30      	popne	{r4, r5, pc}
 80004ba:	ea5f 5c54 	movs.w	ip, r4, lsr #21
 80004be:	d105      	bne.n	80004cc <__adddf3+0x230>
 80004c0:	0040      	lsls	r0, r0, #1
 80004c2:	4149      	adcs	r1, r1
 80004c4:	bf28      	it	cs
 80004c6:	f041 4100 	orrcs.w	r1, r1, #2147483648	@ 0x80000000
 80004ca:	bd30      	pop	{r4, r5, pc}
 80004cc:	f514 0480 	adds.w	r4, r4, #4194304	@ 0x400000
 80004d0:	bf3c      	itt	cc
 80004d2:	f501 1180 	addcc.w	r1, r1, #1048576	@ 0x100000
 80004d6:	bd30      	popcc	{r4, r5, pc}
 80004d8:	f001 4500 	and.w	r5, r1, #2147483648	@ 0x80000000
 80004dc:	f045 41fe 	orr.w	r1, r5, #2130706432	@ 0x7f000000
 80004e0:	f441 0170 	orr.w	r1, r1, #15728640	@ 0xf00000
 80004e4:	f04f 0000 	mov.w	r0, #0
 80004e8:	bd30      	pop	{r4, r5, pc}
 80004ea:	ea7f 5c64 	mvns.w	ip, r4, asr #21
 80004ee:	bf1a      	itte	ne
 80004f0:	4619      	movne	r1, r3
 80004f2:	4610      	movne	r0, r2
 80004f4:	ea7f 5c65 	mvnseq.w	ip, r5, asr #21
 80004f8:	bf1c      	itt	ne
 80004fa:	460b      	movne	r3, r1
 80004fc:	4602      	movne	r2, r0
 80004fe:	ea50 3401 	orrs.w	r4, r0, r1, lsl #12
 8000502:	bf06      	itte	eq
 8000504:	ea52 3503 	orrseq.w	r5, r2, r3, lsl #12
 8000508:	ea91 0f03 	teqeq	r1, r3
 800050c:	f441 2100 	orrne.w	r1, r1, #524288	@ 0x80000
 8000510:	bd30      	pop	{r4, r5, pc}
 8000512:	bf00      	nop

08000514 <__aeabi_ui2d>:
 8000514:	f090 0f00 	teq	r0, #0
 8000518:	bf04      	itt	eq
 800051a:	2100      	moveq	r1, #0
 800051c:	4770      	bxeq	lr
 800051e:	b530      	push	{r4, r5, lr}
 8000520:	f44f 6480 	mov.w	r4, #1024	@ 0x400
 8000524:	f104 0432 	add.w	r4, r4, #50	@ 0x32
 8000528:	f04f 0500 	mov.w	r5, #0
 800052c:	f04f 0100 	mov.w	r1, #0
 8000530:	e750      	b.n	80003d4 <__adddf3+0x138>
 8000532:	bf00      	nop

08000534 <__aeabi_i2d>:
 8000534:	f090 0f00 	teq	r0, #0
 8000538:	bf04      	itt	eq
 800053a:	2100      	moveq	r1, #0
 800053c:	4770      	bxeq	lr
 800053e:	b530      	push	{r4, r5, lr}
 8000540:	f44f 6480 	mov.w	r4, #1024	@ 0x400
 8000544:	f104 0432 	add.w	r4, r4, #50	@ 0x32
 8000548:	f010 4500 	ands.w	r5, r0, #2147483648	@ 0x80000000
 800054c:	bf48      	it	mi
 800054e:	4240      	negmi	r0, r0
 8000550:	f04f 0100 	mov.w	r1, #0
 8000554:	e73e      	b.n	80003d4 <__adddf3+0x138>
 8000556:	bf00      	nop

08000558 <__aeabi_f2d>:
 8000558:	0042      	lsls	r2, r0, #1
 800055a:	ea4f 01e2 	mov.w	r1, r2, asr #3
 800055e:	ea4f 0131 	mov.w	r1, r1, rrx
 8000562:	ea4f 7002 	mov.w	r0, r2, lsl #28
 8000566:	bf1f      	itttt	ne
 8000568:	f012 437f 	andsne.w	r3, r2, #4278190080	@ 0xff000000
 800056c:	f093 4f7f 	teqne	r3, #4278190080	@ 0xff000000
 8000570:	f081 5160 	eorne.w	r1, r1, #939524096	@ 0x38000000
 8000574:	4770      	bxne	lr
 8000576:	f032 427f 	bics.w	r2, r2, #4278190080	@ 0xff000000
 800057a:	bf08      	it	eq
 800057c:	4770      	bxeq	lr
 800057e:	f093 4f7f 	teq	r3, #4278190080	@ 0xff000000
 8000582:	bf04      	itt	eq
 8000584:	f441 2100 	orreq.w	r1, r1, #524288	@ 0x80000
 8000588:	4770      	bxeq	lr
 800058a:	b530      	push	{r4, r5, lr}
 800058c:	f44f 7460 	mov.w	r4, #896	@ 0x380
 8000590:	f001 4500 	and.w	r5, r1, #2147483648	@ 0x80000000
 8000594:	f021 4100 	bic.w	r1, r1, #2147483648	@ 0x80000000
 8000598:	e71c      	b.n	80003d4 <__adddf3+0x138>
 800059a:	bf00      	nop

0800059c <__aeabi_ul2d>:
 800059c:	ea50 0201 	orrs.w	r2, r0, r1
 80005a0:	bf08      	it	eq
 80005a2:	4770      	bxeq	lr
 80005a4:	b530      	push	{r4, r5, lr}
 80005a6:	f04f 0500 	mov.w	r5, #0
 80005aa:	e00a      	b.n	80005c2 <__aeabi_l2d+0x16>

080005ac <__aeabi_l2d>:
 80005ac:	ea50 0201 	orrs.w	r2, r0, r1
 80005b0:	bf08      	it	eq
 80005b2:	4770      	bxeq	lr
 80005b4:	b530      	push	{r4, r5, lr}
 80005b6:	f011 4500 	ands.w	r5, r1, #2147483648	@ 0x80000000
 80005ba:	d502      	bpl.n	80005c2 <__aeabi_l2d+0x16>
 80005bc:	4240      	negs	r0, r0
 80005be:	eb61 0141 	sbc.w	r1, r1, r1, lsl #1
 80005c2:	f44f 6480 	mov.w	r4, #1024	@ 0x400
 80005c6:	f104 0432 	add.w	r4, r4, #50	@ 0x32
 80005ca:	ea5f 5c91 	movs.w	ip, r1, lsr #22
 80005ce:	f43f aed8 	beq.w	8000382 <__adddf3+0xe6>
 80005d2:	f04f 0203 	mov.w	r2, #3
 80005d6:	ea5f 0cdc 	movs.w	ip, ip, lsr #3
 80005da:	bf18      	it	ne
 80005dc:	3203      	addne	r2, #3
 80005de:	ea5f 0cdc 	movs.w	ip, ip, lsr #3
 80005e2:	bf18      	it	ne
 80005e4:	3203      	addne	r2, #3
 80005e6:	eb02 02dc 	add.w	r2, r2, ip, lsr #3
 80005ea:	f1c2 0320 	rsb	r3, r2, #32
 80005ee:	fa00 fc03 	lsl.w	ip, r0, r3
 80005f2:	fa20 f002 	lsr.w	r0, r0, r2
 80005f6:	fa01 fe03 	lsl.w	lr, r1, r3
 80005fa:	ea40 000e 	orr.w	r0, r0, lr
 80005fe:	fa21 f102 	lsr.w	r1, r1, r2
 8000602:	4414      	add	r4, r2
 8000604:	e6bd      	b.n	8000382 <__adddf3+0xe6>
 8000606:	bf00      	nop

08000608 <__aeabi_dmul>:
 8000608:	b570      	push	{r4, r5, r6, lr}
 800060a:	f04f 0cff 	mov.w	ip, #255	@ 0xff
 800060e:	f44c 6ce0 	orr.w	ip, ip, #1792	@ 0x700
 8000612:	ea1c 5411 	ands.w	r4, ip, r1, lsr #20
 8000616:	bf1d      	ittte	ne
 8000618:	ea1c 5513 	andsne.w	r5, ip, r3, lsr #20
 800061c:	ea94 0f0c 	teqne	r4, ip
 8000620:	ea95 0f0c 	teqne	r5, ip
 8000624:	f000 f8de 	bleq	80007e4 <__aeabi_dmul+0x1dc>
 8000628:	442c      	add	r4, r5
 800062a:	ea81 0603 	eor.w	r6, r1, r3
 800062e:	ea21 514c 	bic.w	r1, r1, ip, lsl #21
 8000632:	ea23 534c 	bic.w	r3, r3, ip, lsl #21
 8000636:	ea50 3501 	orrs.w	r5, r0, r1, lsl #12
 800063a:	bf18      	it	ne
 800063c:	ea52 3503 	orrsne.w	r5, r2, r3, lsl #12
 8000640:	f441 1180 	orr.w	r1, r1, #1048576	@ 0x100000
 8000644:	f443 1380 	orr.w	r3, r3, #1048576	@ 0x100000
 8000648:	d038      	beq.n	80006bc <__aeabi_dmul+0xb4>
 800064a:	fba0 ce02 	umull	ip, lr, r0, r2
 800064e:	f04f 0500 	mov.w	r5, #0
 8000652:	fbe1 e502 	umlal	lr, r5, r1, r2
 8000656:	f006 4200 	and.w	r2, r6, #2147483648	@ 0x80000000
 800065a:	fbe0 e503 	umlal	lr, r5, r0, r3
 800065e:	f04f 0600 	mov.w	r6, #0
 8000662:	fbe1 5603 	umlal	r5, r6, r1, r3
 8000666:	f09c 0f00 	teq	ip, #0
 800066a:	bf18      	it	ne
 800066c:	f04e 0e01 	orrne.w	lr, lr, #1
 8000670:	f1a4 04ff 	sub.w	r4, r4, #255	@ 0xff
 8000674:	f5b6 7f00 	cmp.w	r6, #512	@ 0x200
 8000678:	f564 7440 	sbc.w	r4, r4, #768	@ 0x300
 800067c:	d204      	bcs.n	8000688 <__aeabi_dmul+0x80>
 800067e:	ea5f 0e4e 	movs.w	lr, lr, lsl #1
 8000682:	416d      	adcs	r5, r5
 8000684:	eb46 0606 	adc.w	r6, r6, r6
 8000688:	ea42 21c6 	orr.w	r1, r2, r6, lsl #11
 800068c:	ea41 5155 	orr.w	r1, r1, r5, lsr #21
 8000690:	ea4f 20c5 	mov.w	r0, r5, lsl #11
 8000694:	ea40 505e 	orr.w	r0, r0, lr, lsr #21
 8000698:	ea4f 2ece 	mov.w	lr, lr, lsl #11
 800069c:	f1b4 0cfd 	subs.w	ip, r4, #253	@ 0xfd
 80006a0:	bf88      	it	hi
 80006a2:	f5bc 6fe0 	cmphi.w	ip, #1792	@ 0x700
 80006a6:	d81e      	bhi.n	80006e6 <__aeabi_dmul+0xde>
 80006a8:	f1be 4f00 	cmp.w	lr, #2147483648	@ 0x80000000
 80006ac:	bf08      	it	eq
 80006ae:	ea5f 0e50 	movseq.w	lr, r0, lsr #1
 80006b2:	f150 0000 	adcs.w	r0, r0, #0
 80006b6:	eb41 5104 	adc.w	r1, r1, r4, lsl #20
 80006ba:	bd70      	pop	{r4, r5, r6, pc}
 80006bc:	f006 4600 	and.w	r6, r6, #2147483648	@ 0x80000000
 80006c0:	ea46 0101 	orr.w	r1, r6, r1
 80006c4:	ea40 0002 	orr.w	r0, r0, r2
 80006c8:	ea81 0103 	eor.w	r1, r1, r3
 80006cc:	ebb4 045c 	subs.w	r4, r4, ip, lsr #1
 80006d0:	bfc2      	ittt	gt
 80006d2:	ebd4 050c 	rsbsgt	r5, r4, ip
 80006d6:	ea41 5104 	orrgt.w	r1, r1, r4, lsl #20
 80006da:	bd70      	popgt	{r4, r5, r6, pc}
 80006dc:	f441 1180 	orr.w	r1, r1, #1048576	@ 0x100000
 80006e0:	f04f 0e00 	mov.w	lr, #0
 80006e4:	3c01      	subs	r4, #1
 80006e6:	f300 80ab 	bgt.w	8000840 <__aeabi_dmul+0x238>
 80006ea:	f114 0f36 	cmn.w	r4, #54	@ 0x36
 80006ee:	bfde      	ittt	le
 80006f0:	2000      	movle	r0, #0
 80006f2:	f001 4100 	andle.w	r1, r1, #2147483648	@ 0x80000000
 80006f6:	bd70      	pople	{r4, r5, r6, pc}
 80006f8:	f1c4 0400 	rsb	r4, r4, #0
 80006fc:	3c20      	subs	r4, #32
 80006fe:	da35      	bge.n	800076c <__aeabi_dmul+0x164>
 8000700:	340c      	adds	r4, #12
 8000702:	dc1b      	bgt.n	800073c <__aeabi_dmul+0x134>
 8000704:	f104 0414 	add.w	r4, r4, #20
 8000708:	f1c4 0520 	rsb	r5, r4, #32
 800070c:	fa00 f305 	lsl.w	r3, r0, r5
 8000710:	fa20 f004 	lsr.w	r0, r0, r4
 8000714:	fa01 f205 	lsl.w	r2, r1, r5
 8000718:	ea40 0002 	orr.w	r0, r0, r2
 800071c:	f001 4200 	and.w	r2, r1, #2147483648	@ 0x80000000
 8000720:	f021 4100 	bic.w	r1, r1, #2147483648	@ 0x80000000
 8000724:	eb10 70d3 	adds.w	r0, r0, r3, lsr #31
 8000728:	fa21 f604 	lsr.w	r6, r1, r4
 800072c:	eb42 0106 	adc.w	r1, r2, r6
 8000730:	ea5e 0e43 	orrs.w	lr, lr, r3, lsl #1
 8000734:	bf08      	it	eq
 8000736:	ea20 70d3 	biceq.w	r0, r0, r3, lsr #31
 800073a:	bd70      	pop	{r4, r5, r6, pc}
 800073c:	f1c4 040c 	rsb	r4, r4, #12
 8000740:	f1c4 0520 	rsb	r5, r4, #32
 8000744:	fa00 f304 	lsl.w	r3, r0, r4
 8000748:	fa20 f005 	lsr.w	r0, r0, r5
 800074c:	fa01 f204 	lsl.w	r2, r1, r4
 8000750:	ea40 0002 	orr.w	r0, r0, r2
 8000754:	f001 4100 	and.w	r1, r1, #2147483648	@ 0x80000000
 8000758:	eb10 70d3 	adds.w	r0, r0, r3, lsr #31
 800075c:	f141 0100 	adc.w	r1, r1, #0
 8000760:	ea5e 0e43 	orrs.w	lr, lr, r3, lsl #1
 8000764:	bf08      	it	eq
 8000766:	ea20 70d3 	biceq.w	r0, r0, r3, lsr #31
 800076a:	bd70      	pop	{r4, r5, r6, pc}
 800076c:	f1c4 0520 	rsb	r5, r4, #32
 8000770:	fa00 f205 	lsl.w	r2, r0, r5
 8000774:	ea4e 0e02 	orr.w	lr, lr, r2
 8000778:	fa20 f304 	lsr.w	r3, r0, r4
 800077c:	fa01 f205 	lsl.w	r2, r1, r5
 8000780:	ea43 0302 	orr.w	r3, r3, r2
 8000784:	fa21 f004 	lsr.w	r0, r1, r4
 8000788:	f001 4100 	and.w	r1, r1, #2147483648	@ 0x80000000
 800078c:	fa21 f204 	lsr.w	r2, r1, r4
 8000790:	ea20 0002 	bic.w	r0, r0, r2
 8000794:	eb00 70d3 	add.w	r0, r0, r3, lsr #31
 8000798:	ea5e 0e43 	orrs.w	lr, lr, r3, lsl #1
 800079c:	bf08      	it	eq
 800079e:	ea20 70d3 	biceq.w	r0, r0, r3, lsr #31
 80007a2:	bd70      	pop	{r4, r5, r6, pc}
 80007a4:	f094 0f00 	teq	r4, #0
 80007a8:	d10f      	bne.n	80007ca <__aeabi_dmul+0x1c2>
 80007aa:	f001 4600 	and.w	r6, r1, #2147483648	@ 0x80000000
 80007ae:	0040      	lsls	r0, r0, #1
 80007b0:	eb41 0101 	adc.w	r1, r1, r1
 80007b4:	f411 1f80 	tst.w	r1, #1048576	@ 0x100000
 80007b8:	bf08      	it	eq
 80007ba:	3c01      	subeq	r4, #1
 80007bc:	d0f7      	beq.n	80007ae <__aeabi_dmul+0x1a6>
 80007be:	ea41 0106 	orr.w	r1, r1, r6
 80007c2:	f095 0f00 	teq	r5, #0
 80007c6:	bf18      	it	ne
 80007c8:	4770      	bxne	lr
 80007ca:	f003 4600 	and.w	r6, r3, #2147483648	@ 0x80000000
 80007ce:	0052      	lsls	r2, r2, #1
 80007d0:	eb43 0303 	adc.w	r3, r3, r3
 80007d4:	f413 1f80 	tst.w	r3, #1048576	@ 0x100000
 80007d8:	bf08      	it	eq
 80007da:	3d01      	subeq	r5, #1
 80007dc:	d0f7      	beq.n	80007ce <__aeabi_dmul+0x1c6>
 80007de:	ea43 0306 	orr.w	r3, r3, r6
 80007e2:	4770      	bx	lr
 80007e4:	ea94 0f0c 	teq	r4, ip
 80007e8:	ea0c 5513 	and.w	r5, ip, r3, lsr #20
 80007ec:	bf18      	it	ne
 80007ee:	ea95 0f0c 	teqne	r5, ip
 80007f2:	d00c      	beq.n	800080e <__aeabi_dmul+0x206>
 80007f4:	ea50 0641 	orrs.w	r6, r0, r1, lsl #1
 80007f8:	bf18      	it	ne
 80007fa:	ea52 0643 	orrsne.w	r6, r2, r3, lsl #1
 80007fe:	d1d1      	bne.n	80007a4 <__aeabi_dmul+0x19c>
 8000800:	ea81 0103 	eor.w	r1, r1, r3
 8000804:	f001 4100 	and.w	r1, r1, #2147483648	@ 0x80000000
 8000808:	f04f 0000 	mov.w	r0, #0
 800080c:	bd70      	pop	{r4, r5, r6, pc}
 800080e:	ea50 0641 	orrs.w	r6, r0, r1, lsl #1
 8000812:	bf06      	itte	eq
 8000814:	4610      	moveq	r0, r2
 8000816:	4619      	moveq	r1, r3
 8000818:	ea52 0643 	orrsne.w	r6, r2, r3, lsl #1
 800081c:	d019      	beq.n	8000852 <__aeabi_dmul+0x24a>
 800081e:	ea94 0f0c 	teq	r4, ip
 8000822:	d102      	bne.n	800082a <__aeabi_dmul+0x222>
 8000824:	ea50 3601 	orrs.w	r6, r0, r1, lsl #12
 8000828:	d113      	bne.n	8000852 <__aeabi_dmul+0x24a>
 800082a:	ea95 0f0c 	teq	r5, ip
 800082e:	d105      	bne.n	800083c <__aeabi_dmul+0x234>
 8000830:	ea52 3603 	orrs.w	r6, r2, r3, lsl #12
 8000834:	bf1c      	itt	ne
 8000836:	4610      	movne	r0, r2
 8000838:	4619      	movne	r1, r3
 800083a:	d10a      	bne.n	8000852 <__aeabi_dmul+0x24a>
 800083c:	ea81 0103 	eor.w	r1, r1, r3
 8000840:	f001 4100 	and.w	r1, r1, #2147483648	@ 0x80000000
 8000844:	f041 41fe 	orr.w	r1, r1, #2130706432	@ 0x7f000000
 8000848:	f441 0170 	orr.w	r1, r1, #15728640	@ 0xf00000
 800084c:	f04f 0000 	mov.w	r0, #0
 8000850:	bd70      	pop	{r4, r5, r6, pc}
 8000852:	f041 41fe 	orr.w	r1, r1, #2130706432	@ 0x7f000000
 8000856:	f441 0178 	orr.w	r1, r1, #16252928	@ 0xf80000
 800085a:	bd70      	pop	{r4, r5, r6, pc}

0800085c <__aeabi_ddiv>:
 800085c:	b570      	push	{r4, r5, r6, lr}
 800085e:	f04f 0cff 	mov.w	ip, #255	@ 0xff
 8000862:	f44c 6ce0 	orr.w	ip, ip, #1792	@ 0x700
 8000866:	ea1c 5411 	ands.w	r4, ip, r1, lsr #20
 800086a:	bf1d      	ittte	ne
 800086c:	ea1c 5513 	andsne.w	r5, ip, r3, lsr #20
 8000870:	ea94 0f0c 	teqne	r4, ip
 8000874:	ea95 0f0c 	teqne	r5, ip
 8000878:	f000 f8a7 	bleq	80009ca <__aeabi_ddiv+0x16e>
 800087c:	eba4 0405 	sub.w	r4, r4, r5
 8000880:	ea81 0e03 	eor.w	lr, r1, r3
 8000884:	ea52 3503 	orrs.w	r5, r2, r3, lsl #12
 8000888:	ea4f 3101 	mov.w	r1, r1, lsl #12
 800088c:	f000 8088 	beq.w	80009a0 <__aeabi_ddiv+0x144>
 8000890:	ea4f 3303 	mov.w	r3, r3, lsl #12
 8000894:	f04f 5580 	mov.w	r5, #268435456	@ 0x10000000
 8000898:	ea45 1313 	orr.w	r3, r5, r3, lsr #4
 800089c:	ea43 6312 	orr.w	r3, r3, r2, lsr #24
 80008a0:	ea4f 2202 	mov.w	r2, r2, lsl #8
 80008a4:	ea45 1511 	orr.w	r5, r5, r1, lsr #4
 80008a8:	ea45 6510 	orr.w	r5, r5, r0, lsr #24
 80008ac:	ea4f 2600 	mov.w	r6, r0, lsl #8
 80008b0:	f00e 4100 	and.w	r1, lr, #2147483648	@ 0x80000000
 80008b4:	429d      	cmp	r5, r3
 80008b6:	bf08      	it	eq
 80008b8:	4296      	cmpeq	r6, r2
 80008ba:	f144 04fd 	adc.w	r4, r4, #253	@ 0xfd
 80008be:	f504 7440 	add.w	r4, r4, #768	@ 0x300
 80008c2:	d202      	bcs.n	80008ca <__aeabi_ddiv+0x6e>
 80008c4:	085b      	lsrs	r3, r3, #1
 80008c6:	ea4f 0232 	mov.w	r2, r2, rrx
 80008ca:	1ab6      	subs	r6, r6, r2
 80008cc:	eb65 0503 	sbc.w	r5, r5, r3
 80008d0:	085b      	lsrs	r3, r3, #1
 80008d2:	ea4f 0232 	mov.w	r2, r2, rrx
 80008d6:	f44f 1080 	mov.w	r0, #1048576	@ 0x100000
 80008da:	f44f 2c00 	mov.w	ip, #524288	@ 0x80000
 80008de:	ebb6 0e02 	subs.w	lr, r6, r2
 80008e2:	eb75 0e03 	sbcs.w	lr, r5, r3
 80008e6:	bf22      	ittt	cs
 80008e8:	1ab6      	subcs	r6, r6, r2
 80008ea:	4675      	movcs	r5, lr
 80008ec:	ea40 000c 	orrcs.w	r0, r0, ip
 80008f0:	085b      	lsrs	r3, r3, #1
 80008f2:	ea4f 0232 	mov.w	r2, r2, rrx
 80008f6:	ebb6 0e02 	subs.w	lr, r6, r2
 80008fa:	eb75 0e03 	sbcs.w	lr, r5, r3
 80008fe:	bf22      	ittt	cs
 8000900:	1ab6      	subcs	r6, r6, r2
 8000902:	4675      	movcs	r5, lr
 8000904:	ea40 005c 	orrcs.w	r0, r0, ip, lsr #1
 8000908:	085b      	lsrs	r3, r3, #1
 800090a:	ea4f 0232 	mov.w	r2, r2, rrx
 800090e:	ebb6 0e02 	subs.w	lr, r6, r2
 8000912:	eb75 0e03 	sbcs.w	lr, r5, r3
 8000916:	bf22      	ittt	cs
 8000918:	1ab6      	subcs	r6, r6, r2
 800091a:	4675      	movcs	r5, lr
 800091c:	ea40 009c 	orrcs.w	r0, r0, ip, lsr #2
 8000920:	085b      	lsrs	r3, r3, #1
 8000922:	ea4f 0232 	mov.w	r2, r2, rrx
 8000926:	ebb6 0e02 	subs.w	lr, r6, r2
 800092a:	eb75 0e03 	sbcs.w	lr, r5, r3
 800092e:	bf22      	ittt	cs
 8000930:	1ab6      	subcs	r6, r6, r2
 8000932:	4675      	movcs	r5, lr
 8000934:	ea40 00dc 	orrcs.w	r0, r0, ip, lsr #3
 8000938:	ea55 0e06 	orrs.w	lr, r5, r6
 800093c:	d018      	beq.n	8000970 <__aeabi_ddiv+0x114>
 800093e:	ea4f 1505 	mov.w	r5, r5, lsl #4
 8000942:	ea45 7516 	orr.w	r5, r5, r6, lsr #28
 8000946:	ea4f 1606 	mov.w	r6, r6, lsl #4
 800094a:	ea4f 03c3 	mov.w	r3, r3, lsl #3
 800094e:	ea43 7352 	orr.w	r3, r3, r2, lsr #29
 8000952:	ea4f 02c2 	mov.w	r2, r2, lsl #3
 8000956:	ea5f 1c1c 	movs.w	ip, ip, lsr #4
 800095a:	d1c0      	bne.n	80008de <__aeabi_ddiv+0x82>
 800095c:	f411 1f80 	tst.w	r1, #1048576	@ 0x100000
 8000960:	d10b      	bne.n	800097a <__aeabi_ddiv+0x11e>
 8000962:	ea41 0100 	orr.w	r1, r1, r0
 8000966:	f04f 0000 	mov.w	r0, #0
 800096a:	f04f 4c00 	mov.w	ip, #2147483648	@ 0x80000000
 800096e:	e7b6      	b.n	80008de <__aeabi_ddiv+0x82>
 8000970:	f411 1f80 	tst.w	r1, #1048576	@ 0x100000
 8000974:	bf04      	itt	eq
 8000976:	4301      	orreq	r1, r0
 8000978:	2000      	moveq	r0, #0
 800097a:	f1b4 0cfd 	subs.w	ip, r4, #253	@ 0xfd
 800097e:	bf88      	it	hi
 8000980:	f5bc 6fe0 	cmphi.w	ip, #1792	@ 0x700
 8000984:	f63f aeaf 	bhi.w	80006e6 <__aeabi_dmul+0xde>
 8000988:	ebb5 0c03 	subs.w	ip, r5, r3
 800098c:	bf04      	itt	eq
 800098e:	ebb6 0c02 	subseq.w	ip, r6, r2
 8000992:	ea5f 0c50 	movseq.w	ip, r0, lsr #1
 8000996:	f150 0000 	adcs.w	r0, r0, #0
 800099a:	eb41 5104 	adc.w	r1, r1, r4, lsl #20
 800099e:	bd70      	pop	{r4, r5, r6, pc}
 80009a0:	f00e 4e00 	and.w	lr, lr, #2147483648	@ 0x80000000
 80009a4:	ea4e 3111 	orr.w	r1, lr, r1, lsr #12
 80009a8:	eb14 045c 	adds.w	r4, r4, ip, lsr #1
 80009ac:	bfc2      	ittt	gt
 80009ae:	ebd4 050c 	rsbsgt	r5, r4, ip
 80009b2:	ea41 5104 	orrgt.w	r1, r1, r4, lsl #20
 80009b6:	bd70      	popgt	{r4, r5, r6, pc}
 80009b8:	f441 1180 	orr.w	r1, r1, #1048576	@ 0x100000
 80009bc:	f04f 0e00 	mov.w	lr, #0
 80009c0:	3c01      	subs	r4, #1
 80009c2:	e690      	b.n	80006e6 <__aeabi_dmul+0xde>
 80009c4:	ea45 0e06 	orr.w	lr, r5, r6
 80009c8:	e68d      	b.n	80006e6 <__aeabi_dmul+0xde>
 80009ca:	ea0c 5513 	and.w	r5, ip, r3, lsr #20
 80009ce:	ea94 0f0c 	teq	r4, ip
 80009d2:	bf08      	it	eq
 80009d4:	ea95 0f0c 	teqeq	r5, ip
 80009d8:	f43f af3b 	beq.w	8000852 <__aeabi_dmul+0x24a>
 80009dc:	ea94 0f0c 	teq	r4, ip
 80009e0:	d10a      	bne.n	80009f8 <__aeabi_ddiv+0x19c>
 80009e2:	ea50 3401 	orrs.w	r4, r0, r1, lsl #12
 80009e6:	f47f af34 	bne.w	8000852 <__aeabi_dmul+0x24a>
 80009ea:	ea95 0f0c 	teq	r5, ip
 80009ee:	f47f af25 	bne.w	800083c <__aeabi_dmul+0x234>
 80009f2:	4610      	mov	r0, r2
 80009f4:	4619      	mov	r1, r3
 80009f6:	e72c      	b.n	8000852 <__aeabi_dmul+0x24a>
 80009f8:	ea95 0f0c 	teq	r5, ip
 80009fc:	d106      	bne.n	8000a0c <__aeabi_ddiv+0x1b0>
 80009fe:	ea52 3503 	orrs.w	r5, r2, r3, lsl #12
 8000a02:	f43f aefd 	beq.w	8000800 <__aeabi_dmul+0x1f8>
 8000a06:	4610      	mov	r0, r2
 8000a08:	4619      	mov	r1, r3
 8000a0a:	e722      	b.n	8000852 <__aeabi_dmul+0x24a>
 8000a0c:	ea50 0641 	orrs.w	r6, r0, r1, lsl #1
 8000a10:	bf18      	it	ne
 8000a12:	ea52 0643 	orrsne.w	r6, r2, r3, lsl #1
 8000a16:	f47f aec5 	bne.w	80007a4 <__aeabi_dmul+0x19c>
 8000a1a:	ea50 0441 	orrs.w	r4, r0, r1, lsl #1
 8000a1e:	f47f af0d 	bne.w	800083c <__aeabi_dmul+0x234>
 8000a22:	ea52 0543 	orrs.w	r5, r2, r3, lsl #1
 8000a26:	f47f aeeb 	bne.w	8000800 <__aeabi_dmul+0x1f8>
 8000a2a:	e712      	b.n	8000852 <__aeabi_dmul+0x24a>

08000a2c <__gedf2>:
 8000a2c:	f04f 3cff 	mov.w	ip, #4294967295
 8000a30:	e006      	b.n	8000a40 <__cmpdf2+0x4>
 8000a32:	bf00      	nop

08000a34 <__ledf2>:
 8000a34:	f04f 0c01 	mov.w	ip, #1
 8000a38:	e002      	b.n	8000a40 <__cmpdf2+0x4>
 8000a3a:	bf00      	nop

08000a3c <__cmpdf2>:
 8000a3c:	f04f 0c01 	mov.w	ip, #1
 8000a40:	f84d cd04 	str.w	ip, [sp, #-4]!
 8000a44:	ea4f 0c41 	mov.w	ip, r1, lsl #1
 8000a48:	ea7f 5c6c 	mvns.w	ip, ip, asr #21
 8000a4c:	ea4f 0c43 	mov.w	ip, r3, lsl #1
 8000a50:	bf18      	it	ne
 8000a52:	ea7f 5c6c 	mvnsne.w	ip, ip, asr #21
 8000a56:	d01b      	beq.n	8000a90 <__cmpdf2+0x54>
 8000a58:	b001      	add	sp, #4
 8000a5a:	ea50 0c41 	orrs.w	ip, r0, r1, lsl #1
 8000a5e:	bf0c      	ite	eq
 8000a60:	ea52 0c43 	orrseq.w	ip, r2, r3, lsl #1
 8000a64:	ea91 0f03 	teqne	r1, r3
 8000a68:	bf02      	ittt	eq
 8000a6a:	ea90 0f02 	teqeq	r0, r2
 8000a6e:	2000      	moveq	r0, #0
 8000a70:	4770      	bxeq	lr
 8000a72:	f110 0f00 	cmn.w	r0, #0
 8000a76:	ea91 0f03 	teq	r1, r3
 8000a7a:	bf58      	it	pl
 8000a7c:	4299      	cmppl	r1, r3
 8000a7e:	bf08      	it	eq
 8000a80:	4290      	cmpeq	r0, r2
 8000a82:	bf2c      	ite	cs
 8000a84:	17d8      	asrcs	r0, r3, #31
 8000a86:	ea6f 70e3 	mvncc.w	r0, r3, asr #31
 8000a8a:	f040 0001 	orr.w	r0, r0, #1
 8000a8e:	4770      	bx	lr
 8000a90:	ea4f 0c41 	mov.w	ip, r1, lsl #1
 8000a94:	ea7f 5c6c 	mvns.w	ip, ip, asr #21
 8000a98:	d102      	bne.n	8000aa0 <__cmpdf2+0x64>
 8000a9a:	ea50 3c01 	orrs.w	ip, r0, r1, lsl #12
 8000a9e:	d107      	bne.n	8000ab0 <__cmpdf2+0x74>
 8000aa0:	ea4f 0c43 	mov.w	ip, r3, lsl #1
 8000aa4:	ea7f 5c6c 	mvns.w	ip, ip, asr #21
 8000aa8:	d1d6      	bne.n	8000a58 <__cmpdf2+0x1c>
 8000aaa:	ea52 3c03 	orrs.w	ip, r2, r3, lsl #12
 8000aae:	d0d3      	beq.n	8000a58 <__cmpdf2+0x1c>
 8000ab0:	f85d 0b04 	ldr.w	r0, [sp], #4
 8000ab4:	4770      	bx	lr
 8000ab6:	bf00      	nop

08000ab8 <__aeabi_cdrcmple>:
 8000ab8:	4684      	mov	ip, r0
 8000aba:	4610      	mov	r0, r2
 8000abc:	4662      	mov	r2, ip
 8000abe:	468c      	mov	ip, r1
 8000ac0:	4619      	mov	r1, r3
 8000ac2:	4663      	mov	r3, ip
 8000ac4:	e000      	b.n	8000ac8 <__aeabi_cdcmpeq>
 8000ac6:	bf00      	nop

08000ac8 <__aeabi_cdcmpeq>:
 8000ac8:	b501      	push	{r0, lr}
 8000aca:	f7ff ffb7 	bl	8000a3c <__cmpdf2>
 8000ace:	2800      	cmp	r0, #0
 8000ad0:	bf48      	it	mi
 8000ad2:	f110 0f00 	cmnmi.w	r0, #0
 8000ad6:	bd01      	pop	{r0, pc}

08000ad8 <__aeabi_dcmpeq>:
 8000ad8:	f84d ed08 	str.w	lr, [sp, #-8]!
 8000adc:	f7ff fff4 	bl	8000ac8 <__aeabi_cdcmpeq>
 8000ae0:	bf0c      	ite	eq
 8000ae2:	2001      	moveq	r0, #1
 8000ae4:	2000      	movne	r0, #0
 8000ae6:	f85d fb08 	ldr.w	pc, [sp], #8
 8000aea:	bf00      	nop

08000aec <__aeabi_dcmplt>:
 8000aec:	f84d ed08 	str.w	lr, [sp, #-8]!
 8000af0:	f7ff ffea 	bl	8000ac8 <__aeabi_cdcmpeq>
 8000af4:	bf34      	ite	cc
 8000af6:	2001      	movcc	r0, #1
 8000af8:	2000      	movcs	r0, #0
 8000afa:	f85d fb08 	ldr.w	pc, [sp], #8
 8000afe:	bf00      	nop

08000b00 <__aeabi_dcmple>:
 8000b00:	f84d ed08 	str.w	lr, [sp, #-8]!
 8000b04:	f7ff ffe0 	bl	8000ac8 <__aeabi_cdcmpeq>
 8000b08:	bf94      	ite	ls
 8000b0a:	2001      	movls	r0, #1
 8000b0c:	2000      	movhi	r0, #0
 8000b0e:	f85d fb08 	ldr.w	pc, [sp], #8
 8000b12:	bf00      	nop

08000b14 <__aeabi_dcmpge>:
 8000b14:	f84d ed08 	str.w	lr, [sp, #-8]!
 8000b18:	f7ff ffce 	bl	8000ab8 <__aeabi_cdrcmple>
 8000b1c:	bf94      	ite	ls
 8000b1e:	2001      	movls	r0, #1
 8000b20:	2000      	movhi	r0, #0
 8000b22:	f85d fb08 	ldr.w	pc, [sp], #8
 8000b26:	bf00      	nop

08000b28 <__aeabi_dcmpgt>:
 8000b28:	f84d ed08 	str.w	lr, [sp, #-8]!
 8000b2c:	f7ff ffc4 	bl	8000ab8 <__aeabi_cdrcmple>
 8000b30:	bf34      	ite	cc
 8000b32:	2001      	movcc	r0, #1
 8000b34:	2000      	movcs	r0, #0
 8000b36:	f85d fb08 	ldr.w	pc, [sp], #8
 8000b3a:	bf00      	nop

08000b3c <__aeabi_dcmpun>:
 8000b3c:	ea4f 0c41 	mov.w	ip, r1, lsl #1
 8000b40:	ea7f 5c6c 	mvns.w	ip, ip, asr #21
 8000b44:	d102      	bne.n	8000b4c <__aeabi_dcmpun+0x10>
 8000b46:	ea50 3c01 	orrs.w	ip, r0, r1, lsl #12
 8000b4a:	d10a      	bne.n	8000b62 <__aeabi_dcmpun+0x26>
 8000b4c:	ea4f 0c43 	mov.w	ip, r3, lsl #1
 8000b50:	ea7f 5c6c 	mvns.w	ip, ip, asr #21
 8000b54:	d102      	bne.n	8000b5c <__aeabi_dcmpun+0x20>
 8000b56:	ea52 3c03 	orrs.w	ip, r2, r3, lsl #12
 8000b5a:	d102      	bne.n	8000b62 <__aeabi_dcmpun+0x26>
 8000b5c:	f04f 0000 	mov.w	r0, #0
 8000b60:	4770      	bx	lr
 8000b62:	f04f 0001 	mov.w	r0, #1
 8000b66:	4770      	bx	lr

08000b68 <__aeabi_d2iz>:
 8000b68:	ea4f 0241 	mov.w	r2, r1, lsl #1
 8000b6c:	f512 1200 	adds.w	r2, r2, #2097152	@ 0x200000
 8000b70:	d215      	bcs.n	8000b9e <__aeabi_d2iz+0x36>
 8000b72:	d511      	bpl.n	8000b98 <__aeabi_d2iz+0x30>
 8000b74:	f46f 7378 	mvn.w	r3, #992	@ 0x3e0
 8000b78:	ebb3 5262 	subs.w	r2, r3, r2, asr #21
 8000b7c:	d912      	bls.n	8000ba4 <__aeabi_d2iz+0x3c>
 8000b7e:	ea4f 23c1 	mov.w	r3, r1, lsl #11
 8000b82:	f043 4300 	orr.w	r3, r3, #2147483648	@ 0x80000000
 8000b86:	ea43 5350 	orr.w	r3, r3, r0, lsr #21
 8000b8a:	f011 4f00 	tst.w	r1, #2147483648	@ 0x80000000
 8000b8e:	fa23 f002 	lsr.w	r0, r3, r2
 8000b92:	bf18      	it	ne
 8000b94:	4240      	negne	r0, r0
 8000b96:	4770      	bx	lr
 8000b98:	f04f 0000 	mov.w	r0, #0
 8000b9c:	4770      	bx	lr
 8000b9e:	ea50 3001 	orrs.w	r0, r0, r1, lsl #12
 8000ba2:	d105      	bne.n	8000bb0 <__aeabi_d2iz+0x48>
 8000ba4:	f011 4000 	ands.w	r0, r1, #2147483648	@ 0x80000000
 8000ba8:	bf08      	it	eq
 8000baa:	f06f 4000 	mvneq.w	r0, #2147483648	@ 0x80000000
 8000bae:	4770      	bx	lr
 8000bb0:	f04f 0000 	mov.w	r0, #0
 8000bb4:	4770      	bx	lr
 8000bb6:	bf00      	nop

08000bb8 <__aeabi_d2uiz>:
 8000bb8:	004a      	lsls	r2, r1, #1
 8000bba:	d211      	bcs.n	8000be0 <__aeabi_d2uiz+0x28>
 8000bbc:	f512 1200 	adds.w	r2, r2, #2097152	@ 0x200000
 8000bc0:	d211      	bcs.n	8000be6 <__aeabi_d2uiz+0x2e>
 8000bc2:	d50d      	bpl.n	8000be0 <__aeabi_d2uiz+0x28>
 8000bc4:	f46f 7378 	mvn.w	r3, #992	@ 0x3e0
 8000bc8:	ebb3 5262 	subs.w	r2, r3, r2, asr #21
 8000bcc:	d40e      	bmi.n	8000bec <__aeabi_d2uiz+0x34>
 8000bce:	ea4f 23c1 	mov.w	r3, r1, lsl #11
 8000bd2:	f043 4300 	orr.w	r3, r3, #2147483648	@ 0x80000000
 8000bd6:	ea43 5350 	orr.w	r3, r3, r0, lsr #21
 8000bda:	fa23 f002 	lsr.w	r0, r3, r2
 8000bde:	4770      	bx	lr
 8000be0:	f04f 0000 	mov.w	r0, #0
 8000be4:	4770      	bx	lr
 8000be6:	ea50 3001 	orrs.w	r0, r0, r1, lsl #12
 8000bea:	d102      	bne.n	8000bf2 <__aeabi_d2uiz+0x3a>
 8000bec:	f04f 30ff 	mov.w	r0, #4294967295
 8000bf0:	4770      	bx	lr
 8000bf2:	f04f 0000 	mov.w	r0, #0
 8000bf6:	4770      	bx	lr

08000bf8 <__aeabi_d2f>:
 8000bf8:	ea4f 0241 	mov.w	r2, r1, lsl #1
 8000bfc:	f1b2 43e0 	subs.w	r3, r2, #1879048192	@ 0x70000000
 8000c00:	bf24      	itt	cs
 8000c02:	f5b3 1c00 	subscs.w	ip, r3, #2097152	@ 0x200000
 8000c06:	f1dc 5cfe 	rsbscs	ip, ip, #532676608	@ 0x1fc00000
 8000c0a:	d90d      	bls.n	8000c28 <__aeabi_d2f+0x30>
 8000c0c:	f001 4c00 	and.w	ip, r1, #2147483648	@ 0x80000000
 8000c10:	ea4f 02c0 	mov.w	r2, r0, lsl #3
 8000c14:	ea4c 7050 	orr.w	r0, ip, r0, lsr #29
 8000c18:	f1b2 4f00 	cmp.w	r2, #2147483648	@ 0x80000000
 8000c1c:	eb40 0083 	adc.w	r0, r0, r3, lsl #2
 8000c20:	bf08      	it	eq
 8000c22:	f020 0001 	biceq.w	r0, r0, #1
 8000c26:	4770      	bx	lr
 8000c28:	f011 4f80 	tst.w	r1, #1073741824	@ 0x40000000
 8000c2c:	d121      	bne.n	8000c72 <__aeabi_d2f+0x7a>
 8000c2e:	f113 7238 	adds.w	r2, r3, #48234496	@ 0x2e00000
 8000c32:	bfbc      	itt	lt
 8000c34:	f001 4000 	andlt.w	r0, r1, #2147483648	@ 0x80000000
 8000c38:	4770      	bxlt	lr
 8000c3a:	f441 1180 	orr.w	r1, r1, #1048576	@ 0x100000
 8000c3e:	ea4f 5252 	mov.w	r2, r2, lsr #21
 8000c42:	f1c2 0218 	rsb	r2, r2, #24
 8000c46:	f1c2 0c20 	rsb	ip, r2, #32
 8000c4a:	fa10 f30c 	lsls.w	r3, r0, ip
 8000c4e:	fa20 f002 	lsr.w	r0, r0, r2
 8000c52:	bf18      	it	ne
 8000c54:	f040 0001 	orrne.w	r0, r0, #1
 8000c58:	ea4f 23c1 	mov.w	r3, r1, lsl #11
 8000c5c:	ea4f 23d3 	mov.w	r3, r3, lsr #11
 8000c60:	fa03 fc0c 	lsl.w	ip, r3, ip
 8000c64:	ea40 000c 	orr.w	r0, r0, ip
 8000c68:	fa23 f302 	lsr.w	r3, r3, r2
 8000c6c:	ea4f 0343 	mov.w	r3, r3, lsl #1
 8000c70:	e7cc      	b.n	8000c0c <__aeabi_d2f+0x14>
 8000c72:	ea7f 5362 	mvns.w	r3, r2, asr #21
 8000c76:	d107      	bne.n	8000c88 <__aeabi_d2f+0x90>
 8000c78:	ea50 3301 	orrs.w	r3, r0, r1, lsl #12
 8000c7c:	bf1e      	ittt	ne
 8000c7e:	f04f 40fe 	movne.w	r0, #2130706432	@ 0x7f000000
 8000c82:	f440 0040 	orrne.w	r0, r0, #12582912	@ 0xc00000
 8000c86:	4770      	bxne	lr
 8000c88:	f001 4000 	and.w	r0, r1, #2147483648	@ 0x80000000
 8000c8c:	f040 40fe 	orr.w	r0, r0, #2130706432	@ 0x7f000000
 8000c90:	f440 0000 	orr.w	r0, r0, #8388608	@ 0x800000
 8000c94:	4770      	bx	lr
 8000c96:	bf00      	nop

08000c98 <__aeabi_uldivmod>:
 8000c98:	b953      	cbnz	r3, 8000cb0 <__aeabi_uldivmod+0x18>
 8000c9a:	b94a      	cbnz	r2, 8000cb0 <__aeabi_uldivmod+0x18>
 8000c9c:	2900      	cmp	r1, #0
 8000c9e:	bf08      	it	eq
 8000ca0:	2800      	cmpeq	r0, #0
 8000ca2:	bf1c      	itt	ne
 8000ca4:	f04f 31ff 	movne.w	r1, #4294967295
 8000ca8:	f04f 30ff 	movne.w	r0, #4294967295
 8000cac:	f000 b9be 	b.w	800102c <__aeabi_idiv0>
 8000cb0:	f1ad 0c08 	sub.w	ip, sp, #8
 8000cb4:	e96d ce04 	strd	ip, lr, [sp, #-16]!
 8000cb8:	f000 f83c 	bl	8000d34 <__udivmoddi4>
 8000cbc:	f8dd e004 	ldr.w	lr, [sp, #4]
 8000cc0:	e9dd 2302 	ldrd	r2, r3, [sp, #8]
 8000cc4:	b004      	add	sp, #16
 8000cc6:	4770      	bx	lr

08000cc8 <__aeabi_d2lz>:
 8000cc8:	b538      	push	{r3, r4, r5, lr}
 8000cca:	2200      	movs	r2, #0
 8000ccc:	2300      	movs	r3, #0
 8000cce:	4604      	mov	r4, r0
 8000cd0:	460d      	mov	r5, r1
 8000cd2:	f7ff ff0b 	bl	8000aec <__aeabi_dcmplt>
 8000cd6:	b928      	cbnz	r0, 8000ce4 <__aeabi_d2lz+0x1c>
 8000cd8:	4620      	mov	r0, r4
 8000cda:	4629      	mov	r1, r5
 8000cdc:	e8bd 4038 	ldmia.w	sp!, {r3, r4, r5, lr}
 8000ce0:	f000 b80a 	b.w	8000cf8 <__aeabi_d2ulz>
 8000ce4:	4620      	mov	r0, r4
 8000ce6:	f105 4100 	add.w	r1, r5, #2147483648	@ 0x80000000
 8000cea:	f000 f805 	bl	8000cf8 <__aeabi_d2ulz>
 8000cee:	4240      	negs	r0, r0
 8000cf0:	eb61 0141 	sbc.w	r1, r1, r1, lsl #1
 8000cf4:	bd38      	pop	{r3, r4, r5, pc}
 8000cf6:	bf00      	nop

08000cf8 <__aeabi_d2ulz>:
 8000cf8:	b5d0      	push	{r4, r6, r7, lr}
 8000cfa:	4b0c      	ldr	r3, [pc, #48]	@ (8000d2c <__aeabi_d2ulz+0x34>)
 8000cfc:	2200      	movs	r2, #0
 8000cfe:	4606      	mov	r6, r0
 8000d00:	460f      	mov	r7, r1
 8000d02:	f7ff fc81 	bl	8000608 <__aeabi_dmul>
 8000d06:	f7ff ff57 	bl	8000bb8 <__aeabi_d2uiz>
 8000d0a:	4604      	mov	r4, r0
 8000d0c:	f7ff fc02 	bl	8000514 <__aeabi_ui2d>
 8000d10:	4b07      	ldr	r3, [pc, #28]	@ (8000d30 <__aeabi_d2ulz+0x38>)
 8000d12:	2200      	movs	r2, #0
 8000d14:	f7ff fc78 	bl	8000608 <__aeabi_dmul>
 8000d18:	4602      	mov	r2, r0
 8000d1a:	460b      	mov	r3, r1
 8000d1c:	4630      	mov	r0, r6
 8000d1e:	4639      	mov	r1, r7
 8000d20:	f7ff faba 	bl	8000298 <__aeabi_dsub>
 8000d24:	f7ff ff48 	bl	8000bb8 <__aeabi_d2uiz>
 8000d28:	4621      	mov	r1, r4
 8000d2a:	bdd0      	pop	{r4, r6, r7, pc}
 8000d2c:	3df00000 	.word	0x3df00000
 8000d30:	41f00000 	.word	0x41f00000

08000d34 <__udivmoddi4>:
 8000d34:	e92d 47f0 	stmdb	sp!, {r4, r5, r6, r7, r8, r9, sl, lr}
 8000d38:	9d08      	ldr	r5, [sp, #32]
 8000d3a:	468e      	mov	lr, r1
 8000d3c:	4604      	mov	r4, r0
 8000d3e:	4688      	mov	r8, r1
 8000d40:	2b00      	cmp	r3, #0
 8000d42:	d14a      	bne.n	8000dda <__udivmoddi4+0xa6>
 8000d44:	428a      	cmp	r2, r1
 8000d46:	4617      	mov	r7, r2
 8000d48:	d962      	bls.n	8000e10 <__udivmoddi4+0xdc>
 8000d4a:	fab2 f682 	clz	r6, r2
 8000d4e:	b14e      	cbz	r6, 8000d64 <__udivmoddi4+0x30>
 8000d50:	f1c6 0320 	rsb	r3, r6, #32
 8000d54:	fa01 f806 	lsl.w	r8, r1, r6
 8000d58:	fa20 f303 	lsr.w	r3, r0, r3
 8000d5c:	40b7      	lsls	r7, r6
 8000d5e:	ea43 0808 	orr.w	r8, r3, r8
 8000d62:	40b4      	lsls	r4, r6
 8000d64:	ea4f 4e17 	mov.w	lr, r7, lsr #16
 8000d68:	fa1f fc87 	uxth.w	ip, r7
 8000d6c:	fbb8 f1fe 	udiv	r1, r8, lr
 8000d70:	0c23      	lsrs	r3, r4, #16
 8000d72:	fb0e 8811 	mls	r8, lr, r1, r8
 8000d76:	ea43 4308 	orr.w	r3, r3, r8, lsl #16
 8000d7a:	fb01 f20c 	mul.w	r2, r1, ip
 8000d7e:	429a      	cmp	r2, r3
 8000d80:	d909      	bls.n	8000d96 <__udivmoddi4+0x62>
 8000d82:	18fb      	adds	r3, r7, r3
 8000d84:	f101 30ff 	add.w	r0, r1, #4294967295
 8000d88:	f080 80ea 	bcs.w	8000f60 <__udivmoddi4+0x22c>
 8000d8c:	429a      	cmp	r2, r3
 8000d8e:	f240 80e7 	bls.w	8000f60 <__udivmoddi4+0x22c>
 8000d92:	3902      	subs	r1, #2
 8000d94:	443b      	add	r3, r7
 8000d96:	1a9a      	subs	r2, r3, r2
 8000d98:	b2a3      	uxth	r3, r4
 8000d9a:	fbb2 f0fe 	udiv	r0, r2, lr
 8000d9e:	fb0e 2210 	mls	r2, lr, r0, r2
 8000da2:	ea43 4302 	orr.w	r3, r3, r2, lsl #16
 8000da6:	fb00 fc0c 	mul.w	ip, r0, ip
 8000daa:	459c      	cmp	ip, r3
 8000dac:	d909      	bls.n	8000dc2 <__udivmoddi4+0x8e>
 8000dae:	18fb      	adds	r3, r7, r3
 8000db0:	f100 32ff 	add.w	r2, r0, #4294967295
 8000db4:	f080 80d6 	bcs.w	8000f64 <__udivmoddi4+0x230>
 8000db8:	459c      	cmp	ip, r3
 8000dba:	f240 80d3 	bls.w	8000f64 <__udivmoddi4+0x230>
 8000dbe:	443b      	add	r3, r7
 8000dc0:	3802      	subs	r0, #2
 8000dc2:	ea40 4001 	orr.w	r0, r0, r1, lsl #16
 8000dc6:	eba3 030c 	sub.w	r3, r3, ip
 8000dca:	2100      	movs	r1, #0
 8000dcc:	b11d      	cbz	r5, 8000dd6 <__udivmoddi4+0xa2>
 8000dce:	40f3      	lsrs	r3, r6
 8000dd0:	2200      	movs	r2, #0
 8000dd2:	e9c5 3200 	strd	r3, r2, [r5]
 8000dd6:	e8bd 87f0 	ldmia.w	sp!, {r4, r5, r6, r7, r8, r9, sl, pc}
 8000dda:	428b      	cmp	r3, r1
 8000ddc:	d905      	bls.n	8000dea <__udivmoddi4+0xb6>
 8000dde:	b10d      	cbz	r5, 8000de4 <__udivmoddi4+0xb0>
 8000de0:	e9c5 0100 	strd	r0, r1, [r5]
 8000de4:	2100      	movs	r1, #0
 8000de6:	4608      	mov	r0, r1
 8000de8:	e7f5      	b.n	8000dd6 <__udivmoddi4+0xa2>
 8000dea:	fab3 f183 	clz	r1, r3
 8000dee:	2900      	cmp	r1, #0
 8000df0:	d146      	bne.n	8000e80 <__udivmoddi4+0x14c>
 8000df2:	4573      	cmp	r3, lr
 8000df4:	d302      	bcc.n	8000dfc <__udivmoddi4+0xc8>
 8000df6:	4282      	cmp	r2, r0
 8000df8:	f200 8105 	bhi.w	8001006 <__udivmoddi4+0x2d2>
 8000dfc:	1a84      	subs	r4, r0, r2
 8000dfe:	eb6e 0203 	sbc.w	r2, lr, r3
 8000e02:	2001      	movs	r0, #1
 8000e04:	4690      	mov	r8, r2
 8000e06:	2d00      	cmp	r5, #0
 8000e08:	d0e5      	beq.n	8000dd6 <__udivmoddi4+0xa2>
 8000e0a:	e9c5 4800 	strd	r4, r8, [r5]
 8000e0e:	e7e2      	b.n	8000dd6 <__udivmoddi4+0xa2>
 8000e10:	2a00      	cmp	r2, #0
 8000e12:	f000 8090 	beq.w	8000f36 <__udivmoddi4+0x202>
 8000e16:	fab2 f682 	clz	r6, r2
 8000e1a:	2e00      	cmp	r6, #0
 8000e1c:	f040 80a4 	bne.w	8000f68 <__udivmoddi4+0x234>
 8000e20:	1a8a      	subs	r2, r1, r2
 8000e22:	0c03      	lsrs	r3, r0, #16
 8000e24:	ea4f 4e17 	mov.w	lr, r7, lsr #16
 8000e28:	b280      	uxth	r0, r0
 8000e2a:	b2bc      	uxth	r4, r7
 8000e2c:	2101      	movs	r1, #1
 8000e2e:	fbb2 fcfe 	udiv	ip, r2, lr
 8000e32:	fb0e 221c 	mls	r2, lr, ip, r2
 8000e36:	ea43 4302 	orr.w	r3, r3, r2, lsl #16
 8000e3a:	fb04 f20c 	mul.w	r2, r4, ip
 8000e3e:	429a      	cmp	r2, r3
 8000e40:	d907      	bls.n	8000e52 <__udivmoddi4+0x11e>
 8000e42:	18fb      	adds	r3, r7, r3
 8000e44:	f10c 38ff 	add.w	r8, ip, #4294967295
 8000e48:	d202      	bcs.n	8000e50 <__udivmoddi4+0x11c>
 8000e4a:	429a      	cmp	r2, r3
 8000e4c:	f200 80e0 	bhi.w	8001010 <__udivmoddi4+0x2dc>
 8000e50:	46c4      	mov	ip, r8
 8000e52:	1a9b      	subs	r3, r3, r2
 8000e54:	fbb3 f2fe 	udiv	r2, r3, lr
 8000e58:	fb0e 3312 	mls	r3, lr, r2, r3
 8000e5c:	ea40 4303 	orr.w	r3, r0, r3, lsl #16
 8000e60:	fb02 f404 	mul.w	r4, r2, r4
 8000e64:	429c      	cmp	r4, r3
 8000e66:	d907      	bls.n	8000e78 <__udivmoddi4+0x144>
 8000e68:	18fb      	adds	r3, r7, r3
 8000e6a:	f102 30ff 	add.w	r0, r2, #4294967295
 8000e6e:	d202      	bcs.n	8000e76 <__udivmoddi4+0x142>
 8000e70:	429c      	cmp	r4, r3
 8000e72:	f200 80ca 	bhi.w	800100a <__udivmoddi4+0x2d6>
 8000e76:	4602      	mov	r2, r0
 8000e78:	1b1b      	subs	r3, r3, r4
 8000e7a:	ea42 400c 	orr.w	r0, r2, ip, lsl #16
 8000e7e:	e7a5      	b.n	8000dcc <__udivmoddi4+0x98>
 8000e80:	f1c1 0620 	rsb	r6, r1, #32
 8000e84:	408b      	lsls	r3, r1
 8000e86:	fa22 f706 	lsr.w	r7, r2, r6
 8000e8a:	431f      	orrs	r7, r3
 8000e8c:	fa0e f401 	lsl.w	r4, lr, r1
 8000e90:	fa20 f306 	lsr.w	r3, r0, r6
 8000e94:	fa2e fe06 	lsr.w	lr, lr, r6
 8000e98:	ea4f 4917 	mov.w	r9, r7, lsr #16
 8000e9c:	4323      	orrs	r3, r4
 8000e9e:	fa00 f801 	lsl.w	r8, r0, r1
 8000ea2:	fa1f fc87 	uxth.w	ip, r7
 8000ea6:	fbbe f0f9 	udiv	r0, lr, r9
 8000eaa:	0c1c      	lsrs	r4, r3, #16
 8000eac:	fb09 ee10 	mls	lr, r9, r0, lr
 8000eb0:	ea44 440e 	orr.w	r4, r4, lr, lsl #16
 8000eb4:	fb00 fe0c 	mul.w	lr, r0, ip
 8000eb8:	45a6      	cmp	lr, r4
 8000eba:	fa02 f201 	lsl.w	r2, r2, r1
 8000ebe:	d909      	bls.n	8000ed4 <__udivmoddi4+0x1a0>
 8000ec0:	193c      	adds	r4, r7, r4
 8000ec2:	f100 3aff 	add.w	sl, r0, #4294967295
 8000ec6:	f080 809c 	bcs.w	8001002 <__udivmoddi4+0x2ce>
 8000eca:	45a6      	cmp	lr, r4
 8000ecc:	f240 8099 	bls.w	8001002 <__udivmoddi4+0x2ce>
 8000ed0:	3802      	subs	r0, #2
 8000ed2:	443c      	add	r4, r7
 8000ed4:	eba4 040e 	sub.w	r4, r4, lr
 8000ed8:	fa1f fe83 	uxth.w	lr, r3
 8000edc:	fbb4 f3f9 	udiv	r3, r4, r9
 8000ee0:	fb09 4413 	mls	r4, r9, r3, r4
 8000ee4:	ea4e 4404 	orr.w	r4, lr, r4, lsl #16
 8000ee8:	fb03 fc0c 	mul.w	ip, r3, ip
 8000eec:	45a4      	cmp	ip, r4
 8000eee:	d908      	bls.n	8000f02 <__udivmoddi4+0x1ce>
 8000ef0:	193c      	adds	r4, r7, r4
 8000ef2:	f103 3eff 	add.w	lr, r3, #4294967295
 8000ef6:	f080 8082 	bcs.w	8000ffe <__udivmoddi4+0x2ca>
 8000efa:	45a4      	cmp	ip, r4
 8000efc:	d97f      	bls.n	8000ffe <__udivmoddi4+0x2ca>
 8000efe:	3b02      	subs	r3, #2
 8000f00:	443c      	add	r4, r7
 8000f02:	ea43 4000 	orr.w	r0, r3, r0, lsl #16
 8000f06:	eba4 040c 	sub.w	r4, r4, ip
 8000f0a:	fba0 ec02 	umull	lr, ip, r0, r2
 8000f0e:	4564      	cmp	r4, ip
 8000f10:	4673      	mov	r3, lr
 8000f12:	46e1      	mov	r9, ip
 8000f14:	d362      	bcc.n	8000fdc <__udivmoddi4+0x2a8>
 8000f16:	d05f      	beq.n	8000fd8 <__udivmoddi4+0x2a4>
 8000f18:	b15d      	cbz	r5, 8000f32 <__udivmoddi4+0x1fe>
 8000f1a:	ebb8 0203 	subs.w	r2, r8, r3
 8000f1e:	eb64 0409 	sbc.w	r4, r4, r9
 8000f22:	fa04 f606 	lsl.w	r6, r4, r6
 8000f26:	fa22 f301 	lsr.w	r3, r2, r1
 8000f2a:	431e      	orrs	r6, r3
 8000f2c:	40cc      	lsrs	r4, r1
 8000f2e:	e9c5 6400 	strd	r6, r4, [r5]
 8000f32:	2100      	movs	r1, #0
 8000f34:	e74f      	b.n	8000dd6 <__udivmoddi4+0xa2>
 8000f36:	fbb1 fcf2 	udiv	ip, r1, r2
 8000f3a:	0c01      	lsrs	r1, r0, #16
 8000f3c:	ea41 410e 	orr.w	r1, r1, lr, lsl #16
 8000f40:	b280      	uxth	r0, r0
 8000f42:	ea40 4201 	orr.w	r2, r0, r1, lsl #16
 8000f46:	463b      	mov	r3, r7
 8000f48:	4638      	mov	r0, r7
 8000f4a:	463c      	mov	r4, r7
 8000f4c:	46b8      	mov	r8, r7
 8000f4e:	46be      	mov	lr, r7
 8000f50:	2620      	movs	r6, #32
 8000f52:	fbb1 f1f7 	udiv	r1, r1, r7
 8000f56:	eba2 0208 	sub.w	r2, r2, r8
 8000f5a:	ea41 410c 	orr.w	r1, r1, ip, lsl #16
 8000f5e:	e766      	b.n	8000e2e <__udivmoddi4+0xfa>
 8000f60:	4601      	mov	r1, r0
 8000f62:	e718      	b.n	8000d96 <__udivmoddi4+0x62>
 8000f64:	4610      	mov	r0, r2
 8000f66:	e72c      	b.n	8000dc2 <__udivmoddi4+0x8e>
 8000f68:	f1c6 0220 	rsb	r2, r6, #32
 8000f6c:	fa2e f302 	lsr.w	r3, lr, r2
 8000f70:	40b7      	lsls	r7, r6
 8000f72:	40b1      	lsls	r1, r6
 8000f74:	fa20 f202 	lsr.w	r2, r0, r2
 8000f78:	ea4f 4e17 	mov.w	lr, r7, lsr #16
 8000f7c:	430a      	orrs	r2, r1
 8000f7e:	fbb3 f8fe 	udiv	r8, r3, lr
 8000f82:	b2bc      	uxth	r4, r7
 8000f84:	fb0e 3318 	mls	r3, lr, r8, r3
 8000f88:	0c11      	lsrs	r1, r2, #16
 8000f8a:	ea41 4103 	orr.w	r1, r1, r3, lsl #16
 8000f8e:	fb08 f904 	mul.w	r9, r8, r4
 8000f92:	40b0      	lsls	r0, r6
 8000f94:	4589      	cmp	r9, r1
 8000f96:	ea4f 4310 	mov.w	r3, r0, lsr #16
 8000f9a:	b280      	uxth	r0, r0
 8000f9c:	d93e      	bls.n	800101c <__udivmoddi4+0x2e8>
 8000f9e:	1879      	adds	r1, r7, r1
 8000fa0:	f108 3cff 	add.w	ip, r8, #4294967295
 8000fa4:	d201      	bcs.n	8000faa <__udivmoddi4+0x276>
 8000fa6:	4589      	cmp	r9, r1
 8000fa8:	d81f      	bhi.n	8000fea <__udivmoddi4+0x2b6>
 8000faa:	eba1 0109 	sub.w	r1, r1, r9
 8000fae:	fbb1 f9fe 	udiv	r9, r1, lr
 8000fb2:	fb09 f804 	mul.w	r8, r9, r4
 8000fb6:	fb0e 1119 	mls	r1, lr, r9, r1
 8000fba:	b292      	uxth	r2, r2
 8000fbc:	ea42 4201 	orr.w	r2, r2, r1, lsl #16
 8000fc0:	4542      	cmp	r2, r8
 8000fc2:	d229      	bcs.n	8001018 <__udivmoddi4+0x2e4>
 8000fc4:	18ba      	adds	r2, r7, r2
 8000fc6:	f109 31ff 	add.w	r1, r9, #4294967295
 8000fca:	d2c4      	bcs.n	8000f56 <__udivmoddi4+0x222>
 8000fcc:	4542      	cmp	r2, r8
 8000fce:	d2c2      	bcs.n	8000f56 <__udivmoddi4+0x222>
 8000fd0:	f1a9 0102 	sub.w	r1, r9, #2
 8000fd4:	443a      	add	r2, r7
 8000fd6:	e7be      	b.n	8000f56 <__udivmoddi4+0x222>
 8000fd8:	45f0      	cmp	r8, lr
 8000fda:	d29d      	bcs.n	8000f18 <__udivmoddi4+0x1e4>
 8000fdc:	ebbe 0302 	subs.w	r3, lr, r2
 8000fe0:	eb6c 0c07 	sbc.w	ip, ip, r7
 8000fe4:	3801      	subs	r0, #1
 8000fe6:	46e1      	mov	r9, ip
 8000fe8:	e796      	b.n	8000f18 <__udivmoddi4+0x1e4>
 8000fea:	eba7 0909 	sub.w	r9, r7, r9
 8000fee:	4449      	add	r1, r9
 8000ff0:	f1a8 0c02 	sub.w	ip, r8, #2
 8000ff4:	fbb1 f9fe 	udiv	r9, r1, lr
 8000ff8:	fb09 f804 	mul.w	r8, r9, r4
 8000ffc:	e7db      	b.n	8000fb6 <__udivmoddi4+0x282>
 8000ffe:	4673      	mov	r3, lr
 8001000:	e77f      	b.n	8000f02 <__udivmoddi4+0x1ce>
 8001002:	4650      	mov	r0, sl
 8001004:	e766      	b.n	8000ed4 <__udivmoddi4+0x1a0>
 8001006:	4608      	mov	r0, r1
 8001008:	e6fd      	b.n	8000e06 <__udivmoddi4+0xd2>
 800100a:	443b      	add	r3, r7
 800100c:	3a02      	subs	r2, #2
 800100e:	e733      	b.n	8000e78 <__udivmoddi4+0x144>
 8001010:	f1ac 0c02 	sub.w	ip, ip, #2
 8001014:	443b      	add	r3, r7
 8001016:	e71c      	b.n	8000e52 <__udivmoddi4+0x11e>
 8001018:	4649      	mov	r1, r9
 800101a:	e79c      	b.n	8000f56 <__udivmoddi4+0x222>
 800101c:	eba1 0109 	sub.w	r1, r1, r9
 8001020:	46c4      	mov	ip, r8
 8001022:	fbb1 f9fe 	udiv	r9, r1, lr
 8001026:	fb09 f804 	mul.w	r8, r9, r4
 800102a:	e7c4      	b.n	8000fb6 <__udivmoddi4+0x282>

0800102c <__aeabi_idiv0>:
 800102c:	4770      	bx	lr
 800102e:	bf00      	nop

08001030 <main>:
uint8_t MPU6050_Init(void);
void MPU6050_Calibrate(void);
void MPU6050_Read_AccelGyro(void);
void Parse_GGA_Generic(char *nmea);

int main(void) {
 8001030:	b580      	push	{r7, lr}
 8001032:	b098      	sub	sp, #96	@ 0x60
 8001034:	af00      	add	r7, sp, #0
	HAL_Init();
 8001036:	f001 fc15 	bl	8002864 <HAL_Init>
	SystemClock_Config();
 800103a:	f001 f8f9 	bl	8002230 <SystemClock_Config>
	MX_GPIO_Init();
 800103e:	f001 f9a5 	bl	800238c <MX_GPIO_Init>
	MX_I2C1_Init();
 8001042:	f001 f955 	bl	80022f0 <MX_I2C1_Init>
	MX_USART1_UART_Init();
 8001046:	f001 f97d 	bl	8002344 <MX_USART1_UART_Init>
	MX_USART2_UART_Init(); // This function now includes the Interrupt Enable fix
 800104a:	f000 fdaf 	bl	8001bac <MX_USART2_UART_Init>
	int temp = 0;
 800104e:	2300      	movs	r3, #0
 8001050:	65bb      	str	r3, [r7, #88]	@ 0x58
//	printf("\n--- VeloCET Payload: Data Fusion Active ---\n");

	if (MPU6050_Init() == 0)
 8001052:	f000 fe57 	bl	8001d04 <MPU6050_Init>
 8001056:	4603      	mov	r3, r0
 8001058:	2b00      	cmp	r3, #0
 800105a:	d102      	bne.n	8001062 <main+0x32>
//		printf("MPU6050 OK.\n");
		temp = 1;
 800105c:	2301      	movs	r3, #1
 800105e:	65bb      	str	r3, [r7, #88]	@ 0x58
 8001060:	e001      	b.n	8001066 <main+0x36>
	else
//		printf("MPU6050 FAIL.\n");
		temp = 0;
 8001062:	2300      	movs	r3, #0
 8001064:	65bb      	str	r3, [r7, #88]	@ 0x58
//	printf("Calibrating IMU... Keep Still.\n");
	HAL_Delay(2000);
 8001066:	f44f 60fa 	mov.w	r0, #2000	@ 0x7d0
 800106a:	f001 fc6d 	bl	8002948 <HAL_Delay>
	MPU6050_Calibrate();
 800106e:	f000 fe93 	bl	8001d98 <MPU6050_Calibrate>
//	printf("Ready. Listening for GPS & Barometer...\n");

	// Start Interrupts
	HAL_UART_Receive_IT(&huart1, &gps_rx_char, 1);
 8001072:	2201      	movs	r2, #1
 8001074:	4996      	ldr	r1, [pc, #600]	@ (80012d0 <main+0x2a0>)
 8001076:	4897      	ldr	r0, [pc, #604]	@ (80012d4 <main+0x2a4>)
 8001078:	f003 fd3d 	bl	8004af6 <HAL_UART_Receive_IT>
	HAL_UART_Receive_IT(&huart2, &baro_rx_byte, 1);
 800107c:	2201      	movs	r2, #1
 800107e:	4996      	ldr	r1, [pc, #600]	@ (80012d8 <main+0x2a8>)
 8001080:	4896      	ldr	r0, [pc, #600]	@ (80012dc <main+0x2ac>)
 8001082:	f003 fd38 	bl	8004af6 <HAL_UART_Receive_IT>

	uint32_t start_time = HAL_GetTick();
 8001086:	f001 fc53 	bl	8002930 <HAL_GetTick>
 800108a:	65f8      	str	r0, [r7, #92]	@ 0x5c

	float f_ax, f_ay, f_az, f_gx, f_gy, f_gz;
	float lx, ly, lz;

	quaternion rocketQ = { 0 };
 800108c:	f107 031c 	add.w	r3, r7, #28
 8001090:	2200      	movs	r2, #0
 8001092:	601a      	str	r2, [r3, #0]
 8001094:	605a      	str	r2, [r3, #4]
 8001096:	609a      	str	r2, [r3, #8]
 8001098:	60da      	str	r2, [r3, #12]
 800109a:	611a      	str	r2, [r3, #16]
 800109c:	615a      	str	r2, [r3, #20]
	rocketQ.beta = 0.1;
 800109e:	4b90      	ldr	r3, [pc, #576]	@ (80012e0 <main+0x2b0>)
 80010a0:	62fb      	str	r3, [r7, #44]	@ 0x2c
	rocketQ.q0 = 1.0;
 80010a2:	f04f 537e 	mov.w	r3, #1065353216	@ 0x3f800000
 80010a6:	61fb      	str	r3, [r7, #28]
	rocketQ.sampleFreq = 100.0;
 80010a8:	4b8e      	ldr	r3, [pc, #568]	@ (80012e4 <main+0x2b4>)
 80010aa:	633b      	str	r3, [r7, #48]	@ 0x30

	//for drift debug
	quaternion driftQ = { 0 };
 80010ac:	1d3b      	adds	r3, r7, #4
 80010ae:	2200      	movs	r2, #0
 80010b0:	601a      	str	r2, [r3, #0]
 80010b2:	605a      	str	r2, [r3, #4]
 80010b4:	609a      	str	r2, [r3, #8]
 80010b6:	60da      	str	r2, [r3, #12]
 80010b8:	611a      	str	r2, [r3, #16]
 80010ba:	615a      	str	r2, [r3, #20]
	driftQ.beta = 0.0f;          // Correction OFF (Beta = 0)
 80010bc:	f04f 0300 	mov.w	r3, #0
 80010c0:	617b      	str	r3, [r7, #20]
	driftQ.q0 = 1.0f;
 80010c2:	f04f 537e 	mov.w	r3, #1065353216	@ 0x3f800000
 80010c6:	607b      	str	r3, [r7, #4]
	driftQ.sampleFreq = 100.0f;
 80010c8:	4b86      	ldr	r3, [pc, #536]	@ (80012e4 <main+0x2b4>)
 80010ca:	61bb      	str	r3, [r7, #24]

	while (1) {
		HAL_GPIO_TogglePin(GPIOC, GPIO_PIN_13);
 80010cc:	f44f 5100 	mov.w	r1, #8192	@ 0x2000
 80010d0:	4885      	ldr	r0, [pc, #532]	@ (80012e8 <main+0x2b8>)
 80010d2:	f001 ff9e 	bl	8003012 <HAL_GPIO_TogglePin>

		//100hz
		if (HAL_GetTick() - start_time > 10) {
 80010d6:	f001 fc2b 	bl	8002930 <HAL_GetTick>
 80010da:	4602      	mov	r2, r0
 80010dc:	6dfb      	ldr	r3, [r7, #92]	@ 0x5c
 80010de:	1ad3      	subs	r3, r2, r3
 80010e0:	2b0a      	cmp	r3, #10
 80010e2:	d9f3      	bls.n	80010cc <main+0x9c>
			//gps data ready
			if (gps_data_ready) {
 80010e4:	4b81      	ldr	r3, [pc, #516]	@ (80012ec <main+0x2bc>)
 80010e6:	781b      	ldrb	r3, [r3, #0]
 80010e8:	b2db      	uxtb	r3, r3
 80010ea:	2b00      	cmp	r3, #0
 80010ec:	d00c      	beq.n	8001108 <main+0xd8>
				if (strstr(nmea_buffer, "GGA") != NULL)
 80010ee:	4980      	ldr	r1, [pc, #512]	@ (80012f0 <main+0x2c0>)
 80010f0:	4880      	ldr	r0, [pc, #512]	@ (80012f4 <main+0x2c4>)
 80010f2:	f006 f8e1 	bl	80072b8 <strstr>
 80010f6:	4603      	mov	r3, r0
 80010f8:	2b00      	cmp	r3, #0
 80010fa:	d002      	beq.n	8001102 <main+0xd2>
					Parse_GGA_Generic(nmea_buffer);
 80010fc:	487d      	ldr	r0, [pc, #500]	@ (80012f4 <main+0x2c4>)
 80010fe:	f000 fd87 	bl	8001c10 <Parse_GGA_Generic>
				//update current position with GPS correction for EKF
				gps_data_ready = 0;
 8001102:	4b7a      	ldr	r3, [pc, #488]	@ (80012ec <main+0x2bc>)
 8001104:	2200      	movs	r2, #0
 8001106:	701a      	strb	r2, [r3, #0]
			}
			MPU6050_Read_AccelGyro();
 8001108:	f000 ff9a 	bl	8002040 <MPU6050_Read_AccelGyro>
			//convert raw data to float
			f_ax = vehicleState.AccX;
 800110c:	4b7a      	ldr	r3, [pc, #488]	@ (80012f8 <main+0x2c8>)
 800110e:	f9b3 3000 	ldrsh.w	r3, [r3]
 8001112:	ee07 3a90 	vmov	s15, r3
 8001116:	eef8 7ae7 	vcvt.f32.s32	s15, s15
 800111a:	edc7 7a15 	vstr	s15, [r7, #84]	@ 0x54
			f_ay = vehicleState.AccY;
 800111e:	4b76      	ldr	r3, [pc, #472]	@ (80012f8 <main+0x2c8>)
 8001120:	f9b3 3002 	ldrsh.w	r3, [r3, #2]
 8001124:	ee07 3a90 	vmov	s15, r3
 8001128:	eef8 7ae7 	vcvt.f32.s32	s15, s15
 800112c:	edc7 7a14 	vstr	s15, [r7, #80]	@ 0x50
			f_az = vehicleState.AccZ;
 8001130:	4b71      	ldr	r3, [pc, #452]	@ (80012f8 <main+0x2c8>)
 8001132:	f9b3 3004 	ldrsh.w	r3, [r3, #4]
 8001136:	ee07 3a90 	vmov	s15, r3
 800113a:	eef8 7ae7 	vcvt.f32.s32	s15, s15
 800113e:	edc7 7a13 	vstr	s15, [r7, #76]	@ 0x4c
			f_gx = vehicleState.GyroX;
 8001142:	4b6d      	ldr	r3, [pc, #436]	@ (80012f8 <main+0x2c8>)
 8001144:	f9b3 3006 	ldrsh.w	r3, [r3, #6]
 8001148:	ee07 3a90 	vmov	s15, r3
 800114c:	eef8 7ae7 	vcvt.f32.s32	s15, s15
 8001150:	edc7 7a12 	vstr	s15, [r7, #72]	@ 0x48
			f_gy = vehicleState.GyroY;
 8001154:	4b68      	ldr	r3, [pc, #416]	@ (80012f8 <main+0x2c8>)
 8001156:	f9b3 3008 	ldrsh.w	r3, [r3, #8]
 800115a:	ee07 3a90 	vmov	s15, r3
 800115e:	eef8 7ae7 	vcvt.f32.s32	s15, s15
 8001162:	edc7 7a11 	vstr	s15, [r7, #68]	@ 0x44
			f_gz = vehicleState.GyroZ;
 8001166:	4b64      	ldr	r3, [pc, #400]	@ (80012f8 <main+0x2c8>)
 8001168:	f9b3 300a 	ldrsh.w	r3, [r3, #10]
 800116c:	ee07 3a90 	vmov	s15, r3
 8001170:	eef8 7ae7 	vcvt.f32.s32	s15, s15
 8001174:	edc7 7a10 	vstr	s15, [r7, #64]	@ 0x40

			//acc:
			f_ax /= 2048;
 8001178:	ed97 7a15 	vldr	s14, [r7, #84]	@ 0x54
 800117c:	eddf 6a5f 	vldr	s13, [pc, #380]	@ 80012fc <main+0x2cc>
 8001180:	eec7 7a26 	vdiv.f32	s15, s14, s13
 8001184:	edc7 7a15 	vstr	s15, [r7, #84]	@ 0x54
			f_ay /= 2048;
 8001188:	ed97 7a14 	vldr	s14, [r7, #80]	@ 0x50
 800118c:	eddf 6a5b 	vldr	s13, [pc, #364]	@ 80012fc <main+0x2cc>
 8001190:	eec7 7a26 	vdiv.f32	s15, s14, s13
 8001194:	edc7 7a14 	vstr	s15, [r7, #80]	@ 0x50
			f_az /= 2048;
 8001198:	ed97 7a13 	vldr	s14, [r7, #76]	@ 0x4c
 800119c:	eddf 6a57 	vldr	s13, [pc, #348]	@ 80012fc <main+0x2cc>
 80011a0:	eec7 7a26 	vdiv.f32	s15, s14, s13
 80011a4:	edc7 7a13 	vstr	s15, [r7, #76]	@ 0x4c

			//gyro:
			f_gx = (f_gx / 16.4) * (PI / 180);
 80011a8:	6cb8      	ldr	r0, [r7, #72]	@ 0x48
 80011aa:	f7ff f9d5 	bl	8000558 <__aeabi_f2d>
 80011ae:	a344      	add	r3, pc, #272	@ (adr r3, 80012c0 <main+0x290>)
 80011b0:	e9d3 2300 	ldrd	r2, r3, [r3]
 80011b4:	f7ff fb52 	bl	800085c <__aeabi_ddiv>
 80011b8:	4602      	mov	r2, r0
 80011ba:	460b      	mov	r3, r1
 80011bc:	4610      	mov	r0, r2
 80011be:	4619      	mov	r1, r3
 80011c0:	a341      	add	r3, pc, #260	@ (adr r3, 80012c8 <main+0x298>)
 80011c2:	e9d3 2300 	ldrd	r2, r3, [r3]
 80011c6:	f7ff fa1f 	bl	8000608 <__aeabi_dmul>
 80011ca:	4602      	mov	r2, r0
 80011cc:	460b      	mov	r3, r1
 80011ce:	4610      	mov	r0, r2
 80011d0:	4619      	mov	r1, r3
 80011d2:	f7ff fd11 	bl	8000bf8 <__aeabi_d2f>
 80011d6:	4603      	mov	r3, r0
 80011d8:	64bb      	str	r3, [r7, #72]	@ 0x48
			f_gy = (f_gy / 16.4) * (PI / 180);
 80011da:	6c78      	ldr	r0, [r7, #68]	@ 0x44
 80011dc:	f7ff f9bc 	bl	8000558 <__aeabi_f2d>
 80011e0:	a337      	add	r3, pc, #220	@ (adr r3, 80012c0 <main+0x290>)
 80011e2:	e9d3 2300 	ldrd	r2, r3, [r3]
 80011e6:	f7ff fb39 	bl	800085c <__aeabi_ddiv>
 80011ea:	4602      	mov	r2, r0
 80011ec:	460b      	mov	r3, r1
 80011ee:	4610      	mov	r0, r2
 80011f0:	4619      	mov	r1, r3
 80011f2:	a335      	add	r3, pc, #212	@ (adr r3, 80012c8 <main+0x298>)
 80011f4:	e9d3 2300 	ldrd	r2, r3, [r3]
 80011f8:	f7ff fa06 	bl	8000608 <__aeabi_dmul>
 80011fc:	4602      	mov	r2, r0
 80011fe:	460b      	mov	r3, r1
 8001200:	4610      	mov	r0, r2
 8001202:	4619      	mov	r1, r3
 8001204:	f7ff fcf8 	bl	8000bf8 <__aeabi_d2f>
 8001208:	4603      	mov	r3, r0
 800120a:	647b      	str	r3, [r7, #68]	@ 0x44
			f_gz = (f_gz / 16.4) * (PI / 180);
 800120c:	6c38      	ldr	r0, [r7, #64]	@ 0x40
 800120e:	f7ff f9a3 	bl	8000558 <__aeabi_f2d>
 8001212:	a32b      	add	r3, pc, #172	@ (adr r3, 80012c0 <main+0x290>)
 8001214:	e9d3 2300 	ldrd	r2, r3, [r3]
 8001218:	f7ff fb20 	bl	800085c <__aeabi_ddiv>
 800121c:	4602      	mov	r2, r0
 800121e:	460b      	mov	r3, r1
 8001220:	4610      	mov	r0, r2
 8001222:	4619      	mov	r1, r3
 8001224:	a328      	add	r3, pc, #160	@ (adr r3, 80012c8 <main+0x298>)
 8001226:	e9d3 2300 	ldrd	r2, r3, [r3]
 800122a:	f7ff f9ed 	bl	8000608 <__aeabi_dmul>
 800122e:	4602      	mov	r2, r0
 8001230:	460b      	mov	r3, r1
 8001232:	4610      	mov	r0, r2
 8001234:	4619      	mov	r1, r3
 8001236:	f7ff fcdf 	bl	8000bf8 <__aeabi_d2f>
 800123a:	4603      	mov	r3, r0
 800123c:	643b      	str	r3, [r7, #64]	@ 0x40

			madgwickUpdate(&rocketQ, f_ax, f_ay, f_az, f_gx, f_gy, f_gz);
 800123e:	f107 031c 	add.w	r3, r7, #28
 8001242:	edd7 2a10 	vldr	s5, [r7, #64]	@ 0x40
 8001246:	ed97 2a11 	vldr	s4, [r7, #68]	@ 0x44
 800124a:	edd7 1a12 	vldr	s3, [r7, #72]	@ 0x48
 800124e:	ed97 1a13 	vldr	s2, [r7, #76]	@ 0x4c
 8001252:	edd7 0a14 	vldr	s1, [r7, #80]	@ 0x50
 8001256:	ed97 0a15 	vldr	s0, [r7, #84]	@ 0x54
 800125a:	4618      	mov	r0, r3
 800125c:	f000 f8c8 	bl	80013f0 <madgwickUpdate>
			madgwickUpdate(&driftQ, f_ax, f_ay, f_az, f_gx, f_gy, f_gz);
 8001260:	1d3b      	adds	r3, r7, #4
 8001262:	edd7 2a10 	vldr	s5, [r7, #64]	@ 0x40
 8001266:	ed97 2a11 	vldr	s4, [r7, #68]	@ 0x44
 800126a:	edd7 1a12 	vldr	s3, [r7, #72]	@ 0x48
 800126e:	ed97 1a13 	vldr	s2, [r7, #76]	@ 0x4c
 8001272:	edd7 0a14 	vldr	s1, [r7, #80]	@ 0x50
 8001276:	ed97 0a15 	vldr	s0, [r7, #84]	@ 0x54
 800127a:	4618      	mov	r0, r3
 800127c:	f000 f8b8 	bl	80013f0 <madgwickUpdate>
//			printf("S,%.4f,%.4f,%.4f,%.4f,D,%.4f,%.4f,%.4f,%.4f,E\r\n",
//				       rocketQ.q0, rocketQ.q1, rocketQ.q2, rocketQ.q3,
//				       driftQ.q0,  driftQ.q1,  driftQ.q2,  driftQ.q3);

			//gravity correction for acc
			gravityCorrection(&rocketQ, &lx, &ly, &lz, f_ax, f_ay, f_az);
 8001280:	f107 0334 	add.w	r3, r7, #52	@ 0x34
 8001284:	f107 0238 	add.w	r2, r7, #56	@ 0x38
 8001288:	f107 013c 	add.w	r1, r7, #60	@ 0x3c
 800128c:	f107 001c 	add.w	r0, r7, #28
 8001290:	ed97 1a13 	vldr	s2, [r7, #76]	@ 0x4c
 8001294:	edd7 0a14 	vldr	s1, [r7, #80]	@ 0x50
 8001298:	ed97 0a15 	vldr	s0, [r7, #84]	@ 0x54
 800129c:	f000 f832 	bl	8001304 <gravityCorrection>

			printf("theta:%0.4f\n",rocketQ.q0);
 80012a0:	69fb      	ldr	r3, [r7, #28]
 80012a2:	4618      	mov	r0, r3
 80012a4:	f7ff f958 	bl	8000558 <__aeabi_f2d>
 80012a8:	4602      	mov	r2, r0
 80012aa:	460b      	mov	r3, r1
 80012ac:	4814      	ldr	r0, [pc, #80]	@ (8001300 <main+0x2d0>)
 80012ae:	f005 ff87 	bl	80071c0 <iprintf>

			start_time = HAL_GetTick();
 80012b2:	f001 fb3d 	bl	8002930 <HAL_GetTick>
 80012b6:	65f8      	str	r0, [r7, #92]	@ 0x5c
		HAL_GPIO_TogglePin(GPIOC, GPIO_PIN_13);
 80012b8:	e708      	b.n	80010cc <main+0x9c>
 80012ba:	bf00      	nop
 80012bc:	f3af 8000 	nop.w
 80012c0:	66666666 	.word	0x66666666
 80012c4:	40306666 	.word	0x40306666
 80012c8:	a1fae712 	.word	0xa1fae712
 80012cc:	3f91df46 	.word	0x3f91df46
 80012d0:	2000030e 	.word	0x2000030e
 80012d4:	20000248 	.word	0x20000248
 80012d8:	200002f8 	.word	0x200002f8
 80012dc:	20000290 	.word	0x20000290
 80012e0:	3dcccccd 	.word	0x3dcccccd
 80012e4:	42c80000 	.word	0x42c80000
 80012e8:	40020800 	.word	0x40020800
 80012ec:	20000391 	.word	0x20000391
 80012f0:	08009a18 	.word	0x08009a18
 80012f4:	20000310 	.word	0x20000310
 80012f8:	200002d8 	.word	0x200002d8
 80012fc:	45000000 	.word	0x45000000
 8001300:	08009a1c 	.word	0x08009a1c

08001304 <gravityCorrection>:
	}
}

//function definitions

void gravityCorrection(quaternion *q, float *lx, float *ly, float *lz, float ax, float ay, float az) {
 8001304:	b480      	push	{r7}
 8001306:	b091      	sub	sp, #68	@ 0x44
 8001308:	af00      	add	r7, sp, #0
 800130a:	61f8      	str	r0, [r7, #28]
 800130c:	61b9      	str	r1, [r7, #24]
 800130e:	617a      	str	r2, [r7, #20]
 8001310:	613b      	str	r3, [r7, #16]
 8001312:	ed87 0a03 	vstr	s0, [r7, #12]
 8001316:	edc7 0a02 	vstr	s1, [r7, #8]
 800131a:	ed87 1a01 	vstr	s2, [r7, #4]

	float gx, gy, gz;
	float q0 = q->q0, q1 = q->q1, q2 = q->q2, q3 = q->q3;
 800131e:	69fb      	ldr	r3, [r7, #28]
 8001320:	681b      	ldr	r3, [r3, #0]
 8001322:	63fb      	str	r3, [r7, #60]	@ 0x3c
 8001324:	69fb      	ldr	r3, [r7, #28]
 8001326:	685b      	ldr	r3, [r3, #4]
 8001328:	63bb      	str	r3, [r7, #56]	@ 0x38
 800132a:	69fb      	ldr	r3, [r7, #28]
 800132c:	689b      	ldr	r3, [r3, #8]
 800132e:	637b      	str	r3, [r7, #52]	@ 0x34
 8001330:	69fb      	ldr	r3, [r7, #28]
 8001332:	68db      	ldr	r3, [r3, #12]
 8001334:	633b      	str	r3, [r7, #48]	@ 0x30
	//gravity calculation
	gx = 2*(q1*q3-q0*q2);
 8001336:	ed97 7a0e 	vldr	s14, [r7, #56]	@ 0x38
 800133a:	edd7 7a0c 	vldr	s15, [r7, #48]	@ 0x30
 800133e:	ee27 7a27 	vmul.f32	s14, s14, s15
 8001342:	edd7 6a0f 	vldr	s13, [r7, #60]	@ 0x3c
 8001346:	edd7 7a0d 	vldr	s15, [r7, #52]	@ 0x34
 800134a:	ee66 7aa7 	vmul.f32	s15, s13, s15
 800134e:	ee77 7a67 	vsub.f32	s15, s14, s15
 8001352:	ee77 7aa7 	vadd.f32	s15, s15, s15
 8001356:	edc7 7a0b 	vstr	s15, [r7, #44]	@ 0x2c
	gy = 2*(q0*q1+q2*q3);
 800135a:	ed97 7a0f 	vldr	s14, [r7, #60]	@ 0x3c
 800135e:	edd7 7a0e 	vldr	s15, [r7, #56]	@ 0x38
 8001362:	ee27 7a27 	vmul.f32	s14, s14, s15
 8001366:	edd7 6a0d 	vldr	s13, [r7, #52]	@ 0x34
 800136a:	edd7 7a0c 	vldr	s15, [r7, #48]	@ 0x30
 800136e:	ee66 7aa7 	vmul.f32	s15, s13, s15
 8001372:	ee77 7a27 	vadd.f32	s15, s14, s15
 8001376:	ee77 7aa7 	vadd.f32	s15, s15, s15
 800137a:	edc7 7a0a 	vstr	s15, [r7, #40]	@ 0x28
	gz = q0*q0-q1*q1-q2*q2+q3*q3;
 800137e:	edd7 7a0f 	vldr	s15, [r7, #60]	@ 0x3c
 8001382:	ee27 7aa7 	vmul.f32	s14, s15, s15
 8001386:	edd7 7a0e 	vldr	s15, [r7, #56]	@ 0x38
 800138a:	ee67 7aa7 	vmul.f32	s15, s15, s15
 800138e:	ee37 7a67 	vsub.f32	s14, s14, s15
 8001392:	edd7 7a0d 	vldr	s15, [r7, #52]	@ 0x34
 8001396:	ee67 7aa7 	vmul.f32	s15, s15, s15
 800139a:	ee37 7a67 	vsub.f32	s14, s14, s15
 800139e:	edd7 7a0c 	vldr	s15, [r7, #48]	@ 0x30
 80013a2:	ee67 7aa7 	vmul.f32	s15, s15, s15
 80013a6:	ee77 7a27 	vadd.f32	s15, s14, s15
 80013aa:	edc7 7a09 	vstr	s15, [r7, #36]	@ 0x24
	*lx=ax-gx;
 80013ae:	ed97 7a03 	vldr	s14, [r7, #12]
 80013b2:	edd7 7a0b 	vldr	s15, [r7, #44]	@ 0x2c
 80013b6:	ee77 7a67 	vsub.f32	s15, s14, s15
 80013ba:	69bb      	ldr	r3, [r7, #24]
 80013bc:	edc3 7a00 	vstr	s15, [r3]
	*ly=ay-gy;
 80013c0:	ed97 7a02 	vldr	s14, [r7, #8]
 80013c4:	edd7 7a0a 	vldr	s15, [r7, #40]	@ 0x28
 80013c8:	ee77 7a67 	vsub.f32	s15, s14, s15
 80013cc:	697b      	ldr	r3, [r7, #20]
 80013ce:	edc3 7a00 	vstr	s15, [r3]
	*lz=az-gz;
 80013d2:	ed97 7a01 	vldr	s14, [r7, #4]
 80013d6:	edd7 7a09 	vldr	s15, [r7, #36]	@ 0x24
 80013da:	ee77 7a67 	vsub.f32	s15, s14, s15
 80013de:	693b      	ldr	r3, [r7, #16]
 80013e0:	edc3 7a00 	vstr	s15, [r3]
}
 80013e4:	bf00      	nop
 80013e6:	3744      	adds	r7, #68	@ 0x44
 80013e8:	46bd      	mov	sp, r7
 80013ea:	f85d 7b04 	ldr.w	r7, [sp], #4
 80013ee:	4770      	bx	lr

080013f0 <madgwickUpdate>:

void madgwickUpdate(quaternion *q, float ax, float ay, float az, float gx,
		float gy, float gz) {
 80013f0:	b580      	push	{r7, lr}
 80013f2:	b0a4      	sub	sp, #144	@ 0x90
 80013f4:	af00      	add	r7, sp, #0
 80013f6:	61f8      	str	r0, [r7, #28]
 80013f8:	ed87 0a06 	vstr	s0, [r7, #24]
 80013fc:	edc7 0a05 	vstr	s1, [r7, #20]
 8001400:	ed87 1a04 	vstr	s2, [r7, #16]
 8001404:	edc7 1a03 	vstr	s3, [r7, #12]
 8001408:	ed87 2a02 	vstr	s4, [r7, #8]
 800140c:	edc7 2a01 	vstr	s5, [r7, #4]
	float q0 = q->q0, q1 = q->q1, q2 = q->q2, q3 = q->q3;
 8001410:	69fb      	ldr	r3, [r7, #28]
 8001412:	681b      	ldr	r3, [r3, #0]
 8001414:	67fb      	str	r3, [r7, #124]	@ 0x7c
 8001416:	69fb      	ldr	r3, [r7, #28]
 8001418:	685b      	ldr	r3, [r3, #4]
 800141a:	67bb      	str	r3, [r7, #120]	@ 0x78
 800141c:	69fb      	ldr	r3, [r7, #28]
 800141e:	689b      	ldr	r3, [r3, #8]
 8001420:	677b      	str	r3, [r7, #116]	@ 0x74
 8001422:	69fb      	ldr	r3, [r7, #28]
 8001424:	68db      	ldr	r3, [r3, #12]
 8001426:	673b      	str	r3, [r7, #112]	@ 0x70
	float norm;
	float s0, s1, s2, s3;
	float qDot1, qDot2, qDot3, qDot4;

	qDot1 = 0.5f * (-q1 * gx - q2 * gy - q3 * gz);
 8001428:	edd7 7a1e 	vldr	s15, [r7, #120]	@ 0x78
 800142c:	eeb1 7a67 	vneg.f32	s14, s15
 8001430:	edd7 7a03 	vldr	s15, [r7, #12]
 8001434:	ee27 7a27 	vmul.f32	s14, s14, s15
 8001438:	edd7 6a1d 	vldr	s13, [r7, #116]	@ 0x74
 800143c:	edd7 7a02 	vldr	s15, [r7, #8]
 8001440:	ee66 7aa7 	vmul.f32	s15, s13, s15
 8001444:	ee37 7a67 	vsub.f32	s14, s14, s15
 8001448:	edd7 6a1c 	vldr	s13, [r7, #112]	@ 0x70
 800144c:	edd7 7a01 	vldr	s15, [r7, #4]
 8001450:	ee66 7aa7 	vmul.f32	s15, s13, s15
 8001454:	ee77 7a67 	vsub.f32	s15, s14, s15
 8001458:	eeb6 7a00 	vmov.f32	s14, #96	@ 0x3f000000  0.5
 800145c:	ee67 7a87 	vmul.f32	s15, s15, s14
 8001460:	edc7 7a23 	vstr	s15, [r7, #140]	@ 0x8c
	qDot2 = 0.5f * (q0 * gx + q2 * gz - q3 * gy);
 8001464:	ed97 7a1f 	vldr	s14, [r7, #124]	@ 0x7c
 8001468:	edd7 7a03 	vldr	s15, [r7, #12]
 800146c:	ee27 7a27 	vmul.f32	s14, s14, s15
 8001470:	edd7 6a1d 	vldr	s13, [r7, #116]	@ 0x74
 8001474:	edd7 7a01 	vldr	s15, [r7, #4]
 8001478:	ee66 7aa7 	vmul.f32	s15, s13, s15
 800147c:	ee37 7a27 	vadd.f32	s14, s14, s15
 8001480:	edd7 6a1c 	vldr	s13, [r7, #112]	@ 0x70
 8001484:	edd7 7a02 	vldr	s15, [r7, #8]
 8001488:	ee66 7aa7 	vmul.f32	s15, s13, s15
 800148c:	ee77 7a67 	vsub.f32	s15, s14, s15
 8001490:	eeb6 7a00 	vmov.f32	s14, #96	@ 0x3f000000  0.5
 8001494:	ee67 7a87 	vmul.f32	s15, s15, s14
 8001498:	edc7 7a22 	vstr	s15, [r7, #136]	@ 0x88
	qDot3 = 0.5f * (q0 * gy - q1 * gz + q3 * gx);
 800149c:	ed97 7a1f 	vldr	s14, [r7, #124]	@ 0x7c
 80014a0:	edd7 7a02 	vldr	s15, [r7, #8]
 80014a4:	ee27 7a27 	vmul.f32	s14, s14, s15
 80014a8:	edd7 6a1e 	vldr	s13, [r7, #120]	@ 0x78
 80014ac:	edd7 7a01 	vldr	s15, [r7, #4]
 80014b0:	ee66 7aa7 	vmul.f32	s15, s13, s15
 80014b4:	ee37 7a67 	vsub.f32	s14, s14, s15
 80014b8:	edd7 6a1c 	vldr	s13, [r7, #112]	@ 0x70
 80014bc:	edd7 7a03 	vldr	s15, [r7, #12]
 80014c0:	ee66 7aa7 	vmul.f32	s15, s13, s15
 80014c4:	ee77 7a27 	vadd.f32	s15, s14, s15
 80014c8:	eeb6 7a00 	vmov.f32	s14, #96	@ 0x3f000000  0.5
 80014cc:	ee67 7a87 	vmul.f32	s15, s15, s14
 80014d0:	edc7 7a21 	vstr	s15, [r7, #132]	@ 0x84
	qDot4 = 0.5f * (q0 * gz + q1 * gy - q2 * gx);
 80014d4:	ed97 7a1f 	vldr	s14, [r7, #124]	@ 0x7c
 80014d8:	edd7 7a01 	vldr	s15, [r7, #4]
 80014dc:	ee27 7a27 	vmul.f32	s14, s14, s15
 80014e0:	edd7 6a1e 	vldr	s13, [r7, #120]	@ 0x78
 80014e4:	edd7 7a02 	vldr	s15, [r7, #8]
 80014e8:	ee66 7aa7 	vmul.f32	s15, s13, s15
 80014ec:	ee37 7a27 	vadd.f32	s14, s14, s15
 80014f0:	edd7 6a1d 	vldr	s13, [r7, #116]	@ 0x74
 80014f4:	edd7 7a03 	vldr	s15, [r7, #12]
 80014f8:	ee66 7aa7 	vmul.f32	s15, s13, s15
 80014fc:	ee77 7a67 	vsub.f32	s15, s14, s15
 8001500:	eeb6 7a00 	vmov.f32	s14, #96	@ 0x3f000000  0.5
 8001504:	ee67 7a87 	vmul.f32	s15, s15, s14
 8001508:	edc7 7a20 	vstr	s15, [r7, #128]	@ 0x80

	if (!((ax == 0.0f) && (ay == 0.0f) && (az == 0.0f))) {
 800150c:	edd7 7a06 	vldr	s15, [r7, #24]
 8001510:	eef5 7a40 	vcmp.f32	s15, #0.0
 8001514:	eef1 fa10 	vmrs	APSR_nzcv, fpscr
 8001518:	d10e      	bne.n	8001538 <madgwickUpdate+0x148>
 800151a:	edd7 7a05 	vldr	s15, [r7, #20]
 800151e:	eef5 7a40 	vcmp.f32	s15, #0.0
 8001522:	eef1 fa10 	vmrs	APSR_nzcv, fpscr
 8001526:	d107      	bne.n	8001538 <madgwickUpdate+0x148>
 8001528:	edd7 7a04 	vldr	s15, [r7, #16]
 800152c:	eef5 7a40 	vcmp.f32	s15, #0.0
 8001530:	eef1 fa10 	vmrs	APSR_nzcv, fpscr
 8001534:	f000 81cd 	beq.w	80018d2 <madgwickUpdate+0x4e2>

		norm = sqrtf(ax * ax + ay * ay + az * az);
 8001538:	edd7 7a06 	vldr	s15, [r7, #24]
 800153c:	ee27 7aa7 	vmul.f32	s14, s15, s15
 8001540:	edd7 7a05 	vldr	s15, [r7, #20]
 8001544:	ee67 7aa7 	vmul.f32	s15, s15, s15
 8001548:	ee37 7a27 	vadd.f32	s14, s14, s15
 800154c:	edd7 7a04 	vldr	s15, [r7, #16]
 8001550:	ee67 7aa7 	vmul.f32	s15, s15, s15
 8001554:	ee77 7a27 	vadd.f32	s15, s14, s15
 8001558:	eeb0 0a67 	vmov.f32	s0, s15
 800155c:	f004 fa5e 	bl	8005a1c <sqrtf>
 8001560:	ed87 0a1b 	vstr	s0, [r7, #108]	@ 0x6c
		if (norm == 0.0)
 8001564:	edd7 7a1b 	vldr	s15, [r7, #108]	@ 0x6c
 8001568:	eef5 7a40 	vcmp.f32	s15, #0.0
 800156c:	eef1 fa10 	vmrs	APSR_nzcv, fpscr
 8001570:	f000 8230 	beq.w	80019d4 <madgwickUpdate+0x5e4>
			return;
		ax /= norm;
 8001574:	edd7 6a06 	vldr	s13, [r7, #24]
 8001578:	ed97 7a1b 	vldr	s14, [r7, #108]	@ 0x6c
 800157c:	eec6 7a87 	vdiv.f32	s15, s13, s14
 8001580:	edc7 7a06 	vstr	s15, [r7, #24]
		ay /= norm;
 8001584:	edd7 6a05 	vldr	s13, [r7, #20]
 8001588:	ed97 7a1b 	vldr	s14, [r7, #108]	@ 0x6c
 800158c:	eec6 7a87 	vdiv.f32	s15, s13, s14
 8001590:	edc7 7a05 	vstr	s15, [r7, #20]
		az /= norm;
 8001594:	edd7 6a04 	vldr	s13, [r7, #16]
 8001598:	ed97 7a1b 	vldr	s14, [r7, #108]	@ 0x6c
 800159c:	eec6 7a87 	vdiv.f32	s15, s13, s14
 80015a0:	edc7 7a04 	vstr	s15, [r7, #16]

		float _2q0 = 2.0f * q0;
 80015a4:	edd7 7a1f 	vldr	s15, [r7, #124]	@ 0x7c
 80015a8:	ee77 7aa7 	vadd.f32	s15, s15, s15
 80015ac:	edc7 7a1a 	vstr	s15, [r7, #104]	@ 0x68
		float _2q1 = 2.0f * q1;
 80015b0:	edd7 7a1e 	vldr	s15, [r7, #120]	@ 0x78
 80015b4:	ee77 7aa7 	vadd.f32	s15, s15, s15
 80015b8:	edc7 7a19 	vstr	s15, [r7, #100]	@ 0x64
		float _2q2 = 2.0f * q2;
 80015bc:	edd7 7a1d 	vldr	s15, [r7, #116]	@ 0x74
 80015c0:	ee77 7aa7 	vadd.f32	s15, s15, s15
 80015c4:	edc7 7a18 	vstr	s15, [r7, #96]	@ 0x60
		float _2q3 = 2.0f * q3;
 80015c8:	edd7 7a1c 	vldr	s15, [r7, #112]	@ 0x70
 80015cc:	ee77 7aa7 	vadd.f32	s15, s15, s15
 80015d0:	edc7 7a17 	vstr	s15, [r7, #92]	@ 0x5c
		float _4q0 = 4.0f * q0;
 80015d4:	edd7 7a1f 	vldr	s15, [r7, #124]	@ 0x7c
 80015d8:	eeb1 7a00 	vmov.f32	s14, #16	@ 0x40800000  4.0
 80015dc:	ee67 7a87 	vmul.f32	s15, s15, s14
 80015e0:	edc7 7a16 	vstr	s15, [r7, #88]	@ 0x58
		float _4q1 = 4.0f * q1;
 80015e4:	edd7 7a1e 	vldr	s15, [r7, #120]	@ 0x78
 80015e8:	eeb1 7a00 	vmov.f32	s14, #16	@ 0x40800000  4.0
 80015ec:	ee67 7a87 	vmul.f32	s15, s15, s14
 80015f0:	edc7 7a15 	vstr	s15, [r7, #84]	@ 0x54
		float _4q2 = 4.0f * q2;
 80015f4:	edd7 7a1d 	vldr	s15, [r7, #116]	@ 0x74
 80015f8:	eeb1 7a00 	vmov.f32	s14, #16	@ 0x40800000  4.0
 80015fc:	ee67 7a87 	vmul.f32	s15, s15, s14
 8001600:	edc7 7a14 	vstr	s15, [r7, #80]	@ 0x50
		float _8q1 = 8.0f * q1;
 8001604:	edd7 7a1e 	vldr	s15, [r7, #120]	@ 0x78
 8001608:	eeb2 7a00 	vmov.f32	s14, #32	@ 0x41000000  8.0
 800160c:	ee67 7a87 	vmul.f32	s15, s15, s14
 8001610:	edc7 7a13 	vstr	s15, [r7, #76]	@ 0x4c
		float _8q2 = 8.0f * q2;
 8001614:	edd7 7a1d 	vldr	s15, [r7, #116]	@ 0x74
 8001618:	eeb2 7a00 	vmov.f32	s14, #32	@ 0x41000000  8.0
 800161c:	ee67 7a87 	vmul.f32	s15, s15, s14
 8001620:	edc7 7a12 	vstr	s15, [r7, #72]	@ 0x48
		float q0q0 = q0 * q0;
 8001624:	edd7 7a1f 	vldr	s15, [r7, #124]	@ 0x7c
 8001628:	ee67 7aa7 	vmul.f32	s15, s15, s15
 800162c:	edc7 7a11 	vstr	s15, [r7, #68]	@ 0x44
		float q1q1 = q1 * q1;
 8001630:	edd7 7a1e 	vldr	s15, [r7, #120]	@ 0x78
 8001634:	ee67 7aa7 	vmul.f32	s15, s15, s15
 8001638:	edc7 7a10 	vstr	s15, [r7, #64]	@ 0x40
		float q2q2 = q2 * q2;
 800163c:	edd7 7a1d 	vldr	s15, [r7, #116]	@ 0x74
 8001640:	ee67 7aa7 	vmul.f32	s15, s15, s15
 8001644:	edc7 7a0f 	vstr	s15, [r7, #60]	@ 0x3c
		float q3q3 = q3 * q3;
 8001648:	edd7 7a1c 	vldr	s15, [r7, #112]	@ 0x70
 800164c:	ee67 7aa7 	vmul.f32	s15, s15, s15
 8001650:	edc7 7a0e 	vstr	s15, [r7, #56]	@ 0x38

		//gradient descent

		s0 = _4q0 * q2q2 + _2q2 * ax + _4q0 * q1q1 - _2q1 * ay;
 8001654:	ed97 7a16 	vldr	s14, [r7, #88]	@ 0x58
 8001658:	edd7 7a0f 	vldr	s15, [r7, #60]	@ 0x3c
 800165c:	ee27 7a27 	vmul.f32	s14, s14, s15
 8001660:	edd7 6a18 	vldr	s13, [r7, #96]	@ 0x60
 8001664:	edd7 7a06 	vldr	s15, [r7, #24]
 8001668:	ee66 7aa7 	vmul.f32	s15, s13, s15
 800166c:	ee37 7a27 	vadd.f32	s14, s14, s15
 8001670:	edd7 6a16 	vldr	s13, [r7, #88]	@ 0x58
 8001674:	edd7 7a10 	vldr	s15, [r7, #64]	@ 0x40
 8001678:	ee66 7aa7 	vmul.f32	s15, s13, s15
 800167c:	ee37 7a27 	vadd.f32	s14, s14, s15
 8001680:	edd7 6a19 	vldr	s13, [r7, #100]	@ 0x64
 8001684:	edd7 7a05 	vldr	s15, [r7, #20]
 8001688:	ee66 7aa7 	vmul.f32	s15, s13, s15
 800168c:	ee77 7a67 	vsub.f32	s15, s14, s15
 8001690:	edc7 7a0d 	vstr	s15, [r7, #52]	@ 0x34
		s1 = _4q1 * q3q3 - _2q3 * ax + 4.0f * q0q0 * q1 - _2q0 * ay - _4q1
 8001694:	ed97 7a15 	vldr	s14, [r7, #84]	@ 0x54
 8001698:	edd7 7a0e 	vldr	s15, [r7, #56]	@ 0x38
 800169c:	ee27 7a27 	vmul.f32	s14, s14, s15
 80016a0:	edd7 6a17 	vldr	s13, [r7, #92]	@ 0x5c
 80016a4:	edd7 7a06 	vldr	s15, [r7, #24]
 80016a8:	ee66 7aa7 	vmul.f32	s15, s13, s15
 80016ac:	ee37 7a67 	vsub.f32	s14, s14, s15
 80016b0:	edd7 7a11 	vldr	s15, [r7, #68]	@ 0x44
 80016b4:	eef1 6a00 	vmov.f32	s13, #16	@ 0x40800000  4.0
 80016b8:	ee67 6aa6 	vmul.f32	s13, s15, s13
 80016bc:	edd7 7a1e 	vldr	s15, [r7, #120]	@ 0x78
 80016c0:	ee66 7aa7 	vmul.f32	s15, s13, s15
 80016c4:	ee37 7a27 	vadd.f32	s14, s14, s15
 80016c8:	edd7 6a1a 	vldr	s13, [r7, #104]	@ 0x68
 80016cc:	edd7 7a05 	vldr	s15, [r7, #20]
 80016d0:	ee66 7aa7 	vmul.f32	s15, s13, s15
 80016d4:	ee37 7a67 	vsub.f32	s14, s14, s15
 80016d8:	edd7 7a15 	vldr	s15, [r7, #84]	@ 0x54
 80016dc:	ee37 7a67 	vsub.f32	s14, s14, s15
				+ _8q1 * q1q1 + _8q1 * q2q2 + _4q1 * az;
 80016e0:	edd7 6a13 	vldr	s13, [r7, #76]	@ 0x4c
 80016e4:	edd7 7a10 	vldr	s15, [r7, #64]	@ 0x40
 80016e8:	ee66 7aa7 	vmul.f32	s15, s13, s15
 80016ec:	ee37 7a27 	vadd.f32	s14, s14, s15
 80016f0:	edd7 6a13 	vldr	s13, [r7, #76]	@ 0x4c
 80016f4:	edd7 7a0f 	vldr	s15, [r7, #60]	@ 0x3c
 80016f8:	ee66 7aa7 	vmul.f32	s15, s13, s15
 80016fc:	ee37 7a27 	vadd.f32	s14, s14, s15
 8001700:	edd7 6a15 	vldr	s13, [r7, #84]	@ 0x54
 8001704:	edd7 7a04 	vldr	s15, [r7, #16]
 8001708:	ee66 7aa7 	vmul.f32	s15, s13, s15
		s1 = _4q1 * q3q3 - _2q3 * ax + 4.0f * q0q0 * q1 - _2q0 * ay - _4q1
 800170c:	ee77 7a27 	vadd.f32	s15, s14, s15
 8001710:	edc7 7a0c 	vstr	s15, [r7, #48]	@ 0x30
		s2 = 4.0f * q0q0 * q2 + _2q0 * ax + _4q2 * q3q3 - _2q3 * ay - _4q2
 8001714:	edd7 7a11 	vldr	s15, [r7, #68]	@ 0x44
 8001718:	eeb1 7a00 	vmov.f32	s14, #16	@ 0x40800000  4.0
 800171c:	ee27 7a87 	vmul.f32	s14, s15, s14
 8001720:	edd7 7a1d 	vldr	s15, [r7, #116]	@ 0x74
 8001724:	ee27 7a27 	vmul.f32	s14, s14, s15
 8001728:	edd7 6a1a 	vldr	s13, [r7, #104]	@ 0x68
 800172c:	edd7 7a06 	vldr	s15, [r7, #24]
 8001730:	ee66 7aa7 	vmul.f32	s15, s13, s15
 8001734:	ee37 7a27 	vadd.f32	s14, s14, s15
 8001738:	edd7 6a14 	vldr	s13, [r7, #80]	@ 0x50
 800173c:	edd7 7a0e 	vldr	s15, [r7, #56]	@ 0x38
 8001740:	ee66 7aa7 	vmul.f32	s15, s13, s15
 8001744:	ee37 7a27 	vadd.f32	s14, s14, s15
 8001748:	edd7 6a17 	vldr	s13, [r7, #92]	@ 0x5c
 800174c:	edd7 7a05 	vldr	s15, [r7, #20]
 8001750:	ee66 7aa7 	vmul.f32	s15, s13, s15
 8001754:	ee37 7a67 	vsub.f32	s14, s14, s15
 8001758:	edd7 7a14 	vldr	s15, [r7, #80]	@ 0x50
 800175c:	ee37 7a67 	vsub.f32	s14, s14, s15
				+ _8q2 * q1q1 + _8q2 * q2q2 + _4q2 * az;
 8001760:	edd7 6a12 	vldr	s13, [r7, #72]	@ 0x48
 8001764:	edd7 7a10 	vldr	s15, [r7, #64]	@ 0x40
 8001768:	ee66 7aa7 	vmul.f32	s15, s13, s15
 800176c:	ee37 7a27 	vadd.f32	s14, s14, s15
 8001770:	edd7 6a12 	vldr	s13, [r7, #72]	@ 0x48
 8001774:	edd7 7a0f 	vldr	s15, [r7, #60]	@ 0x3c
 8001778:	ee66 7aa7 	vmul.f32	s15, s13, s15
 800177c:	ee37 7a27 	vadd.f32	s14, s14, s15
 8001780:	edd7 6a14 	vldr	s13, [r7, #80]	@ 0x50
 8001784:	edd7 7a04 	vldr	s15, [r7, #16]
 8001788:	ee66 7aa7 	vmul.f32	s15, s13, s15
		s2 = 4.0f * q0q0 * q2 + _2q0 * ax + _4q2 * q3q3 - _2q3 * ay - _4q2
 800178c:	ee77 7a27 	vadd.f32	s15, s14, s15
 8001790:	edc7 7a0b 	vstr	s15, [r7, #44]	@ 0x2c
		s3 = 4.0f * q1q1 * q3 - _2q1 * ax + 4.0f * q2q2 * q3 - _2q2 * ay;
 8001794:	edd7 7a10 	vldr	s15, [r7, #64]	@ 0x40
 8001798:	eeb1 7a00 	vmov.f32	s14, #16	@ 0x40800000  4.0
 800179c:	ee27 7a87 	vmul.f32	s14, s15, s14
 80017a0:	edd7 7a1c 	vldr	s15, [r7, #112]	@ 0x70
 80017a4:	ee27 7a27 	vmul.f32	s14, s14, s15
 80017a8:	edd7 6a19 	vldr	s13, [r7, #100]	@ 0x64
 80017ac:	edd7 7a06 	vldr	s15, [r7, #24]
 80017b0:	ee66 7aa7 	vmul.f32	s15, s13, s15
 80017b4:	ee37 7a67 	vsub.f32	s14, s14, s15
 80017b8:	edd7 7a0f 	vldr	s15, [r7, #60]	@ 0x3c
 80017bc:	eef1 6a00 	vmov.f32	s13, #16	@ 0x40800000  4.0
 80017c0:	ee67 6aa6 	vmul.f32	s13, s15, s13
 80017c4:	edd7 7a1c 	vldr	s15, [r7, #112]	@ 0x70
 80017c8:	ee66 7aa7 	vmul.f32	s15, s13, s15
 80017cc:	ee37 7a27 	vadd.f32	s14, s14, s15
 80017d0:	edd7 6a18 	vldr	s13, [r7, #96]	@ 0x60
 80017d4:	edd7 7a05 	vldr	s15, [r7, #20]
 80017d8:	ee66 7aa7 	vmul.f32	s15, s13, s15
 80017dc:	ee77 7a67 	vsub.f32	s15, s14, s15
 80017e0:	edc7 7a0a 	vstr	s15, [r7, #40]	@ 0x28

		norm = sqrtf(s0 * s0 + s1 * s1 + s2 * s2 + s3 * s3);
 80017e4:	edd7 7a0d 	vldr	s15, [r7, #52]	@ 0x34
 80017e8:	ee27 7aa7 	vmul.f32	s14, s15, s15
 80017ec:	edd7 7a0c 	vldr	s15, [r7, #48]	@ 0x30
 80017f0:	ee67 7aa7 	vmul.f32	s15, s15, s15
 80017f4:	ee37 7a27 	vadd.f32	s14, s14, s15
 80017f8:	edd7 7a0b 	vldr	s15, [r7, #44]	@ 0x2c
 80017fc:	ee67 7aa7 	vmul.f32	s15, s15, s15
 8001800:	ee37 7a27 	vadd.f32	s14, s14, s15
 8001804:	edd7 7a0a 	vldr	s15, [r7, #40]	@ 0x28
 8001808:	ee67 7aa7 	vmul.f32	s15, s15, s15
 800180c:	ee77 7a27 	vadd.f32	s15, s14, s15
 8001810:	eeb0 0a67 	vmov.f32	s0, s15
 8001814:	f004 f902 	bl	8005a1c <sqrtf>
 8001818:	ed87 0a1b 	vstr	s0, [r7, #108]	@ 0x6c
		if (norm > 0.0) {
 800181c:	edd7 7a1b 	vldr	s15, [r7, #108]	@ 0x6c
 8001820:	eef5 7ac0 	vcmpe.f32	s15, #0.0
 8001824:	eef1 fa10 	vmrs	APSR_nzcv, fpscr
 8001828:	dd53      	ble.n	80018d2 <madgwickUpdate+0x4e2>
			s0 /= norm;
 800182a:	edd7 6a0d 	vldr	s13, [r7, #52]	@ 0x34
 800182e:	ed97 7a1b 	vldr	s14, [r7, #108]	@ 0x6c
 8001832:	eec6 7a87 	vdiv.f32	s15, s13, s14
 8001836:	edc7 7a0d 	vstr	s15, [r7, #52]	@ 0x34
			s1 /= norm;
 800183a:	edd7 6a0c 	vldr	s13, [r7, #48]	@ 0x30
 800183e:	ed97 7a1b 	vldr	s14, [r7, #108]	@ 0x6c
 8001842:	eec6 7a87 	vdiv.f32	s15, s13, s14
 8001846:	edc7 7a0c 	vstr	s15, [r7, #48]	@ 0x30
			s2 /= norm;
 800184a:	edd7 6a0b 	vldr	s13, [r7, #44]	@ 0x2c
 800184e:	ed97 7a1b 	vldr	s14, [r7, #108]	@ 0x6c
 8001852:	eec6 7a87 	vdiv.f32	s15, s13, s14
 8001856:	edc7 7a0b 	vstr	s15, [r7, #44]	@ 0x2c
			s3 /= norm;
 800185a:	edd7 6a0a 	vldr	s13, [r7, #40]	@ 0x28
 800185e:	ed97 7a1b 	vldr	s14, [r7, #108]	@ 0x6c
 8001862:	eec6 7a87 	vdiv.f32	s15, s13, s14
 8001866:	edc7 7a0a 	vstr	s15, [r7, #40]	@ 0x28

			qDot1 -= q->beta * s0;
 800186a:	69fb      	ldr	r3, [r7, #28]
 800186c:	ed93 7a04 	vldr	s14, [r3, #16]
 8001870:	edd7 7a0d 	vldr	s15, [r7, #52]	@ 0x34
 8001874:	ee67 7a27 	vmul.f32	s15, s14, s15
 8001878:	ed97 7a23 	vldr	s14, [r7, #140]	@ 0x8c
 800187c:	ee77 7a67 	vsub.f32	s15, s14, s15
 8001880:	edc7 7a23 	vstr	s15, [r7, #140]	@ 0x8c
			qDot2 -= q->beta * s1;
 8001884:	69fb      	ldr	r3, [r7, #28]
 8001886:	ed93 7a04 	vldr	s14, [r3, #16]
 800188a:	edd7 7a0c 	vldr	s15, [r7, #48]	@ 0x30
 800188e:	ee67 7a27 	vmul.f32	s15, s14, s15
 8001892:	ed97 7a22 	vldr	s14, [r7, #136]	@ 0x88
 8001896:	ee77 7a67 	vsub.f32	s15, s14, s15
 800189a:	edc7 7a22 	vstr	s15, [r7, #136]	@ 0x88
			qDot3 -= q->beta * s2;
 800189e:	69fb      	ldr	r3, [r7, #28]
 80018a0:	ed93 7a04 	vldr	s14, [r3, #16]
 80018a4:	edd7 7a0b 	vldr	s15, [r7, #44]	@ 0x2c
 80018a8:	ee67 7a27 	vmul.f32	s15, s14, s15
 80018ac:	ed97 7a21 	vldr	s14, [r7, #132]	@ 0x84
 80018b0:	ee77 7a67 	vsub.f32	s15, s14, s15
 80018b4:	edc7 7a21 	vstr	s15, [r7, #132]	@ 0x84
			qDot4 -= q->beta * s3;
 80018b8:	69fb      	ldr	r3, [r7, #28]
 80018ba:	ed93 7a04 	vldr	s14, [r3, #16]
 80018be:	edd7 7a0a 	vldr	s15, [r7, #40]	@ 0x28
 80018c2:	ee67 7a27 	vmul.f32	s15, s14, s15
 80018c6:	ed97 7a20 	vldr	s14, [r7, #128]	@ 0x80
 80018ca:	ee77 7a67 	vsub.f32	s15, s14, s15
 80018ce:	edc7 7a20 	vstr	s15, [r7, #128]	@ 0x80
		}
	}

	// new pos = pos + (Rate * dt)
	float dt = 1.0f / q->sampleFreq;
 80018d2:	69fb      	ldr	r3, [r7, #28]
 80018d4:	ed93 7a05 	vldr	s14, [r3, #20]
 80018d8:	eef7 6a00 	vmov.f32	s13, #112	@ 0x3f800000  1.0
 80018dc:	eec6 7a87 	vdiv.f32	s15, s13, s14
 80018e0:	edc7 7a09 	vstr	s15, [r7, #36]	@ 0x24
	q0 += qDot1 * dt;
 80018e4:	ed97 7a23 	vldr	s14, [r7, #140]	@ 0x8c
 80018e8:	edd7 7a09 	vldr	s15, [r7, #36]	@ 0x24
 80018ec:	ee67 7a27 	vmul.f32	s15, s14, s15
 80018f0:	ed97 7a1f 	vldr	s14, [r7, #124]	@ 0x7c
 80018f4:	ee77 7a27 	vadd.f32	s15, s14, s15
 80018f8:	edc7 7a1f 	vstr	s15, [r7, #124]	@ 0x7c
	q1 += qDot2 * dt;
 80018fc:	ed97 7a22 	vldr	s14, [r7, #136]	@ 0x88
 8001900:	edd7 7a09 	vldr	s15, [r7, #36]	@ 0x24
 8001904:	ee67 7a27 	vmul.f32	s15, s14, s15
 8001908:	ed97 7a1e 	vldr	s14, [r7, #120]	@ 0x78
 800190c:	ee77 7a27 	vadd.f32	s15, s14, s15
 8001910:	edc7 7a1e 	vstr	s15, [r7, #120]	@ 0x78
	q2 += qDot3 * dt;
 8001914:	ed97 7a21 	vldr	s14, [r7, #132]	@ 0x84
 8001918:	edd7 7a09 	vldr	s15, [r7, #36]	@ 0x24
 800191c:	ee67 7a27 	vmul.f32	s15, s14, s15
 8001920:	ed97 7a1d 	vldr	s14, [r7, #116]	@ 0x74
 8001924:	ee77 7a27 	vadd.f32	s15, s14, s15
 8001928:	edc7 7a1d 	vstr	s15, [r7, #116]	@ 0x74
	q3 += qDot4 * dt;
 800192c:	ed97 7a20 	vldr	s14, [r7, #128]	@ 0x80
 8001930:	edd7 7a09 	vldr	s15, [r7, #36]	@ 0x24
 8001934:	ee67 7a27 	vmul.f32	s15, s14, s15
 8001938:	ed97 7a1c 	vldr	s14, [r7, #112]	@ 0x70
 800193c:	ee77 7a27 	vadd.f32	s15, s14, s15
 8001940:	edc7 7a1c 	vstr	s15, [r7, #112]	@ 0x70

	// 5. Normalise final quaternion
	// (Output must always be a unit vector)
	norm = sqrtf(q0 * q0 + q1 * q1 + q2 * q2 + q3 * q3);
 8001944:	edd7 7a1f 	vldr	s15, [r7, #124]	@ 0x7c
 8001948:	ee27 7aa7 	vmul.f32	s14, s15, s15
 800194c:	edd7 7a1e 	vldr	s15, [r7, #120]	@ 0x78
 8001950:	ee67 7aa7 	vmul.f32	s15, s15, s15
 8001954:	ee37 7a27 	vadd.f32	s14, s14, s15
 8001958:	edd7 7a1d 	vldr	s15, [r7, #116]	@ 0x74
 800195c:	ee67 7aa7 	vmul.f32	s15, s15, s15
 8001960:	ee37 7a27 	vadd.f32	s14, s14, s15
 8001964:	edd7 7a1c 	vldr	s15, [r7, #112]	@ 0x70
 8001968:	ee67 7aa7 	vmul.f32	s15, s15, s15
 800196c:	ee77 7a27 	vadd.f32	s15, s14, s15
 8001970:	eeb0 0a67 	vmov.f32	s0, s15
 8001974:	f004 f852 	bl	8005a1c <sqrtf>
 8001978:	ed87 0a1b 	vstr	s0, [r7, #108]	@ 0x6c
	if (norm > 0.0) {
 800197c:	edd7 7a1b 	vldr	s15, [r7, #108]	@ 0x6c
 8001980:	eef5 7ac0 	vcmpe.f32	s15, #0.0
 8001984:	eef1 fa10 	vmrs	APSR_nzcv, fpscr
 8001988:	dd25      	ble.n	80019d6 <madgwickUpdate+0x5e6>
		q->q0 = q0 / norm;
 800198a:	edd7 6a1f 	vldr	s13, [r7, #124]	@ 0x7c
 800198e:	ed97 7a1b 	vldr	s14, [r7, #108]	@ 0x6c
 8001992:	eec6 7a87 	vdiv.f32	s15, s13, s14
 8001996:	69fb      	ldr	r3, [r7, #28]
 8001998:	edc3 7a00 	vstr	s15, [r3]
		q->q1 = q1 / norm;
 800199c:	edd7 6a1e 	vldr	s13, [r7, #120]	@ 0x78
 80019a0:	ed97 7a1b 	vldr	s14, [r7, #108]	@ 0x6c
 80019a4:	eec6 7a87 	vdiv.f32	s15, s13, s14
 80019a8:	69fb      	ldr	r3, [r7, #28]
 80019aa:	edc3 7a01 	vstr	s15, [r3, #4]
		q->q2 = q2 / norm;
 80019ae:	edd7 6a1d 	vldr	s13, [r7, #116]	@ 0x74
 80019b2:	ed97 7a1b 	vldr	s14, [r7, #108]	@ 0x6c
 80019b6:	eec6 7a87 	vdiv.f32	s15, s13, s14
 80019ba:	69fb      	ldr	r3, [r7, #28]
 80019bc:	edc3 7a02 	vstr	s15, [r3, #8]
		q->q3 = q3 / norm;
 80019c0:	edd7 6a1c 	vldr	s13, [r7, #112]	@ 0x70
 80019c4:	ed97 7a1b 	vldr	s14, [r7, #108]	@ 0x6c
 80019c8:	eec6 7a87 	vdiv.f32	s15, s13, s14
 80019cc:	69fb      	ldr	r3, [r7, #28]
 80019ce:	edc3 7a03 	vstr	s15, [r3, #12]
 80019d2:	e000      	b.n	80019d6 <madgwickUpdate+0x5e6>
			return;
 80019d4:	bf00      	nop

	}
}
 80019d6:	3790      	adds	r7, #144	@ 0x90
 80019d8:	46bd      	mov	sp, r7
 80019da:	bd80      	pop	{r7, pc}

080019dc <USART2_IRQHandler>:
// -------------------------------------------------------------------------
//  INTERRUPT HANDLERS (CRITICAL)
// -------------------------------------------------------------------------

// 1. The Hardware Hook
void USART2_IRQHandler(void) {
 80019dc:	b580      	push	{r7, lr}
 80019de:	af00      	add	r7, sp, #0
	HAL_UART_IRQHandler(&huart2);
 80019e0:	4802      	ldr	r0, [pc, #8]	@ (80019ec <USART2_IRQHandler+0x10>)
 80019e2:	f003 f8ad 	bl	8004b40 <HAL_UART_IRQHandler>
}
 80019e6:	bf00      	nop
 80019e8:	bd80      	pop	{r7, pc}
 80019ea:	bf00      	nop
 80019ec:	20000290 	.word	0x20000290

080019f0 <HAL_UART_RxCpltCallback>:

// 2. The Logic Callback
void HAL_UART_RxCpltCallback(UART_HandleTypeDef *huart) {
 80019f0:	b580      	push	{r7, lr}
 80019f2:	b082      	sub	sp, #8
 80019f4:	af00      	add	r7, sp, #0
 80019f6:	6078      	str	r0, [r7, #4]

	// GPS (UART 1)
	if (huart->Instance == USART1) {
 80019f8:	687b      	ldr	r3, [r7, #4]
 80019fa:	681b      	ldr	r3, [r3, #0]
 80019fc:	4a39      	ldr	r2, [pc, #228]	@ (8001ae4 <HAL_UART_RxCpltCallback+0xf4>)
 80019fe:	4293      	cmp	r3, r2
 8001a00:	d129      	bne.n	8001a56 <HAL_UART_RxCpltCallback+0x66>
		if (gps_rx_char == '\n' || nmea_idx >= NMEA_BUFFER_SIZE - 1) {
 8001a02:	4b39      	ldr	r3, [pc, #228]	@ (8001ae8 <HAL_UART_RxCpltCallback+0xf8>)
 8001a04:	781b      	ldrb	r3, [r3, #0]
 8001a06:	2b0a      	cmp	r3, #10
 8001a08:	d003      	beq.n	8001a12 <HAL_UART_RxCpltCallback+0x22>
 8001a0a:	4b38      	ldr	r3, [pc, #224]	@ (8001aec <HAL_UART_RxCpltCallback+0xfc>)
 8001a0c:	781b      	ldrb	r3, [r3, #0]
 8001a0e:	2b7e      	cmp	r3, #126	@ 0x7e
 8001a10:	d90c      	bls.n	8001a2c <HAL_UART_RxCpltCallback+0x3c>
			nmea_buffer[nmea_idx] = '\0';
 8001a12:	4b36      	ldr	r3, [pc, #216]	@ (8001aec <HAL_UART_RxCpltCallback+0xfc>)
 8001a14:	781b      	ldrb	r3, [r3, #0]
 8001a16:	461a      	mov	r2, r3
 8001a18:	4b35      	ldr	r3, [pc, #212]	@ (8001af0 <HAL_UART_RxCpltCallback+0x100>)
 8001a1a:	2100      	movs	r1, #0
 8001a1c:	5499      	strb	r1, [r3, r2]
			gps_data_ready = 1;
 8001a1e:	4b35      	ldr	r3, [pc, #212]	@ (8001af4 <HAL_UART_RxCpltCallback+0x104>)
 8001a20:	2201      	movs	r2, #1
 8001a22:	701a      	strb	r2, [r3, #0]
			nmea_idx = 0;
 8001a24:	4b31      	ldr	r3, [pc, #196]	@ (8001aec <HAL_UART_RxCpltCallback+0xfc>)
 8001a26:	2200      	movs	r2, #0
 8001a28:	701a      	strb	r2, [r3, #0]
 8001a2a:	e00e      	b.n	8001a4a <HAL_UART_RxCpltCallback+0x5a>
		} else if (gps_rx_char != '\r') {
 8001a2c:	4b2e      	ldr	r3, [pc, #184]	@ (8001ae8 <HAL_UART_RxCpltCallback+0xf8>)
 8001a2e:	781b      	ldrb	r3, [r3, #0]
 8001a30:	2b0d      	cmp	r3, #13
 8001a32:	d00a      	beq.n	8001a4a <HAL_UART_RxCpltCallback+0x5a>
			nmea_buffer[nmea_idx++] = gps_rx_char;
 8001a34:	4b2d      	ldr	r3, [pc, #180]	@ (8001aec <HAL_UART_RxCpltCallback+0xfc>)
 8001a36:	781b      	ldrb	r3, [r3, #0]
 8001a38:	1c5a      	adds	r2, r3, #1
 8001a3a:	b2d1      	uxtb	r1, r2
 8001a3c:	4a2b      	ldr	r2, [pc, #172]	@ (8001aec <HAL_UART_RxCpltCallback+0xfc>)
 8001a3e:	7011      	strb	r1, [r2, #0]
 8001a40:	461a      	mov	r2, r3
 8001a42:	4b29      	ldr	r3, [pc, #164]	@ (8001ae8 <HAL_UART_RxCpltCallback+0xf8>)
 8001a44:	7819      	ldrb	r1, [r3, #0]
 8001a46:	4b2a      	ldr	r3, [pc, #168]	@ (8001af0 <HAL_UART_RxCpltCallback+0x100>)
 8001a48:	5499      	strb	r1, [r3, r2]
		}
		HAL_UART_Receive_IT(&huart1, &gps_rx_char, 1);
 8001a4a:	2201      	movs	r2, #1
 8001a4c:	4926      	ldr	r1, [pc, #152]	@ (8001ae8 <HAL_UART_RxCpltCallback+0xf8>)
 8001a4e:	482a      	ldr	r0, [pc, #168]	@ (8001af8 <HAL_UART_RxCpltCallback+0x108>)
 8001a50:	f003 f851 	bl	8004af6 <HAL_UART_Receive_IT>
			baro_state = 0;
			break;
		}
		HAL_UART_Receive_IT(&huart2, &baro_rx_byte, 1);
	}
}
 8001a54:	e041      	b.n	8001ada <HAL_UART_RxCpltCallback+0xea>
	else if (huart->Instance == USART2) {
 8001a56:	687b      	ldr	r3, [r7, #4]
 8001a58:	681b      	ldr	r3, [r3, #0]
 8001a5a:	4a28      	ldr	r2, [pc, #160]	@ (8001afc <HAL_UART_RxCpltCallback+0x10c>)
 8001a5c:	4293      	cmp	r3, r2
 8001a5e:	d13c      	bne.n	8001ada <HAL_UART_RxCpltCallback+0xea>
		switch (baro_state) {
 8001a60:	4b27      	ldr	r3, [pc, #156]	@ (8001b00 <HAL_UART_RxCpltCallback+0x110>)
 8001a62:	781b      	ldrb	r3, [r3, #0]
 8001a64:	2b02      	cmp	r3, #2
 8001a66:	d024      	beq.n	8001ab2 <HAL_UART_RxCpltCallback+0xc2>
 8001a68:	2b02      	cmp	r3, #2
 8001a6a:	dc31      	bgt.n	8001ad0 <HAL_UART_RxCpltCallback+0xe0>
 8001a6c:	2b00      	cmp	r3, #0
 8001a6e:	d002      	beq.n	8001a76 <HAL_UART_RxCpltCallback+0x86>
 8001a70:	2b01      	cmp	r3, #1
 8001a72:	d00b      	beq.n	8001a8c <HAL_UART_RxCpltCallback+0x9c>
 8001a74:	e02c      	b.n	8001ad0 <HAL_UART_RxCpltCallback+0xe0>
			if (baro_rx_byte == 0xBB) {
 8001a76:	4b23      	ldr	r3, [pc, #140]	@ (8001b04 <HAL_UART_RxCpltCallback+0x114>)
 8001a78:	781b      	ldrb	r3, [r3, #0]
 8001a7a:	2bbb      	cmp	r3, #187	@ 0xbb
 8001a7c:	d125      	bne.n	8001aca <HAL_UART_RxCpltCallback+0xda>
				baro_idx = 0;
 8001a7e:	4b22      	ldr	r3, [pc, #136]	@ (8001b08 <HAL_UART_RxCpltCallback+0x118>)
 8001a80:	2200      	movs	r2, #0
 8001a82:	701a      	strb	r2, [r3, #0]
				baro_state = 1;
 8001a84:	4b1e      	ldr	r3, [pc, #120]	@ (8001b00 <HAL_UART_RxCpltCallback+0x110>)
 8001a86:	2201      	movs	r2, #1
 8001a88:	701a      	strb	r2, [r3, #0]
			break;
 8001a8a:	e01e      	b.n	8001aca <HAL_UART_RxCpltCallback+0xda>
			baro_buffer[baro_idx++] = baro_rx_byte;
 8001a8c:	4b1e      	ldr	r3, [pc, #120]	@ (8001b08 <HAL_UART_RxCpltCallback+0x118>)
 8001a8e:	781b      	ldrb	r3, [r3, #0]
 8001a90:	1c5a      	adds	r2, r3, #1
 8001a92:	b2d1      	uxtb	r1, r2
 8001a94:	4a1c      	ldr	r2, [pc, #112]	@ (8001b08 <HAL_UART_RxCpltCallback+0x118>)
 8001a96:	7011      	strb	r1, [r2, #0]
 8001a98:	461a      	mov	r2, r3
 8001a9a:	4b1a      	ldr	r3, [pc, #104]	@ (8001b04 <HAL_UART_RxCpltCallback+0x114>)
 8001a9c:	7819      	ldrb	r1, [r3, #0]
 8001a9e:	4b1b      	ldr	r3, [pc, #108]	@ (8001b0c <HAL_UART_RxCpltCallback+0x11c>)
 8001aa0:	5499      	strb	r1, [r3, r2]
			if (baro_idx >= 4)
 8001aa2:	4b19      	ldr	r3, [pc, #100]	@ (8001b08 <HAL_UART_RxCpltCallback+0x118>)
 8001aa4:	781b      	ldrb	r3, [r3, #0]
 8001aa6:	2b03      	cmp	r3, #3
 8001aa8:	d911      	bls.n	8001ace <HAL_UART_RxCpltCallback+0xde>
				baro_state = 2;
 8001aaa:	4b15      	ldr	r3, [pc, #84]	@ (8001b00 <HAL_UART_RxCpltCallback+0x110>)
 8001aac:	2202      	movs	r2, #2
 8001aae:	701a      	strb	r2, [r3, #0]
			break;
 8001ab0:	e00d      	b.n	8001ace <HAL_UART_RxCpltCallback+0xde>
			if (baro_rx_byte == 0x55) {
 8001ab2:	4b14      	ldr	r3, [pc, #80]	@ (8001b04 <HAL_UART_RxCpltCallback+0x114>)
 8001ab4:	781b      	ldrb	r3, [r3, #0]
 8001ab6:	2b55      	cmp	r3, #85	@ 0x55
 8001ab8:	d103      	bne.n	8001ac2 <HAL_UART_RxCpltCallback+0xd2>
				memcpy(&vehicleState.BaroAlt, baro_buffer, 4);
 8001aba:	4b14      	ldr	r3, [pc, #80]	@ (8001b0c <HAL_UART_RxCpltCallback+0x11c>)
 8001abc:	681b      	ldr	r3, [r3, #0]
 8001abe:	4a14      	ldr	r2, [pc, #80]	@ (8001b10 <HAL_UART_RxCpltCallback+0x120>)
 8001ac0:	61d3      	str	r3, [r2, #28]
			baro_state = 0;
 8001ac2:	4b0f      	ldr	r3, [pc, #60]	@ (8001b00 <HAL_UART_RxCpltCallback+0x110>)
 8001ac4:	2200      	movs	r2, #0
 8001ac6:	701a      	strb	r2, [r3, #0]
			break;
 8001ac8:	e002      	b.n	8001ad0 <HAL_UART_RxCpltCallback+0xe0>
			break;
 8001aca:	bf00      	nop
 8001acc:	e000      	b.n	8001ad0 <HAL_UART_RxCpltCallback+0xe0>
			break;
 8001ace:	bf00      	nop
		HAL_UART_Receive_IT(&huart2, &baro_rx_byte, 1);
 8001ad0:	2201      	movs	r2, #1
 8001ad2:	490c      	ldr	r1, [pc, #48]	@ (8001b04 <HAL_UART_RxCpltCallback+0x114>)
 8001ad4:	480f      	ldr	r0, [pc, #60]	@ (8001b14 <HAL_UART_RxCpltCallback+0x124>)
 8001ad6:	f003 f80e 	bl	8004af6 <HAL_UART_Receive_IT>
}
 8001ada:	bf00      	nop
 8001adc:	3708      	adds	r7, #8
 8001ade:	46bd      	mov	sp, r7
 8001ae0:	bd80      	pop	{r7, pc}
 8001ae2:	bf00      	nop
 8001ae4:	40011000 	.word	0x40011000
 8001ae8:	2000030e 	.word	0x2000030e
 8001aec:	20000390 	.word	0x20000390
 8001af0:	20000310 	.word	0x20000310
 8001af4:	20000391 	.word	0x20000391
 8001af8:	20000248 	.word	0x20000248
 8001afc:	40004400 	.word	0x40004400
 8001b00:	20000301 	.word	0x20000301
 8001b04:	200002f8 	.word	0x200002f8
 8001b08:	20000300 	.word	0x20000300
 8001b0c:	200002fc 	.word	0x200002fc
 8001b10:	200002d8 	.word	0x200002d8
 8001b14:	20000290 	.word	0x20000290

08001b18 <HAL_UART_ErrorCallback>:

// 3. Error Callback (Auto-restart on noise)
void HAL_UART_ErrorCallback(UART_HandleTypeDef *huart) {
 8001b18:	b580      	push	{r7, lr}
 8001b1a:	b084      	sub	sp, #16
 8001b1c:	af00      	add	r7, sp, #0
 8001b1e:	6078      	str	r0, [r7, #4]
	if (huart->Instance == USART2) {
 8001b20:	687b      	ldr	r3, [r7, #4]
 8001b22:	681b      	ldr	r3, [r3, #0]
 8001b24:	4a10      	ldr	r2, [pc, #64]	@ (8001b68 <HAL_UART_ErrorCallback+0x50>)
 8001b26:	4293      	cmp	r3, r2
 8001b28:	d10a      	bne.n	8001b40 <HAL_UART_ErrorCallback+0x28>
		volatile uint32_t er = HAL_UART_GetError(huart); // Clear flag
 8001b2a:	6878      	ldr	r0, [r7, #4]
 8001b2c:	f003 fac8 	bl	80050c0 <HAL_UART_GetError>
 8001b30:	4603      	mov	r3, r0
 8001b32:	60fb      	str	r3, [r7, #12]
		HAL_UART_Receive_IT(&huart2, &baro_rx_byte, 1);  // Restart
 8001b34:	2201      	movs	r2, #1
 8001b36:	490d      	ldr	r1, [pc, #52]	@ (8001b6c <HAL_UART_ErrorCallback+0x54>)
 8001b38:	480d      	ldr	r0, [pc, #52]	@ (8001b70 <HAL_UART_ErrorCallback+0x58>)
 8001b3a:	f002 ffdc 	bl	8004af6 <HAL_UART_Receive_IT>
	} else if (huart->Instance == USART1) {
		volatile uint32_t er = HAL_UART_GetError(huart);
		HAL_UART_Receive_IT(&huart1, &gps_rx_char, 1);
	}
}
 8001b3e:	e00e      	b.n	8001b5e <HAL_UART_ErrorCallback+0x46>
	} else if (huart->Instance == USART1) {
 8001b40:	687b      	ldr	r3, [r7, #4]
 8001b42:	681b      	ldr	r3, [r3, #0]
 8001b44:	4a0b      	ldr	r2, [pc, #44]	@ (8001b74 <HAL_UART_ErrorCallback+0x5c>)
 8001b46:	4293      	cmp	r3, r2
 8001b48:	d109      	bne.n	8001b5e <HAL_UART_ErrorCallback+0x46>
		volatile uint32_t er = HAL_UART_GetError(huart);
 8001b4a:	6878      	ldr	r0, [r7, #4]
 8001b4c:	f003 fab8 	bl	80050c0 <HAL_UART_GetError>
 8001b50:	4603      	mov	r3, r0
 8001b52:	60bb      	str	r3, [r7, #8]
		HAL_UART_Receive_IT(&huart1, &gps_rx_char, 1);
 8001b54:	2201      	movs	r2, #1
 8001b56:	4908      	ldr	r1, [pc, #32]	@ (8001b78 <HAL_UART_ErrorCallback+0x60>)
 8001b58:	4808      	ldr	r0, [pc, #32]	@ (8001b7c <HAL_UART_ErrorCallback+0x64>)
 8001b5a:	f002 ffcc 	bl	8004af6 <HAL_UART_Receive_IT>
}
 8001b5e:	bf00      	nop
 8001b60:	3710      	adds	r7, #16
 8001b62:	46bd      	mov	sp, r7
 8001b64:	bd80      	pop	{r7, pc}
 8001b66:	bf00      	nop
 8001b68:	40004400 	.word	0x40004400
 8001b6c:	200002f8 	.word	0x200002f8
 8001b70:	20000290 	.word	0x20000290
 8001b74:	40011000 	.word	0x40011000
 8001b78:	2000030e 	.word	0x2000030e
 8001b7c:	20000248 	.word	0x20000248

08001b80 <_write>:

// -------------------------------------------------------------------------
//  Standard Helper Functions (Init, Read, Parse)
// -------------------------------------------------------------------------
int _write(int file, char *ptr, int len) {
 8001b80:	b580      	push	{r7, lr}
 8001b82:	b084      	sub	sp, #16
 8001b84:	af00      	add	r7, sp, #0
 8001b86:	60f8      	str	r0, [r7, #12]
 8001b88:	60b9      	str	r1, [r7, #8]
 8001b8a:	607a      	str	r2, [r7, #4]
	HAL_UART_Transmit(&huart2, (uint8_t*) ptr, len, HAL_MAX_DELAY);
 8001b8c:	687b      	ldr	r3, [r7, #4]
 8001b8e:	b29a      	uxth	r2, r3
 8001b90:	f04f 33ff 	mov.w	r3, #4294967295
 8001b94:	68b9      	ldr	r1, [r7, #8]
 8001b96:	4804      	ldr	r0, [pc, #16]	@ (8001ba8 <_write+0x28>)
 8001b98:	f002 ff22 	bl	80049e0 <HAL_UART_Transmit>
	return len;
 8001b9c:	687b      	ldr	r3, [r7, #4]
}
 8001b9e:	4618      	mov	r0, r3
 8001ba0:	3710      	adds	r7, #16
 8001ba2:	46bd      	mov	sp, r7
 8001ba4:	bd80      	pop	{r7, pc}
 8001ba6:	bf00      	nop
 8001ba8:	20000290 	.word	0x20000290

08001bac <MX_USART2_UART_Init>:

// --- Initialization Functions (With fixes) ---
static void MX_USART2_UART_Init(void) {
 8001bac:	b580      	push	{r7, lr}
 8001bae:	af00      	add	r7, sp, #0
	huart2.Instance = USART2;
 8001bb0:	4b15      	ldr	r3, [pc, #84]	@ (8001c08 <MX_USART2_UART_Init+0x5c>)
 8001bb2:	4a16      	ldr	r2, [pc, #88]	@ (8001c0c <MX_USART2_UART_Init+0x60>)
 8001bb4:	601a      	str	r2, [r3, #0]
	huart2.Init.BaudRate = 115200;
 8001bb6:	4b14      	ldr	r3, [pc, #80]	@ (8001c08 <MX_USART2_UART_Init+0x5c>)
 8001bb8:	f44f 32e1 	mov.w	r2, #115200	@ 0x1c200
 8001bbc:	605a      	str	r2, [r3, #4]
	huart2.Init.WordLength = UART_WORDLENGTH_8B;
 8001bbe:	4b12      	ldr	r3, [pc, #72]	@ (8001c08 <MX_USART2_UART_Init+0x5c>)
 8001bc0:	2200      	movs	r2, #0
 8001bc2:	609a      	str	r2, [r3, #8]
	huart2.Init.StopBits = UART_STOPBITS_1;
 8001bc4:	4b10      	ldr	r3, [pc, #64]	@ (8001c08 <MX_USART2_UART_Init+0x5c>)
 8001bc6:	2200      	movs	r2, #0
 8001bc8:	60da      	str	r2, [r3, #12]
	huart2.Init.Parity = UART_PARITY_NONE;
 8001bca:	4b0f      	ldr	r3, [pc, #60]	@ (8001c08 <MX_USART2_UART_Init+0x5c>)
 8001bcc:	2200      	movs	r2, #0
 8001bce:	611a      	str	r2, [r3, #16]
	huart2.Init.Mode = UART_MODE_TX_RX;
 8001bd0:	4b0d      	ldr	r3, [pc, #52]	@ (8001c08 <MX_USART2_UART_Init+0x5c>)
 8001bd2:	220c      	movs	r2, #12
 8001bd4:	615a      	str	r2, [r3, #20]
	huart2.Init.HwFlowCtl = UART_HWCONTROL_NONE;
 8001bd6:	4b0c      	ldr	r3, [pc, #48]	@ (8001c08 <MX_USART2_UART_Init+0x5c>)
 8001bd8:	2200      	movs	r2, #0
 8001bda:	619a      	str	r2, [r3, #24]
	huart2.Init.OverSampling = UART_OVERSAMPLING_16;
 8001bdc:	4b0a      	ldr	r3, [pc, #40]	@ (8001c08 <MX_USART2_UART_Init+0x5c>)
 8001bde:	2200      	movs	r2, #0
 8001be0:	61da      	str	r2, [r3, #28]

	// Init and Error Check
	if (HAL_UART_Init(&huart2) != HAL_OK) {
 8001be2:	4809      	ldr	r0, [pc, #36]	@ (8001c08 <MX_USART2_UART_Init+0x5c>)
 8001be4:	f002 feac 	bl	8004940 <HAL_UART_Init>
 8001be8:	4603      	mov	r3, r0
 8001bea:	2b00      	cmp	r3, #0
 8001bec:	d001      	beq.n	8001bf2 <MX_USART2_UART_Init+0x46>
		Error_Handler();
 8001bee:	f000 fc1f 	bl	8002430 <Error_Handler>
	}

	// Manually Enable Interrupts
	HAL_NVIC_SetPriority(USART2_IRQn, 0, 0);
 8001bf2:	2200      	movs	r2, #0
 8001bf4:	2100      	movs	r1, #0
 8001bf6:	2026      	movs	r0, #38	@ 0x26
 8001bf8:	f000 ffa5 	bl	8002b46 <HAL_NVIC_SetPriority>
	HAL_NVIC_EnableIRQ(USART2_IRQn);
 8001bfc:	2026      	movs	r0, #38	@ 0x26
 8001bfe:	f000 ffbe 	bl	8002b7e <HAL_NVIC_EnableIRQ>
}
 8001c02:	bf00      	nop
 8001c04:	bd80      	pop	{r7, pc}
 8001c06:	bf00      	nop
 8001c08:	20000290 	.word	0x20000290
 8001c0c:	40004400 	.word	0x40004400

08001c10 <Parse_GGA_Generic>:

// --- Standard Functions (MPU, GPS, System) ---
void Parse_GGA_Generic(char *nmea) {
 8001c10:	b580      	push	{r7, lr}
 8001c12:	b08a      	sub	sp, #40	@ 0x28
 8001c14:	af00      	add	r7, sp, #0
 8001c16:	6078      	str	r0, [r7, #4]
	char *current_pos = nmea;
 8001c18:	687b      	ldr	r3, [r7, #4]
 8001c1a:	627b      	str	r3, [r7, #36]	@ 0x24
	int field_index = 0;
 8001c1c:	2300      	movs	r3, #0
 8001c1e:	623b      	str	r3, [r7, #32]
	float t_lat = 0.0, t_lon = 0.0;
 8001c20:	f04f 0300 	mov.w	r3, #0
 8001c24:	61fb      	str	r3, [r7, #28]
 8001c26:	f04f 0300 	mov.w	r3, #0
 8001c2a:	61bb      	str	r3, [r7, #24]
	int t_sats = 0, t_fix = 0;
 8001c2c:	2300      	movs	r3, #0
 8001c2e:	617b      	str	r3, [r7, #20]
 8001c30:	2300      	movs	r3, #0
 8001c32:	613b      	str	r3, [r7, #16]
	while (*current_pos != '\0') {
 8001c34:	e04d      	b.n	8001cd2 <Parse_GGA_Generic+0xc2>
		char *next_comma = strchr(current_pos, ',');
 8001c36:	212c      	movs	r1, #44	@ 0x2c
 8001c38:	6a78      	ldr	r0, [r7, #36]	@ 0x24
 8001c3a:	f005 fb1e 	bl	800727a <strchr>
 8001c3e:	60f8      	str	r0, [r7, #12]
		if (next_comma != NULL)
 8001c40:	68fb      	ldr	r3, [r7, #12]
 8001c42:	2b00      	cmp	r3, #0
 8001c44:	d002      	beq.n	8001c4c <Parse_GGA_Generic+0x3c>
			*next_comma = '\0';
 8001c46:	68fb      	ldr	r3, [r7, #12]
 8001c48:	2200      	movs	r2, #0
 8001c4a:	701a      	strb	r2, [r3, #0]
		if (*current_pos != '\0') {
 8001c4c:	6a7b      	ldr	r3, [r7, #36]	@ 0x24
 8001c4e:	781b      	ldrb	r3, [r3, #0]
 8001c50:	2b00      	cmp	r3, #0
 8001c52:	d035      	beq.n	8001cc0 <Parse_GGA_Generic+0xb0>
			switch (field_index) {
 8001c54:	6a3b      	ldr	r3, [r7, #32]
 8001c56:	3b02      	subs	r3, #2
 8001c58:	2b05      	cmp	r3, #5
 8001c5a:	d831      	bhi.n	8001cc0 <Parse_GGA_Generic+0xb0>
 8001c5c:	a201      	add	r2, pc, #4	@ (adr r2, 8001c64 <Parse_GGA_Generic+0x54>)
 8001c5e:	f852 f023 	ldr.w	pc, [r2, r3, lsl #2]
 8001c62:	bf00      	nop
 8001c64:	08001c7d 	.word	0x08001c7d
 8001c68:	08001cc1 	.word	0x08001cc1
 8001c6c:	08001c95 	.word	0x08001c95
 8001c70:	08001cc1 	.word	0x08001cc1
 8001c74:	08001cad 	.word	0x08001cad
 8001c78:	08001cb7 	.word	0x08001cb7
			case 2:
				t_lat = atof(current_pos);
 8001c7c:	6a78      	ldr	r0, [r7, #36]	@ 0x24
 8001c7e:	f003 feee 	bl	8005a5e <atof>
 8001c82:	ec53 2b10 	vmov	r2, r3, d0
 8001c86:	4610      	mov	r0, r2
 8001c88:	4619      	mov	r1, r3
 8001c8a:	f7fe ffb5 	bl	8000bf8 <__aeabi_d2f>
 8001c8e:	4603      	mov	r3, r0
 8001c90:	61fb      	str	r3, [r7, #28]
				break;
 8001c92:	e015      	b.n	8001cc0 <Parse_GGA_Generic+0xb0>
			case 4:
				t_lon = atof(current_pos);
 8001c94:	6a78      	ldr	r0, [r7, #36]	@ 0x24
 8001c96:	f003 fee2 	bl	8005a5e <atof>
 8001c9a:	ec53 2b10 	vmov	r2, r3, d0
 8001c9e:	4610      	mov	r0, r2
 8001ca0:	4619      	mov	r1, r3
 8001ca2:	f7fe ffa9 	bl	8000bf8 <__aeabi_d2f>
 8001ca6:	4603      	mov	r3, r0
 8001ca8:	61bb      	str	r3, [r7, #24]
				break;
 8001caa:	e009      	b.n	8001cc0 <Parse_GGA_Generic+0xb0>
			case 6:
				t_fix = atoi(current_pos);
 8001cac:	6a78      	ldr	r0, [r7, #36]	@ 0x24
 8001cae:	f003 fed9 	bl	8005a64 <atoi>
 8001cb2:	6138      	str	r0, [r7, #16]
				break;
 8001cb4:	e004      	b.n	8001cc0 <Parse_GGA_Generic+0xb0>
			case 7:
				t_sats = atoi(current_pos);
 8001cb6:	6a78      	ldr	r0, [r7, #36]	@ 0x24
 8001cb8:	f003 fed4 	bl	8005a64 <atoi>
 8001cbc:	6178      	str	r0, [r7, #20]
				break;
 8001cbe:	bf00      	nop
			}
		}
		if (next_comma == NULL)
 8001cc0:	68fb      	ldr	r3, [r7, #12]
 8001cc2:	2b00      	cmp	r3, #0
 8001cc4:	d00a      	beq.n	8001cdc <Parse_GGA_Generic+0xcc>
			break;
		current_pos = next_comma + 1;
 8001cc6:	68fb      	ldr	r3, [r7, #12]
 8001cc8:	3301      	adds	r3, #1
 8001cca:	627b      	str	r3, [r7, #36]	@ 0x24
		field_index++;
 8001ccc:	6a3b      	ldr	r3, [r7, #32]
 8001cce:	3301      	adds	r3, #1
 8001cd0:	623b      	str	r3, [r7, #32]
	while (*current_pos != '\0') {
 8001cd2:	6a7b      	ldr	r3, [r7, #36]	@ 0x24
 8001cd4:	781b      	ldrb	r3, [r3, #0]
 8001cd6:	2b00      	cmp	r3, #0
 8001cd8:	d1ad      	bne.n	8001c36 <Parse_GGA_Generic+0x26>
 8001cda:	e000      	b.n	8001cde <Parse_GGA_Generic+0xce>
			break;
 8001cdc:	bf00      	nop
	}
	vehicleState.Latitude = t_lat;
 8001cde:	4a08      	ldr	r2, [pc, #32]	@ (8001d00 <Parse_GGA_Generic+0xf0>)
 8001ce0:	69fb      	ldr	r3, [r7, #28]
 8001ce2:	60d3      	str	r3, [r2, #12]
	vehicleState.Longitude = t_lon;
 8001ce4:	4a06      	ldr	r2, [pc, #24]	@ (8001d00 <Parse_GGA_Generic+0xf0>)
 8001ce6:	69bb      	ldr	r3, [r7, #24]
 8001ce8:	6113      	str	r3, [r2, #16]
	vehicleState.FixStatus = t_fix;
 8001cea:	693b      	ldr	r3, [r7, #16]
 8001cec:	b2da      	uxtb	r2, r3
 8001cee:	4b04      	ldr	r3, [pc, #16]	@ (8001d00 <Parse_GGA_Generic+0xf0>)
 8001cf0:	761a      	strb	r2, [r3, #24]
	vehicleState.Satellites = t_sats;
 8001cf2:	4a03      	ldr	r2, [pc, #12]	@ (8001d00 <Parse_GGA_Generic+0xf0>)
 8001cf4:	697b      	ldr	r3, [r7, #20]
 8001cf6:	6153      	str	r3, [r2, #20]
}
 8001cf8:	bf00      	nop
 8001cfa:	3728      	adds	r7, #40	@ 0x28
 8001cfc:	46bd      	mov	sp, r7
 8001cfe:	bd80      	pop	{r7, pc}
 8001d00:	200002d8 	.word	0x200002d8

08001d04 <MPU6050_Init>:

uint8_t MPU6050_Init(void) {
 8001d04:	b580      	push	{r7, lr}
 8001d06:	b086      	sub	sp, #24
 8001d08:	af04      	add	r7, sp, #16
	uint8_t check, data;
	HAL_I2C_Mem_Read(&hi2c1, MPU6050_ADDR, MPU_REG_WHO_AM_I, 1, &check, 1,
 8001d0a:	f44f 737a 	mov.w	r3, #1000	@ 0x3e8
 8001d0e:	9302      	str	r3, [sp, #8]
 8001d10:	2301      	movs	r3, #1
 8001d12:	9301      	str	r3, [sp, #4]
 8001d14:	1dfb      	adds	r3, r7, #7
 8001d16:	9300      	str	r3, [sp, #0]
 8001d18:	2301      	movs	r3, #1
 8001d1a:	2275      	movs	r2, #117	@ 0x75
 8001d1c:	21d0      	movs	r1, #208	@ 0xd0
 8001d1e:	481d      	ldr	r0, [pc, #116]	@ (8001d94 <MPU6050_Init+0x90>)
 8001d20:	f001 fbd0 	bl	80034c4 <HAL_I2C_Mem_Read>
			1000);
	if (check == 0x68) {
 8001d24:	79fb      	ldrb	r3, [r7, #7]
 8001d26:	2b68      	cmp	r3, #104	@ 0x68
 8001d28:	d12e      	bne.n	8001d88 <MPU6050_Init+0x84>
		data = 0x00;
 8001d2a:	2300      	movs	r3, #0
 8001d2c:	71bb      	strb	r3, [r7, #6]
		HAL_I2C_Mem_Write(&hi2c1, MPU6050_ADDR, MPU_REG_PWR_MGMT_1, 1, &data, 1,
 8001d2e:	f44f 737a 	mov.w	r3, #1000	@ 0x3e8
 8001d32:	9302      	str	r3, [sp, #8]
 8001d34:	2301      	movs	r3, #1
 8001d36:	9301      	str	r3, [sp, #4]
 8001d38:	1dbb      	adds	r3, r7, #6
 8001d3a:	9300      	str	r3, [sp, #0]
 8001d3c:	2301      	movs	r3, #1
 8001d3e:	226b      	movs	r2, #107	@ 0x6b
 8001d40:	21d0      	movs	r1, #208	@ 0xd0
 8001d42:	4814      	ldr	r0, [pc, #80]	@ (8001d94 <MPU6050_Init+0x90>)
 8001d44:	f001 fac4 	bl	80032d0 <HAL_I2C_Mem_Write>
				1000);
		data = 0x18;
 8001d48:	2318      	movs	r3, #24
 8001d4a:	71bb      	strb	r3, [r7, #6]
		HAL_I2C_Mem_Write(&hi2c1, MPU6050_ADDR, MPU_REG_GYRO_CONFIG, 1, &data,
 8001d4c:	f44f 737a 	mov.w	r3, #1000	@ 0x3e8
 8001d50:	9302      	str	r3, [sp, #8]
 8001d52:	2301      	movs	r3, #1
 8001d54:	9301      	str	r3, [sp, #4]
 8001d56:	1dbb      	adds	r3, r7, #6
 8001d58:	9300      	str	r3, [sp, #0]
 8001d5a:	2301      	movs	r3, #1
 8001d5c:	221b      	movs	r2, #27
 8001d5e:	21d0      	movs	r1, #208	@ 0xd0
 8001d60:	480c      	ldr	r0, [pc, #48]	@ (8001d94 <MPU6050_Init+0x90>)
 8001d62:	f001 fab5 	bl	80032d0 <HAL_I2C_Mem_Write>
				1, 1000);
		data = 0x18;
 8001d66:	2318      	movs	r3, #24
 8001d68:	71bb      	strb	r3, [r7, #6]
		HAL_I2C_Mem_Write(&hi2c1, MPU6050_ADDR, MPU_REG_ACCEL_CONFIG, 1, &data,
 8001d6a:	f44f 737a 	mov.w	r3, #1000	@ 0x3e8
 8001d6e:	9302      	str	r3, [sp, #8]
 8001d70:	2301      	movs	r3, #1
 8001d72:	9301      	str	r3, [sp, #4]
 8001d74:	1dbb      	adds	r3, r7, #6
 8001d76:	9300      	str	r3, [sp, #0]
 8001d78:	2301      	movs	r3, #1
 8001d7a:	221c      	movs	r2, #28
 8001d7c:	21d0      	movs	r1, #208	@ 0xd0
 8001d7e:	4805      	ldr	r0, [pc, #20]	@ (8001d94 <MPU6050_Init+0x90>)
 8001d80:	f001 faa6 	bl	80032d0 <HAL_I2C_Mem_Write>
				1, 1000);
		return 0;
 8001d84:	2300      	movs	r3, #0
 8001d86:	e000      	b.n	8001d8a <MPU6050_Init+0x86>
	}
	return 1;
 8001d88:	2301      	movs	r3, #1
}
 8001d8a:	4618      	mov	r0, r3
 8001d8c:	3708      	adds	r7, #8
 8001d8e:	46bd      	mov	sp, r7
 8001d90:	bd80      	pop	{r7, pc}
 8001d92:	bf00      	nop
 8001d94:	200001f4 	.word	0x200001f4

08001d98 <MPU6050_Calibrate>:

void MPU6050_Calibrate(void) {
 8001d98:	b580      	push	{r7, lr}
 8001d9a:	b092      	sub	sp, #72	@ 0x48
 8001d9c:	af04      	add	r7, sp, #16
	int32_t Aa[3] = { 0 }, Ag[3] = { 0 };
 8001d9e:	f107 0320 	add.w	r3, r7, #32
 8001da2:	2200      	movs	r2, #0
 8001da4:	601a      	str	r2, [r3, #0]
 8001da6:	605a      	str	r2, [r3, #4]
 8001da8:	609a      	str	r2, [r3, #8]
 8001daa:	f107 0314 	add.w	r3, r7, #20
 8001dae:	2200      	movs	r2, #0
 8001db0:	601a      	str	r2, [r3, #0]
 8001db2:	605a      	str	r2, [r3, #4]
 8001db4:	609a      	str	r2, [r3, #8]
	uint8_t Rec[14];
	for (int i = 0; i < 1000; i++) {
 8001db6:	2300      	movs	r3, #0
 8001db8:	637b      	str	r3, [r7, #52]	@ 0x34
 8001dba:	e054      	b.n	8001e66 <MPU6050_Calibrate+0xce>
		HAL_I2C_Mem_Read(&hi2c1, MPU6050_ADDR, MPU_REG_ACCEL_XOUT_H, 1, Rec, 14,
 8001dbc:	f44f 737a 	mov.w	r3, #1000	@ 0x3e8
 8001dc0:	9302      	str	r3, [sp, #8]
 8001dc2:	230e      	movs	r3, #14
 8001dc4:	9301      	str	r3, [sp, #4]
 8001dc6:	1d3b      	adds	r3, r7, #4
 8001dc8:	9300      	str	r3, [sp, #0]
 8001dca:	2301      	movs	r3, #1
 8001dcc:	223b      	movs	r2, #59	@ 0x3b
 8001dce:	21d0      	movs	r1, #208	@ 0xd0
 8001dd0:	4891      	ldr	r0, [pc, #580]	@ (8002018 <MPU6050_Calibrate+0x280>)
 8001dd2:	f001 fb77 	bl	80034c4 <HAL_I2C_Mem_Read>
				1000);
		Aa[0] += (int16_t) (Rec[0] << 8 | Rec[1]);
 8001dd6:	6a3b      	ldr	r3, [r7, #32]
 8001dd8:	793a      	ldrb	r2, [r7, #4]
 8001dda:	b212      	sxth	r2, r2
 8001ddc:	0212      	lsls	r2, r2, #8
 8001dde:	b211      	sxth	r1, r2
 8001de0:	797a      	ldrb	r2, [r7, #5]
 8001de2:	b212      	sxth	r2, r2
 8001de4:	430a      	orrs	r2, r1
 8001de6:	b212      	sxth	r2, r2
 8001de8:	4413      	add	r3, r2
 8001dea:	623b      	str	r3, [r7, #32]
		Aa[1] += (int16_t) (Rec[2] << 8 | Rec[3]);
 8001dec:	6a7b      	ldr	r3, [r7, #36]	@ 0x24
 8001dee:	79ba      	ldrb	r2, [r7, #6]
 8001df0:	b212      	sxth	r2, r2
 8001df2:	0212      	lsls	r2, r2, #8
 8001df4:	b211      	sxth	r1, r2
 8001df6:	79fa      	ldrb	r2, [r7, #7]
 8001df8:	b212      	sxth	r2, r2
 8001dfa:	430a      	orrs	r2, r1
 8001dfc:	b212      	sxth	r2, r2
 8001dfe:	4413      	add	r3, r2
 8001e00:	627b      	str	r3, [r7, #36]	@ 0x24
		Aa[2] += (int16_t) (Rec[4] << 8 | Rec[5]);
 8001e02:	6abb      	ldr	r3, [r7, #40]	@ 0x28
 8001e04:	7a3a      	ldrb	r2, [r7, #8]
 8001e06:	b212      	sxth	r2, r2
 8001e08:	0212      	lsls	r2, r2, #8
 8001e0a:	b211      	sxth	r1, r2
 8001e0c:	7a7a      	ldrb	r2, [r7, #9]
 8001e0e:	b212      	sxth	r2, r2
 8001e10:	430a      	orrs	r2, r1
 8001e12:	b212      	sxth	r2, r2
 8001e14:	4413      	add	r3, r2
 8001e16:	62bb      	str	r3, [r7, #40]	@ 0x28
		Ag[0] += (int16_t) (Rec[8] << 8 | Rec[9]);
 8001e18:	697b      	ldr	r3, [r7, #20]
 8001e1a:	7b3a      	ldrb	r2, [r7, #12]
 8001e1c:	b212      	sxth	r2, r2
 8001e1e:	0212      	lsls	r2, r2, #8
 8001e20:	b211      	sxth	r1, r2
 8001e22:	7b7a      	ldrb	r2, [r7, #13]
 8001e24:	b212      	sxth	r2, r2
 8001e26:	430a      	orrs	r2, r1
 8001e28:	b212      	sxth	r2, r2
 8001e2a:	4413      	add	r3, r2
 8001e2c:	617b      	str	r3, [r7, #20]
		Ag[1] += (int16_t) (Rec[10] << 8 | Rec[11]);
 8001e2e:	69bb      	ldr	r3, [r7, #24]
 8001e30:	7bba      	ldrb	r2, [r7, #14]
 8001e32:	b212      	sxth	r2, r2
 8001e34:	0212      	lsls	r2, r2, #8
 8001e36:	b211      	sxth	r1, r2
 8001e38:	7bfa      	ldrb	r2, [r7, #15]
 8001e3a:	b212      	sxth	r2, r2
 8001e3c:	430a      	orrs	r2, r1
 8001e3e:	b212      	sxth	r2, r2
 8001e40:	4413      	add	r3, r2
 8001e42:	61bb      	str	r3, [r7, #24]
		Ag[2] += (int16_t) (Rec[12] << 8 | Rec[13]);
 8001e44:	69fb      	ldr	r3, [r7, #28]
 8001e46:	7c3a      	ldrb	r2, [r7, #16]
 8001e48:	b212      	sxth	r2, r2
 8001e4a:	0212      	lsls	r2, r2, #8
 8001e4c:	b211      	sxth	r1, r2
 8001e4e:	7c7a      	ldrb	r2, [r7, #17]
 8001e50:	b212      	sxth	r2, r2
 8001e52:	430a      	orrs	r2, r1
 8001e54:	b212      	sxth	r2, r2
 8001e56:	4413      	add	r3, r2
 8001e58:	61fb      	str	r3, [r7, #28]
		HAL_Delay(1);
 8001e5a:	2001      	movs	r0, #1
 8001e5c:	f000 fd74 	bl	8002948 <HAL_Delay>
	for (int i = 0; i < 1000; i++) {
 8001e60:	6b7b      	ldr	r3, [r7, #52]	@ 0x34
 8001e62:	3301      	adds	r3, #1
 8001e64:	637b      	str	r3, [r7, #52]	@ 0x34
 8001e66:	6b7b      	ldr	r3, [r7, #52]	@ 0x34
 8001e68:	f5b3 7f7a 	cmp.w	r3, #1000	@ 0x3e8
 8001e6c:	dba6      	blt.n	8001dbc <MPU6050_Calibrate+0x24>
	}
	int16_t AvgX = Aa[0] / 1000, AvgY = Aa[1] / 1000, AvgZ = Aa[2] / 1000;
 8001e6e:	6a3b      	ldr	r3, [r7, #32]
 8001e70:	4a6a      	ldr	r2, [pc, #424]	@ (800201c <MPU6050_Calibrate+0x284>)
 8001e72:	fb82 1203 	smull	r1, r2, r2, r3
 8001e76:	1192      	asrs	r2, r2, #6
 8001e78:	17db      	asrs	r3, r3, #31
 8001e7a:	1ad3      	subs	r3, r2, r3
 8001e7c:	867b      	strh	r3, [r7, #50]	@ 0x32
 8001e7e:	6a7b      	ldr	r3, [r7, #36]	@ 0x24
 8001e80:	4a66      	ldr	r2, [pc, #408]	@ (800201c <MPU6050_Calibrate+0x284>)
 8001e82:	fb82 1203 	smull	r1, r2, r2, r3
 8001e86:	1192      	asrs	r2, r2, #6
 8001e88:	17db      	asrs	r3, r3, #31
 8001e8a:	1ad3      	subs	r3, r2, r3
 8001e8c:	863b      	strh	r3, [r7, #48]	@ 0x30
 8001e8e:	6abb      	ldr	r3, [r7, #40]	@ 0x28
 8001e90:	4a62      	ldr	r2, [pc, #392]	@ (800201c <MPU6050_Calibrate+0x284>)
 8001e92:	fb82 1203 	smull	r1, r2, r2, r3
 8001e96:	1192      	asrs	r2, r2, #6
 8001e98:	17db      	asrs	r3, r3, #31
 8001e9a:	1ad3      	subs	r3, r2, r3
 8001e9c:	85fb      	strh	r3, [r7, #46]	@ 0x2e
	if (abs(AvgX) > abs(AvgY) && abs(AvgX) > abs(AvgZ)) {
 8001e9e:	f9b7 3032 	ldrsh.w	r3, [r7, #50]	@ 0x32
 8001ea2:	2b00      	cmp	r3, #0
 8001ea4:	bfb8      	it	lt
 8001ea6:	425b      	neglt	r3, r3
 8001ea8:	b29a      	uxth	r2, r3
 8001eaa:	f9b7 3030 	ldrsh.w	r3, [r7, #48]	@ 0x30
 8001eae:	2b00      	cmp	r3, #0
 8001eb0:	bfb8      	it	lt
 8001eb2:	425b      	neglt	r3, r3
 8001eb4:	b29b      	uxth	r3, r3
 8001eb6:	429a      	cmp	r2, r3
 8001eb8:	d91b      	bls.n	8001ef2 <MPU6050_Calibrate+0x15a>
 8001eba:	f9b7 3032 	ldrsh.w	r3, [r7, #50]	@ 0x32
 8001ebe:	2b00      	cmp	r3, #0
 8001ec0:	bfb8      	it	lt
 8001ec2:	425b      	neglt	r3, r3
 8001ec4:	b29a      	uxth	r2, r3
 8001ec6:	f9b7 302e 	ldrsh.w	r3, [r7, #46]	@ 0x2e
 8001eca:	2b00      	cmp	r3, #0
 8001ecc:	bfb8      	it	lt
 8001ece:	425b      	neglt	r3, r3
 8001ed0:	b29b      	uxth	r3, r3
 8001ed2:	429a      	cmp	r2, r3
 8001ed4:	d90d      	bls.n	8001ef2 <MPU6050_Calibrate+0x15a>
		Vertical_Axis = 0;
 8001ed6:	4b52      	ldr	r3, [pc, #328]	@ (8002020 <MPU6050_Calibrate+0x288>)
 8001ed8:	2200      	movs	r2, #0
 8001eda:	701a      	strb	r2, [r3, #0]
		Vertical_Sign = (AvgX > 0) ? 1 : -1;
 8001edc:	f9b7 3032 	ldrsh.w	r3, [r7, #50]	@ 0x32
 8001ee0:	2b00      	cmp	r3, #0
 8001ee2:	dd01      	ble.n	8001ee8 <MPU6050_Calibrate+0x150>
 8001ee4:	2201      	movs	r2, #1
 8001ee6:	e001      	b.n	8001eec <MPU6050_Calibrate+0x154>
 8001ee8:	f04f 32ff 	mov.w	r2, #4294967295
 8001eec:	4b4d      	ldr	r3, [pc, #308]	@ (8002024 <MPU6050_Calibrate+0x28c>)
 8001eee:	701a      	strb	r2, [r3, #0]
 8001ef0:	e036      	b.n	8001f60 <MPU6050_Calibrate+0x1c8>
	} else if (abs(AvgY) > abs(AvgX) && abs(AvgY) > abs(AvgZ)) {
 8001ef2:	f9b7 3030 	ldrsh.w	r3, [r7, #48]	@ 0x30
 8001ef6:	2b00      	cmp	r3, #0
 8001ef8:	bfb8      	it	lt
 8001efa:	425b      	neglt	r3, r3
 8001efc:	b29a      	uxth	r2, r3
 8001efe:	f9b7 3032 	ldrsh.w	r3, [r7, #50]	@ 0x32
 8001f02:	2b00      	cmp	r3, #0
 8001f04:	bfb8      	it	lt
 8001f06:	425b      	neglt	r3, r3
 8001f08:	b29b      	uxth	r3, r3
 8001f0a:	429a      	cmp	r2, r3
 8001f0c:	d91b      	bls.n	8001f46 <MPU6050_Calibrate+0x1ae>
 8001f0e:	f9b7 3030 	ldrsh.w	r3, [r7, #48]	@ 0x30
 8001f12:	2b00      	cmp	r3, #0
 8001f14:	bfb8      	it	lt
 8001f16:	425b      	neglt	r3, r3
 8001f18:	b29a      	uxth	r2, r3
 8001f1a:	f9b7 302e 	ldrsh.w	r3, [r7, #46]	@ 0x2e
 8001f1e:	2b00      	cmp	r3, #0
 8001f20:	bfb8      	it	lt
 8001f22:	425b      	neglt	r3, r3
 8001f24:	b29b      	uxth	r3, r3
 8001f26:	429a      	cmp	r2, r3
 8001f28:	d90d      	bls.n	8001f46 <MPU6050_Calibrate+0x1ae>
		Vertical_Axis = 1;
 8001f2a:	4b3d      	ldr	r3, [pc, #244]	@ (8002020 <MPU6050_Calibrate+0x288>)
 8001f2c:	2201      	movs	r2, #1
 8001f2e:	701a      	strb	r2, [r3, #0]
		Vertical_Sign = (AvgY > 0) ? 1 : -1;
 8001f30:	f9b7 3030 	ldrsh.w	r3, [r7, #48]	@ 0x30
 8001f34:	2b00      	cmp	r3, #0
 8001f36:	dd01      	ble.n	8001f3c <MPU6050_Calibrate+0x1a4>
 8001f38:	2201      	movs	r2, #1
 8001f3a:	e001      	b.n	8001f40 <MPU6050_Calibrate+0x1a8>
 8001f3c:	f04f 32ff 	mov.w	r2, #4294967295
 8001f40:	4b38      	ldr	r3, [pc, #224]	@ (8002024 <MPU6050_Calibrate+0x28c>)
 8001f42:	701a      	strb	r2, [r3, #0]
 8001f44:	e00c      	b.n	8001f60 <MPU6050_Calibrate+0x1c8>
	} else {
		Vertical_Axis = 2;
 8001f46:	4b36      	ldr	r3, [pc, #216]	@ (8002020 <MPU6050_Calibrate+0x288>)
 8001f48:	2202      	movs	r2, #2
 8001f4a:	701a      	strb	r2, [r3, #0]
		Vertical_Sign = (AvgZ > 0) ? 1 : -1;
 8001f4c:	f9b7 302e 	ldrsh.w	r3, [r7, #46]	@ 0x2e
 8001f50:	2b00      	cmp	r3, #0
 8001f52:	dd01      	ble.n	8001f58 <MPU6050_Calibrate+0x1c0>
 8001f54:	2201      	movs	r2, #1
 8001f56:	e001      	b.n	8001f5c <MPU6050_Calibrate+0x1c4>
 8001f58:	f04f 32ff 	mov.w	r2, #4294967295
 8001f5c:	4b31      	ldr	r3, [pc, #196]	@ (8002024 <MPU6050_Calibrate+0x28c>)
 8001f5e:	701a      	strb	r2, [r3, #0]
	}
	GyroX_Offset = Ag[0] / 1000;
 8001f60:	697b      	ldr	r3, [r7, #20]
 8001f62:	4a2e      	ldr	r2, [pc, #184]	@ (800201c <MPU6050_Calibrate+0x284>)
 8001f64:	fb82 1203 	smull	r1, r2, r2, r3
 8001f68:	1192      	asrs	r2, r2, #6
 8001f6a:	17db      	asrs	r3, r3, #31
 8001f6c:	1ad3      	subs	r3, r2, r3
 8001f6e:	b21a      	sxth	r2, r3
 8001f70:	4b2d      	ldr	r3, [pc, #180]	@ (8002028 <MPU6050_Calibrate+0x290>)
 8001f72:	801a      	strh	r2, [r3, #0]
	GyroY_Offset = Ag[1] / 1000;
 8001f74:	69bb      	ldr	r3, [r7, #24]
 8001f76:	4a29      	ldr	r2, [pc, #164]	@ (800201c <MPU6050_Calibrate+0x284>)
 8001f78:	fb82 1203 	smull	r1, r2, r2, r3
 8001f7c:	1192      	asrs	r2, r2, #6
 8001f7e:	17db      	asrs	r3, r3, #31
 8001f80:	1ad3      	subs	r3, r2, r3
 8001f82:	b21a      	sxth	r2, r3
 8001f84:	4b29      	ldr	r3, [pc, #164]	@ (800202c <MPU6050_Calibrate+0x294>)
 8001f86:	801a      	strh	r2, [r3, #0]
	GyroZ_Offset = Ag[2] / 1000;
 8001f88:	69fb      	ldr	r3, [r7, #28]
 8001f8a:	4a24      	ldr	r2, [pc, #144]	@ (800201c <MPU6050_Calibrate+0x284>)
 8001f8c:	fb82 1203 	smull	r1, r2, r2, r3
 8001f90:	1192      	asrs	r2, r2, #6
 8001f92:	17db      	asrs	r3, r3, #31
 8001f94:	1ad3      	subs	r3, r2, r3
 8001f96:	b21a      	sxth	r2, r3
 8001f98:	4b25      	ldr	r3, [pc, #148]	@ (8002030 <MPU6050_Calibrate+0x298>)
 8001f9a:	801a      	strh	r2, [r3, #0]
	int16_t gRaw = MPU_1G_RAW * Vertical_Sign;
 8001f9c:	4b21      	ldr	r3, [pc, #132]	@ (8002024 <MPU6050_Calibrate+0x28c>)
 8001f9e:	f993 3000 	ldrsb.w	r3, [r3]
 8001fa2:	b29b      	uxth	r3, r3
 8001fa4:	02db      	lsls	r3, r3, #11
 8001fa6:	b29b      	uxth	r3, r3
 8001fa8:	85bb      	strh	r3, [r7, #44]	@ 0x2c
	AccX_Offset = AvgX;
 8001faa:	4a22      	ldr	r2, [pc, #136]	@ (8002034 <MPU6050_Calibrate+0x29c>)
 8001fac:	8e7b      	ldrh	r3, [r7, #50]	@ 0x32
 8001fae:	8013      	strh	r3, [r2, #0]
	AccY_Offset = AvgY;
 8001fb0:	4a21      	ldr	r2, [pc, #132]	@ (8002038 <MPU6050_Calibrate+0x2a0>)
 8001fb2:	8e3b      	ldrh	r3, [r7, #48]	@ 0x30
 8001fb4:	8013      	strh	r3, [r2, #0]
	AccZ_Offset = AvgZ;
 8001fb6:	4a21      	ldr	r2, [pc, #132]	@ (800203c <MPU6050_Calibrate+0x2a4>)
 8001fb8:	8dfb      	ldrh	r3, [r7, #46]	@ 0x2e
 8001fba:	8013      	strh	r3, [r2, #0]
	if (Vertical_Axis == 0)
 8001fbc:	4b18      	ldr	r3, [pc, #96]	@ (8002020 <MPU6050_Calibrate+0x288>)
 8001fbe:	781b      	ldrb	r3, [r3, #0]
 8001fc0:	2b00      	cmp	r3, #0
 8001fc2:	d109      	bne.n	8001fd8 <MPU6050_Calibrate+0x240>
		AccX_Offset -= gRaw;
 8001fc4:	4b1b      	ldr	r3, [pc, #108]	@ (8002034 <MPU6050_Calibrate+0x29c>)
 8001fc6:	f9b3 3000 	ldrsh.w	r3, [r3]
 8001fca:	b29a      	uxth	r2, r3
 8001fcc:	8dbb      	ldrh	r3, [r7, #44]	@ 0x2c
 8001fce:	1ad3      	subs	r3, r2, r3
 8001fd0:	b29b      	uxth	r3, r3
 8001fd2:	b21a      	sxth	r2, r3
 8001fd4:	4b17      	ldr	r3, [pc, #92]	@ (8002034 <MPU6050_Calibrate+0x29c>)
 8001fd6:	801a      	strh	r2, [r3, #0]
	if (Vertical_Axis == 1)
 8001fd8:	4b11      	ldr	r3, [pc, #68]	@ (8002020 <MPU6050_Calibrate+0x288>)
 8001fda:	781b      	ldrb	r3, [r3, #0]
 8001fdc:	2b01      	cmp	r3, #1
 8001fde:	d109      	bne.n	8001ff4 <MPU6050_Calibrate+0x25c>
		AccY_Offset -= gRaw;
 8001fe0:	4b15      	ldr	r3, [pc, #84]	@ (8002038 <MPU6050_Calibrate+0x2a0>)
 8001fe2:	f9b3 3000 	ldrsh.w	r3, [r3]
 8001fe6:	b29a      	uxth	r2, r3
 8001fe8:	8dbb      	ldrh	r3, [r7, #44]	@ 0x2c
 8001fea:	1ad3      	subs	r3, r2, r3
 8001fec:	b29b      	uxth	r3, r3
 8001fee:	b21a      	sxth	r2, r3
 8001ff0:	4b11      	ldr	r3, [pc, #68]	@ (8002038 <MPU6050_Calibrate+0x2a0>)
 8001ff2:	801a      	strh	r2, [r3, #0]
	if (Vertical_Axis == 2)
 8001ff4:	4b0a      	ldr	r3, [pc, #40]	@ (8002020 <MPU6050_Calibrate+0x288>)
 8001ff6:	781b      	ldrb	r3, [r3, #0]
 8001ff8:	2b02      	cmp	r3, #2
 8001ffa:	d109      	bne.n	8002010 <MPU6050_Calibrate+0x278>
		AccZ_Offset -= gRaw;
 8001ffc:	4b0f      	ldr	r3, [pc, #60]	@ (800203c <MPU6050_Calibrate+0x2a4>)
 8001ffe:	f9b3 3000 	ldrsh.w	r3, [r3]
 8002002:	b29a      	uxth	r2, r3
 8002004:	8dbb      	ldrh	r3, [r7, #44]	@ 0x2c
 8002006:	1ad3      	subs	r3, r2, r3
 8002008:	b29b      	uxth	r3, r3
 800200a:	b21a      	sxth	r2, r3
 800200c:	4b0b      	ldr	r3, [pc, #44]	@ (800203c <MPU6050_Calibrate+0x2a4>)
 800200e:	801a      	strh	r2, [r3, #0]
}
 8002010:	bf00      	nop
 8002012:	3738      	adds	r7, #56	@ 0x38
 8002014:	46bd      	mov	sp, r7
 8002016:	bd80      	pop	{r7, pc}
 8002018:	200001f4 	.word	0x200001f4
 800201c:	10624dd3 	.word	0x10624dd3
 8002020:	20000000 	.word	0x20000000
 8002024:	20000001 	.word	0x20000001
 8002028:	20000308 	.word	0x20000308
 800202c:	2000030a 	.word	0x2000030a
 8002030:	2000030c 	.word	0x2000030c
 8002034:	20000302 	.word	0x20000302
 8002038:	20000304 	.word	0x20000304
 800203c:	20000306 	.word	0x20000306

08002040 <MPU6050_Read_AccelGyro>:

void MPU6050_Read_AccelGyro(void) {
 8002040:	b580      	push	{r7, lr}
 8002042:	b08c      	sub	sp, #48	@ 0x30
 8002044:	af04      	add	r7, sp, #16
	uint8_t Rec[14];
	HAL_I2C_Mem_Read(&hi2c1, MPU6050_ADDR, MPU_REG_ACCEL_XOUT_H, 1, Rec, 14,
 8002046:	f44f 737a 	mov.w	r3, #1000	@ 0x3e8
 800204a:	9302      	str	r3, [sp, #8]
 800204c:	230e      	movs	r3, #14
 800204e:	9301      	str	r3, [sp, #4]
 8002050:	1d3b      	adds	r3, r7, #4
 8002052:	9300      	str	r3, [sp, #0]
 8002054:	2301      	movs	r3, #1
 8002056:	223b      	movs	r2, #59	@ 0x3b
 8002058:	21d0      	movs	r1, #208	@ 0xd0
 800205a:	486b      	ldr	r0, [pc, #428]	@ (8002208 <MPU6050_Read_AccelGyro+0x1c8>)
 800205c:	f001 fa32 	bl	80034c4 <HAL_I2C_Mem_Read>
			1000);
	int16_t rX = (int16_t) (Rec[0] << 8 | Rec[1]), rY = (int16_t) (Rec[2] << 8
 8002060:	793b      	ldrb	r3, [r7, #4]
 8002062:	b21b      	sxth	r3, r3
 8002064:	021b      	lsls	r3, r3, #8
 8002066:	b21a      	sxth	r2, r3
 8002068:	797b      	ldrb	r3, [r7, #5]
 800206a:	b21b      	sxth	r3, r3
 800206c:	4313      	orrs	r3, r2
 800206e:	83fb      	strh	r3, [r7, #30]
 8002070:	79bb      	ldrb	r3, [r7, #6]
 8002072:	b21b      	sxth	r3, r3
 8002074:	021b      	lsls	r3, r3, #8
 8002076:	b21a      	sxth	r2, r3
			| Rec[3]), rZ = (int16_t) (Rec[4] << 8 | Rec[5]);
 8002078:	79fb      	ldrb	r3, [r7, #7]
 800207a:	b21b      	sxth	r3, r3
	int16_t rX = (int16_t) (Rec[0] << 8 | Rec[1]), rY = (int16_t) (Rec[2] << 8
 800207c:	4313      	orrs	r3, r2
 800207e:	83bb      	strh	r3, [r7, #28]
			| Rec[3]), rZ = (int16_t) (Rec[4] << 8 | Rec[5]);
 8002080:	7a3b      	ldrb	r3, [r7, #8]
 8002082:	b21b      	sxth	r3, r3
 8002084:	021b      	lsls	r3, r3, #8
 8002086:	b21a      	sxth	r2, r3
 8002088:	7a7b      	ldrb	r3, [r7, #9]
 800208a:	b21b      	sxth	r3, r3
 800208c:	4313      	orrs	r3, r2
 800208e:	837b      	strh	r3, [r7, #26]
	int16_t rGx = (int16_t) (Rec[8] << 8 | Rec[9]), rGy = (int16_t) (Rec[10]
 8002090:	7b3b      	ldrb	r3, [r7, #12]
 8002092:	b21b      	sxth	r3, r3
 8002094:	021b      	lsls	r3, r3, #8
 8002096:	b21a      	sxth	r2, r3
 8002098:	7b7b      	ldrb	r3, [r7, #13]
 800209a:	b21b      	sxth	r3, r3
 800209c:	4313      	orrs	r3, r2
 800209e:	833b      	strh	r3, [r7, #24]
 80020a0:	7bbb      	ldrb	r3, [r7, #14]
 80020a2:	b21b      	sxth	r3, r3
 80020a4:	021b      	lsls	r3, r3, #8
 80020a6:	b21a      	sxth	r2, r3
			<< 8 | Rec[11]), rGz = (int16_t) (Rec[12] << 8 | Rec[13]);
 80020a8:	7bfb      	ldrb	r3, [r7, #15]
 80020aa:	b21b      	sxth	r3, r3
	int16_t rGx = (int16_t) (Rec[8] << 8 | Rec[9]), rGy = (int16_t) (Rec[10]
 80020ac:	4313      	orrs	r3, r2
 80020ae:	82fb      	strh	r3, [r7, #22]
			<< 8 | Rec[11]), rGz = (int16_t) (Rec[12] << 8 | Rec[13]);
 80020b0:	7c3b      	ldrb	r3, [r7, #16]
 80020b2:	b21b      	sxth	r3, r3
 80020b4:	021b      	lsls	r3, r3, #8
 80020b6:	b21a      	sxth	r2, r3
 80020b8:	7c7b      	ldrb	r3, [r7, #17]
 80020ba:	b21b      	sxth	r3, r3
 80020bc:	4313      	orrs	r3, r2
 80020be:	82bb      	strh	r3, [r7, #20]
	rX -= AccX_Offset;
 80020c0:	8bfa      	ldrh	r2, [r7, #30]
 80020c2:	4b52      	ldr	r3, [pc, #328]	@ (800220c <MPU6050_Read_AccelGyro+0x1cc>)
 80020c4:	f9b3 3000 	ldrsh.w	r3, [r3]
 80020c8:	b29b      	uxth	r3, r3
 80020ca:	1ad3      	subs	r3, r2, r3
 80020cc:	b29b      	uxth	r3, r3
 80020ce:	83fb      	strh	r3, [r7, #30]
	rY -= AccY_Offset;
 80020d0:	8bba      	ldrh	r2, [r7, #28]
 80020d2:	4b4f      	ldr	r3, [pc, #316]	@ (8002210 <MPU6050_Read_AccelGyro+0x1d0>)
 80020d4:	f9b3 3000 	ldrsh.w	r3, [r3]
 80020d8:	b29b      	uxth	r3, r3
 80020da:	1ad3      	subs	r3, r2, r3
 80020dc:	b29b      	uxth	r3, r3
 80020de:	83bb      	strh	r3, [r7, #28]
	rZ -= AccZ_Offset;
 80020e0:	8b7a      	ldrh	r2, [r7, #26]
 80020e2:	4b4c      	ldr	r3, [pc, #304]	@ (8002214 <MPU6050_Read_AccelGyro+0x1d4>)
 80020e4:	f9b3 3000 	ldrsh.w	r3, [r3]
 80020e8:	b29b      	uxth	r3, r3
 80020ea:	1ad3      	subs	r3, r2, r3
 80020ec:	b29b      	uxth	r3, r3
 80020ee:	837b      	strh	r3, [r7, #26]
	rGx -= GyroX_Offset;
 80020f0:	8b3a      	ldrh	r2, [r7, #24]
 80020f2:	4b49      	ldr	r3, [pc, #292]	@ (8002218 <MPU6050_Read_AccelGyro+0x1d8>)
 80020f4:	f9b3 3000 	ldrsh.w	r3, [r3]
 80020f8:	b29b      	uxth	r3, r3
 80020fa:	1ad3      	subs	r3, r2, r3
 80020fc:	b29b      	uxth	r3, r3
 80020fe:	833b      	strh	r3, [r7, #24]
	rGy -= GyroY_Offset;
 8002100:	8afa      	ldrh	r2, [r7, #22]
 8002102:	4b46      	ldr	r3, [pc, #280]	@ (800221c <MPU6050_Read_AccelGyro+0x1dc>)
 8002104:	f9b3 3000 	ldrsh.w	r3, [r3]
 8002108:	b29b      	uxth	r3, r3
 800210a:	1ad3      	subs	r3, r2, r3
 800210c:	b29b      	uxth	r3, r3
 800210e:	82fb      	strh	r3, [r7, #22]
	rGz -= GyroZ_Offset;
 8002110:	8aba      	ldrh	r2, [r7, #20]
 8002112:	4b43      	ldr	r3, [pc, #268]	@ (8002220 <MPU6050_Read_AccelGyro+0x1e0>)
 8002114:	f9b3 3000 	ldrsh.w	r3, [r3]
 8002118:	b29b      	uxth	r3, r3
 800211a:	1ad3      	subs	r3, r2, r3
 800211c:	b29b      	uxth	r3, r3
 800211e:	82bb      	strh	r3, [r7, #20]
	if (Vertical_Axis == 0) {
 8002120:	4b40      	ldr	r3, [pc, #256]	@ (8002224 <MPU6050_Read_AccelGyro+0x1e4>)
 8002122:	781b      	ldrb	r3, [r3, #0]
 8002124:	2b00      	cmp	r3, #0
 8002126:	d122      	bne.n	800216e <MPU6050_Read_AccelGyro+0x12e>
		vehicleState.AccZ = rX * Vertical_Sign;
 8002128:	4b3f      	ldr	r3, [pc, #252]	@ (8002228 <MPU6050_Read_AccelGyro+0x1e8>)
 800212a:	f993 3000 	ldrsb.w	r3, [r3]
 800212e:	b29a      	uxth	r2, r3
 8002130:	8bfb      	ldrh	r3, [r7, #30]
 8002132:	fb12 f303 	smulbb	r3, r2, r3
 8002136:	b29b      	uxth	r3, r3
 8002138:	b21a      	sxth	r2, r3
 800213a:	4b3c      	ldr	r3, [pc, #240]	@ (800222c <MPU6050_Read_AccelGyro+0x1ec>)
 800213c:	809a      	strh	r2, [r3, #4]
		vehicleState.AccY = rY;
 800213e:	4a3b      	ldr	r2, [pc, #236]	@ (800222c <MPU6050_Read_AccelGyro+0x1ec>)
 8002140:	8bbb      	ldrh	r3, [r7, #28]
 8002142:	8053      	strh	r3, [r2, #2]
		vehicleState.AccX = rZ;
 8002144:	4a39      	ldr	r2, [pc, #228]	@ (800222c <MPU6050_Read_AccelGyro+0x1ec>)
 8002146:	8b7b      	ldrh	r3, [r7, #26]
 8002148:	8013      	strh	r3, [r2, #0]
		vehicleState.GyroZ = rGx * Vertical_Sign;
 800214a:	4b37      	ldr	r3, [pc, #220]	@ (8002228 <MPU6050_Read_AccelGyro+0x1e8>)
 800214c:	f993 3000 	ldrsb.w	r3, [r3]
 8002150:	b29a      	uxth	r2, r3
 8002152:	8b3b      	ldrh	r3, [r7, #24]
 8002154:	fb12 f303 	smulbb	r3, r2, r3
 8002158:	b29b      	uxth	r3, r3
 800215a:	b21a      	sxth	r2, r3
 800215c:	4b33      	ldr	r3, [pc, #204]	@ (800222c <MPU6050_Read_AccelGyro+0x1ec>)
 800215e:	815a      	strh	r2, [r3, #10]
		vehicleState.GyroY = rGy;
 8002160:	4a32      	ldr	r2, [pc, #200]	@ (800222c <MPU6050_Read_AccelGyro+0x1ec>)
 8002162:	8afb      	ldrh	r3, [r7, #22]
 8002164:	8113      	strh	r3, [r2, #8]
		vehicleState.GyroX = rGz;
 8002166:	4a31      	ldr	r2, [pc, #196]	@ (800222c <MPU6050_Read_AccelGyro+0x1ec>)
 8002168:	8abb      	ldrh	r3, [r7, #20]
 800216a:	80d3      	strh	r3, [r2, #6]
		vehicleState.AccY = rY;
		vehicleState.GyroZ = rGz * Vertical_Sign;
		vehicleState.GyroX = rGx;
		vehicleState.GyroY = rGy;
	}
}
 800216c:	e048      	b.n	8002200 <MPU6050_Read_AccelGyro+0x1c0>
	} else if (Vertical_Axis == 1) {
 800216e:	4b2d      	ldr	r3, [pc, #180]	@ (8002224 <MPU6050_Read_AccelGyro+0x1e4>)
 8002170:	781b      	ldrb	r3, [r3, #0]
 8002172:	2b01      	cmp	r3, #1
 8002174:	d122      	bne.n	80021bc <MPU6050_Read_AccelGyro+0x17c>
		vehicleState.AccZ = rY * Vertical_Sign;
 8002176:	4b2c      	ldr	r3, [pc, #176]	@ (8002228 <MPU6050_Read_AccelGyro+0x1e8>)
 8002178:	f993 3000 	ldrsb.w	r3, [r3]
 800217c:	b29a      	uxth	r2, r3
 800217e:	8bbb      	ldrh	r3, [r7, #28]
 8002180:	fb12 f303 	smulbb	r3, r2, r3
 8002184:	b29b      	uxth	r3, r3
 8002186:	b21a      	sxth	r2, r3
 8002188:	4b28      	ldr	r3, [pc, #160]	@ (800222c <MPU6050_Read_AccelGyro+0x1ec>)
 800218a:	809a      	strh	r2, [r3, #4]
		vehicleState.AccX = rX;
 800218c:	4a27      	ldr	r2, [pc, #156]	@ (800222c <MPU6050_Read_AccelGyro+0x1ec>)
 800218e:	8bfb      	ldrh	r3, [r7, #30]
 8002190:	8013      	strh	r3, [r2, #0]
		vehicleState.AccY = rZ;
 8002192:	4a26      	ldr	r2, [pc, #152]	@ (800222c <MPU6050_Read_AccelGyro+0x1ec>)
 8002194:	8b7b      	ldrh	r3, [r7, #26]
 8002196:	8053      	strh	r3, [r2, #2]
		vehicleState.GyroZ = rGy * Vertical_Sign;
 8002198:	4b23      	ldr	r3, [pc, #140]	@ (8002228 <MPU6050_Read_AccelGyro+0x1e8>)
 800219a:	f993 3000 	ldrsb.w	r3, [r3]
 800219e:	b29a      	uxth	r2, r3
 80021a0:	8afb      	ldrh	r3, [r7, #22]
 80021a2:	fb12 f303 	smulbb	r3, r2, r3
 80021a6:	b29b      	uxth	r3, r3
 80021a8:	b21a      	sxth	r2, r3
 80021aa:	4b20      	ldr	r3, [pc, #128]	@ (800222c <MPU6050_Read_AccelGyro+0x1ec>)
 80021ac:	815a      	strh	r2, [r3, #10]
		vehicleState.GyroX = rGx;
 80021ae:	4a1f      	ldr	r2, [pc, #124]	@ (800222c <MPU6050_Read_AccelGyro+0x1ec>)
 80021b0:	8b3b      	ldrh	r3, [r7, #24]
 80021b2:	80d3      	strh	r3, [r2, #6]
		vehicleState.GyroY = rGz;
 80021b4:	4a1d      	ldr	r2, [pc, #116]	@ (800222c <MPU6050_Read_AccelGyro+0x1ec>)
 80021b6:	8abb      	ldrh	r3, [r7, #20]
 80021b8:	8113      	strh	r3, [r2, #8]
}
 80021ba:	e021      	b.n	8002200 <MPU6050_Read_AccelGyro+0x1c0>
		vehicleState.AccZ = rZ * Vertical_Sign;
 80021bc:	4b1a      	ldr	r3, [pc, #104]	@ (8002228 <MPU6050_Read_AccelGyro+0x1e8>)
 80021be:	f993 3000 	ldrsb.w	r3, [r3]
 80021c2:	b29a      	uxth	r2, r3
 80021c4:	8b7b      	ldrh	r3, [r7, #26]
 80021c6:	fb12 f303 	smulbb	r3, r2, r3
 80021ca:	b29b      	uxth	r3, r3
 80021cc:	b21a      	sxth	r2, r3
 80021ce:	4b17      	ldr	r3, [pc, #92]	@ (800222c <MPU6050_Read_AccelGyro+0x1ec>)
 80021d0:	809a      	strh	r2, [r3, #4]
		vehicleState.AccX = rX;
 80021d2:	4a16      	ldr	r2, [pc, #88]	@ (800222c <MPU6050_Read_AccelGyro+0x1ec>)
 80021d4:	8bfb      	ldrh	r3, [r7, #30]
 80021d6:	8013      	strh	r3, [r2, #0]
		vehicleState.AccY = rY;
 80021d8:	4a14      	ldr	r2, [pc, #80]	@ (800222c <MPU6050_Read_AccelGyro+0x1ec>)
 80021da:	8bbb      	ldrh	r3, [r7, #28]
 80021dc:	8053      	strh	r3, [r2, #2]
		vehicleState.GyroZ = rGz * Vertical_Sign;
 80021de:	4b12      	ldr	r3, [pc, #72]	@ (8002228 <MPU6050_Read_AccelGyro+0x1e8>)
 80021e0:	f993 3000 	ldrsb.w	r3, [r3]
 80021e4:	b29a      	uxth	r2, r3
 80021e6:	8abb      	ldrh	r3, [r7, #20]
 80021e8:	fb12 f303 	smulbb	r3, r2, r3
 80021ec:	b29b      	uxth	r3, r3
 80021ee:	b21a      	sxth	r2, r3
 80021f0:	4b0e      	ldr	r3, [pc, #56]	@ (800222c <MPU6050_Read_AccelGyro+0x1ec>)
 80021f2:	815a      	strh	r2, [r3, #10]
		vehicleState.GyroX = rGx;
 80021f4:	4a0d      	ldr	r2, [pc, #52]	@ (800222c <MPU6050_Read_AccelGyro+0x1ec>)
 80021f6:	8b3b      	ldrh	r3, [r7, #24]
 80021f8:	80d3      	strh	r3, [r2, #6]
		vehicleState.GyroY = rGy;
 80021fa:	4a0c      	ldr	r2, [pc, #48]	@ (800222c <MPU6050_Read_AccelGyro+0x1ec>)
 80021fc:	8afb      	ldrh	r3, [r7, #22]
 80021fe:	8113      	strh	r3, [r2, #8]
}
 8002200:	bf00      	nop
 8002202:	3720      	adds	r7, #32
 8002204:	46bd      	mov	sp, r7
 8002206:	bd80      	pop	{r7, pc}
 8002208:	200001f4 	.word	0x200001f4
 800220c:	20000302 	.word	0x20000302
 8002210:	20000304 	.word	0x20000304
 8002214:	20000306 	.word	0x20000306
 8002218:	20000308 	.word	0x20000308
 800221c:	2000030a 	.word	0x2000030a
 8002220:	2000030c 	.word	0x2000030c
 8002224:	20000000 	.word	0x20000000
 8002228:	20000001 	.word	0x20000001
 800222c:	200002d8 	.word	0x200002d8

08002230 <SystemClock_Config>:

void SystemClock_Config(void) {
 8002230:	b580      	push	{r7, lr}
 8002232:	b094      	sub	sp, #80	@ 0x50
 8002234:	af00      	add	r7, sp, #0
	RCC_OscInitTypeDef RCC_OscInitStruct = { 0 };
 8002236:	f107 0320 	add.w	r3, r7, #32
 800223a:	2230      	movs	r2, #48	@ 0x30
 800223c:	2100      	movs	r1, #0
 800223e:	4618      	mov	r0, r3
 8002240:	f005 f813 	bl	800726a <memset>
	RCC_ClkInitTypeDef RCC_ClkInitStruct = { 0 };
 8002244:	f107 030c 	add.w	r3, r7, #12
 8002248:	2200      	movs	r2, #0
 800224a:	601a      	str	r2, [r3, #0]
 800224c:	605a      	str	r2, [r3, #4]
 800224e:	609a      	str	r2, [r3, #8]
 8002250:	60da      	str	r2, [r3, #12]
 8002252:	611a      	str	r2, [r3, #16]
	__HAL_RCC_PWR_CLK_ENABLE();
 8002254:	2300      	movs	r3, #0
 8002256:	60bb      	str	r3, [r7, #8]
 8002258:	4b23      	ldr	r3, [pc, #140]	@ (80022e8 <SystemClock_Config+0xb8>)
 800225a:	6c1b      	ldr	r3, [r3, #64]	@ 0x40
 800225c:	4a22      	ldr	r2, [pc, #136]	@ (80022e8 <SystemClock_Config+0xb8>)
 800225e:	f043 5380 	orr.w	r3, r3, #268435456	@ 0x10000000
 8002262:	6413      	str	r3, [r2, #64]	@ 0x40
 8002264:	4b20      	ldr	r3, [pc, #128]	@ (80022e8 <SystemClock_Config+0xb8>)
 8002266:	6c1b      	ldr	r3, [r3, #64]	@ 0x40
 8002268:	f003 5380 	and.w	r3, r3, #268435456	@ 0x10000000
 800226c:	60bb      	str	r3, [r7, #8]
 800226e:	68bb      	ldr	r3, [r7, #8]
	__HAL_PWR_VOLTAGESCALING_CONFIG(PWR_REGULATOR_VOLTAGE_SCALE2);
 8002270:	2300      	movs	r3, #0
 8002272:	607b      	str	r3, [r7, #4]
 8002274:	4b1d      	ldr	r3, [pc, #116]	@ (80022ec <SystemClock_Config+0xbc>)
 8002276:	681b      	ldr	r3, [r3, #0]
 8002278:	f423 4340 	bic.w	r3, r3, #49152	@ 0xc000
 800227c:	4a1b      	ldr	r2, [pc, #108]	@ (80022ec <SystemClock_Config+0xbc>)
 800227e:	f443 4300 	orr.w	r3, r3, #32768	@ 0x8000
 8002282:	6013      	str	r3, [r2, #0]
 8002284:	4b19      	ldr	r3, [pc, #100]	@ (80022ec <SystemClock_Config+0xbc>)
 8002286:	681b      	ldr	r3, [r3, #0]
 8002288:	f403 4340 	and.w	r3, r3, #49152	@ 0xc000
 800228c:	607b      	str	r3, [r7, #4]
 800228e:	687b      	ldr	r3, [r7, #4]
	RCC_OscInitStruct.OscillatorType = RCC_OSCILLATORTYPE_HSI;
 8002290:	2302      	movs	r3, #2
 8002292:	623b      	str	r3, [r7, #32]
	RCC_OscInitStruct.HSIState = RCC_HSI_ON;
 8002294:	2301      	movs	r3, #1
 8002296:	62fb      	str	r3, [r7, #44]	@ 0x2c
	RCC_OscInitStruct.HSICalibrationValue = RCC_HSICALIBRATION_DEFAULT;
 8002298:	2310      	movs	r3, #16
 800229a:	633b      	str	r3, [r7, #48]	@ 0x30
	RCC_OscInitStruct.PLL.PLLState = RCC_PLL_ON;
 800229c:	2302      	movs	r3, #2
 800229e:	63bb      	str	r3, [r7, #56]	@ 0x38
	RCC_OscInitStruct.PLL.PLLSource = RCC_PLLSOURCE_HSI;
 80022a0:	2300      	movs	r3, #0
 80022a2:	63fb      	str	r3, [r7, #60]	@ 0x3c
	RCC_OscInitStruct.PLL.PLLM = 8;
 80022a4:	2308      	movs	r3, #8
 80022a6:	643b      	str	r3, [r7, #64]	@ 0x40
	RCC_OscInitStruct.PLL.PLLN = 84;
 80022a8:	2354      	movs	r3, #84	@ 0x54
 80022aa:	647b      	str	r3, [r7, #68]	@ 0x44
	RCC_OscInitStruct.PLL.PLLP = RCC_PLLP_DIV2;
 80022ac:	2302      	movs	r3, #2
 80022ae:	64bb      	str	r3, [r7, #72]	@ 0x48
	RCC_OscInitStruct.PLL.PLLQ = 4;
 80022b0:	2304      	movs	r3, #4
 80022b2:	64fb      	str	r3, [r7, #76]	@ 0x4c
	HAL_RCC_OscConfig(&RCC_OscInitStruct);
 80022b4:	f107 0320 	add.w	r3, r7, #32
 80022b8:	4618      	mov	r0, r3
 80022ba:	f001 fee9 	bl	8004090 <HAL_RCC_OscConfig>
	RCC_ClkInitStruct.ClockType = RCC_CLOCKTYPE_HCLK | RCC_CLOCKTYPE_SYSCLK
 80022be:	230f      	movs	r3, #15
 80022c0:	60fb      	str	r3, [r7, #12]
			| RCC_CLOCKTYPE_PCLK1 | RCC_CLOCKTYPE_PCLK2;
	RCC_ClkInitStruct.SYSCLKSource = RCC_SYSCLKSOURCE_PLLCLK;
 80022c2:	2302      	movs	r3, #2
 80022c4:	613b      	str	r3, [r7, #16]
	RCC_ClkInitStruct.AHBCLKDivider = RCC_SYSCLK_DIV1;
 80022c6:	2300      	movs	r3, #0
 80022c8:	617b      	str	r3, [r7, #20]
	RCC_ClkInitStruct.APB1CLKDivider = RCC_HCLK_DIV2;
 80022ca:	f44f 5380 	mov.w	r3, #4096	@ 0x1000
 80022ce:	61bb      	str	r3, [r7, #24]
	RCC_ClkInitStruct.APB2CLKDivider = RCC_HCLK_DIV1;
 80022d0:	2300      	movs	r3, #0
 80022d2:	61fb      	str	r3, [r7, #28]
	HAL_RCC_ClockConfig(&RCC_ClkInitStruct, FLASH_LATENCY_2);
 80022d4:	f107 030c 	add.w	r3, r7, #12
 80022d8:	2102      	movs	r1, #2
 80022da:	4618      	mov	r0, r3
 80022dc:	f002 f950 	bl	8004580 <HAL_RCC_ClockConfig>
}
 80022e0:	bf00      	nop
 80022e2:	3750      	adds	r7, #80	@ 0x50
 80022e4:	46bd      	mov	sp, r7
 80022e6:	bd80      	pop	{r7, pc}
 80022e8:	40023800 	.word	0x40023800
 80022ec:	40007000 	.word	0x40007000

080022f0 <MX_I2C1_Init>:
static void MX_I2C1_Init(void) {
 80022f0:	b580      	push	{r7, lr}
 80022f2:	af00      	add	r7, sp, #0
	hi2c1.Instance = I2C1;
 80022f4:	4b10      	ldr	r3, [pc, #64]	@ (8002338 <MX_I2C1_Init+0x48>)
 80022f6:	4a11      	ldr	r2, [pc, #68]	@ (800233c <MX_I2C1_Init+0x4c>)
 80022f8:	601a      	str	r2, [r3, #0]
	hi2c1.Init.ClockSpeed = 100000;
 80022fa:	4b0f      	ldr	r3, [pc, #60]	@ (8002338 <MX_I2C1_Init+0x48>)
 80022fc:	4a10      	ldr	r2, [pc, #64]	@ (8002340 <MX_I2C1_Init+0x50>)
 80022fe:	605a      	str	r2, [r3, #4]
	hi2c1.Init.DutyCycle = I2C_DUTYCYCLE_2;
 8002300:	4b0d      	ldr	r3, [pc, #52]	@ (8002338 <MX_I2C1_Init+0x48>)
 8002302:	2200      	movs	r2, #0
 8002304:	609a      	str	r2, [r3, #8]
	hi2c1.Init.OwnAddress1 = 0;
 8002306:	4b0c      	ldr	r3, [pc, #48]	@ (8002338 <MX_I2C1_Init+0x48>)
 8002308:	2200      	movs	r2, #0
 800230a:	60da      	str	r2, [r3, #12]
	hi2c1.Init.AddressingMode = I2C_ADDRESSINGMODE_7BIT;
 800230c:	4b0a      	ldr	r3, [pc, #40]	@ (8002338 <MX_I2C1_Init+0x48>)
 800230e:	f44f 4280 	mov.w	r2, #16384	@ 0x4000
 8002312:	611a      	str	r2, [r3, #16]
	hi2c1.Init.DualAddressMode = I2C_DUALADDRESS_DISABLE;
 8002314:	4b08      	ldr	r3, [pc, #32]	@ (8002338 <MX_I2C1_Init+0x48>)
 8002316:	2200      	movs	r2, #0
 8002318:	615a      	str	r2, [r3, #20]
	hi2c1.Init.OwnAddress2 = 0;
 800231a:	4b07      	ldr	r3, [pc, #28]	@ (8002338 <MX_I2C1_Init+0x48>)
 800231c:	2200      	movs	r2, #0
 800231e:	619a      	str	r2, [r3, #24]
	hi2c1.Init.GeneralCallMode = I2C_GENERALCALL_DISABLE;
 8002320:	4b05      	ldr	r3, [pc, #20]	@ (8002338 <MX_I2C1_Init+0x48>)
 8002322:	2200      	movs	r2, #0
 8002324:	61da      	str	r2, [r3, #28]
	hi2c1.Init.NoStretchMode = I2C_NOSTRETCH_DISABLE;
 8002326:	4b04      	ldr	r3, [pc, #16]	@ (8002338 <MX_I2C1_Init+0x48>)
 8002328:	2200      	movs	r2, #0
 800232a:	621a      	str	r2, [r3, #32]
	HAL_I2C_Init(&hi2c1);
 800232c:	4802      	ldr	r0, [pc, #8]	@ (8002338 <MX_I2C1_Init+0x48>)
 800232e:	f000 fe8b 	bl	8003048 <HAL_I2C_Init>
}
 8002332:	bf00      	nop
 8002334:	bd80      	pop	{r7, pc}
 8002336:	bf00      	nop
 8002338:	200001f4 	.word	0x200001f4
 800233c:	40005400 	.word	0x40005400
 8002340:	000186a0 	.word	0x000186a0

08002344 <MX_USART1_UART_Init>:
static void MX_USART1_UART_Init(void) {
 8002344:	b580      	push	{r7, lr}
 8002346:	af00      	add	r7, sp, #0
	huart1.Instance = USART1;
 8002348:	4b0e      	ldr	r3, [pc, #56]	@ (8002384 <MX_USART1_UART_Init+0x40>)
 800234a:	4a0f      	ldr	r2, [pc, #60]	@ (8002388 <MX_USART1_UART_Init+0x44>)
 800234c:	601a      	str	r2, [r3, #0]
	huart1.Init.BaudRate = 9600;
 800234e:	4b0d      	ldr	r3, [pc, #52]	@ (8002384 <MX_USART1_UART_Init+0x40>)
 8002350:	f44f 5216 	mov.w	r2, #9600	@ 0x2580
 8002354:	605a      	str	r2, [r3, #4]
	huart1.Init.WordLength = UART_WORDLENGTH_8B;
 8002356:	4b0b      	ldr	r3, [pc, #44]	@ (8002384 <MX_USART1_UART_Init+0x40>)
 8002358:	2200      	movs	r2, #0
 800235a:	609a      	str	r2, [r3, #8]
	huart1.Init.StopBits = UART_STOPBITS_1;
 800235c:	4b09      	ldr	r3, [pc, #36]	@ (8002384 <MX_USART1_UART_Init+0x40>)
 800235e:	2200      	movs	r2, #0
 8002360:	60da      	str	r2, [r3, #12]
	huart1.Init.Parity = UART_PARITY_NONE;
 8002362:	4b08      	ldr	r3, [pc, #32]	@ (8002384 <MX_USART1_UART_Init+0x40>)
 8002364:	2200      	movs	r2, #0
 8002366:	611a      	str	r2, [r3, #16]
	huart1.Init.Mode = UART_MODE_TX_RX;
 8002368:	4b06      	ldr	r3, [pc, #24]	@ (8002384 <MX_USART1_UART_Init+0x40>)
 800236a:	220c      	movs	r2, #12
 800236c:	615a      	str	r2, [r3, #20]
	huart1.Init.HwFlowCtl = UART_HWCONTROL_NONE;
 800236e:	4b05      	ldr	r3, [pc, #20]	@ (8002384 <MX_USART1_UART_Init+0x40>)
 8002370:	2200      	movs	r2, #0
 8002372:	619a      	str	r2, [r3, #24]
	huart1.Init.OverSampling = UART_OVERSAMPLING_16;
 8002374:	4b03      	ldr	r3, [pc, #12]	@ (8002384 <MX_USART1_UART_Init+0x40>)
 8002376:	2200      	movs	r2, #0
 8002378:	61da      	str	r2, [r3, #28]
	HAL_UART_Init(&huart1);
 800237a:	4802      	ldr	r0, [pc, #8]	@ (8002384 <MX_USART1_UART_Init+0x40>)
 800237c:	f002 fae0 	bl	8004940 <HAL_UART_Init>
}
 8002380:	bf00      	nop
 8002382:	bd80      	pop	{r7, pc}
 8002384:	20000248 	.word	0x20000248
 8002388:	40011000 	.word	0x40011000

0800238c <MX_GPIO_Init>:
static void MX_GPIO_Init(void) {
 800238c:	b580      	push	{r7, lr}
 800238e:	b088      	sub	sp, #32
 8002390:	af00      	add	r7, sp, #0
	GPIO_InitTypeDef GPIO_InitStruct = { 0 };
 8002392:	f107 030c 	add.w	r3, r7, #12
 8002396:	2200      	movs	r2, #0
 8002398:	601a      	str	r2, [r3, #0]
 800239a:	605a      	str	r2, [r3, #4]
 800239c:	609a      	str	r2, [r3, #8]
 800239e:	60da      	str	r2, [r3, #12]
 80023a0:	611a      	str	r2, [r3, #16]
	__HAL_RCC_GPIOC_CLK_ENABLE();
 80023a2:	2300      	movs	r3, #0
 80023a4:	60bb      	str	r3, [r7, #8]
 80023a6:	4b20      	ldr	r3, [pc, #128]	@ (8002428 <MX_GPIO_Init+0x9c>)
 80023a8:	6b1b      	ldr	r3, [r3, #48]	@ 0x30
 80023aa:	4a1f      	ldr	r2, [pc, #124]	@ (8002428 <MX_GPIO_Init+0x9c>)
 80023ac:	f043 0304 	orr.w	r3, r3, #4
 80023b0:	6313      	str	r3, [r2, #48]	@ 0x30
 80023b2:	4b1d      	ldr	r3, [pc, #116]	@ (8002428 <MX_GPIO_Init+0x9c>)
 80023b4:	6b1b      	ldr	r3, [r3, #48]	@ 0x30
 80023b6:	f003 0304 	and.w	r3, r3, #4
 80023ba:	60bb      	str	r3, [r7, #8]
 80023bc:	68bb      	ldr	r3, [r7, #8]
	__HAL_RCC_GPIOA_CLK_ENABLE();
 80023be:	2300      	movs	r3, #0
 80023c0:	607b      	str	r3, [r7, #4]
 80023c2:	4b19      	ldr	r3, [pc, #100]	@ (8002428 <MX_GPIO_Init+0x9c>)
 80023c4:	6b1b      	ldr	r3, [r3, #48]	@ 0x30
 80023c6:	4a18      	ldr	r2, [pc, #96]	@ (8002428 <MX_GPIO_Init+0x9c>)
 80023c8:	f043 0301 	orr.w	r3, r3, #1
 80023cc:	6313      	str	r3, [r2, #48]	@ 0x30
 80023ce:	4b16      	ldr	r3, [pc, #88]	@ (8002428 <MX_GPIO_Init+0x9c>)
 80023d0:	6b1b      	ldr	r3, [r3, #48]	@ 0x30
 80023d2:	f003 0301 	and.w	r3, r3, #1
 80023d6:	607b      	str	r3, [r7, #4]
 80023d8:	687b      	ldr	r3, [r7, #4]
	__HAL_RCC_GPIOB_CLK_ENABLE();
 80023da:	2300      	movs	r3, #0
 80023dc:	603b      	str	r3, [r7, #0]
 80023de:	4b12      	ldr	r3, [pc, #72]	@ (8002428 <MX_GPIO_Init+0x9c>)
 80023e0:	6b1b      	ldr	r3, [r3, #48]	@ 0x30
 80023e2:	4a11      	ldr	r2, [pc, #68]	@ (8002428 <MX_GPIO_Init+0x9c>)
 80023e4:	f043 0302 	orr.w	r3, r3, #2
 80023e8:	6313      	str	r3, [r2, #48]	@ 0x30
 80023ea:	4b0f      	ldr	r3, [pc, #60]	@ (8002428 <MX_GPIO_Init+0x9c>)
 80023ec:	6b1b      	ldr	r3, [r3, #48]	@ 0x30
 80023ee:	f003 0302 	and.w	r3, r3, #2
 80023f2:	603b      	str	r3, [r7, #0]
 80023f4:	683b      	ldr	r3, [r7, #0]
	HAL_GPIO_WritePin(GPIOC, GPIO_PIN_13, GPIO_PIN_RESET);
 80023f6:	2200      	movs	r2, #0
 80023f8:	f44f 5100 	mov.w	r1, #8192	@ 0x2000
 80023fc:	480b      	ldr	r0, [pc, #44]	@ (800242c <MX_GPIO_Init+0xa0>)
 80023fe:	f000 fdef 	bl	8002fe0 <HAL_GPIO_WritePin>
	GPIO_InitStruct.Pin = GPIO_PIN_13;
 8002402:	f44f 5300 	mov.w	r3, #8192	@ 0x2000
 8002406:	60fb      	str	r3, [r7, #12]
	GPIO_InitStruct.Mode = GPIO_MODE_OUTPUT_PP;
 8002408:	2301      	movs	r3, #1
 800240a:	613b      	str	r3, [r7, #16]
	GPIO_InitStruct.Pull = GPIO_NOPULL;
 800240c:	2300      	movs	r3, #0
 800240e:	617b      	str	r3, [r7, #20]
	GPIO_InitStruct.Speed = GPIO_SPEED_FREQ_LOW;
 8002410:	2300      	movs	r3, #0
 8002412:	61bb      	str	r3, [r7, #24]
	HAL_GPIO_Init(GPIOC, &GPIO_InitStruct);
 8002414:	f107 030c 	add.w	r3, r7, #12
 8002418:	4619      	mov	r1, r3
 800241a:	4804      	ldr	r0, [pc, #16]	@ (800242c <MX_GPIO_Init+0xa0>)
 800241c:	f000 fc5c 	bl	8002cd8 <HAL_GPIO_Init>
}
 8002420:	bf00      	nop
 8002422:	3720      	adds	r7, #32
 8002424:	46bd      	mov	sp, r7
 8002426:	bd80      	pop	{r7, pc}
 8002428:	40023800 	.word	0x40023800
 800242c:	40020800 	.word	0x40020800

08002430 <Error_Handler>:
void Error_Handler(void) {
 8002430:	b480      	push	{r7}
 8002432:	af00      	add	r7, sp, #0
  \details Disables IRQ interrupts by setting special-purpose register PRIMASK.
           Can only be executed in Privileged modes.
 */
__STATIC_FORCEINLINE void __disable_irq(void)
{
  __ASM volatile ("cpsid i" : : : "memory");
 8002434:	b672      	cpsid	i
}
 8002436:	bf00      	nop
	__disable_irq();
	while (1) {
 8002438:	bf00      	nop
 800243a:	e7fd      	b.n	8002438 <Error_Handler+0x8>

0800243c <HAL_MspInit>:
/* USER CODE END 0 */
/**
  * Initializes the Global MSP.
  */
void HAL_MspInit(void)
{
 800243c:	b480      	push	{r7}
 800243e:	b083      	sub	sp, #12
 8002440:	af00      	add	r7, sp, #0

  /* USER CODE BEGIN MspInit 0 */

  /* USER CODE END MspInit 0 */

  __HAL_RCC_SYSCFG_CLK_ENABLE();
 8002442:	2300      	movs	r3, #0
 8002444:	607b      	str	r3, [r7, #4]
 8002446:	4b10      	ldr	r3, [pc, #64]	@ (8002488 <HAL_MspInit+0x4c>)
 8002448:	6c5b      	ldr	r3, [r3, #68]	@ 0x44
 800244a:	4a0f      	ldr	r2, [pc, #60]	@ (8002488 <HAL_MspInit+0x4c>)
 800244c:	f443 4380 	orr.w	r3, r3, #16384	@ 0x4000
 8002450:	6453      	str	r3, [r2, #68]	@ 0x44
 8002452:	4b0d      	ldr	r3, [pc, #52]	@ (8002488 <HAL_MspInit+0x4c>)
 8002454:	6c5b      	ldr	r3, [r3, #68]	@ 0x44
 8002456:	f403 4380 	and.w	r3, r3, #16384	@ 0x4000
 800245a:	607b      	str	r3, [r7, #4]
 800245c:	687b      	ldr	r3, [r7, #4]
  __HAL_RCC_PWR_CLK_ENABLE();
 800245e:	2300      	movs	r3, #0
 8002460:	603b      	str	r3, [r7, #0]
 8002462:	4b09      	ldr	r3, [pc, #36]	@ (8002488 <HAL_MspInit+0x4c>)
 8002464:	6c1b      	ldr	r3, [r3, #64]	@ 0x40
 8002466:	4a08      	ldr	r2, [pc, #32]	@ (8002488 <HAL_MspInit+0x4c>)
 8002468:	f043 5380 	orr.w	r3, r3, #268435456	@ 0x10000000
 800246c:	6413      	str	r3, [r2, #64]	@ 0x40
 800246e:	4b06      	ldr	r3, [pc, #24]	@ (8002488 <HAL_MspInit+0x4c>)
 8002470:	6c1b      	ldr	r3, [r3, #64]	@ 0x40
 8002472:	f003 5380 	and.w	r3, r3, #268435456	@ 0x10000000
 8002476:	603b      	str	r3, [r7, #0]
 8002478:	683b      	ldr	r3, [r7, #0]
  /* System interrupt init*/

  /* USER CODE BEGIN MspInit 1 */

  /* USER CODE END MspInit 1 */
}
 800247a:	bf00      	nop
 800247c:	370c      	adds	r7, #12
 800247e:	46bd      	mov	sp, r7
 8002480:	f85d 7b04 	ldr.w	r7, [sp], #4
 8002484:	4770      	bx	lr
 8002486:	bf00      	nop
 8002488:	40023800 	.word	0x40023800

0800248c <HAL_I2C_MspInit>:
  * This function configures the hardware resources used in this example
  * @param hi2c: I2C handle pointer
  * @retval None
  */
void HAL_I2C_MspInit(I2C_HandleTypeDef* hi2c)
{
 800248c:	b580      	push	{r7, lr}
 800248e:	b08a      	sub	sp, #40	@ 0x28
 8002490:	af00      	add	r7, sp, #0
 8002492:	6078      	str	r0, [r7, #4]
  GPIO_InitTypeDef GPIO_InitStruct = {0};
 8002494:	f107 0314 	add.w	r3, r7, #20
 8002498:	2200      	movs	r2, #0
 800249a:	601a      	str	r2, [r3, #0]
 800249c:	605a      	str	r2, [r3, #4]
 800249e:	609a      	str	r2, [r3, #8]
 80024a0:	60da      	str	r2, [r3, #12]
 80024a2:	611a      	str	r2, [r3, #16]
  if(hi2c->Instance==I2C1)
 80024a4:	687b      	ldr	r3, [r7, #4]
 80024a6:	681b      	ldr	r3, [r3, #0]
 80024a8:	4a19      	ldr	r2, [pc, #100]	@ (8002510 <HAL_I2C_MspInit+0x84>)
 80024aa:	4293      	cmp	r3, r2
 80024ac:	d12b      	bne.n	8002506 <HAL_I2C_MspInit+0x7a>
  {
    /* USER CODE BEGIN I2C1_MspInit 0 */

    /* USER CODE END I2C1_MspInit 0 */

    __HAL_RCC_GPIOB_CLK_ENABLE();
 80024ae:	2300      	movs	r3, #0
 80024b0:	613b      	str	r3, [r7, #16]
 80024b2:	4b18      	ldr	r3, [pc, #96]	@ (8002514 <HAL_I2C_MspInit+0x88>)
 80024b4:	6b1b      	ldr	r3, [r3, #48]	@ 0x30
 80024b6:	4a17      	ldr	r2, [pc, #92]	@ (8002514 <HAL_I2C_MspInit+0x88>)
 80024b8:	f043 0302 	orr.w	r3, r3, #2
 80024bc:	6313      	str	r3, [r2, #48]	@ 0x30
 80024be:	4b15      	ldr	r3, [pc, #84]	@ (8002514 <HAL_I2C_MspInit+0x88>)
 80024c0:	6b1b      	ldr	r3, [r3, #48]	@ 0x30
 80024c2:	f003 0302 	and.w	r3, r3, #2
 80024c6:	613b      	str	r3, [r7, #16]
 80024c8:	693b      	ldr	r3, [r7, #16]
    /**I2C1 GPIO Configuration
    PB6     ------> I2C1_SCL
    PB7     ------> I2C1_SDA
    */
    GPIO_InitStruct.Pin = GPIO_PIN_6|GPIO_PIN_7;
 80024ca:	23c0      	movs	r3, #192	@ 0xc0
 80024cc:	617b      	str	r3, [r7, #20]
    GPIO_InitStruct.Mode = GPIO_MODE_AF_OD;
 80024ce:	2312      	movs	r3, #18
 80024d0:	61bb      	str	r3, [r7, #24]
    GPIO_InitStruct.Pull = GPIO_NOPULL;
 80024d2:	2300      	movs	r3, #0
 80024d4:	61fb      	str	r3, [r7, #28]
    GPIO_InitStruct.Speed = GPIO_SPEED_FREQ_VERY_HIGH;
 80024d6:	2303      	movs	r3, #3
 80024d8:	623b      	str	r3, [r7, #32]
    GPIO_InitStruct.Alternate = GPIO_AF4_I2C1;
 80024da:	2304      	movs	r3, #4
 80024dc:	627b      	str	r3, [r7, #36]	@ 0x24
    HAL_GPIO_Init(GPIOB, &GPIO_InitStruct);
 80024de:	f107 0314 	add.w	r3, r7, #20
 80024e2:	4619      	mov	r1, r3
 80024e4:	480c      	ldr	r0, [pc, #48]	@ (8002518 <HAL_I2C_MspInit+0x8c>)
 80024e6:	f000 fbf7 	bl	8002cd8 <HAL_GPIO_Init>

    /* Peripheral clock enable */
    __HAL_RCC_I2C1_CLK_ENABLE();
 80024ea:	2300      	movs	r3, #0
 80024ec:	60fb      	str	r3, [r7, #12]
 80024ee:	4b09      	ldr	r3, [pc, #36]	@ (8002514 <HAL_I2C_MspInit+0x88>)
 80024f0:	6c1b      	ldr	r3, [r3, #64]	@ 0x40
 80024f2:	4a08      	ldr	r2, [pc, #32]	@ (8002514 <HAL_I2C_MspInit+0x88>)
 80024f4:	f443 1300 	orr.w	r3, r3, #2097152	@ 0x200000
 80024f8:	6413      	str	r3, [r2, #64]	@ 0x40
 80024fa:	4b06      	ldr	r3, [pc, #24]	@ (8002514 <HAL_I2C_MspInit+0x88>)
 80024fc:	6c1b      	ldr	r3, [r3, #64]	@ 0x40
 80024fe:	f403 1300 	and.w	r3, r3, #2097152	@ 0x200000
 8002502:	60fb      	str	r3, [r7, #12]
 8002504:	68fb      	ldr	r3, [r7, #12]

    /* USER CODE END I2C1_MspInit 1 */

  }

}
 8002506:	bf00      	nop
 8002508:	3728      	adds	r7, #40	@ 0x28
 800250a:	46bd      	mov	sp, r7
 800250c:	bd80      	pop	{r7, pc}
 800250e:	bf00      	nop
 8002510:	40005400 	.word	0x40005400
 8002514:	40023800 	.word	0x40023800
 8002518:	40020400 	.word	0x40020400

0800251c <HAL_UART_MspInit>:
  * This function configures the hardware resources used in this example
  * @param huart: UART handle pointer
  * @retval None
  */
void HAL_UART_MspInit(UART_HandleTypeDef* huart)
{
 800251c:	b580      	push	{r7, lr}
 800251e:	b08c      	sub	sp, #48	@ 0x30
 8002520:	af00      	add	r7, sp, #0
 8002522:	6078      	str	r0, [r7, #4]
  GPIO_InitTypeDef GPIO_InitStruct = {0};
 8002524:	f107 031c 	add.w	r3, r7, #28
 8002528:	2200      	movs	r2, #0
 800252a:	601a      	str	r2, [r3, #0]
 800252c:	605a      	str	r2, [r3, #4]
 800252e:	609a      	str	r2, [r3, #8]
 8002530:	60da      	str	r2, [r3, #12]
 8002532:	611a      	str	r2, [r3, #16]
  if(huart->Instance==USART1)
 8002534:	687b      	ldr	r3, [r7, #4]
 8002536:	681b      	ldr	r3, [r3, #0]
 8002538:	4a36      	ldr	r2, [pc, #216]	@ (8002614 <HAL_UART_MspInit+0xf8>)
 800253a:	4293      	cmp	r3, r2
 800253c:	d135      	bne.n	80025aa <HAL_UART_MspInit+0x8e>
  {
    /* USER CODE BEGIN USART1_MspInit 0 */

    /* USER CODE END USART1_MspInit 0 */
    /* Peripheral clock enable */
    __HAL_RCC_USART1_CLK_ENABLE();
 800253e:	2300      	movs	r3, #0
 8002540:	61bb      	str	r3, [r7, #24]
 8002542:	4b35      	ldr	r3, [pc, #212]	@ (8002618 <HAL_UART_MspInit+0xfc>)
 8002544:	6c5b      	ldr	r3, [r3, #68]	@ 0x44
 8002546:	4a34      	ldr	r2, [pc, #208]	@ (8002618 <HAL_UART_MspInit+0xfc>)
 8002548:	f043 0310 	orr.w	r3, r3, #16
 800254c:	6453      	str	r3, [r2, #68]	@ 0x44
 800254e:	4b32      	ldr	r3, [pc, #200]	@ (8002618 <HAL_UART_MspInit+0xfc>)
 8002550:	6c5b      	ldr	r3, [r3, #68]	@ 0x44
 8002552:	f003 0310 	and.w	r3, r3, #16
 8002556:	61bb      	str	r3, [r7, #24]
 8002558:	69bb      	ldr	r3, [r7, #24]

    __HAL_RCC_GPIOA_CLK_ENABLE();
 800255a:	2300      	movs	r3, #0
 800255c:	617b      	str	r3, [r7, #20]
 800255e:	4b2e      	ldr	r3, [pc, #184]	@ (8002618 <HAL_UART_MspInit+0xfc>)
 8002560:	6b1b      	ldr	r3, [r3, #48]	@ 0x30
 8002562:	4a2d      	ldr	r2, [pc, #180]	@ (8002618 <HAL_UART_MspInit+0xfc>)
 8002564:	f043 0301 	orr.w	r3, r3, #1
 8002568:	6313      	str	r3, [r2, #48]	@ 0x30
 800256a:	4b2b      	ldr	r3, [pc, #172]	@ (8002618 <HAL_UART_MspInit+0xfc>)
 800256c:	6b1b      	ldr	r3, [r3, #48]	@ 0x30
 800256e:	f003 0301 	and.w	r3, r3, #1
 8002572:	617b      	str	r3, [r7, #20]
 8002574:	697b      	ldr	r3, [r7, #20]
    /**USART1 GPIO Configuration
    PA9     ------> USART1_TX
    PA10     ------> USART1_RX
    */
    GPIO_InitStruct.Pin = GPIO_PIN_9|GPIO_PIN_10;
 8002576:	f44f 63c0 	mov.w	r3, #1536	@ 0x600
 800257a:	61fb      	str	r3, [r7, #28]
    GPIO_InitStruct.Mode = GPIO_MODE_AF_PP;
 800257c:	2302      	movs	r3, #2
 800257e:	623b      	str	r3, [r7, #32]
    GPIO_InitStruct.Pull = GPIO_NOPULL;
 8002580:	2300      	movs	r3, #0
 8002582:	627b      	str	r3, [r7, #36]	@ 0x24
    GPIO_InitStruct.Speed = GPIO_SPEED_FREQ_VERY_HIGH;
 8002584:	2303      	movs	r3, #3
 8002586:	62bb      	str	r3, [r7, #40]	@ 0x28
    GPIO_InitStruct.Alternate = GPIO_AF7_USART1;
 8002588:	2307      	movs	r3, #7
 800258a:	62fb      	str	r3, [r7, #44]	@ 0x2c
    HAL_GPIO_Init(GPIOA, &GPIO_InitStruct);
 800258c:	f107 031c 	add.w	r3, r7, #28
 8002590:	4619      	mov	r1, r3
 8002592:	4822      	ldr	r0, [pc, #136]	@ (800261c <HAL_UART_MspInit+0x100>)
 8002594:	f000 fba0 	bl	8002cd8 <HAL_GPIO_Init>

    /* USART1 interrupt Init */
    HAL_NVIC_SetPriority(USART1_IRQn, 0, 0);
 8002598:	2200      	movs	r2, #0
 800259a:	2100      	movs	r1, #0
 800259c:	2025      	movs	r0, #37	@ 0x25
 800259e:	f000 fad2 	bl	8002b46 <HAL_NVIC_SetPriority>
    HAL_NVIC_EnableIRQ(USART1_IRQn);
 80025a2:	2025      	movs	r0, #37	@ 0x25
 80025a4:	f000 faeb 	bl	8002b7e <HAL_NVIC_EnableIRQ>
    /* USER CODE BEGIN USART2_MspInit 1 */

    /* USER CODE END USART2_MspInit 1 */
  }

}
 80025a8:	e030      	b.n	800260c <HAL_UART_MspInit+0xf0>
  else if(huart->Instance==USART2)
 80025aa:	687b      	ldr	r3, [r7, #4]
 80025ac:	681b      	ldr	r3, [r3, #0]
 80025ae:	4a1c      	ldr	r2, [pc, #112]	@ (8002620 <HAL_UART_MspInit+0x104>)
 80025b0:	4293      	cmp	r3, r2
 80025b2:	d12b      	bne.n	800260c <HAL_UART_MspInit+0xf0>
    __HAL_RCC_USART2_CLK_ENABLE();
 80025b4:	2300      	movs	r3, #0
 80025b6:	613b      	str	r3, [r7, #16]
 80025b8:	4b17      	ldr	r3, [pc, #92]	@ (8002618 <HAL_UART_MspInit+0xfc>)
 80025ba:	6c1b      	ldr	r3, [r3, #64]	@ 0x40
 80025bc:	4a16      	ldr	r2, [pc, #88]	@ (8002618 <HAL_UART_MspInit+0xfc>)
 80025be:	f443 3300 	orr.w	r3, r3, #131072	@ 0x20000
 80025c2:	6413      	str	r3, [r2, #64]	@ 0x40
 80025c4:	4b14      	ldr	r3, [pc, #80]	@ (8002618 <HAL_UART_MspInit+0xfc>)
 80025c6:	6c1b      	ldr	r3, [r3, #64]	@ 0x40
 80025c8:	f403 3300 	and.w	r3, r3, #131072	@ 0x20000
 80025cc:	613b      	str	r3, [r7, #16]
 80025ce:	693b      	ldr	r3, [r7, #16]
    __HAL_RCC_GPIOA_CLK_ENABLE();
 80025d0:	2300      	movs	r3, #0
 80025d2:	60fb      	str	r3, [r7, #12]
 80025d4:	4b10      	ldr	r3, [pc, #64]	@ (8002618 <HAL_UART_MspInit+0xfc>)
 80025d6:	6b1b      	ldr	r3, [r3, #48]	@ 0x30
 80025d8:	4a0f      	ldr	r2, [pc, #60]	@ (8002618 <HAL_UART_MspInit+0xfc>)
 80025da:	f043 0301 	orr.w	r3, r3, #1
 80025de:	6313      	str	r3, [r2, #48]	@ 0x30
 80025e0:	4b0d      	ldr	r3, [pc, #52]	@ (8002618 <HAL_UART_MspInit+0xfc>)
 80025e2:	6b1b      	ldr	r3, [r3, #48]	@ 0x30
 80025e4:	f003 0301 	and.w	r3, r3, #1
 80025e8:	60fb      	str	r3, [r7, #12]
 80025ea:	68fb      	ldr	r3, [r7, #12]
    GPIO_InitStruct.Pin = GPIO_PIN_2|GPIO_PIN_3;
 80025ec:	230c      	movs	r3, #12
 80025ee:	61fb      	str	r3, [r7, #28]
    GPIO_InitStruct.Mode = GPIO_MODE_AF_PP;
 80025f0:	2302      	movs	r3, #2
 80025f2:	623b      	str	r3, [r7, #32]
    GPIO_InitStruct.Pull = GPIO_NOPULL;
 80025f4:	2300      	movs	r3, #0
 80025f6:	627b      	str	r3, [r7, #36]	@ 0x24
    GPIO_InitStruct.Speed = GPIO_SPEED_FREQ_VERY_HIGH;
 80025f8:	2303      	movs	r3, #3
 80025fa:	62bb      	str	r3, [r7, #40]	@ 0x28
    GPIO_InitStruct.Alternate = GPIO_AF7_USART2;
 80025fc:	2307      	movs	r3, #7
 80025fe:	62fb      	str	r3, [r7, #44]	@ 0x2c
    HAL_GPIO_Init(GPIOA, &GPIO_InitStruct);
 8002600:	f107 031c 	add.w	r3, r7, #28
 8002604:	4619      	mov	r1, r3
 8002606:	4805      	ldr	r0, [pc, #20]	@ (800261c <HAL_UART_MspInit+0x100>)
 8002608:	f000 fb66 	bl	8002cd8 <HAL_GPIO_Init>
}
 800260c:	bf00      	nop
 800260e:	3730      	adds	r7, #48	@ 0x30
 8002610:	46bd      	mov	sp, r7
 8002612:	bd80      	pop	{r7, pc}
 8002614:	40011000 	.word	0x40011000
 8002618:	40023800 	.word	0x40023800
 800261c:	40020000 	.word	0x40020000
 8002620:	40004400 	.word	0x40004400

08002624 <NMI_Handler>:
/******************************************************************************/
/**
  * @brief This function handles Non maskable interrupt.
  */
void NMI_Handler(void)
{
 8002624:	b480      	push	{r7}
 8002626:	af00      	add	r7, sp, #0
  /* USER CODE BEGIN NonMaskableInt_IRQn 0 */

  /* USER CODE END NonMaskableInt_IRQn 0 */
  /* USER CODE BEGIN NonMaskableInt_IRQn 1 */
   while (1)
 8002628:	bf00      	nop
 800262a:	e7fd      	b.n	8002628 <NMI_Handler+0x4>

0800262c <HardFault_Handler>:

/**
  * @brief This function handles Hard fault interrupt.
  */
void HardFault_Handler(void)
{
 800262c:	b480      	push	{r7}
 800262e:	af00      	add	r7, sp, #0
  /* USER CODE BEGIN HardFault_IRQn 0 */

  /* USER CODE END HardFault_IRQn 0 */
  while (1)
 8002630:	bf00      	nop
 8002632:	e7fd      	b.n	8002630 <HardFault_Handler+0x4>

08002634 <MemManage_Handler>:

/**
  * @brief This function handles Memory management fault.
  */
void MemManage_Handler(void)
{
 8002634:	b480      	push	{r7}
 8002636:	af00      	add	r7, sp, #0
  /* USER CODE BEGIN MemoryManagement_IRQn 0 */

  /* USER CODE END MemoryManagement_IRQn 0 */
  while (1)
 8002638:	bf00      	nop
 800263a:	e7fd      	b.n	8002638 <MemManage_Handler+0x4>

0800263c <BusFault_Handler>:

/**
  * @brief This function handles Pre-fetch fault, memory access fault.
  */
void BusFault_Handler(void)
{
 800263c:	b480      	push	{r7}
 800263e:	af00      	add	r7, sp, #0
  /* USER CODE BEGIN BusFault_IRQn 0 */

  /* USER CODE END BusFault_IRQn 0 */
  while (1)
 8002640:	bf00      	nop
 8002642:	e7fd      	b.n	8002640 <BusFault_Handler+0x4>

08002644 <UsageFault_Handler>:

/**
  * @brief This function handles Undefined instruction or illegal state.
  */
void UsageFault_Handler(void)
{
 8002644:	b480      	push	{r7}
 8002646:	af00      	add	r7, sp, #0
  /* USER CODE BEGIN UsageFault_IRQn 0 */

  /* USER CODE END UsageFault_IRQn 0 */
  while (1)
 8002648:	bf00      	nop
 800264a:	e7fd      	b.n	8002648 <UsageFault_Handler+0x4>

0800264c <SVC_Handler>:

/**
  * @brief This function handles System service call via SWI instruction.
  */
void SVC_Handler(void)
{
 800264c:	b480      	push	{r7}
 800264e:	af00      	add	r7, sp, #0

  /* USER CODE END SVCall_IRQn 0 */
  /* USER CODE BEGIN SVCall_IRQn 1 */

  /* USER CODE END SVCall_IRQn 1 */
}
 8002650:	bf00      	nop
 8002652:	46bd      	mov	sp, r7
 8002654:	f85d 7b04 	ldr.w	r7, [sp], #4
 8002658:	4770      	bx	lr

0800265a <DebugMon_Handler>:

/**
  * @brief This function handles Debug monitor.
  */
void DebugMon_Handler(void)
{
 800265a:	b480      	push	{r7}
 800265c:	af00      	add	r7, sp, #0

  /* USER CODE END DebugMonitor_IRQn 0 */
  /* USER CODE BEGIN DebugMonitor_IRQn 1 */

  /* USER CODE END DebugMonitor_IRQn 1 */
}
 800265e:	bf00      	nop
 8002660:	46bd      	mov	sp, r7
 8002662:	f85d 7b04 	ldr.w	r7, [sp], #4
 8002666:	4770      	bx	lr

08002668 <PendSV_Handler>:

/**
  * @brief This function handles Pendable request for system service.
  */
void PendSV_Handler(void)
{
 8002668:	b480      	push	{r7}
 800266a:	af00      	add	r7, sp, #0

  /* USER CODE END PendSV_IRQn 0 */
  /* USER CODE BEGIN PendSV_IRQn 1 */

  /* USER CODE END PendSV_IRQn 1 */
}
 800266c:	bf00      	nop
 800266e:	46bd      	mov	sp, r7
 8002670:	f85d 7b04 	ldr.w	r7, [sp], #4
 8002674:	4770      	bx	lr

08002676 <SysTick_Handler>:

/**
  * @brief This function handles System tick timer.
  */
void SysTick_Handler(void)
{
 8002676:	b580      	push	{r7, lr}
 8002678:	af00      	add	r7, sp, #0
  /* USER CODE BEGIN SysTick_IRQn 0 */

  /* USER CODE END SysTick_IRQn 0 */
  HAL_IncTick();
 800267a:	f000 f945 	bl	8002908 <HAL_IncTick>
  /* USER CODE BEGIN SysTick_IRQn 1 */

  /* USER CODE END SysTick_IRQn 1 */
}
 800267e:	bf00      	nop
 8002680:	bd80      	pop	{r7, pc}
	...

08002684 <USART1_IRQHandler>:

/**
  * @brief This function handles USART1 global interrupt.
  */
void USART1_IRQHandler(void)
{
 8002684:	b580      	push	{r7, lr}
 8002686:	af00      	add	r7, sp, #0
  /* USER CODE BEGIN USART1_IRQn 0 */

  /* USER CODE END USART1_IRQn 0 */
  HAL_UART_IRQHandler(&huart1);
 8002688:	4802      	ldr	r0, [pc, #8]	@ (8002694 <USART1_IRQHandler+0x10>)
 800268a:	f002 fa59 	bl	8004b40 <HAL_UART_IRQHandler>
  /* USER CODE BEGIN USART1_IRQn 1 */

  /* USER CODE END USART1_IRQn 1 */
}
 800268e:	bf00      	nop
 8002690:	bd80      	pop	{r7, pc}
 8002692:	bf00      	nop
 8002694:	20000248 	.word	0x20000248

08002698 <_getpid>:
void initialise_monitor_handles()
{
}

int _getpid(void)
{
 8002698:	b480      	push	{r7}
 800269a:	af00      	add	r7, sp, #0
  return 1;
 800269c:	2301      	movs	r3, #1
}
 800269e:	4618      	mov	r0, r3
 80026a0:	46bd      	mov	sp, r7
 80026a2:	f85d 7b04 	ldr.w	r7, [sp], #4
 80026a6:	4770      	bx	lr

080026a8 <_kill>:

int _kill(int pid, int sig)
{
 80026a8:	b580      	push	{r7, lr}
 80026aa:	b082      	sub	sp, #8
 80026ac:	af00      	add	r7, sp, #0
 80026ae:	6078      	str	r0, [r7, #4]
 80026b0:	6039      	str	r1, [r7, #0]
  (void)pid;
  (void)sig;
  errno = EINVAL;
 80026b2:	f004 fe61 	bl	8007378 <__errno>
 80026b6:	4603      	mov	r3, r0
 80026b8:	2216      	movs	r2, #22
 80026ba:	601a      	str	r2, [r3, #0]
  return -1;
 80026bc:	f04f 33ff 	mov.w	r3, #4294967295
}
 80026c0:	4618      	mov	r0, r3
 80026c2:	3708      	adds	r7, #8
 80026c4:	46bd      	mov	sp, r7
 80026c6:	bd80      	pop	{r7, pc}

080026c8 <_exit>:

void _exit (int status)
{
 80026c8:	b580      	push	{r7, lr}
 80026ca:	b082      	sub	sp, #8
 80026cc:	af00      	add	r7, sp, #0
 80026ce:	6078      	str	r0, [r7, #4]
  _kill(status, -1);
 80026d0:	f04f 31ff 	mov.w	r1, #4294967295
 80026d4:	6878      	ldr	r0, [r7, #4]
 80026d6:	f7ff ffe7 	bl	80026a8 <_kill>
  while (1) {}    /* Make sure we hang here */
 80026da:	bf00      	nop
 80026dc:	e7fd      	b.n	80026da <_exit+0x12>

080026de <_read>:
}

__attribute__((weak)) int _read(int file, char *ptr, int len)
{
 80026de:	b580      	push	{r7, lr}
 80026e0:	b086      	sub	sp, #24
 80026e2:	af00      	add	r7, sp, #0
 80026e4:	60f8      	str	r0, [r7, #12]
 80026e6:	60b9      	str	r1, [r7, #8]
 80026e8:	607a      	str	r2, [r7, #4]
  (void)file;
  int DataIdx;

  for (DataIdx = 0; DataIdx < len; DataIdx++)
 80026ea:	2300      	movs	r3, #0
 80026ec:	617b      	str	r3, [r7, #20]
 80026ee:	e00a      	b.n	8002706 <_read+0x28>
  {
    *ptr++ = __io_getchar();
 80026f0:	f3af 8000 	nop.w
 80026f4:	4601      	mov	r1, r0
 80026f6:	68bb      	ldr	r3, [r7, #8]
 80026f8:	1c5a      	adds	r2, r3, #1
 80026fa:	60ba      	str	r2, [r7, #8]
 80026fc:	b2ca      	uxtb	r2, r1
 80026fe:	701a      	strb	r2, [r3, #0]
  for (DataIdx = 0; DataIdx < len; DataIdx++)
 8002700:	697b      	ldr	r3, [r7, #20]
 8002702:	3301      	adds	r3, #1
 8002704:	617b      	str	r3, [r7, #20]
 8002706:	697a      	ldr	r2, [r7, #20]
 8002708:	687b      	ldr	r3, [r7, #4]
 800270a:	429a      	cmp	r2, r3
 800270c:	dbf0      	blt.n	80026f0 <_read+0x12>
  }

  return len;
 800270e:	687b      	ldr	r3, [r7, #4]
}
 8002710:	4618      	mov	r0, r3
 8002712:	3718      	adds	r7, #24
 8002714:	46bd      	mov	sp, r7
 8002716:	bd80      	pop	{r7, pc}

08002718 <_close>:
  }
  return len;
}

int _close(int file)
{
 8002718:	b480      	push	{r7}
 800271a:	b083      	sub	sp, #12
 800271c:	af00      	add	r7, sp, #0
 800271e:	6078      	str	r0, [r7, #4]
  (void)file;
  return -1;
 8002720:	f04f 33ff 	mov.w	r3, #4294967295
}
 8002724:	4618      	mov	r0, r3
 8002726:	370c      	adds	r7, #12
 8002728:	46bd      	mov	sp, r7
 800272a:	f85d 7b04 	ldr.w	r7, [sp], #4
 800272e:	4770      	bx	lr

08002730 <_fstat>:


int _fstat(int file, struct stat *st)
{
 8002730:	b480      	push	{r7}
 8002732:	b083      	sub	sp, #12
 8002734:	af00      	add	r7, sp, #0
 8002736:	6078      	str	r0, [r7, #4]
 8002738:	6039      	str	r1, [r7, #0]
  (void)file;
  st->st_mode = S_IFCHR;
 800273a:	683b      	ldr	r3, [r7, #0]
 800273c:	f44f 5200 	mov.w	r2, #8192	@ 0x2000
 8002740:	605a      	str	r2, [r3, #4]
  return 0;
 8002742:	2300      	movs	r3, #0
}
 8002744:	4618      	mov	r0, r3
 8002746:	370c      	adds	r7, #12
 8002748:	46bd      	mov	sp, r7
 800274a:	f85d 7b04 	ldr.w	r7, [sp], #4
 800274e:	4770      	bx	lr

08002750 <_isatty>:

int _isatty(int file)
{
 8002750:	b480      	push	{r7}
 8002752:	b083      	sub	sp, #12
 8002754:	af00      	add	r7, sp, #0
 8002756:	6078      	str	r0, [r7, #4]
  (void)file;
  return 1;
 8002758:	2301      	movs	r3, #1
}
 800275a:	4618      	mov	r0, r3
 800275c:	370c      	adds	r7, #12
 800275e:	46bd      	mov	sp, r7
 8002760:	f85d 7b04 	ldr.w	r7, [sp], #4
 8002764:	4770      	bx	lr

08002766 <_lseek>:

int _lseek(int file, int ptr, int dir)
{
 8002766:	b480      	push	{r7}
 8002768:	b085      	sub	sp, #20
 800276a:	af00      	add	r7, sp, #0
 800276c:	60f8      	str	r0, [r7, #12]
 800276e:	60b9      	str	r1, [r7, #8]
 8002770:	607a      	str	r2, [r7, #4]
  (void)file;
  (void)ptr;
  (void)dir;
  return 0;
 8002772:	2300      	movs	r3, #0
}
 8002774:	4618      	mov	r0, r3
 8002776:	3714      	adds	r7, #20
 8002778:	46bd      	mov	sp, r7
 800277a:	f85d 7b04 	ldr.w	r7, [sp], #4
 800277e:	4770      	bx	lr

08002780 <_sbrk>:
 *
 * @param incr Memory size
 * @return Pointer to allocated memory
 */
void *_sbrk(ptrdiff_t incr)
{
 8002780:	b580      	push	{r7, lr}
 8002782:	b086      	sub	sp, #24
 8002784:	af00      	add	r7, sp, #0
 8002786:	6078      	str	r0, [r7, #4]
  extern uint8_t _end; /* Symbol defined in the linker script */
  extern uint8_t _estack; /* Symbol defined in the linker script */
  extern uint32_t _Min_Stack_Size; /* Symbol defined in the linker script */
  const uint32_t stack_limit = (uint32_t)&_estack - (uint32_t)&_Min_Stack_Size;
 8002788:	4a14      	ldr	r2, [pc, #80]	@ (80027dc <_sbrk+0x5c>)
 800278a:	4b15      	ldr	r3, [pc, #84]	@ (80027e0 <_sbrk+0x60>)
 800278c:	1ad3      	subs	r3, r2, r3
 800278e:	617b      	str	r3, [r7, #20]
  const uint8_t *max_heap = (uint8_t *)stack_limit;
 8002790:	697b      	ldr	r3, [r7, #20]
 8002792:	613b      	str	r3, [r7, #16]
  uint8_t *prev_heap_end;

  /* Initialize heap end at first call */
  if (NULL == __sbrk_heap_end)
 8002794:	4b13      	ldr	r3, [pc, #76]	@ (80027e4 <_sbrk+0x64>)
 8002796:	681b      	ldr	r3, [r3, #0]
 8002798:	2b00      	cmp	r3, #0
 800279a:	d102      	bne.n	80027a2 <_sbrk+0x22>
  {
    __sbrk_heap_end = &_end;
 800279c:	4b11      	ldr	r3, [pc, #68]	@ (80027e4 <_sbrk+0x64>)
 800279e:	4a12      	ldr	r2, [pc, #72]	@ (80027e8 <_sbrk+0x68>)
 80027a0:	601a      	str	r2, [r3, #0]
  }

  /* Protect heap from growing into the reserved MSP stack */
  if (__sbrk_heap_end + incr > max_heap)
 80027a2:	4b10      	ldr	r3, [pc, #64]	@ (80027e4 <_sbrk+0x64>)
 80027a4:	681a      	ldr	r2, [r3, #0]
 80027a6:	687b      	ldr	r3, [r7, #4]
 80027a8:	4413      	add	r3, r2
 80027aa:	693a      	ldr	r2, [r7, #16]
 80027ac:	429a      	cmp	r2, r3
 80027ae:	d207      	bcs.n	80027c0 <_sbrk+0x40>
  {
    errno = ENOMEM;
 80027b0:	f004 fde2 	bl	8007378 <__errno>
 80027b4:	4603      	mov	r3, r0
 80027b6:	220c      	movs	r2, #12
 80027b8:	601a      	str	r2, [r3, #0]
    return (void *)-1;
 80027ba:	f04f 33ff 	mov.w	r3, #4294967295
 80027be:	e009      	b.n	80027d4 <_sbrk+0x54>
  }

  prev_heap_end = __sbrk_heap_end;
 80027c0:	4b08      	ldr	r3, [pc, #32]	@ (80027e4 <_sbrk+0x64>)
 80027c2:	681b      	ldr	r3, [r3, #0]
 80027c4:	60fb      	str	r3, [r7, #12]
  __sbrk_heap_end += incr;
 80027c6:	4b07      	ldr	r3, [pc, #28]	@ (80027e4 <_sbrk+0x64>)
 80027c8:	681a      	ldr	r2, [r3, #0]
 80027ca:	687b      	ldr	r3, [r7, #4]
 80027cc:	4413      	add	r3, r2
 80027ce:	4a05      	ldr	r2, [pc, #20]	@ (80027e4 <_sbrk+0x64>)
 80027d0:	6013      	str	r3, [r2, #0]

  return (void *)prev_heap_end;
 80027d2:	68fb      	ldr	r3, [r7, #12]
}
 80027d4:	4618      	mov	r0, r3
 80027d6:	3718      	adds	r7, #24
 80027d8:	46bd      	mov	sp, r7
 80027da:	bd80      	pop	{r7, pc}
 80027dc:	20010000 	.word	0x20010000
 80027e0:	00000400 	.word	0x00000400
 80027e4:	20000394 	.word	0x20000394
 80027e8:	200004e8 	.word	0x200004e8

080027ec <SystemInit>:
  *         configuration.
  * @param  None
  * @retval None
  */
void SystemInit(void)
{
 80027ec:	b480      	push	{r7}
 80027ee:	af00      	add	r7, sp, #0
  /* FPU settings ------------------------------------------------------------*/
  #if (__FPU_PRESENT == 1) && (__FPU_USED == 1)
    SCB->CPACR |= ((3UL << 10*2)|(3UL << 11*2));  /* set CP10 and CP11 Full Access */
 80027f0:	4b06      	ldr	r3, [pc, #24]	@ (800280c <SystemInit+0x20>)
 80027f2:	f8d3 3088 	ldr.w	r3, [r3, #136]	@ 0x88
 80027f6:	4a05      	ldr	r2, [pc, #20]	@ (800280c <SystemInit+0x20>)
 80027f8:	f443 0370 	orr.w	r3, r3, #15728640	@ 0xf00000
 80027fc:	f8c2 3088 	str.w	r3, [r2, #136]	@ 0x88

  /* Configure the Vector Table location -------------------------------------*/
#if defined(USER_VECT_TAB_ADDRESS)
  SCB->VTOR = VECT_TAB_BASE_ADDRESS | VECT_TAB_OFFSET; /* Vector Table Relocation in Internal SRAM */
#endif /* USER_VECT_TAB_ADDRESS */
}
 8002800:	bf00      	nop
 8002802:	46bd      	mov	sp, r7
 8002804:	f85d 7b04 	ldr.w	r7, [sp], #4
 8002808:	4770      	bx	lr
 800280a:	bf00      	nop
 800280c:	e000ed00 	.word	0xe000ed00

08002810 <Reset_Handler>:

    .section  .text.Reset_Handler
  .weak  Reset_Handler
  .type  Reset_Handler, %function
Reset_Handler:  
  ldr   sp, =_estack      /* set stack pointer */
 8002810:	f8df d034 	ldr.w	sp, [pc, #52]	@ 8002848 <LoopFillZerobss+0xe>
  
/* Call the clock system initialization function.*/
  bl  SystemInit  
 8002814:	f7ff ffea 	bl	80027ec <SystemInit>

/* Copy the data segment initializers from flash to SRAM */  
  ldr r0, =_sdata
 8002818:	480c      	ldr	r0, [pc, #48]	@ (800284c <LoopFillZerobss+0x12>)
  ldr r1, =_edata
 800281a:	490d      	ldr	r1, [pc, #52]	@ (8002850 <LoopFillZerobss+0x16>)
  ldr r2, =_sidata
 800281c:	4a0d      	ldr	r2, [pc, #52]	@ (8002854 <LoopFillZerobss+0x1a>)
  movs r3, #0
 800281e:	2300      	movs	r3, #0
  b LoopCopyDataInit
 8002820:	e002      	b.n	8002828 <LoopCopyDataInit>

08002822 <CopyDataInit>:

CopyDataInit:
  ldr r4, [r2, r3]
 8002822:	58d4      	ldr	r4, [r2, r3]
  str r4, [r0, r3]
 8002824:	50c4      	str	r4, [r0, r3]
  adds r3, r3, #4
 8002826:	3304      	adds	r3, #4

08002828 <LoopCopyDataInit>:

LoopCopyDataInit:
  adds r4, r0, r3
 8002828:	18c4      	adds	r4, r0, r3
  cmp r4, r1
 800282a:	428c      	cmp	r4, r1
  bcc CopyDataInit
 800282c:	d3f9      	bcc.n	8002822 <CopyDataInit>
  
/* Zero fill the bss segment. */
  ldr r2, =_sbss
 800282e:	4a0a      	ldr	r2, [pc, #40]	@ (8002858 <LoopFillZerobss+0x1e>)
  ldr r4, =_ebss
 8002830:	4c0a      	ldr	r4, [pc, #40]	@ (800285c <LoopFillZerobss+0x22>)
  movs r3, #0
 8002832:	2300      	movs	r3, #0
  b LoopFillZerobss
 8002834:	e001      	b.n	800283a <LoopFillZerobss>

08002836 <FillZerobss>:

FillZerobss:
  str  r3, [r2]
 8002836:	6013      	str	r3, [r2, #0]
  adds r2, r2, #4
 8002838:	3204      	adds	r2, #4

0800283a <LoopFillZerobss>:

LoopFillZerobss:
  cmp r2, r4
 800283a:	42a2      	cmp	r2, r4
  bcc FillZerobss
 800283c:	d3fb      	bcc.n	8002836 <FillZerobss>

/* Call static constructors */
    bl __libc_init_array
 800283e:	f004 fda1 	bl	8007384 <__libc_init_array>
/* Call the application's entry point.*/
  bl  main
 8002842:	f7fe fbf5 	bl	8001030 <main>
  bx  lr    
 8002846:	4770      	bx	lr
  ldr   sp, =_estack      /* set stack pointer */
 8002848:	20010000 	.word	0x20010000
  ldr r0, =_sdata
 800284c:	20000000 	.word	0x20000000
  ldr r1, =_edata
 8002850:	200001d8 	.word	0x200001d8
  ldr r2, =_sidata
 8002854:	08009e78 	.word	0x08009e78
  ldr r2, =_sbss
 8002858:	200001d8 	.word	0x200001d8
  ldr r4, =_ebss
 800285c:	200004e8 	.word	0x200004e8

08002860 <ADC_IRQHandler>:
 * @retval None       
*/
    .section  .text.Default_Handler,"ax",%progbits
Default_Handler:
Infinite_Loop:
  b  Infinite_Loop
 8002860:	e7fe      	b.n	8002860 <ADC_IRQHandler>
	...

08002864 <HAL_Init>:
  *         need to ensure that the SysTick time base is always set to 1 millisecond
  *         to have correct HAL operation.
  * @retval HAL status
  */
HAL_StatusTypeDef HAL_Init(void)
{
 8002864:	b580      	push	{r7, lr}
 8002866:	af00      	add	r7, sp, #0
  /* Configure Flash prefetch, Instruction cache, Data cache */ 
#if (INSTRUCTION_CACHE_ENABLE != 0U)
  __HAL_FLASH_INSTRUCTION_CACHE_ENABLE();
 8002868:	4b0e      	ldr	r3, [pc, #56]	@ (80028a4 <HAL_Init+0x40>)
 800286a:	681b      	ldr	r3, [r3, #0]
 800286c:	4a0d      	ldr	r2, [pc, #52]	@ (80028a4 <HAL_Init+0x40>)
 800286e:	f443 7300 	orr.w	r3, r3, #512	@ 0x200
 8002872:	6013      	str	r3, [r2, #0]
#endif /* INSTRUCTION_CACHE_ENABLE */

#if (DATA_CACHE_ENABLE != 0U)
  __HAL_FLASH_DATA_CACHE_ENABLE();
 8002874:	4b0b      	ldr	r3, [pc, #44]	@ (80028a4 <HAL_Init+0x40>)
 8002876:	681b      	ldr	r3, [r3, #0]
 8002878:	4a0a      	ldr	r2, [pc, #40]	@ (80028a4 <HAL_Init+0x40>)
 800287a:	f443 6380 	orr.w	r3, r3, #1024	@ 0x400
 800287e:	6013      	str	r3, [r2, #0]
#endif /* DATA_CACHE_ENABLE */

#if (PREFETCH_ENABLE != 0U)
  __HAL_FLASH_PREFETCH_BUFFER_ENABLE();
 8002880:	4b08      	ldr	r3, [pc, #32]	@ (80028a4 <HAL_Init+0x40>)
 8002882:	681b      	ldr	r3, [r3, #0]
 8002884:	4a07      	ldr	r2, [pc, #28]	@ (80028a4 <HAL_Init+0x40>)
 8002886:	f443 7380 	orr.w	r3, r3, #256	@ 0x100
 800288a:	6013      	str	r3, [r2, #0]
#endif /* PREFETCH_ENABLE */

  /* Set Interrupt Group Priority */
  HAL_NVIC_SetPriorityGrouping(NVIC_PRIORITYGROUP_4);
 800288c:	2003      	movs	r0, #3
 800288e:	f000 f94f 	bl	8002b30 <HAL_NVIC_SetPriorityGrouping>

  /* Use systick as time base source and configure 1ms tick (default clock after Reset is HSI) */
  HAL_InitTick(TICK_INT_PRIORITY);
 8002892:	200f      	movs	r0, #15
 8002894:	f000 f808 	bl	80028a8 <HAL_InitTick>

  /* Init the low level hardware */
  HAL_MspInit();
 8002898:	f7ff fdd0 	bl	800243c <HAL_MspInit>

  /* Return function status */
  return HAL_OK;
 800289c:	2300      	movs	r3, #0
}
 800289e:	4618      	mov	r0, r3
 80028a0:	bd80      	pop	{r7, pc}
 80028a2:	bf00      	nop
 80028a4:	40023c00 	.word	0x40023c00

080028a8 <HAL_InitTick>:
  *       implementation  in user file.
  * @param TickPriority Tick interrupt priority.
  * @retval HAL status
  */
__weak HAL_StatusTypeDef HAL_InitTick(uint32_t TickPriority)
{
 80028a8:	b580      	push	{r7, lr}
 80028aa:	b082      	sub	sp, #8
 80028ac:	af00      	add	r7, sp, #0
 80028ae:	6078      	str	r0, [r7, #4]
  /* Configure the SysTick to have interrupt in 1ms time basis*/
  if (HAL_SYSTICK_Config(SystemCoreClock / (1000U / uwTickFreq)) > 0U)
 80028b0:	4b12      	ldr	r3, [pc, #72]	@ (80028fc <HAL_InitTick+0x54>)
 80028b2:	681a      	ldr	r2, [r3, #0]
 80028b4:	4b12      	ldr	r3, [pc, #72]	@ (8002900 <HAL_InitTick+0x58>)
 80028b6:	781b      	ldrb	r3, [r3, #0]
 80028b8:	4619      	mov	r1, r3
 80028ba:	f44f 737a 	mov.w	r3, #1000	@ 0x3e8
 80028be:	fbb3 f3f1 	udiv	r3, r3, r1
 80028c2:	fbb2 f3f3 	udiv	r3, r2, r3
 80028c6:	4618      	mov	r0, r3
 80028c8:	f000 f967 	bl	8002b9a <HAL_SYSTICK_Config>
 80028cc:	4603      	mov	r3, r0
 80028ce:	2b00      	cmp	r3, #0
 80028d0:	d001      	beq.n	80028d6 <HAL_InitTick+0x2e>
  {
    return HAL_ERROR;
 80028d2:	2301      	movs	r3, #1
 80028d4:	e00e      	b.n	80028f4 <HAL_InitTick+0x4c>
  }

  /* Configure the SysTick IRQ priority */
  if (TickPriority < (1UL << __NVIC_PRIO_BITS))
 80028d6:	687b      	ldr	r3, [r7, #4]
 80028d8:	2b0f      	cmp	r3, #15
 80028da:	d80a      	bhi.n	80028f2 <HAL_InitTick+0x4a>
  {
    HAL_NVIC_SetPriority(SysTick_IRQn, TickPriority, 0U);
 80028dc:	2200      	movs	r2, #0
 80028de:	6879      	ldr	r1, [r7, #4]
 80028e0:	f04f 30ff 	mov.w	r0, #4294967295
 80028e4:	f000 f92f 	bl	8002b46 <HAL_NVIC_SetPriority>
    uwTickPrio = TickPriority;
 80028e8:	4a06      	ldr	r2, [pc, #24]	@ (8002904 <HAL_InitTick+0x5c>)
 80028ea:	687b      	ldr	r3, [r7, #4]
 80028ec:	6013      	str	r3, [r2, #0]
  {
    return HAL_ERROR;
  }

  /* Return function status */
  return HAL_OK;
 80028ee:	2300      	movs	r3, #0
 80028f0:	e000      	b.n	80028f4 <HAL_InitTick+0x4c>
    return HAL_ERROR;
 80028f2:	2301      	movs	r3, #1
}
 80028f4:	4618      	mov	r0, r3
 80028f6:	3708      	adds	r7, #8
 80028f8:	46bd      	mov	sp, r7
 80028fa:	bd80      	pop	{r7, pc}
 80028fc:	20000004 	.word	0x20000004
 8002900:	2000000c 	.word	0x2000000c
 8002904:	20000008 	.word	0x20000008

08002908 <HAL_IncTick>:
 * @note This function is declared as __weak to be overwritten in case of other 
  *      implementations in user file.
  * @retval None
  */
__weak void HAL_IncTick(void)
{
 8002908:	b480      	push	{r7}
 800290a:	af00      	add	r7, sp, #0
  uwTick += uwTickFreq;
 800290c:	4b06      	ldr	r3, [pc, #24]	@ (8002928 <HAL_IncTick+0x20>)
 800290e:	781b      	ldrb	r3, [r3, #0]
 8002910:	461a      	mov	r2, r3
 8002912:	4b06      	ldr	r3, [pc, #24]	@ (800292c <HAL_IncTick+0x24>)
 8002914:	681b      	ldr	r3, [r3, #0]
 8002916:	4413      	add	r3, r2
 8002918:	4a04      	ldr	r2, [pc, #16]	@ (800292c <HAL_IncTick+0x24>)
 800291a:	6013      	str	r3, [r2, #0]
}
 800291c:	bf00      	nop
 800291e:	46bd      	mov	sp, r7
 8002920:	f85d 7b04 	ldr.w	r7, [sp], #4
 8002924:	4770      	bx	lr
 8002926:	bf00      	nop
 8002928:	2000000c 	.word	0x2000000c
 800292c:	20000398 	.word	0x20000398

08002930 <HAL_GetTick>:
  * @note This function is declared as __weak to be overwritten in case of other 
  *       implementations in user file.
  * @retval tick value
  */
__weak uint32_t HAL_GetTick(void)
{
 8002930:	b480      	push	{r7}
 8002932:	af00      	add	r7, sp, #0
  return uwTick;
 8002934:	4b03      	ldr	r3, [pc, #12]	@ (8002944 <HAL_GetTick+0x14>)
 8002936:	681b      	ldr	r3, [r3, #0]
}
 8002938:	4618      	mov	r0, r3
 800293a:	46bd      	mov	sp, r7
 800293c:	f85d 7b04 	ldr.w	r7, [sp], #4
 8002940:	4770      	bx	lr
 8002942:	bf00      	nop
 8002944:	20000398 	.word	0x20000398

08002948 <HAL_Delay>:
  *       implementations in user file.
  * @param Delay specifies the delay time length, in milliseconds.
  * @retval None
  */
__weak void HAL_Delay(uint32_t Delay)
{
 8002948:	b580      	push	{r7, lr}
 800294a:	b084      	sub	sp, #16
 800294c:	af00      	add	r7, sp, #0
 800294e:	6078      	str	r0, [r7, #4]
  uint32_t tickstart = HAL_GetTick();
 8002950:	f7ff ffee 	bl	8002930 <HAL_GetTick>
 8002954:	60b8      	str	r0, [r7, #8]
  uint32_t wait = Delay;
 8002956:	687b      	ldr	r3, [r7, #4]
 8002958:	60fb      	str	r3, [r7, #12]

  /* Add a freq to guarantee minimum wait */
  if (wait < HAL_MAX_DELAY)
 800295a:	68fb      	ldr	r3, [r7, #12]
 800295c:	f1b3 3fff 	cmp.w	r3, #4294967295
 8002960:	d005      	beq.n	800296e <HAL_Delay+0x26>
  {
    wait += (uint32_t)(uwTickFreq);
 8002962:	4b0a      	ldr	r3, [pc, #40]	@ (800298c <HAL_Delay+0x44>)
 8002964:	781b      	ldrb	r3, [r3, #0]
 8002966:	461a      	mov	r2, r3
 8002968:	68fb      	ldr	r3, [r7, #12]
 800296a:	4413      	add	r3, r2
 800296c:	60fb      	str	r3, [r7, #12]
  }

  while((HAL_GetTick() - tickstart) < wait)
 800296e:	bf00      	nop
 8002970:	f7ff ffde 	bl	8002930 <HAL_GetTick>
 8002974:	4602      	mov	r2, r0
 8002976:	68bb      	ldr	r3, [r7, #8]
 8002978:	1ad3      	subs	r3, r2, r3
 800297a:	68fa      	ldr	r2, [r7, #12]
 800297c:	429a      	cmp	r2, r3
 800297e:	d8f7      	bhi.n	8002970 <HAL_Delay+0x28>
  {
  }
}
 8002980:	bf00      	nop
 8002982:	bf00      	nop
 8002984:	3710      	adds	r7, #16
 8002986:	46bd      	mov	sp, r7
 8002988:	bd80      	pop	{r7, pc}
 800298a:	bf00      	nop
 800298c:	2000000c 	.word	0x2000000c

08002990 <__NVIC_SetPriorityGrouping>:
           In case of a conflict between priority grouping and available
           priority bits (__NVIC_PRIO_BITS), the smallest possible priority group is set.
  \param [in]      PriorityGroup  Priority grouping field.
 */
__STATIC_INLINE void __NVIC_SetPriorityGrouping(uint32_t PriorityGroup)
{
 8002990:	b480      	push	{r7}
 8002992:	b085      	sub	sp, #20
 8002994:	af00      	add	r7, sp, #0
 8002996:	6078      	str	r0, [r7, #4]
  uint32_t reg_value;
  uint32_t PriorityGroupTmp = (PriorityGroup & (uint32_t)0x07UL);             /* only values 0..7 are used          */
 8002998:	687b      	ldr	r3, [r7, #4]
 800299a:	f003 0307 	and.w	r3, r3, #7
 800299e:	60fb      	str	r3, [r7, #12]

  reg_value  =  SCB->AIRCR;                                                   /* read old register configuration    */
 80029a0:	4b0c      	ldr	r3, [pc, #48]	@ (80029d4 <__NVIC_SetPriorityGrouping+0x44>)
 80029a2:	68db      	ldr	r3, [r3, #12]
 80029a4:	60bb      	str	r3, [r7, #8]
  reg_value &= ~((uint32_t)(SCB_AIRCR_VECTKEY_Msk | SCB_AIRCR_PRIGROUP_Msk)); /* clear bits to change               */
 80029a6:	68ba      	ldr	r2, [r7, #8]
 80029a8:	f64f 03ff 	movw	r3, #63743	@ 0xf8ff
 80029ac:	4013      	ands	r3, r2
 80029ae:	60bb      	str	r3, [r7, #8]
  reg_value  =  (reg_value                                   |
                ((uint32_t)0x5FAUL << SCB_AIRCR_VECTKEY_Pos) |
                (PriorityGroupTmp << SCB_AIRCR_PRIGROUP_Pos)  );              /* Insert write key and priority group */
 80029b0:	68fb      	ldr	r3, [r7, #12]
 80029b2:	021a      	lsls	r2, r3, #8
                ((uint32_t)0x5FAUL << SCB_AIRCR_VECTKEY_Pos) |
 80029b4:	68bb      	ldr	r3, [r7, #8]
 80029b6:	4313      	orrs	r3, r2
  reg_value  =  (reg_value                                   |
 80029b8:	f043 63bf 	orr.w	r3, r3, #100139008	@ 0x5f80000
 80029bc:	f443 3300 	orr.w	r3, r3, #131072	@ 0x20000
 80029c0:	60bb      	str	r3, [r7, #8]
  SCB->AIRCR =  reg_value;
 80029c2:	4a04      	ldr	r2, [pc, #16]	@ (80029d4 <__NVIC_SetPriorityGrouping+0x44>)
 80029c4:	68bb      	ldr	r3, [r7, #8]
 80029c6:	60d3      	str	r3, [r2, #12]
}
 80029c8:	bf00      	nop
 80029ca:	3714      	adds	r7, #20
 80029cc:	46bd      	mov	sp, r7
 80029ce:	f85d 7b04 	ldr.w	r7, [sp], #4
 80029d2:	4770      	bx	lr
 80029d4:	e000ed00 	.word	0xe000ed00

080029d8 <__NVIC_GetPriorityGrouping>:
  \brief   Get Priority Grouping
  \details Reads the priority grouping field from the NVIC Interrupt Controller.
  \return                Priority grouping field (SCB->AIRCR [10:8] PRIGROUP field).
 */
__STATIC_INLINE uint32_t __NVIC_GetPriorityGrouping(void)
{
 80029d8:	b480      	push	{r7}
 80029da:	af00      	add	r7, sp, #0
  return ((uint32_t)((SCB->AIRCR & SCB_AIRCR_PRIGROUP_Msk) >> SCB_AIRCR_PRIGROUP_Pos));
 80029dc:	4b04      	ldr	r3, [pc, #16]	@ (80029f0 <__NVIC_GetPriorityGrouping+0x18>)
 80029de:	68db      	ldr	r3, [r3, #12]
 80029e0:	0a1b      	lsrs	r3, r3, #8
 80029e2:	f003 0307 	and.w	r3, r3, #7
}
 80029e6:	4618      	mov	r0, r3
 80029e8:	46bd      	mov	sp, r7
 80029ea:	f85d 7b04 	ldr.w	r7, [sp], #4
 80029ee:	4770      	bx	lr
 80029f0:	e000ed00 	.word	0xe000ed00

080029f4 <__NVIC_EnableIRQ>:
  \details Enables a device specific interrupt in the NVIC interrupt controller.
  \param [in]      IRQn  Device specific interrupt number.
  \note    IRQn must not be negative.
 */
__STATIC_INLINE void __NVIC_EnableIRQ(IRQn_Type IRQn)
{
 80029f4:	b480      	push	{r7}
 80029f6:	b083      	sub	sp, #12
 80029f8:	af00      	add	r7, sp, #0
 80029fa:	4603      	mov	r3, r0
 80029fc:	71fb      	strb	r3, [r7, #7]
  if ((int32_t)(IRQn) >= 0)
 80029fe:	f997 3007 	ldrsb.w	r3, [r7, #7]
 8002a02:	2b00      	cmp	r3, #0
 8002a04:	db0b      	blt.n	8002a1e <__NVIC_EnableIRQ+0x2a>
  {
    __COMPILER_BARRIER();
    NVIC->ISER[(((uint32_t)IRQn) >> 5UL)] = (uint32_t)(1UL << (((uint32_t)IRQn) & 0x1FUL));
 8002a06:	79fb      	ldrb	r3, [r7, #7]
 8002a08:	f003 021f 	and.w	r2, r3, #31
 8002a0c:	4907      	ldr	r1, [pc, #28]	@ (8002a2c <__NVIC_EnableIRQ+0x38>)
 8002a0e:	f997 3007 	ldrsb.w	r3, [r7, #7]
 8002a12:	095b      	lsrs	r3, r3, #5
 8002a14:	2001      	movs	r0, #1
 8002a16:	fa00 f202 	lsl.w	r2, r0, r2
 8002a1a:	f841 2023 	str.w	r2, [r1, r3, lsl #2]
    __COMPILER_BARRIER();
  }
}
 8002a1e:	bf00      	nop
 8002a20:	370c      	adds	r7, #12
 8002a22:	46bd      	mov	sp, r7
 8002a24:	f85d 7b04 	ldr.w	r7, [sp], #4
 8002a28:	4770      	bx	lr
 8002a2a:	bf00      	nop
 8002a2c:	e000e100 	.word	0xe000e100

08002a30 <__NVIC_SetPriority>:
  \param [in]      IRQn  Interrupt number.
  \param [in]  priority  Priority to set.
  \note    The priority cannot be set for every processor exception.
 */
__STATIC_INLINE void __NVIC_SetPriority(IRQn_Type IRQn, uint32_t priority)
{
 8002a30:	b480      	push	{r7}
 8002a32:	b083      	sub	sp, #12
 8002a34:	af00      	add	r7, sp, #0
 8002a36:	4603      	mov	r3, r0
 8002a38:	6039      	str	r1, [r7, #0]
 8002a3a:	71fb      	strb	r3, [r7, #7]
  if ((int32_t)(IRQn) >= 0)
 8002a3c:	f997 3007 	ldrsb.w	r3, [r7, #7]
 8002a40:	2b00      	cmp	r3, #0
 8002a42:	db0a      	blt.n	8002a5a <__NVIC_SetPriority+0x2a>
  {
    NVIC->IP[((uint32_t)IRQn)]               = (uint8_t)((priority << (8U - __NVIC_PRIO_BITS)) & (uint32_t)0xFFUL);
 8002a44:	683b      	ldr	r3, [r7, #0]
 8002a46:	b2da      	uxtb	r2, r3
 8002a48:	490c      	ldr	r1, [pc, #48]	@ (8002a7c <__NVIC_SetPriority+0x4c>)
 8002a4a:	f997 3007 	ldrsb.w	r3, [r7, #7]
 8002a4e:	0112      	lsls	r2, r2, #4
 8002a50:	b2d2      	uxtb	r2, r2
 8002a52:	440b      	add	r3, r1
 8002a54:	f883 2300 	strb.w	r2, [r3, #768]	@ 0x300
  }
  else
  {
    SCB->SHP[(((uint32_t)IRQn) & 0xFUL)-4UL] = (uint8_t)((priority << (8U - __NVIC_PRIO_BITS)) & (uint32_t)0xFFUL);
  }
}
 8002a58:	e00a      	b.n	8002a70 <__NVIC_SetPriority+0x40>
    SCB->SHP[(((uint32_t)IRQn) & 0xFUL)-4UL] = (uint8_t)((priority << (8U - __NVIC_PRIO_BITS)) & (uint32_t)0xFFUL);
 8002a5a:	683b      	ldr	r3, [r7, #0]
 8002a5c:	b2da      	uxtb	r2, r3
 8002a5e:	4908      	ldr	r1, [pc, #32]	@ (8002a80 <__NVIC_SetPriority+0x50>)
 8002a60:	79fb      	ldrb	r3, [r7, #7]
 8002a62:	f003 030f 	and.w	r3, r3, #15
 8002a66:	3b04      	subs	r3, #4
 8002a68:	0112      	lsls	r2, r2, #4
 8002a6a:	b2d2      	uxtb	r2, r2
 8002a6c:	440b      	add	r3, r1
 8002a6e:	761a      	strb	r2, [r3, #24]
}
 8002a70:	bf00      	nop
 8002a72:	370c      	adds	r7, #12
 8002a74:	46bd      	mov	sp, r7
 8002a76:	f85d 7b04 	ldr.w	r7, [sp], #4
 8002a7a:	4770      	bx	lr
 8002a7c:	e000e100 	.word	0xe000e100
 8002a80:	e000ed00 	.word	0xe000ed00

08002a84 <NVIC_EncodePriority>:
  \param [in]   PreemptPriority  Preemptive priority value (starting from 0).
  \param [in]       SubPriority  Subpriority value (starting from 0).
  \return                        Encoded priority. Value can be used in the function \ref NVIC_SetPriority().
 */
__STATIC_INLINE uint32_t NVIC_EncodePriority (uint32_t PriorityGroup, uint32_t PreemptPriority, uint32_t SubPriority)
{
 8002a84:	b480      	push	{r7}
 8002a86:	b089      	sub	sp, #36	@ 0x24
 8002a88:	af00      	add	r7, sp, #0
 8002a8a:	60f8      	str	r0, [r7, #12]
 8002a8c:	60b9      	str	r1, [r7, #8]
 8002a8e:	607a      	str	r2, [r7, #4]
  uint32_t PriorityGroupTmp = (PriorityGroup & (uint32_t)0x07UL);   /* only values 0..7 are used          */
 8002a90:	68fb      	ldr	r3, [r7, #12]
 8002a92:	f003 0307 	and.w	r3, r3, #7
 8002a96:	61fb      	str	r3, [r7, #28]
  uint32_t PreemptPriorityBits;
  uint32_t SubPriorityBits;

  PreemptPriorityBits = ((7UL - PriorityGroupTmp) > (uint32_t)(__NVIC_PRIO_BITS)) ? (uint32_t)(__NVIC_PRIO_BITS) : (uint32_t)(7UL - PriorityGroupTmp);
 8002a98:	69fb      	ldr	r3, [r7, #28]
 8002a9a:	f1c3 0307 	rsb	r3, r3, #7
 8002a9e:	2b04      	cmp	r3, #4
 8002aa0:	bf28      	it	cs
 8002aa2:	2304      	movcs	r3, #4
 8002aa4:	61bb      	str	r3, [r7, #24]
  SubPriorityBits     = ((PriorityGroupTmp + (uint32_t)(__NVIC_PRIO_BITS)) < (uint32_t)7UL) ? (uint32_t)0UL : (uint32_t)((PriorityGroupTmp - 7UL) + (uint32_t)(__NVIC_PRIO_BITS));
 8002aa6:	69fb      	ldr	r3, [r7, #28]
 8002aa8:	3304      	adds	r3, #4
 8002aaa:	2b06      	cmp	r3, #6
 8002aac:	d902      	bls.n	8002ab4 <NVIC_EncodePriority+0x30>
 8002aae:	69fb      	ldr	r3, [r7, #28]
 8002ab0:	3b03      	subs	r3, #3
 8002ab2:	e000      	b.n	8002ab6 <NVIC_EncodePriority+0x32>
 8002ab4:	2300      	movs	r3, #0
 8002ab6:	617b      	str	r3, [r7, #20]

  return (
           ((PreemptPriority & (uint32_t)((1UL << (PreemptPriorityBits)) - 1UL)) << SubPriorityBits) |
 8002ab8:	f04f 32ff 	mov.w	r2, #4294967295
 8002abc:	69bb      	ldr	r3, [r7, #24]
 8002abe:	fa02 f303 	lsl.w	r3, r2, r3
 8002ac2:	43da      	mvns	r2, r3
 8002ac4:	68bb      	ldr	r3, [r7, #8]
 8002ac6:	401a      	ands	r2, r3
 8002ac8:	697b      	ldr	r3, [r7, #20]
 8002aca:	409a      	lsls	r2, r3
           ((SubPriority     & (uint32_t)((1UL << (SubPriorityBits    )) - 1UL)))
 8002acc:	f04f 31ff 	mov.w	r1, #4294967295
 8002ad0:	697b      	ldr	r3, [r7, #20]
 8002ad2:	fa01 f303 	lsl.w	r3, r1, r3
 8002ad6:	43d9      	mvns	r1, r3
 8002ad8:	687b      	ldr	r3, [r7, #4]
 8002ada:	400b      	ands	r3, r1
           ((PreemptPriority & (uint32_t)((1UL << (PreemptPriorityBits)) - 1UL)) << SubPriorityBits) |
 8002adc:	4313      	orrs	r3, r2
         );
}
 8002ade:	4618      	mov	r0, r3
 8002ae0:	3724      	adds	r7, #36	@ 0x24
 8002ae2:	46bd      	mov	sp, r7
 8002ae4:	f85d 7b04 	ldr.w	r7, [sp], #4
 8002ae8:	4770      	bx	lr
	...

08002aec <SysTick_Config>:
  \note    When the variable <b>__Vendor_SysTickConfig</b> is set to 1, then the
           function <b>SysTick_Config</b> is not included. In this case, the file <b><i>device</i>.h</b>
           must contain a vendor-specific implementation of this function.
 */
__STATIC_INLINE uint32_t SysTick_Config(uint32_t ticks)
{
 8002aec:	b580      	push	{r7, lr}
 8002aee:	b082      	sub	sp, #8
 8002af0:	af00      	add	r7, sp, #0
 8002af2:	6078      	str	r0, [r7, #4]
  if ((ticks - 1UL) > SysTick_LOAD_RELOAD_Msk)
 8002af4:	687b      	ldr	r3, [r7, #4]
 8002af6:	3b01      	subs	r3, #1
 8002af8:	f1b3 7f80 	cmp.w	r3, #16777216	@ 0x1000000
 8002afc:	d301      	bcc.n	8002b02 <SysTick_Config+0x16>
  {
    return (1UL);                                                   /* Reload value impossible */
 8002afe:	2301      	movs	r3, #1
 8002b00:	e00f      	b.n	8002b22 <SysTick_Config+0x36>
  }

  SysTick->LOAD  = (uint32_t)(ticks - 1UL);                         /* set reload register */
 8002b02:	4a0a      	ldr	r2, [pc, #40]	@ (8002b2c <SysTick_Config+0x40>)
 8002b04:	687b      	ldr	r3, [r7, #4]
 8002b06:	3b01      	subs	r3, #1
 8002b08:	6053      	str	r3, [r2, #4]
  NVIC_SetPriority (SysTick_IRQn, (1UL << __NVIC_PRIO_BITS) - 1UL); /* set Priority for Systick Interrupt */
 8002b0a:	210f      	movs	r1, #15
 8002b0c:	f04f 30ff 	mov.w	r0, #4294967295
 8002b10:	f7ff ff8e 	bl	8002a30 <__NVIC_SetPriority>
  SysTick->VAL   = 0UL;                                             /* Load the SysTick Counter Value */
 8002b14:	4b05      	ldr	r3, [pc, #20]	@ (8002b2c <SysTick_Config+0x40>)
 8002b16:	2200      	movs	r2, #0
 8002b18:	609a      	str	r2, [r3, #8]
  SysTick->CTRL  = SysTick_CTRL_CLKSOURCE_Msk |
 8002b1a:	4b04      	ldr	r3, [pc, #16]	@ (8002b2c <SysTick_Config+0x40>)
 8002b1c:	2207      	movs	r2, #7
 8002b1e:	601a      	str	r2, [r3, #0]
                   SysTick_CTRL_TICKINT_Msk   |
                   SysTick_CTRL_ENABLE_Msk;                         /* Enable SysTick IRQ and SysTick Timer */
  return (0UL);                                                     /* Function successful */
 8002b20:	2300      	movs	r3, #0
}
 8002b22:	4618      	mov	r0, r3
 8002b24:	3708      	adds	r7, #8
 8002b26:	46bd      	mov	sp, r7
 8002b28:	bd80      	pop	{r7, pc}
 8002b2a:	bf00      	nop
 8002b2c:	e000e010 	.word	0xe000e010

08002b30 <HAL_NVIC_SetPriorityGrouping>:
  * @note   When the NVIC_PriorityGroup_0 is selected, IRQ preemption is no more possible. 
  *         The pending IRQ priority will be managed only by the subpriority. 
  * @retval None
  */
void HAL_NVIC_SetPriorityGrouping(uint32_t PriorityGroup)
{
 8002b30:	b580      	push	{r7, lr}
 8002b32:	b082      	sub	sp, #8
 8002b34:	af00      	add	r7, sp, #0
 8002b36:	6078      	str	r0, [r7, #4]
  /* Check the parameters */
  assert_param(IS_NVIC_PRIORITY_GROUP(PriorityGroup));
  
  /* Set the PRIGROUP[10:8] bits according to the PriorityGroup parameter value */
  NVIC_SetPriorityGrouping(PriorityGroup);
 8002b38:	6878      	ldr	r0, [r7, #4]
 8002b3a:	f7ff ff29 	bl	8002990 <__NVIC_SetPriorityGrouping>
}
 8002b3e:	bf00      	nop
 8002b40:	3708      	adds	r7, #8
 8002b42:	46bd      	mov	sp, r7
 8002b44:	bd80      	pop	{r7, pc}

08002b46 <HAL_NVIC_SetPriority>:
  *         This parameter can be a value between 0 and 15
  *         A lower priority value indicates a higher priority.          
  * @retval None
  */
void HAL_NVIC_SetPriority(IRQn_Type IRQn, uint32_t PreemptPriority, uint32_t SubPriority)
{ 
 8002b46:	b580      	push	{r7, lr}
 8002b48:	b086      	sub	sp, #24
 8002b4a:	af00      	add	r7, sp, #0
 8002b4c:	4603      	mov	r3, r0
 8002b4e:	60b9      	str	r1, [r7, #8]
 8002b50:	607a      	str	r2, [r7, #4]
 8002b52:	73fb      	strb	r3, [r7, #15]
  uint32_t prioritygroup = 0x00U;
 8002b54:	2300      	movs	r3, #0
 8002b56:	617b      	str	r3, [r7, #20]
  
  /* Check the parameters */
  assert_param(IS_NVIC_SUB_PRIORITY(SubPriority));
  assert_param(IS_NVIC_PREEMPTION_PRIORITY(PreemptPriority));
  
  prioritygroup = NVIC_GetPriorityGrouping();
 8002b58:	f7ff ff3e 	bl	80029d8 <__NVIC_GetPriorityGrouping>
 8002b5c:	6178      	str	r0, [r7, #20]
  
  NVIC_SetPriority(IRQn, NVIC_EncodePriority(prioritygroup, PreemptPriority, SubPriority));
 8002b5e:	687a      	ldr	r2, [r7, #4]
 8002b60:	68b9      	ldr	r1, [r7, #8]
 8002b62:	6978      	ldr	r0, [r7, #20]
 8002b64:	f7ff ff8e 	bl	8002a84 <NVIC_EncodePriority>
 8002b68:	4602      	mov	r2, r0
 8002b6a:	f997 300f 	ldrsb.w	r3, [r7, #15]
 8002b6e:	4611      	mov	r1, r2
 8002b70:	4618      	mov	r0, r3
 8002b72:	f7ff ff5d 	bl	8002a30 <__NVIC_SetPriority>
}
 8002b76:	bf00      	nop
 8002b78:	3718      	adds	r7, #24
 8002b7a:	46bd      	mov	sp, r7
 8002b7c:	bd80      	pop	{r7, pc}

08002b7e <HAL_NVIC_EnableIRQ>:
  *         This parameter can be an enumerator of IRQn_Type enumeration
  *         (For the complete STM32 Devices IRQ Channels list, please refer to the appropriate CMSIS device file (stm32f4xxxx.h))
  * @retval None
  */
void HAL_NVIC_EnableIRQ(IRQn_Type IRQn)
{
 8002b7e:	b580      	push	{r7, lr}
 8002b80:	b082      	sub	sp, #8
 8002b82:	af00      	add	r7, sp, #0
 8002b84:	4603      	mov	r3, r0
 8002b86:	71fb      	strb	r3, [r7, #7]
  /* Check the parameters */
  assert_param(IS_NVIC_DEVICE_IRQ(IRQn));
  
  /* Enable interrupt */
  NVIC_EnableIRQ(IRQn);
 8002b88:	f997 3007 	ldrsb.w	r3, [r7, #7]
 8002b8c:	4618      	mov	r0, r3
 8002b8e:	f7ff ff31 	bl	80029f4 <__NVIC_EnableIRQ>
}
 8002b92:	bf00      	nop
 8002b94:	3708      	adds	r7, #8
 8002b96:	46bd      	mov	sp, r7
 8002b98:	bd80      	pop	{r7, pc}

08002b9a <HAL_SYSTICK_Config>:
  * @param  TicksNumb Specifies the ticks Number of ticks between two interrupts.
  * @retval status:  - 0  Function succeeded.
  *                  - 1  Function failed.
  */
uint32_t HAL_SYSTICK_Config(uint32_t TicksNumb)
{
 8002b9a:	b580      	push	{r7, lr}
 8002b9c:	b082      	sub	sp, #8
 8002b9e:	af00      	add	r7, sp, #0
 8002ba0:	6078      	str	r0, [r7, #4]
   return SysTick_Config(TicksNumb);
 8002ba2:	6878      	ldr	r0, [r7, #4]
 8002ba4:	f7ff ffa2 	bl	8002aec <SysTick_Config>
 8002ba8:	4603      	mov	r3, r0
}
 8002baa:	4618      	mov	r0, r3
 8002bac:	3708      	adds	r7, #8
 8002bae:	46bd      	mov	sp, r7
 8002bb0:	bd80      	pop	{r7, pc}

08002bb2 <HAL_DMA_Abort>:
  *        and the Stream will be effectively disabled only after the transfer of
  *        this single data is finished.  
  * @retval HAL status
  */
HAL_StatusTypeDef HAL_DMA_Abort(DMA_HandleTypeDef *hdma)
{
 8002bb2:	b580      	push	{r7, lr}
 8002bb4:	b084      	sub	sp, #16
 8002bb6:	af00      	add	r7, sp, #0
 8002bb8:	6078      	str	r0, [r7, #4]
  /* calculate DMA base and stream number */
  DMA_Base_Registers *regs = (DMA_Base_Registers *)hdma->StreamBaseAddress;
 8002bba:	687b      	ldr	r3, [r7, #4]
 8002bbc:	6d9b      	ldr	r3, [r3, #88]	@ 0x58
 8002bbe:	60fb      	str	r3, [r7, #12]
  
  uint32_t tickstart = HAL_GetTick();
 8002bc0:	f7ff feb6 	bl	8002930 <HAL_GetTick>
 8002bc4:	60b8      	str	r0, [r7, #8]
  
  if(hdma->State != HAL_DMA_STATE_BUSY)
 8002bc6:	687b      	ldr	r3, [r7, #4]
 8002bc8:	f893 3035 	ldrb.w	r3, [r3, #53]	@ 0x35
 8002bcc:	b2db      	uxtb	r3, r3
 8002bce:	2b02      	cmp	r3, #2
 8002bd0:	d008      	beq.n	8002be4 <HAL_DMA_Abort+0x32>
  {
    hdma->ErrorCode = HAL_DMA_ERROR_NO_XFER;
 8002bd2:	687b      	ldr	r3, [r7, #4]
 8002bd4:	2280      	movs	r2, #128	@ 0x80
 8002bd6:	655a      	str	r2, [r3, #84]	@ 0x54
    
    /* Process Unlocked */
    __HAL_UNLOCK(hdma);
 8002bd8:	687b      	ldr	r3, [r7, #4]
 8002bda:	2200      	movs	r2, #0
 8002bdc:	f883 2034 	strb.w	r2, [r3, #52]	@ 0x34
    
    return HAL_ERROR;
 8002be0:	2301      	movs	r3, #1
 8002be2:	e052      	b.n	8002c8a <HAL_DMA_Abort+0xd8>
  }
  else
  {
    /* Disable all the transfer interrupts */
    hdma->Instance->CR  &= ~(DMA_IT_TC | DMA_IT_TE | DMA_IT_DME);
 8002be4:	687b      	ldr	r3, [r7, #4]
 8002be6:	681b      	ldr	r3, [r3, #0]
 8002be8:	681a      	ldr	r2, [r3, #0]
 8002bea:	687b      	ldr	r3, [r7, #4]
 8002bec:	681b      	ldr	r3, [r3, #0]
 8002bee:	f022 0216 	bic.w	r2, r2, #22
 8002bf2:	601a      	str	r2, [r3, #0]
    hdma->Instance->FCR &= ~(DMA_IT_FE);
 8002bf4:	687b      	ldr	r3, [r7, #4]
 8002bf6:	681b      	ldr	r3, [r3, #0]
 8002bf8:	695a      	ldr	r2, [r3, #20]
 8002bfa:	687b      	ldr	r3, [r7, #4]
 8002bfc:	681b      	ldr	r3, [r3, #0]
 8002bfe:	f022 0280 	bic.w	r2, r2, #128	@ 0x80
 8002c02:	615a      	str	r2, [r3, #20]
    
    if((hdma->XferHalfCpltCallback != NULL) || (hdma->XferM1HalfCpltCallback != NULL))
 8002c04:	687b      	ldr	r3, [r7, #4]
 8002c06:	6c1b      	ldr	r3, [r3, #64]	@ 0x40
 8002c08:	2b00      	cmp	r3, #0
 8002c0a:	d103      	bne.n	8002c14 <HAL_DMA_Abort+0x62>
 8002c0c:	687b      	ldr	r3, [r7, #4]
 8002c0e:	6c9b      	ldr	r3, [r3, #72]	@ 0x48
 8002c10:	2b00      	cmp	r3, #0
 8002c12:	d007      	beq.n	8002c24 <HAL_DMA_Abort+0x72>
    {
      hdma->Instance->CR  &= ~(DMA_IT_HT);
 8002c14:	687b      	ldr	r3, [r7, #4]
 8002c16:	681b      	ldr	r3, [r3, #0]
 8002c18:	681a      	ldr	r2, [r3, #0]
 8002c1a:	687b      	ldr	r3, [r7, #4]
 8002c1c:	681b      	ldr	r3, [r3, #0]
 8002c1e:	f022 0208 	bic.w	r2, r2, #8
 8002c22:	601a      	str	r2, [r3, #0]
    }
    
    /* Disable the stream */
    __HAL_DMA_DISABLE(hdma);
 8002c24:	687b      	ldr	r3, [r7, #4]
 8002c26:	681b      	ldr	r3, [r3, #0]
 8002c28:	681a      	ldr	r2, [r3, #0]
 8002c2a:	687b      	ldr	r3, [r7, #4]
 8002c2c:	681b      	ldr	r3, [r3, #0]
 8002c2e:	f022 0201 	bic.w	r2, r2, #1
 8002c32:	601a      	str	r2, [r3, #0]
    
    /* Check if the DMA Stream is effectively disabled */
    while((hdma->Instance->CR & DMA_SxCR_EN) != RESET)
 8002c34:	e013      	b.n	8002c5e <HAL_DMA_Abort+0xac>
    {
      /* Check for the Timeout */
      if((HAL_GetTick() - tickstart ) > HAL_TIMEOUT_DMA_ABORT)
 8002c36:	f7ff fe7b 	bl	8002930 <HAL_GetTick>
 8002c3a:	4602      	mov	r2, r0
 8002c3c:	68bb      	ldr	r3, [r7, #8]
 8002c3e:	1ad3      	subs	r3, r2, r3
 8002c40:	2b05      	cmp	r3, #5
 8002c42:	d90c      	bls.n	8002c5e <HAL_DMA_Abort+0xac>
      {
        /* Update error code */
        hdma->ErrorCode = HAL_DMA_ERROR_TIMEOUT;
 8002c44:	687b      	ldr	r3, [r7, #4]
 8002c46:	2220      	movs	r2, #32
 8002c48:	655a      	str	r2, [r3, #84]	@ 0x54
        
        /* Change the DMA state */
        hdma->State = HAL_DMA_STATE_TIMEOUT;
 8002c4a:	687b      	ldr	r3, [r7, #4]
 8002c4c:	2203      	movs	r2, #3
 8002c4e:	f883 2035 	strb.w	r2, [r3, #53]	@ 0x35
        
        /* Process Unlocked */
        __HAL_UNLOCK(hdma);
 8002c52:	687b      	ldr	r3, [r7, #4]
 8002c54:	2200      	movs	r2, #0
 8002c56:	f883 2034 	strb.w	r2, [r3, #52]	@ 0x34
        
        return HAL_TIMEOUT;
 8002c5a:	2303      	movs	r3, #3
 8002c5c:	e015      	b.n	8002c8a <HAL_DMA_Abort+0xd8>
    while((hdma->Instance->CR & DMA_SxCR_EN) != RESET)
 8002c5e:	687b      	ldr	r3, [r7, #4]
 8002c60:	681b      	ldr	r3, [r3, #0]
 8002c62:	681b      	ldr	r3, [r3, #0]
 8002c64:	f003 0301 	and.w	r3, r3, #1
 8002c68:	2b00      	cmp	r3, #0
 8002c6a:	d1e4      	bne.n	8002c36 <HAL_DMA_Abort+0x84>
      }
    }
    
    /* Clear all interrupt flags at correct offset within the register */
    regs->IFCR = 0x3FU << hdma->StreamIndex;
 8002c6c:	687b      	ldr	r3, [r7, #4]
 8002c6e:	6ddb      	ldr	r3, [r3, #92]	@ 0x5c
 8002c70:	223f      	movs	r2, #63	@ 0x3f
 8002c72:	409a      	lsls	r2, r3
 8002c74:	68fb      	ldr	r3, [r7, #12]
 8002c76:	609a      	str	r2, [r3, #8]
    
    /* Change the DMA state*/
    hdma->State = HAL_DMA_STATE_READY;
 8002c78:	687b      	ldr	r3, [r7, #4]
 8002c7a:	2201      	movs	r2, #1
 8002c7c:	f883 2035 	strb.w	r2, [r3, #53]	@ 0x35
    
    /* Process Unlocked */
    __HAL_UNLOCK(hdma);
 8002c80:	687b      	ldr	r3, [r7, #4]
 8002c82:	2200      	movs	r2, #0
 8002c84:	f883 2034 	strb.w	r2, [r3, #52]	@ 0x34
  }
  return HAL_OK;
 8002c88:	2300      	movs	r3, #0
}
 8002c8a:	4618      	mov	r0, r3
 8002c8c:	3710      	adds	r7, #16
 8002c8e:	46bd      	mov	sp, r7
 8002c90:	bd80      	pop	{r7, pc}

08002c92 <HAL_DMA_Abort_IT>:
  * @param  hdma   pointer to a DMA_HandleTypeDef structure that contains
  *                 the configuration information for the specified DMA Stream.
  * @retval HAL status
  */
HAL_StatusTypeDef HAL_DMA_Abort_IT(DMA_HandleTypeDef *hdma)
{
 8002c92:	b480      	push	{r7}
 8002c94:	b083      	sub	sp, #12
 8002c96:	af00      	add	r7, sp, #0
 8002c98:	6078      	str	r0, [r7, #4]
  if(hdma->State != HAL_DMA_STATE_BUSY)
 8002c9a:	687b      	ldr	r3, [r7, #4]
 8002c9c:	f893 3035 	ldrb.w	r3, [r3, #53]	@ 0x35
 8002ca0:	b2db      	uxtb	r3, r3
 8002ca2:	2b02      	cmp	r3, #2
 8002ca4:	d004      	beq.n	8002cb0 <HAL_DMA_Abort_IT+0x1e>
  {
    hdma->ErrorCode = HAL_DMA_ERROR_NO_XFER;
 8002ca6:	687b      	ldr	r3, [r7, #4]
 8002ca8:	2280      	movs	r2, #128	@ 0x80
 8002caa:	655a      	str	r2, [r3, #84]	@ 0x54
    return HAL_ERROR;
 8002cac:	2301      	movs	r3, #1
 8002cae:	e00c      	b.n	8002cca <HAL_DMA_Abort_IT+0x38>
  }
  else
  {
    /* Set Abort State  */
    hdma->State = HAL_DMA_STATE_ABORT;
 8002cb0:	687b      	ldr	r3, [r7, #4]
 8002cb2:	2205      	movs	r2, #5
 8002cb4:	f883 2035 	strb.w	r2, [r3, #53]	@ 0x35
    
    /* Disable the stream */
    __HAL_DMA_DISABLE(hdma);
 8002cb8:	687b      	ldr	r3, [r7, #4]
 8002cba:	681b      	ldr	r3, [r3, #0]
 8002cbc:	681a      	ldr	r2, [r3, #0]
 8002cbe:	687b      	ldr	r3, [r7, #4]
 8002cc0:	681b      	ldr	r3, [r3, #0]
 8002cc2:	f022 0201 	bic.w	r2, r2, #1
 8002cc6:	601a      	str	r2, [r3, #0]
  }

  return HAL_OK;
 8002cc8:	2300      	movs	r3, #0
}
 8002cca:	4618      	mov	r0, r3
 8002ccc:	370c      	adds	r7, #12
 8002cce:	46bd      	mov	sp, r7
 8002cd0:	f85d 7b04 	ldr.w	r7, [sp], #4
 8002cd4:	4770      	bx	lr
	...

08002cd8 <HAL_GPIO_Init>:
  * @param  GPIO_Init pointer to a GPIO_InitTypeDef structure that contains
  *         the configuration information for the specified GPIO peripheral.
  * @retval None
  */
void HAL_GPIO_Init(GPIO_TypeDef  *GPIOx, GPIO_InitTypeDef *GPIO_Init)
{
 8002cd8:	b480      	push	{r7}
 8002cda:	b089      	sub	sp, #36	@ 0x24
 8002cdc:	af00      	add	r7, sp, #0
 8002cde:	6078      	str	r0, [r7, #4]
 8002ce0:	6039      	str	r1, [r7, #0]
  uint32_t position;
  uint32_t ioposition = 0x00U;
 8002ce2:	2300      	movs	r3, #0
 8002ce4:	617b      	str	r3, [r7, #20]
  uint32_t iocurrent = 0x00U;
 8002ce6:	2300      	movs	r3, #0
 8002ce8:	613b      	str	r3, [r7, #16]
  uint32_t temp = 0x00U;
 8002cea:	2300      	movs	r3, #0
 8002cec:	61bb      	str	r3, [r7, #24]
  assert_param(IS_GPIO_ALL_INSTANCE(GPIOx));
  assert_param(IS_GPIO_PIN(GPIO_Init->Pin));
  assert_param(IS_GPIO_MODE(GPIO_Init->Mode));

  /* Configure the port pins */
  for(position = 0U; position < GPIO_NUMBER; position++)
 8002cee:	2300      	movs	r3, #0
 8002cf0:	61fb      	str	r3, [r7, #28]
 8002cf2:	e159      	b.n	8002fa8 <HAL_GPIO_Init+0x2d0>
  {
    /* Get the IO position */
    ioposition = 0x01U << position;
 8002cf4:	2201      	movs	r2, #1
 8002cf6:	69fb      	ldr	r3, [r7, #28]
 8002cf8:	fa02 f303 	lsl.w	r3, r2, r3
 8002cfc:	617b      	str	r3, [r7, #20]
    /* Get the current IO position */
    iocurrent = (uint32_t)(GPIO_Init->Pin) & ioposition;
 8002cfe:	683b      	ldr	r3, [r7, #0]
 8002d00:	681b      	ldr	r3, [r3, #0]
 8002d02:	697a      	ldr	r2, [r7, #20]
 8002d04:	4013      	ands	r3, r2
 8002d06:	613b      	str	r3, [r7, #16]

    if(iocurrent == ioposition)
 8002d08:	693a      	ldr	r2, [r7, #16]
 8002d0a:	697b      	ldr	r3, [r7, #20]
 8002d0c:	429a      	cmp	r2, r3
 8002d0e:	f040 8148 	bne.w	8002fa2 <HAL_GPIO_Init+0x2ca>
    {
      /*--------------------- GPIO Mode Configuration ------------------------*/
      /* In case of Output or Alternate function mode selection */
      if(((GPIO_Init->Mode & GPIO_MODE) == MODE_OUTPUT) || \
 8002d12:	683b      	ldr	r3, [r7, #0]
 8002d14:	685b      	ldr	r3, [r3, #4]
 8002d16:	f003 0303 	and.w	r3, r3, #3
 8002d1a:	2b01      	cmp	r3, #1
 8002d1c:	d005      	beq.n	8002d2a <HAL_GPIO_Init+0x52>
          (GPIO_Init->Mode & GPIO_MODE) == MODE_AF)
 8002d1e:	683b      	ldr	r3, [r7, #0]
 8002d20:	685b      	ldr	r3, [r3, #4]
 8002d22:	f003 0303 	and.w	r3, r3, #3
      if(((GPIO_Init->Mode & GPIO_MODE) == MODE_OUTPUT) || \
 8002d26:	2b02      	cmp	r3, #2
 8002d28:	d130      	bne.n	8002d8c <HAL_GPIO_Init+0xb4>
      {
        /* Check the Speed parameter */
        assert_param(IS_GPIO_SPEED(GPIO_Init->Speed));
        /* Configure the IO Speed */
        temp = GPIOx->OSPEEDR; 
 8002d2a:	687b      	ldr	r3, [r7, #4]
 8002d2c:	689b      	ldr	r3, [r3, #8]
 8002d2e:	61bb      	str	r3, [r7, #24]
        temp &= ~(GPIO_OSPEEDER_OSPEEDR0 << (position * 2U));
 8002d30:	69fb      	ldr	r3, [r7, #28]
 8002d32:	005b      	lsls	r3, r3, #1
 8002d34:	2203      	movs	r2, #3
 8002d36:	fa02 f303 	lsl.w	r3, r2, r3
 8002d3a:	43db      	mvns	r3, r3
 8002d3c:	69ba      	ldr	r2, [r7, #24]
 8002d3e:	4013      	ands	r3, r2
 8002d40:	61bb      	str	r3, [r7, #24]
        temp |= (GPIO_Init->Speed << (position * 2U));
 8002d42:	683b      	ldr	r3, [r7, #0]
 8002d44:	68da      	ldr	r2, [r3, #12]
 8002d46:	69fb      	ldr	r3, [r7, #28]
 8002d48:	005b      	lsls	r3, r3, #1
 8002d4a:	fa02 f303 	lsl.w	r3, r2, r3
 8002d4e:	69ba      	ldr	r2, [r7, #24]
 8002d50:	4313      	orrs	r3, r2
 8002d52:	61bb      	str	r3, [r7, #24]
        GPIOx->OSPEEDR = temp;
 8002d54:	687b      	ldr	r3, [r7, #4]
 8002d56:	69ba      	ldr	r2, [r7, #24]
 8002d58:	609a      	str	r2, [r3, #8]

        /* Configure the IO Output Type */
        temp = GPIOx->OTYPER;
 8002d5a:	687b      	ldr	r3, [r7, #4]
 8002d5c:	685b      	ldr	r3, [r3, #4]
 8002d5e:	61bb      	str	r3, [r7, #24]
        temp &= ~(GPIO_OTYPER_OT_0 << position) ;
 8002d60:	2201      	movs	r2, #1
 8002d62:	69fb      	ldr	r3, [r7, #28]
 8002d64:	fa02 f303 	lsl.w	r3, r2, r3
 8002d68:	43db      	mvns	r3, r3
 8002d6a:	69ba      	ldr	r2, [r7, #24]
 8002d6c:	4013      	ands	r3, r2
 8002d6e:	61bb      	str	r3, [r7, #24]
        temp |= (((GPIO_Init->Mode & OUTPUT_TYPE) >> OUTPUT_TYPE_Pos) << position);
 8002d70:	683b      	ldr	r3, [r7, #0]
 8002d72:	685b      	ldr	r3, [r3, #4]
 8002d74:	091b      	lsrs	r3, r3, #4
 8002d76:	f003 0201 	and.w	r2, r3, #1
 8002d7a:	69fb      	ldr	r3, [r7, #28]
 8002d7c:	fa02 f303 	lsl.w	r3, r2, r3
 8002d80:	69ba      	ldr	r2, [r7, #24]
 8002d82:	4313      	orrs	r3, r2
 8002d84:	61bb      	str	r3, [r7, #24]
        GPIOx->OTYPER = temp;
 8002d86:	687b      	ldr	r3, [r7, #4]
 8002d88:	69ba      	ldr	r2, [r7, #24]
 8002d8a:	605a      	str	r2, [r3, #4]
       }

      if((GPIO_Init->Mode & GPIO_MODE) != MODE_ANALOG)
 8002d8c:	683b      	ldr	r3, [r7, #0]
 8002d8e:	685b      	ldr	r3, [r3, #4]
 8002d90:	f003 0303 	and.w	r3, r3, #3
 8002d94:	2b03      	cmp	r3, #3
 8002d96:	d017      	beq.n	8002dc8 <HAL_GPIO_Init+0xf0>
      {
        /* Check the parameters */
        assert_param(IS_GPIO_PULL(GPIO_Init->Pull));
        
        /* Activate the Pull-up or Pull down resistor for the current IO */
        temp = GPIOx->PUPDR;
 8002d98:	687b      	ldr	r3, [r7, #4]
 8002d9a:	68db      	ldr	r3, [r3, #12]
 8002d9c:	61bb      	str	r3, [r7, #24]
        temp &= ~(GPIO_PUPDR_PUPDR0 << (position * 2U));
 8002d9e:	69fb      	ldr	r3, [r7, #28]
 8002da0:	005b      	lsls	r3, r3, #1
 8002da2:	2203      	movs	r2, #3
 8002da4:	fa02 f303 	lsl.w	r3, r2, r3
 8002da8:	43db      	mvns	r3, r3
 8002daa:	69ba      	ldr	r2, [r7, #24]
 8002dac:	4013      	ands	r3, r2
 8002dae:	61bb      	str	r3, [r7, #24]
        temp |= ((GPIO_Init->Pull) << (position * 2U));
 8002db0:	683b      	ldr	r3, [r7, #0]
 8002db2:	689a      	ldr	r2, [r3, #8]
 8002db4:	69fb      	ldr	r3, [r7, #28]
 8002db6:	005b      	lsls	r3, r3, #1
 8002db8:	fa02 f303 	lsl.w	r3, r2, r3
 8002dbc:	69ba      	ldr	r2, [r7, #24]
 8002dbe:	4313      	orrs	r3, r2
 8002dc0:	61bb      	str	r3, [r7, #24]
        GPIOx->PUPDR = temp;
 8002dc2:	687b      	ldr	r3, [r7, #4]
 8002dc4:	69ba      	ldr	r2, [r7, #24]
 8002dc6:	60da      	str	r2, [r3, #12]
      }

      /* In case of Alternate function mode selection */
      if((GPIO_Init->Mode & GPIO_MODE) == MODE_AF)
 8002dc8:	683b      	ldr	r3, [r7, #0]
 8002dca:	685b      	ldr	r3, [r3, #4]
 8002dcc:	f003 0303 	and.w	r3, r3, #3
 8002dd0:	2b02      	cmp	r3, #2
 8002dd2:	d123      	bne.n	8002e1c <HAL_GPIO_Init+0x144>
      {
        /* Check the Alternate function parameter */
        assert_param(IS_GPIO_AF(GPIO_Init->Alternate));
        /* Configure Alternate function mapped with the current IO */
        temp = GPIOx->AFR[position >> 3U];
 8002dd4:	69fb      	ldr	r3, [r7, #28]
 8002dd6:	08da      	lsrs	r2, r3, #3
 8002dd8:	687b      	ldr	r3, [r7, #4]
 8002dda:	3208      	adds	r2, #8
 8002ddc:	f853 3022 	ldr.w	r3, [r3, r2, lsl #2]
 8002de0:	61bb      	str	r3, [r7, #24]
        temp &= ~(0xFU << ((uint32_t)(position & 0x07U) * 4U)) ;
 8002de2:	69fb      	ldr	r3, [r7, #28]
 8002de4:	f003 0307 	and.w	r3, r3, #7
 8002de8:	009b      	lsls	r3, r3, #2
 8002dea:	220f      	movs	r2, #15
 8002dec:	fa02 f303 	lsl.w	r3, r2, r3
 8002df0:	43db      	mvns	r3, r3
 8002df2:	69ba      	ldr	r2, [r7, #24]
 8002df4:	4013      	ands	r3, r2
 8002df6:	61bb      	str	r3, [r7, #24]
        temp |= ((uint32_t)(GPIO_Init->Alternate) << (((uint32_t)position & 0x07U) * 4U));
 8002df8:	683b      	ldr	r3, [r7, #0]
 8002dfa:	691a      	ldr	r2, [r3, #16]
 8002dfc:	69fb      	ldr	r3, [r7, #28]
 8002dfe:	f003 0307 	and.w	r3, r3, #7
 8002e02:	009b      	lsls	r3, r3, #2
 8002e04:	fa02 f303 	lsl.w	r3, r2, r3
 8002e08:	69ba      	ldr	r2, [r7, #24]
 8002e0a:	4313      	orrs	r3, r2
 8002e0c:	61bb      	str	r3, [r7, #24]
        GPIOx->AFR[position >> 3U] = temp;
 8002e0e:	69fb      	ldr	r3, [r7, #28]
 8002e10:	08da      	lsrs	r2, r3, #3
 8002e12:	687b      	ldr	r3, [r7, #4]
 8002e14:	3208      	adds	r2, #8
 8002e16:	69b9      	ldr	r1, [r7, #24]
 8002e18:	f843 1022 	str.w	r1, [r3, r2, lsl #2]
      }

      /* Configure IO Direction mode (Input, Output, Alternate or Analog) */
      temp = GPIOx->MODER;
 8002e1c:	687b      	ldr	r3, [r7, #4]
 8002e1e:	681b      	ldr	r3, [r3, #0]
 8002e20:	61bb      	str	r3, [r7, #24]
      temp &= ~(GPIO_MODER_MODER0 << (position * 2U));
 8002e22:	69fb      	ldr	r3, [r7, #28]
 8002e24:	005b      	lsls	r3, r3, #1
 8002e26:	2203      	movs	r2, #3
 8002e28:	fa02 f303 	lsl.w	r3, r2, r3
 8002e2c:	43db      	mvns	r3, r3
 8002e2e:	69ba      	ldr	r2, [r7, #24]
 8002e30:	4013      	ands	r3, r2
 8002e32:	61bb      	str	r3, [r7, #24]
      temp |= ((GPIO_Init->Mode & GPIO_MODE) << (position * 2U));
 8002e34:	683b      	ldr	r3, [r7, #0]
 8002e36:	685b      	ldr	r3, [r3, #4]
 8002e38:	f003 0203 	and.w	r2, r3, #3
 8002e3c:	69fb      	ldr	r3, [r7, #28]
 8002e3e:	005b      	lsls	r3, r3, #1
 8002e40:	fa02 f303 	lsl.w	r3, r2, r3
 8002e44:	69ba      	ldr	r2, [r7, #24]
 8002e46:	4313      	orrs	r3, r2
 8002e48:	61bb      	str	r3, [r7, #24]
      GPIOx->MODER = temp;
 8002e4a:	687b      	ldr	r3, [r7, #4]
 8002e4c:	69ba      	ldr	r2, [r7, #24]
 8002e4e:	601a      	str	r2, [r3, #0]

      /*--------------------- EXTI Mode Configuration ------------------------*/
      /* Configure the External Interrupt or event for the current IO */
      if((GPIO_Init->Mode & EXTI_MODE) != 0x00U)
 8002e50:	683b      	ldr	r3, [r7, #0]
 8002e52:	685b      	ldr	r3, [r3, #4]
 8002e54:	f403 3340 	and.w	r3, r3, #196608	@ 0x30000
 8002e58:	2b00      	cmp	r3, #0
 8002e5a:	f000 80a2 	beq.w	8002fa2 <HAL_GPIO_Init+0x2ca>
      {
        /* Enable SYSCFG Clock */
        __HAL_RCC_SYSCFG_CLK_ENABLE();
 8002e5e:	2300      	movs	r3, #0
 8002e60:	60fb      	str	r3, [r7, #12]
 8002e62:	4b57      	ldr	r3, [pc, #348]	@ (8002fc0 <HAL_GPIO_Init+0x2e8>)
 8002e64:	6c5b      	ldr	r3, [r3, #68]	@ 0x44
 8002e66:	4a56      	ldr	r2, [pc, #344]	@ (8002fc0 <HAL_GPIO_Init+0x2e8>)
 8002e68:	f443 4380 	orr.w	r3, r3, #16384	@ 0x4000
 8002e6c:	6453      	str	r3, [r2, #68]	@ 0x44
 8002e6e:	4b54      	ldr	r3, [pc, #336]	@ (8002fc0 <HAL_GPIO_Init+0x2e8>)
 8002e70:	6c5b      	ldr	r3, [r3, #68]	@ 0x44
 8002e72:	f403 4380 	and.w	r3, r3, #16384	@ 0x4000
 8002e76:	60fb      	str	r3, [r7, #12]
 8002e78:	68fb      	ldr	r3, [r7, #12]

        temp = SYSCFG->EXTICR[position >> 2U];
 8002e7a:	4a52      	ldr	r2, [pc, #328]	@ (8002fc4 <HAL_GPIO_Init+0x2ec>)
 8002e7c:	69fb      	ldr	r3, [r7, #28]
 8002e7e:	089b      	lsrs	r3, r3, #2
 8002e80:	3302      	adds	r3, #2
 8002e82:	f852 3023 	ldr.w	r3, [r2, r3, lsl #2]
 8002e86:	61bb      	str	r3, [r7, #24]
        temp &= ~(0x0FU << (4U * (position & 0x03U)));
 8002e88:	69fb      	ldr	r3, [r7, #28]
 8002e8a:	f003 0303 	and.w	r3, r3, #3
 8002e8e:	009b      	lsls	r3, r3, #2
 8002e90:	220f      	movs	r2, #15
 8002e92:	fa02 f303 	lsl.w	r3, r2, r3
 8002e96:	43db      	mvns	r3, r3
 8002e98:	69ba      	ldr	r2, [r7, #24]
 8002e9a:	4013      	ands	r3, r2
 8002e9c:	61bb      	str	r3, [r7, #24]
        temp |= ((uint32_t)(GPIO_GET_INDEX(GPIOx)) << (4U * (position & 0x03U)));
 8002e9e:	687b      	ldr	r3, [r7, #4]
 8002ea0:	4a49      	ldr	r2, [pc, #292]	@ (8002fc8 <HAL_GPIO_Init+0x2f0>)
 8002ea2:	4293      	cmp	r3, r2
 8002ea4:	d019      	beq.n	8002eda <HAL_GPIO_Init+0x202>
 8002ea6:	687b      	ldr	r3, [r7, #4]
 8002ea8:	4a48      	ldr	r2, [pc, #288]	@ (8002fcc <HAL_GPIO_Init+0x2f4>)
 8002eaa:	4293      	cmp	r3, r2
 8002eac:	d013      	beq.n	8002ed6 <HAL_GPIO_Init+0x1fe>
 8002eae:	687b      	ldr	r3, [r7, #4]
 8002eb0:	4a47      	ldr	r2, [pc, #284]	@ (8002fd0 <HAL_GPIO_Init+0x2f8>)
 8002eb2:	4293      	cmp	r3, r2
 8002eb4:	d00d      	beq.n	8002ed2 <HAL_GPIO_Init+0x1fa>
 8002eb6:	687b      	ldr	r3, [r7, #4]
 8002eb8:	4a46      	ldr	r2, [pc, #280]	@ (8002fd4 <HAL_GPIO_Init+0x2fc>)
 8002eba:	4293      	cmp	r3, r2
 8002ebc:	d007      	beq.n	8002ece <HAL_GPIO_Init+0x1f6>
 8002ebe:	687b      	ldr	r3, [r7, #4]
 8002ec0:	4a45      	ldr	r2, [pc, #276]	@ (8002fd8 <HAL_GPIO_Init+0x300>)
 8002ec2:	4293      	cmp	r3, r2
 8002ec4:	d101      	bne.n	8002eca <HAL_GPIO_Init+0x1f2>
 8002ec6:	2304      	movs	r3, #4
 8002ec8:	e008      	b.n	8002edc <HAL_GPIO_Init+0x204>
 8002eca:	2307      	movs	r3, #7
 8002ecc:	e006      	b.n	8002edc <HAL_GPIO_Init+0x204>
 8002ece:	2303      	movs	r3, #3
 8002ed0:	e004      	b.n	8002edc <HAL_GPIO_Init+0x204>
 8002ed2:	2302      	movs	r3, #2
 8002ed4:	e002      	b.n	8002edc <HAL_GPIO_Init+0x204>
 8002ed6:	2301      	movs	r3, #1
 8002ed8:	e000      	b.n	8002edc <HAL_GPIO_Init+0x204>
 8002eda:	2300      	movs	r3, #0
 8002edc:	69fa      	ldr	r2, [r7, #28]
 8002ede:	f002 0203 	and.w	r2, r2, #3
 8002ee2:	0092      	lsls	r2, r2, #2
 8002ee4:	4093      	lsls	r3, r2
 8002ee6:	69ba      	ldr	r2, [r7, #24]
 8002ee8:	4313      	orrs	r3, r2
 8002eea:	61bb      	str	r3, [r7, #24]
        SYSCFG->EXTICR[position >> 2U] = temp;
 8002eec:	4935      	ldr	r1, [pc, #212]	@ (8002fc4 <HAL_GPIO_Init+0x2ec>)
 8002eee:	69fb      	ldr	r3, [r7, #28]
 8002ef0:	089b      	lsrs	r3, r3, #2
 8002ef2:	3302      	adds	r3, #2
 8002ef4:	69ba      	ldr	r2, [r7, #24]
 8002ef6:	f841 2023 	str.w	r2, [r1, r3, lsl #2]

        /* Clear Rising Falling edge configuration */
        temp = EXTI->RTSR;
 8002efa:	4b38      	ldr	r3, [pc, #224]	@ (8002fdc <HAL_GPIO_Init+0x304>)
 8002efc:	689b      	ldr	r3, [r3, #8]
 8002efe:	61bb      	str	r3, [r7, #24]
        temp &= ~((uint32_t)iocurrent);
 8002f00:	693b      	ldr	r3, [r7, #16]
 8002f02:	43db      	mvns	r3, r3
 8002f04:	69ba      	ldr	r2, [r7, #24]
 8002f06:	4013      	ands	r3, r2
 8002f08:	61bb      	str	r3, [r7, #24]
        if((GPIO_Init->Mode & TRIGGER_RISING) != 0x00U)
 8002f0a:	683b      	ldr	r3, [r7, #0]
 8002f0c:	685b      	ldr	r3, [r3, #4]
 8002f0e:	f403 1380 	and.w	r3, r3, #1048576	@ 0x100000
 8002f12:	2b00      	cmp	r3, #0
 8002f14:	d003      	beq.n	8002f1e <HAL_GPIO_Init+0x246>
        {
          temp |= iocurrent;
 8002f16:	69ba      	ldr	r2, [r7, #24]
 8002f18:	693b      	ldr	r3, [r7, #16]
 8002f1a:	4313      	orrs	r3, r2
 8002f1c:	61bb      	str	r3, [r7, #24]
        }
        EXTI->RTSR = temp;
 8002f1e:	4a2f      	ldr	r2, [pc, #188]	@ (8002fdc <HAL_GPIO_Init+0x304>)
 8002f20:	69bb      	ldr	r3, [r7, #24]
 8002f22:	6093      	str	r3, [r2, #8]

        temp = EXTI->FTSR;
 8002f24:	4b2d      	ldr	r3, [pc, #180]	@ (8002fdc <HAL_GPIO_Init+0x304>)
 8002f26:	68db      	ldr	r3, [r3, #12]
 8002f28:	61bb      	str	r3, [r7, #24]
        temp &= ~((uint32_t)iocurrent);
 8002f2a:	693b      	ldr	r3, [r7, #16]
 8002f2c:	43db      	mvns	r3, r3
 8002f2e:	69ba      	ldr	r2, [r7, #24]
 8002f30:	4013      	ands	r3, r2
 8002f32:	61bb      	str	r3, [r7, #24]
        if((GPIO_Init->Mode & TRIGGER_FALLING) != 0x00U)
 8002f34:	683b      	ldr	r3, [r7, #0]
 8002f36:	685b      	ldr	r3, [r3, #4]
 8002f38:	f403 1300 	and.w	r3, r3, #2097152	@ 0x200000
 8002f3c:	2b00      	cmp	r3, #0
 8002f3e:	d003      	beq.n	8002f48 <HAL_GPIO_Init+0x270>
        {
          temp |= iocurrent;
 8002f40:	69ba      	ldr	r2, [r7, #24]
 8002f42:	693b      	ldr	r3, [r7, #16]
 8002f44:	4313      	orrs	r3, r2
 8002f46:	61bb      	str	r3, [r7, #24]
        }
        EXTI->FTSR = temp;
 8002f48:	4a24      	ldr	r2, [pc, #144]	@ (8002fdc <HAL_GPIO_Init+0x304>)
 8002f4a:	69bb      	ldr	r3, [r7, #24]
 8002f4c:	60d3      	str	r3, [r2, #12]

        temp = EXTI->EMR;
 8002f4e:	4b23      	ldr	r3, [pc, #140]	@ (8002fdc <HAL_GPIO_Init+0x304>)
 8002f50:	685b      	ldr	r3, [r3, #4]
 8002f52:	61bb      	str	r3, [r7, #24]
        temp &= ~((uint32_t)iocurrent);
 8002f54:	693b      	ldr	r3, [r7, #16]
 8002f56:	43db      	mvns	r3, r3
 8002f58:	69ba      	ldr	r2, [r7, #24]
 8002f5a:	4013      	ands	r3, r2
 8002f5c:	61bb      	str	r3, [r7, #24]
        if((GPIO_Init->Mode & EXTI_EVT) != 0x00U)
 8002f5e:	683b      	ldr	r3, [r7, #0]
 8002f60:	685b      	ldr	r3, [r3, #4]
 8002f62:	f403 3300 	and.w	r3, r3, #131072	@ 0x20000
 8002f66:	2b00      	cmp	r3, #0
 8002f68:	d003      	beq.n	8002f72 <HAL_GPIO_Init+0x29a>
        {
          temp |= iocurrent;
 8002f6a:	69ba      	ldr	r2, [r7, #24]
 8002f6c:	693b      	ldr	r3, [r7, #16]
 8002f6e:	4313      	orrs	r3, r2
 8002f70:	61bb      	str	r3, [r7, #24]
        }
        EXTI->EMR = temp;
 8002f72:	4a1a      	ldr	r2, [pc, #104]	@ (8002fdc <HAL_GPIO_Init+0x304>)
 8002f74:	69bb      	ldr	r3, [r7, #24]
 8002f76:	6053      	str	r3, [r2, #4]

        /* Clear EXTI line configuration */
        temp = EXTI->IMR;
 8002f78:	4b18      	ldr	r3, [pc, #96]	@ (8002fdc <HAL_GPIO_Init+0x304>)
 8002f7a:	681b      	ldr	r3, [r3, #0]
 8002f7c:	61bb      	str	r3, [r7, #24]
        temp &= ~((uint32_t)iocurrent);
 8002f7e:	693b      	ldr	r3, [r7, #16]
 8002f80:	43db      	mvns	r3, r3
 8002f82:	69ba      	ldr	r2, [r7, #24]
 8002f84:	4013      	ands	r3, r2
 8002f86:	61bb      	str	r3, [r7, #24]
        if((GPIO_Init->Mode & EXTI_IT) != 0x00U)
 8002f88:	683b      	ldr	r3, [r7, #0]
 8002f8a:	685b      	ldr	r3, [r3, #4]
 8002f8c:	f403 3380 	and.w	r3, r3, #65536	@ 0x10000
 8002f90:	2b00      	cmp	r3, #0
 8002f92:	d003      	beq.n	8002f9c <HAL_GPIO_Init+0x2c4>
        {
          temp |= iocurrent;
 8002f94:	69ba      	ldr	r2, [r7, #24]
 8002f96:	693b      	ldr	r3, [r7, #16]
 8002f98:	4313      	orrs	r3, r2
 8002f9a:	61bb      	str	r3, [r7, #24]
        }
        EXTI->IMR = temp;
 8002f9c:	4a0f      	ldr	r2, [pc, #60]	@ (8002fdc <HAL_GPIO_Init+0x304>)
 8002f9e:	69bb      	ldr	r3, [r7, #24]
 8002fa0:	6013      	str	r3, [r2, #0]
  for(position = 0U; position < GPIO_NUMBER; position++)
 8002fa2:	69fb      	ldr	r3, [r7, #28]
 8002fa4:	3301      	adds	r3, #1
 8002fa6:	61fb      	str	r3, [r7, #28]
 8002fa8:	69fb      	ldr	r3, [r7, #28]
 8002faa:	2b0f      	cmp	r3, #15
 8002fac:	f67f aea2 	bls.w	8002cf4 <HAL_GPIO_Init+0x1c>
      }
    }
  }
}
 8002fb0:	bf00      	nop
 8002fb2:	bf00      	nop
 8002fb4:	3724      	adds	r7, #36	@ 0x24
 8002fb6:	46bd      	mov	sp, r7
 8002fb8:	f85d 7b04 	ldr.w	r7, [sp], #4
 8002fbc:	4770      	bx	lr
 8002fbe:	bf00      	nop
 8002fc0:	40023800 	.word	0x40023800
 8002fc4:	40013800 	.word	0x40013800
 8002fc8:	40020000 	.word	0x40020000
 8002fcc:	40020400 	.word	0x40020400
 8002fd0:	40020800 	.word	0x40020800
 8002fd4:	40020c00 	.word	0x40020c00
 8002fd8:	40021000 	.word	0x40021000
 8002fdc:	40013c00 	.word	0x40013c00

08002fe0 <HAL_GPIO_WritePin>:
  *            @arg GPIO_PIN_RESET: to clear the port pin
  *            @arg GPIO_PIN_SET: to set the port pin
  * @retval None
  */
void HAL_GPIO_WritePin(GPIO_TypeDef* GPIOx, uint16_t GPIO_Pin, GPIO_PinState PinState)
{
 8002fe0:	b480      	push	{r7}
 8002fe2:	b083      	sub	sp, #12
 8002fe4:	af00      	add	r7, sp, #0
 8002fe6:	6078      	str	r0, [r7, #4]
 8002fe8:	460b      	mov	r3, r1
 8002fea:	807b      	strh	r3, [r7, #2]
 8002fec:	4613      	mov	r3, r2
 8002fee:	707b      	strb	r3, [r7, #1]
  /* Check the parameters */
  assert_param(IS_GPIO_PIN(GPIO_Pin));
  assert_param(IS_GPIO_PIN_ACTION(PinState));

  if(PinState != GPIO_PIN_RESET)
 8002ff0:	787b      	ldrb	r3, [r7, #1]
 8002ff2:	2b00      	cmp	r3, #0
 8002ff4:	d003      	beq.n	8002ffe <HAL_GPIO_WritePin+0x1e>
  {
    GPIOx->BSRR = GPIO_Pin;
 8002ff6:	887a      	ldrh	r2, [r7, #2]
 8002ff8:	687b      	ldr	r3, [r7, #4]
 8002ffa:	619a      	str	r2, [r3, #24]
  }
  else
  {
    GPIOx->BSRR = (uint32_t)GPIO_Pin << 16U;
  }
}
 8002ffc:	e003      	b.n	8003006 <HAL_GPIO_WritePin+0x26>
    GPIOx->BSRR = (uint32_t)GPIO_Pin << 16U;
 8002ffe:	887b      	ldrh	r3, [r7, #2]
 8003000:	041a      	lsls	r2, r3, #16
 8003002:	687b      	ldr	r3, [r7, #4]
 8003004:	619a      	str	r2, [r3, #24]
}
 8003006:	bf00      	nop
 8003008:	370c      	adds	r7, #12
 800300a:	46bd      	mov	sp, r7
 800300c:	f85d 7b04 	ldr.w	r7, [sp], #4
 8003010:	4770      	bx	lr

08003012 <HAL_GPIO_TogglePin>:
  *                      x can be (A..I) to select the GPIO peripheral for STM32F40XX and STM32F427X devices.
  * @param  GPIO_Pin Specifies the pins to be toggled.
  * @retval None
  */
void HAL_GPIO_TogglePin(GPIO_TypeDef* GPIOx, uint16_t GPIO_Pin)
{
 8003012:	b480      	push	{r7}
 8003014:	b085      	sub	sp, #20
 8003016:	af00      	add	r7, sp, #0
 8003018:	6078      	str	r0, [r7, #4]
 800301a:	460b      	mov	r3, r1
 800301c:	807b      	strh	r3, [r7, #2]

  /* Check the parameters */
  assert_param(IS_GPIO_PIN(GPIO_Pin));

  /* get current Output Data Register value */
  odr = GPIOx->ODR;
 800301e:	687b      	ldr	r3, [r7, #4]
 8003020:	695b      	ldr	r3, [r3, #20]
 8003022:	60fb      	str	r3, [r7, #12]

  /* Set selected pins that were at low level, and reset ones that were high */
  GPIOx->BSRR = ((odr & GPIO_Pin) << GPIO_NUMBER) | (~odr & GPIO_Pin);
 8003024:	887a      	ldrh	r2, [r7, #2]
 8003026:	68fb      	ldr	r3, [r7, #12]
 8003028:	4013      	ands	r3, r2
 800302a:	041a      	lsls	r2, r3, #16
 800302c:	68fb      	ldr	r3, [r7, #12]
 800302e:	43d9      	mvns	r1, r3
 8003030:	887b      	ldrh	r3, [r7, #2]
 8003032:	400b      	ands	r3, r1
 8003034:	431a      	orrs	r2, r3
 8003036:	687b      	ldr	r3, [r7, #4]
 8003038:	619a      	str	r2, [r3, #24]
}
 800303a:	bf00      	nop
 800303c:	3714      	adds	r7, #20
 800303e:	46bd      	mov	sp, r7
 8003040:	f85d 7b04 	ldr.w	r7, [sp], #4
 8003044:	4770      	bx	lr
	...

08003048 <HAL_I2C_Init>:
  * @param  hi2c Pointer to a I2C_HandleTypeDef structure that contains
  *                the configuration information for the specified I2C.
  * @retval HAL status
  */
HAL_StatusTypeDef HAL_I2C_Init(I2C_HandleTypeDef *hi2c)
{
 8003048:	b580      	push	{r7, lr}
 800304a:	b084      	sub	sp, #16
 800304c:	af00      	add	r7, sp, #0
 800304e:	6078      	str	r0, [r7, #4]
  uint32_t freqrange;
  uint32_t pclk1;

  /* Check the I2C handle allocation */
  if (hi2c == NULL)
 8003050:	687b      	ldr	r3, [r7, #4]
 8003052:	2b00      	cmp	r3, #0
 8003054:	d101      	bne.n	800305a <HAL_I2C_Init+0x12>
  {
    return HAL_ERROR;
 8003056:	2301      	movs	r3, #1
 8003058:	e12b      	b.n	80032b2 <HAL_I2C_Init+0x26a>
  assert_param(IS_I2C_DUAL_ADDRESS(hi2c->Init.DualAddressMode));
  assert_param(IS_I2C_OWN_ADDRESS2(hi2c->Init.OwnAddress2));
  assert_param(IS_I2C_GENERAL_CALL(hi2c->Init.GeneralCallMode));
  assert_param(IS_I2C_NO_STRETCH(hi2c->Init.NoStretchMode));

  if (hi2c->State == HAL_I2C_STATE_RESET)
 800305a:	687b      	ldr	r3, [r7, #4]
 800305c:	f893 303d 	ldrb.w	r3, [r3, #61]	@ 0x3d
 8003060:	b2db      	uxtb	r3, r3
 8003062:	2b00      	cmp	r3, #0
 8003064:	d106      	bne.n	8003074 <HAL_I2C_Init+0x2c>
  {
    /* Allocate lock resource and initialize it */
    hi2c->Lock = HAL_UNLOCKED;
 8003066:	687b      	ldr	r3, [r7, #4]
 8003068:	2200      	movs	r2, #0
 800306a:	f883 203c 	strb.w	r2, [r3, #60]	@ 0x3c

    /* Init the low level hardware : GPIO, CLOCK, NVIC */
    hi2c->MspInitCallback(hi2c);
#else
    /* Init the low level hardware : GPIO, CLOCK, NVIC */
    HAL_I2C_MspInit(hi2c);
 800306e:	6878      	ldr	r0, [r7, #4]
 8003070:	f7ff fa0c 	bl	800248c <HAL_I2C_MspInit>
#endif /* USE_HAL_I2C_REGISTER_CALLBACKS */
  }

  hi2c->State = HAL_I2C_STATE_BUSY;
 8003074:	687b      	ldr	r3, [r7, #4]
 8003076:	2224      	movs	r2, #36	@ 0x24
 8003078:	f883 203d 	strb.w	r2, [r3, #61]	@ 0x3d

  /* Disable the selected I2C peripheral */
  __HAL_I2C_DISABLE(hi2c);
 800307c:	687b      	ldr	r3, [r7, #4]
 800307e:	681b      	ldr	r3, [r3, #0]
 8003080:	681a      	ldr	r2, [r3, #0]
 8003082:	687b      	ldr	r3, [r7, #4]
 8003084:	681b      	ldr	r3, [r3, #0]
 8003086:	f022 0201 	bic.w	r2, r2, #1
 800308a:	601a      	str	r2, [r3, #0]

  /*Reset I2C*/
  hi2c->Instance->CR1 |= I2C_CR1_SWRST;
 800308c:	687b      	ldr	r3, [r7, #4]
 800308e:	681b      	ldr	r3, [r3, #0]
 8003090:	681a      	ldr	r2, [r3, #0]
 8003092:	687b      	ldr	r3, [r7, #4]
 8003094:	681b      	ldr	r3, [r3, #0]
 8003096:	f442 4200 	orr.w	r2, r2, #32768	@ 0x8000
 800309a:	601a      	str	r2, [r3, #0]
  hi2c->Instance->CR1 &= ~I2C_CR1_SWRST;
 800309c:	687b      	ldr	r3, [r7, #4]
 800309e:	681b      	ldr	r3, [r3, #0]
 80030a0:	681a      	ldr	r2, [r3, #0]
 80030a2:	687b      	ldr	r3, [r7, #4]
 80030a4:	681b      	ldr	r3, [r3, #0]
 80030a6:	f422 4200 	bic.w	r2, r2, #32768	@ 0x8000
 80030aa:	601a      	str	r2, [r3, #0]

  /* Get PCLK1 frequency */
  pclk1 = HAL_RCC_GetPCLK1Freq();
 80030ac:	f001 fc20 	bl	80048f0 <HAL_RCC_GetPCLK1Freq>
 80030b0:	60f8      	str	r0, [r7, #12]

  /* Check the minimum allowed PCLK1 frequency */
  if (I2C_MIN_PCLK_FREQ(pclk1, hi2c->Init.ClockSpeed) == 1U)
 80030b2:	687b      	ldr	r3, [r7, #4]
 80030b4:	685b      	ldr	r3, [r3, #4]
 80030b6:	4a81      	ldr	r2, [pc, #516]	@ (80032bc <HAL_I2C_Init+0x274>)
 80030b8:	4293      	cmp	r3, r2
 80030ba:	d807      	bhi.n	80030cc <HAL_I2C_Init+0x84>
 80030bc:	68fb      	ldr	r3, [r7, #12]
 80030be:	4a80      	ldr	r2, [pc, #512]	@ (80032c0 <HAL_I2C_Init+0x278>)
 80030c0:	4293      	cmp	r3, r2
 80030c2:	bf94      	ite	ls
 80030c4:	2301      	movls	r3, #1
 80030c6:	2300      	movhi	r3, #0
 80030c8:	b2db      	uxtb	r3, r3
 80030ca:	e006      	b.n	80030da <HAL_I2C_Init+0x92>
 80030cc:	68fb      	ldr	r3, [r7, #12]
 80030ce:	4a7d      	ldr	r2, [pc, #500]	@ (80032c4 <HAL_I2C_Init+0x27c>)
 80030d0:	4293      	cmp	r3, r2
 80030d2:	bf94      	ite	ls
 80030d4:	2301      	movls	r3, #1
 80030d6:	2300      	movhi	r3, #0
 80030d8:	b2db      	uxtb	r3, r3
 80030da:	2b00      	cmp	r3, #0
 80030dc:	d001      	beq.n	80030e2 <HAL_I2C_Init+0x9a>
  {
    return HAL_ERROR;
 80030de:	2301      	movs	r3, #1
 80030e0:	e0e7      	b.n	80032b2 <HAL_I2C_Init+0x26a>
  }

  /* Calculate frequency range */
  freqrange = I2C_FREQRANGE(pclk1);
 80030e2:	68fb      	ldr	r3, [r7, #12]
 80030e4:	4a78      	ldr	r2, [pc, #480]	@ (80032c8 <HAL_I2C_Init+0x280>)
 80030e6:	fba2 2303 	umull	r2, r3, r2, r3
 80030ea:	0c9b      	lsrs	r3, r3, #18
 80030ec:	60bb      	str	r3, [r7, #8]

  /*---------------------------- I2Cx CR2 Configuration ----------------------*/
  /* Configure I2Cx: Frequency range */
  MODIFY_REG(hi2c->Instance->CR2, I2C_CR2_FREQ, freqrange);
 80030ee:	687b      	ldr	r3, [r7, #4]
 80030f0:	681b      	ldr	r3, [r3, #0]
 80030f2:	685b      	ldr	r3, [r3, #4]
 80030f4:	f023 013f 	bic.w	r1, r3, #63	@ 0x3f
 80030f8:	687b      	ldr	r3, [r7, #4]
 80030fa:	681b      	ldr	r3, [r3, #0]
 80030fc:	68ba      	ldr	r2, [r7, #8]
 80030fe:	430a      	orrs	r2, r1
 8003100:	605a      	str	r2, [r3, #4]

  /*---------------------------- I2Cx TRISE Configuration --------------------*/
  /* Configure I2Cx: Rise Time */
  MODIFY_REG(hi2c->Instance->TRISE, I2C_TRISE_TRISE, I2C_RISE_TIME(freqrange, hi2c->Init.ClockSpeed));
 8003102:	687b      	ldr	r3, [r7, #4]
 8003104:	681b      	ldr	r3, [r3, #0]
 8003106:	6a1b      	ldr	r3, [r3, #32]
 8003108:	f023 013f 	bic.w	r1, r3, #63	@ 0x3f
 800310c:	687b      	ldr	r3, [r7, #4]
 800310e:	685b      	ldr	r3, [r3, #4]
 8003110:	4a6a      	ldr	r2, [pc, #424]	@ (80032bc <HAL_I2C_Init+0x274>)
 8003112:	4293      	cmp	r3, r2
 8003114:	d802      	bhi.n	800311c <HAL_I2C_Init+0xd4>
 8003116:	68bb      	ldr	r3, [r7, #8]
 8003118:	3301      	adds	r3, #1
 800311a:	e009      	b.n	8003130 <HAL_I2C_Init+0xe8>
 800311c:	68bb      	ldr	r3, [r7, #8]
 800311e:	f44f 7296 	mov.w	r2, #300	@ 0x12c
 8003122:	fb02 f303 	mul.w	r3, r2, r3
 8003126:	4a69      	ldr	r2, [pc, #420]	@ (80032cc <HAL_I2C_Init+0x284>)
 8003128:	fba2 2303 	umull	r2, r3, r2, r3
 800312c:	099b      	lsrs	r3, r3, #6
 800312e:	3301      	adds	r3, #1
 8003130:	687a      	ldr	r2, [r7, #4]
 8003132:	6812      	ldr	r2, [r2, #0]
 8003134:	430b      	orrs	r3, r1
 8003136:	6213      	str	r3, [r2, #32]

  /*---------------------------- I2Cx CCR Configuration ----------------------*/
  /* Configure I2Cx: Speed */
  MODIFY_REG(hi2c->Instance->CCR, (I2C_CCR_FS | I2C_CCR_DUTY | I2C_CCR_CCR), I2C_SPEED(pclk1, hi2c->Init.ClockSpeed, hi2c->Init.DutyCycle));
 8003138:	687b      	ldr	r3, [r7, #4]
 800313a:	681b      	ldr	r3, [r3, #0]
 800313c:	69db      	ldr	r3, [r3, #28]
 800313e:	f423 424f 	bic.w	r2, r3, #52992	@ 0xcf00
 8003142:	f022 02ff 	bic.w	r2, r2, #255	@ 0xff
 8003146:	687b      	ldr	r3, [r7, #4]
 8003148:	685b      	ldr	r3, [r3, #4]
 800314a:	495c      	ldr	r1, [pc, #368]	@ (80032bc <HAL_I2C_Init+0x274>)
 800314c:	428b      	cmp	r3, r1
 800314e:	d819      	bhi.n	8003184 <HAL_I2C_Init+0x13c>
 8003150:	68fb      	ldr	r3, [r7, #12]
 8003152:	1e59      	subs	r1, r3, #1
 8003154:	687b      	ldr	r3, [r7, #4]
 8003156:	685b      	ldr	r3, [r3, #4]
 8003158:	005b      	lsls	r3, r3, #1
 800315a:	fbb1 f3f3 	udiv	r3, r1, r3
 800315e:	1c59      	adds	r1, r3, #1
 8003160:	f640 73fc 	movw	r3, #4092	@ 0xffc
 8003164:	400b      	ands	r3, r1
 8003166:	2b00      	cmp	r3, #0
 8003168:	d00a      	beq.n	8003180 <HAL_I2C_Init+0x138>
 800316a:	68fb      	ldr	r3, [r7, #12]
 800316c:	1e59      	subs	r1, r3, #1
 800316e:	687b      	ldr	r3, [r7, #4]
 8003170:	685b      	ldr	r3, [r3, #4]
 8003172:	005b      	lsls	r3, r3, #1
 8003174:	fbb1 f3f3 	udiv	r3, r1, r3
 8003178:	3301      	adds	r3, #1
 800317a:	f3c3 030b 	ubfx	r3, r3, #0, #12
 800317e:	e051      	b.n	8003224 <HAL_I2C_Init+0x1dc>
 8003180:	2304      	movs	r3, #4
 8003182:	e04f      	b.n	8003224 <HAL_I2C_Init+0x1dc>
 8003184:	687b      	ldr	r3, [r7, #4]
 8003186:	689b      	ldr	r3, [r3, #8]
 8003188:	2b00      	cmp	r3, #0
 800318a:	d111      	bne.n	80031b0 <HAL_I2C_Init+0x168>
 800318c:	68fb      	ldr	r3, [r7, #12]
 800318e:	1e58      	subs	r0, r3, #1
 8003190:	687b      	ldr	r3, [r7, #4]
 8003192:	6859      	ldr	r1, [r3, #4]
 8003194:	460b      	mov	r3, r1
 8003196:	005b      	lsls	r3, r3, #1
 8003198:	440b      	add	r3, r1
 800319a:	fbb0 f3f3 	udiv	r3, r0, r3
 800319e:	3301      	adds	r3, #1
 80031a0:	f3c3 030b 	ubfx	r3, r3, #0, #12
 80031a4:	2b00      	cmp	r3, #0
 80031a6:	bf0c      	ite	eq
 80031a8:	2301      	moveq	r3, #1
 80031aa:	2300      	movne	r3, #0
 80031ac:	b2db      	uxtb	r3, r3
 80031ae:	e012      	b.n	80031d6 <HAL_I2C_Init+0x18e>
 80031b0:	68fb      	ldr	r3, [r7, #12]
 80031b2:	1e58      	subs	r0, r3, #1
 80031b4:	687b      	ldr	r3, [r7, #4]
 80031b6:	6859      	ldr	r1, [r3, #4]
 80031b8:	460b      	mov	r3, r1
 80031ba:	009b      	lsls	r3, r3, #2
 80031bc:	440b      	add	r3, r1
 80031be:	0099      	lsls	r1, r3, #2
 80031c0:	440b      	add	r3, r1
 80031c2:	fbb0 f3f3 	udiv	r3, r0, r3
 80031c6:	3301      	adds	r3, #1
 80031c8:	f3c3 030b 	ubfx	r3, r3, #0, #12
 80031cc:	2b00      	cmp	r3, #0
 80031ce:	bf0c      	ite	eq
 80031d0:	2301      	moveq	r3, #1
 80031d2:	2300      	movne	r3, #0
 80031d4:	b2db      	uxtb	r3, r3
 80031d6:	2b00      	cmp	r3, #0
 80031d8:	d001      	beq.n	80031de <HAL_I2C_Init+0x196>
 80031da:	2301      	movs	r3, #1
 80031dc:	e022      	b.n	8003224 <HAL_I2C_Init+0x1dc>
 80031de:	687b      	ldr	r3, [r7, #4]
 80031e0:	689b      	ldr	r3, [r3, #8]
 80031e2:	2b00      	cmp	r3, #0
 80031e4:	d10e      	bne.n	8003204 <HAL_I2C_Init+0x1bc>
 80031e6:	68fb      	ldr	r3, [r7, #12]
 80031e8:	1e58      	subs	r0, r3, #1
 80031ea:	687b      	ldr	r3, [r7, #4]
 80031ec:	6859      	ldr	r1, [r3, #4]
 80031ee:	460b      	mov	r3, r1
 80031f0:	005b      	lsls	r3, r3, #1
 80031f2:	440b      	add	r3, r1
 80031f4:	fbb0 f3f3 	udiv	r3, r0, r3
 80031f8:	3301      	adds	r3, #1
 80031fa:	f3c3 030b 	ubfx	r3, r3, #0, #12
 80031fe:	f443 4300 	orr.w	r3, r3, #32768	@ 0x8000
 8003202:	e00f      	b.n	8003224 <HAL_I2C_Init+0x1dc>
 8003204:	68fb      	ldr	r3, [r7, #12]
 8003206:	1e58      	subs	r0, r3, #1
 8003208:	687b      	ldr	r3, [r7, #4]
 800320a:	6859      	ldr	r1, [r3, #4]
 800320c:	460b      	mov	r3, r1
 800320e:	009b      	lsls	r3, r3, #2
 8003210:	440b      	add	r3, r1
 8003212:	0099      	lsls	r1, r3, #2
 8003214:	440b      	add	r3, r1
 8003216:	fbb0 f3f3 	udiv	r3, r0, r3
 800321a:	3301      	adds	r3, #1
 800321c:	f3c3 030b 	ubfx	r3, r3, #0, #12
 8003220:	f443 4340 	orr.w	r3, r3, #49152	@ 0xc000
 8003224:	6879      	ldr	r1, [r7, #4]
 8003226:	6809      	ldr	r1, [r1, #0]
 8003228:	4313      	orrs	r3, r2
 800322a:	61cb      	str	r3, [r1, #28]

  /*---------------------------- I2Cx CR1 Configuration ----------------------*/
  /* Configure I2Cx: Generalcall and NoStretch mode */
  MODIFY_REG(hi2c->Instance->CR1, (I2C_CR1_ENGC | I2C_CR1_NOSTRETCH), (hi2c->Init.GeneralCallMode | hi2c->Init.NoStretchMode));
 800322c:	687b      	ldr	r3, [r7, #4]
 800322e:	681b      	ldr	r3, [r3, #0]
 8003230:	681b      	ldr	r3, [r3, #0]
 8003232:	f023 01c0 	bic.w	r1, r3, #192	@ 0xc0
 8003236:	687b      	ldr	r3, [r7, #4]
 8003238:	69da      	ldr	r2, [r3, #28]
 800323a:	687b      	ldr	r3, [r7, #4]
 800323c:	6a1b      	ldr	r3, [r3, #32]
 800323e:	431a      	orrs	r2, r3
 8003240:	687b      	ldr	r3, [r7, #4]
 8003242:	681b      	ldr	r3, [r3, #0]
 8003244:	430a      	orrs	r2, r1
 8003246:	601a      	str	r2, [r3, #0]

  /*---------------------------- I2Cx OAR1 Configuration ---------------------*/
  /* Configure I2Cx: Own Address1 and addressing mode */
  MODIFY_REG(hi2c->Instance->OAR1, (I2C_OAR1_ADDMODE | I2C_OAR1_ADD8_9 | I2C_OAR1_ADD1_7 | I2C_OAR1_ADD0), (hi2c->Init.AddressingMode | hi2c->Init.OwnAddress1));
 8003248:	687b      	ldr	r3, [r7, #4]
 800324a:	681b      	ldr	r3, [r3, #0]
 800324c:	689b      	ldr	r3, [r3, #8]
 800324e:	f423 4303 	bic.w	r3, r3, #33536	@ 0x8300
 8003252:	f023 03ff 	bic.w	r3, r3, #255	@ 0xff
 8003256:	687a      	ldr	r2, [r7, #4]
 8003258:	6911      	ldr	r1, [r2, #16]
 800325a:	687a      	ldr	r2, [r7, #4]
 800325c:	68d2      	ldr	r2, [r2, #12]
 800325e:	4311      	orrs	r1, r2
 8003260:	687a      	ldr	r2, [r7, #4]
 8003262:	6812      	ldr	r2, [r2, #0]
 8003264:	430b      	orrs	r3, r1
 8003266:	6093      	str	r3, [r2, #8]

  /*---------------------------- I2Cx OAR2 Configuration ---------------------*/
  /* Configure I2Cx: Dual mode and Own Address2 */
  MODIFY_REG(hi2c->Instance->OAR2, (I2C_OAR2_ENDUAL | I2C_OAR2_ADD2), (hi2c->Init.DualAddressMode | hi2c->Init.OwnAddress2));
 8003268:	687b      	ldr	r3, [r7, #4]
 800326a:	681b      	ldr	r3, [r3, #0]
 800326c:	68db      	ldr	r3, [r3, #12]
 800326e:	f023 01ff 	bic.w	r1, r3, #255	@ 0xff
 8003272:	687b      	ldr	r3, [r7, #4]
 8003274:	695a      	ldr	r2, [r3, #20]
 8003276:	687b      	ldr	r3, [r7, #4]
 8003278:	699b      	ldr	r3, [r3, #24]
 800327a:	431a      	orrs	r2, r3
 800327c:	687b      	ldr	r3, [r7, #4]
 800327e:	681b      	ldr	r3, [r3, #0]
 8003280:	430a      	orrs	r2, r1
 8003282:	60da      	str	r2, [r3, #12]

  /* Enable the selected I2C peripheral */
  __HAL_I2C_ENABLE(hi2c);
 8003284:	687b      	ldr	r3, [r7, #4]
 8003286:	681b      	ldr	r3, [r3, #0]
 8003288:	681a      	ldr	r2, [r3, #0]
 800328a:	687b      	ldr	r3, [r7, #4]
 800328c:	681b      	ldr	r3, [r3, #0]
 800328e:	f042 0201 	orr.w	r2, r2, #1
 8003292:	601a      	str	r2, [r3, #0]

  hi2c->ErrorCode = HAL_I2C_ERROR_NONE;
 8003294:	687b      	ldr	r3, [r7, #4]
 8003296:	2200      	movs	r2, #0
 8003298:	641a      	str	r2, [r3, #64]	@ 0x40
  hi2c->State = HAL_I2C_STATE_READY;
 800329a:	687b      	ldr	r3, [r7, #4]
 800329c:	2220      	movs	r2, #32
 800329e:	f883 203d 	strb.w	r2, [r3, #61]	@ 0x3d
  hi2c->PreviousState = I2C_STATE_NONE;
 80032a2:	687b      	ldr	r3, [r7, #4]
 80032a4:	2200      	movs	r2, #0
 80032a6:	631a      	str	r2, [r3, #48]	@ 0x30
  hi2c->Mode = HAL_I2C_MODE_NONE;
 80032a8:	687b      	ldr	r3, [r7, #4]
 80032aa:	2200      	movs	r2, #0
 80032ac:	f883 203e 	strb.w	r2, [r3, #62]	@ 0x3e

  return HAL_OK;
 80032b0:	2300      	movs	r3, #0
}
 80032b2:	4618      	mov	r0, r3
 80032b4:	3710      	adds	r7, #16
 80032b6:	46bd      	mov	sp, r7
 80032b8:	bd80      	pop	{r7, pc}
 80032ba:	bf00      	nop
 80032bc:	000186a0 	.word	0x000186a0
 80032c0:	001e847f 	.word	0x001e847f
 80032c4:	003d08ff 	.word	0x003d08ff
 80032c8:	431bde83 	.word	0x431bde83
 80032cc:	10624dd3 	.word	0x10624dd3

080032d0 <HAL_I2C_Mem_Write>:
  * @param  Size Amount of data to be sent
  * @param  Timeout Timeout duration
  * @retval HAL status
  */
HAL_StatusTypeDef HAL_I2C_Mem_Write(I2C_HandleTypeDef *hi2c, uint16_t DevAddress, uint16_t MemAddress, uint16_t MemAddSize, uint8_t *pData, uint16_t Size, uint32_t Timeout)
{
 80032d0:	b580      	push	{r7, lr}
 80032d2:	b088      	sub	sp, #32
 80032d4:	af02      	add	r7, sp, #8
 80032d6:	60f8      	str	r0, [r7, #12]
 80032d8:	4608      	mov	r0, r1
 80032da:	4611      	mov	r1, r2
 80032dc:	461a      	mov	r2, r3
 80032de:	4603      	mov	r3, r0
 80032e0:	817b      	strh	r3, [r7, #10]
 80032e2:	460b      	mov	r3, r1
 80032e4:	813b      	strh	r3, [r7, #8]
 80032e6:	4613      	mov	r3, r2
 80032e8:	80fb      	strh	r3, [r7, #6]
  /* Init tickstart for timeout management*/
  uint32_t tickstart = HAL_GetTick();
 80032ea:	f7ff fb21 	bl	8002930 <HAL_GetTick>
 80032ee:	6178      	str	r0, [r7, #20]

  /* Check the parameters */
  assert_param(IS_I2C_MEMADD_SIZE(MemAddSize));

  if (hi2c->State == HAL_I2C_STATE_READY)
 80032f0:	68fb      	ldr	r3, [r7, #12]
 80032f2:	f893 303d 	ldrb.w	r3, [r3, #61]	@ 0x3d
 80032f6:	b2db      	uxtb	r3, r3
 80032f8:	2b20      	cmp	r3, #32
 80032fa:	f040 80d9 	bne.w	80034b0 <HAL_I2C_Mem_Write+0x1e0>
  {
    /* Wait until BUSY flag is reset */
    if (I2C_WaitOnFlagUntilTimeout(hi2c, I2C_FLAG_BUSY, SET, I2C_TIMEOUT_BUSY_FLAG, tickstart) != HAL_OK)
 80032fe:	697b      	ldr	r3, [r7, #20]
 8003300:	9300      	str	r3, [sp, #0]
 8003302:	2319      	movs	r3, #25
 8003304:	2201      	movs	r2, #1
 8003306:	496d      	ldr	r1, [pc, #436]	@ (80034bc <HAL_I2C_Mem_Write+0x1ec>)
 8003308:	68f8      	ldr	r0, [r7, #12]
 800330a:	f000 fc8b 	bl	8003c24 <I2C_WaitOnFlagUntilTimeout>
 800330e:	4603      	mov	r3, r0
 8003310:	2b00      	cmp	r3, #0
 8003312:	d001      	beq.n	8003318 <HAL_I2C_Mem_Write+0x48>
    {
      return HAL_BUSY;
 8003314:	2302      	movs	r3, #2
 8003316:	e0cc      	b.n	80034b2 <HAL_I2C_Mem_Write+0x1e2>
    }

    /* Process Locked */
    __HAL_LOCK(hi2c);
 8003318:	68fb      	ldr	r3, [r7, #12]
 800331a:	f893 303c 	ldrb.w	r3, [r3, #60]	@ 0x3c
 800331e:	2b01      	cmp	r3, #1
 8003320:	d101      	bne.n	8003326 <HAL_I2C_Mem_Write+0x56>
 8003322:	2302      	movs	r3, #2
 8003324:	e0c5      	b.n	80034b2 <HAL_I2C_Mem_Write+0x1e2>
 8003326:	68fb      	ldr	r3, [r7, #12]
 8003328:	2201      	movs	r2, #1
 800332a:	f883 203c 	strb.w	r2, [r3, #60]	@ 0x3c

    /* Check if the I2C is already enabled */
    if ((hi2c->Instance->CR1 & I2C_CR1_PE) != I2C_CR1_PE)
 800332e:	68fb      	ldr	r3, [r7, #12]
 8003330:	681b      	ldr	r3, [r3, #0]
 8003332:	681b      	ldr	r3, [r3, #0]
 8003334:	f003 0301 	and.w	r3, r3, #1
 8003338:	2b01      	cmp	r3, #1
 800333a:	d007      	beq.n	800334c <HAL_I2C_Mem_Write+0x7c>
    {
      /* Enable I2C peripheral */
      __HAL_I2C_ENABLE(hi2c);
 800333c:	68fb      	ldr	r3, [r7, #12]
 800333e:	681b      	ldr	r3, [r3, #0]
 8003340:	681a      	ldr	r2, [r3, #0]
 8003342:	68fb      	ldr	r3, [r7, #12]
 8003344:	681b      	ldr	r3, [r3, #0]
 8003346:	f042 0201 	orr.w	r2, r2, #1
 800334a:	601a      	str	r2, [r3, #0]
    }

    /* Disable Pos */
    CLEAR_BIT(hi2c->Instance->CR1, I2C_CR1_POS);
 800334c:	68fb      	ldr	r3, [r7, #12]
 800334e:	681b      	ldr	r3, [r3, #0]
 8003350:	681a      	ldr	r2, [r3, #0]
 8003352:	68fb      	ldr	r3, [r7, #12]
 8003354:	681b      	ldr	r3, [r3, #0]
 8003356:	f422 6200 	bic.w	r2, r2, #2048	@ 0x800
 800335a:	601a      	str	r2, [r3, #0]

    hi2c->State     = HAL_I2C_STATE_BUSY_TX;
 800335c:	68fb      	ldr	r3, [r7, #12]
 800335e:	2221      	movs	r2, #33	@ 0x21
 8003360:	f883 203d 	strb.w	r2, [r3, #61]	@ 0x3d
    hi2c->Mode      = HAL_I2C_MODE_MEM;
 8003364:	68fb      	ldr	r3, [r7, #12]
 8003366:	2240      	movs	r2, #64	@ 0x40
 8003368:	f883 203e 	strb.w	r2, [r3, #62]	@ 0x3e
    hi2c->ErrorCode = HAL_I2C_ERROR_NONE;
 800336c:	68fb      	ldr	r3, [r7, #12]
 800336e:	2200      	movs	r2, #0
 8003370:	641a      	str	r2, [r3, #64]	@ 0x40

    /* Prepare transfer parameters */
    hi2c->pBuffPtr    = pData;
 8003372:	68fb      	ldr	r3, [r7, #12]
 8003374:	6a3a      	ldr	r2, [r7, #32]
 8003376:	625a      	str	r2, [r3, #36]	@ 0x24
    hi2c->XferCount   = Size;
 8003378:	68fb      	ldr	r3, [r7, #12]
 800337a:	8cba      	ldrh	r2, [r7, #36]	@ 0x24
 800337c:	855a      	strh	r2, [r3, #42]	@ 0x2a
    hi2c->XferSize    = hi2c->XferCount;
 800337e:	68fb      	ldr	r3, [r7, #12]
 8003380:	8d5b      	ldrh	r3, [r3, #42]	@ 0x2a
 8003382:	b29a      	uxth	r2, r3
 8003384:	68fb      	ldr	r3, [r7, #12]
 8003386:	851a      	strh	r2, [r3, #40]	@ 0x28
    hi2c->XferOptions = I2C_NO_OPTION_FRAME;
 8003388:	68fb      	ldr	r3, [r7, #12]
 800338a:	4a4d      	ldr	r2, [pc, #308]	@ (80034c0 <HAL_I2C_Mem_Write+0x1f0>)
 800338c:	62da      	str	r2, [r3, #44]	@ 0x2c

    /* Send Slave Address and Memory Address */
    if (I2C_RequestMemoryWrite(hi2c, DevAddress, MemAddress, MemAddSize, Timeout, tickstart) != HAL_OK)
 800338e:	88f8      	ldrh	r0, [r7, #6]
 8003390:	893a      	ldrh	r2, [r7, #8]
 8003392:	8979      	ldrh	r1, [r7, #10]
 8003394:	697b      	ldr	r3, [r7, #20]
 8003396:	9301      	str	r3, [sp, #4]
 8003398:	6abb      	ldr	r3, [r7, #40]	@ 0x28
 800339a:	9300      	str	r3, [sp, #0]
 800339c:	4603      	mov	r3, r0
 800339e:	68f8      	ldr	r0, [r7, #12]
 80033a0:	f000 fac2 	bl	8003928 <I2C_RequestMemoryWrite>
 80033a4:	4603      	mov	r3, r0
 80033a6:	2b00      	cmp	r3, #0
 80033a8:	d052      	beq.n	8003450 <HAL_I2C_Mem_Write+0x180>
    {
      return HAL_ERROR;
 80033aa:	2301      	movs	r3, #1
 80033ac:	e081      	b.n	80034b2 <HAL_I2C_Mem_Write+0x1e2>
    }

    while (hi2c->XferSize > 0U)
    {
      /* Wait until TXE flag is set */
      if (I2C_WaitOnTXEFlagUntilTimeout(hi2c, Timeout, tickstart) != HAL_OK)
 80033ae:	697a      	ldr	r2, [r7, #20]
 80033b0:	6ab9      	ldr	r1, [r7, #40]	@ 0x28
 80033b2:	68f8      	ldr	r0, [r7, #12]
 80033b4:	f000 fd50 	bl	8003e58 <I2C_WaitOnTXEFlagUntilTimeout>
 80033b8:	4603      	mov	r3, r0
 80033ba:	2b00      	cmp	r3, #0
 80033bc:	d00d      	beq.n	80033da <HAL_I2C_Mem_Write+0x10a>
      {
        if (hi2c->ErrorCode == HAL_I2C_ERROR_AF)
 80033be:	68fb      	ldr	r3, [r7, #12]
 80033c0:	6c1b      	ldr	r3, [r3, #64]	@ 0x40
 80033c2:	2b04      	cmp	r3, #4
 80033c4:	d107      	bne.n	80033d6 <HAL_I2C_Mem_Write+0x106>
        {
          /* Generate Stop */
          SET_BIT(hi2c->Instance->CR1, I2C_CR1_STOP);
 80033c6:	68fb      	ldr	r3, [r7, #12]
 80033c8:	681b      	ldr	r3, [r3, #0]
 80033ca:	681a      	ldr	r2, [r3, #0]
 80033cc:	68fb      	ldr	r3, [r7, #12]
 80033ce:	681b      	ldr	r3, [r3, #0]
 80033d0:	f442 7200 	orr.w	r2, r2, #512	@ 0x200
 80033d4:	601a      	str	r2, [r3, #0]
        }
        return HAL_ERROR;
 80033d6:	2301      	movs	r3, #1
 80033d8:	e06b      	b.n	80034b2 <HAL_I2C_Mem_Write+0x1e2>
      }

      /* Write data to DR */
      hi2c->Instance->DR = *hi2c->pBuffPtr;
 80033da:	68fb      	ldr	r3, [r7, #12]
 80033dc:	6a5b      	ldr	r3, [r3, #36]	@ 0x24
 80033de:	781a      	ldrb	r2, [r3, #0]
 80033e0:	68fb      	ldr	r3, [r7, #12]
 80033e2:	681b      	ldr	r3, [r3, #0]
 80033e4:	611a      	str	r2, [r3, #16]

      /* Increment Buffer pointer */
      hi2c->pBuffPtr++;
 80033e6:	68fb      	ldr	r3, [r7, #12]
 80033e8:	6a5b      	ldr	r3, [r3, #36]	@ 0x24
 80033ea:	1c5a      	adds	r2, r3, #1
 80033ec:	68fb      	ldr	r3, [r7, #12]
 80033ee:	625a      	str	r2, [r3, #36]	@ 0x24

      /* Update counter */
      hi2c->XferSize--;
 80033f0:	68fb      	ldr	r3, [r7, #12]
 80033f2:	8d1b      	ldrh	r3, [r3, #40]	@ 0x28
 80033f4:	3b01      	subs	r3, #1
 80033f6:	b29a      	uxth	r2, r3
 80033f8:	68fb      	ldr	r3, [r7, #12]
 80033fa:	851a      	strh	r2, [r3, #40]	@ 0x28
      hi2c->XferCount--;
 80033fc:	68fb      	ldr	r3, [r7, #12]
 80033fe:	8d5b      	ldrh	r3, [r3, #42]	@ 0x2a
 8003400:	b29b      	uxth	r3, r3
 8003402:	3b01      	subs	r3, #1
 8003404:	b29a      	uxth	r2, r3
 8003406:	68fb      	ldr	r3, [r7, #12]
 8003408:	855a      	strh	r2, [r3, #42]	@ 0x2a

      if ((__HAL_I2C_GET_FLAG(hi2c, I2C_FLAG_BTF) == SET) && (hi2c->XferSize != 0U))
 800340a:	68fb      	ldr	r3, [r7, #12]
 800340c:	681b      	ldr	r3, [r3, #0]
 800340e:	695b      	ldr	r3, [r3, #20]
 8003410:	f003 0304 	and.w	r3, r3, #4
 8003414:	2b04      	cmp	r3, #4
 8003416:	d11b      	bne.n	8003450 <HAL_I2C_Mem_Write+0x180>
 8003418:	68fb      	ldr	r3, [r7, #12]
 800341a:	8d1b      	ldrh	r3, [r3, #40]	@ 0x28
 800341c:	2b00      	cmp	r3, #0
 800341e:	d017      	beq.n	8003450 <HAL_I2C_Mem_Write+0x180>
      {
        /* Write data to DR */
        hi2c->Instance->DR = *hi2c->pBuffPtr;
 8003420:	68fb      	ldr	r3, [r7, #12]
 8003422:	6a5b      	ldr	r3, [r3, #36]	@ 0x24
 8003424:	781a      	ldrb	r2, [r3, #0]
 8003426:	68fb      	ldr	r3, [r7, #12]
 8003428:	681b      	ldr	r3, [r3, #0]
 800342a:	611a      	str	r2, [r3, #16]

        /* Increment Buffer pointer */
        hi2c->pBuffPtr++;
 800342c:	68fb      	ldr	r3, [r7, #12]
 800342e:	6a5b      	ldr	r3, [r3, #36]	@ 0x24
 8003430:	1c5a      	adds	r2, r3, #1
 8003432:	68fb      	ldr	r3, [r7, #12]
 8003434:	625a      	str	r2, [r3, #36]	@ 0x24

        /* Update counter */
        hi2c->XferSize--;
 8003436:	68fb      	ldr	r3, [r7, #12]
 8003438:	8d1b      	ldrh	r3, [r3, #40]	@ 0x28
 800343a:	3b01      	subs	r3, #1
 800343c:	b29a      	uxth	r2, r3
 800343e:	68fb      	ldr	r3, [r7, #12]
 8003440:	851a      	strh	r2, [r3, #40]	@ 0x28
        hi2c->XferCount--;
 8003442:	68fb      	ldr	r3, [r7, #12]
 8003444:	8d5b      	ldrh	r3, [r3, #42]	@ 0x2a
 8003446:	b29b      	uxth	r3, r3
 8003448:	3b01      	subs	r3, #1
 800344a:	b29a      	uxth	r2, r3
 800344c:	68fb      	ldr	r3, [r7, #12]
 800344e:	855a      	strh	r2, [r3, #42]	@ 0x2a
    while (hi2c->XferSize > 0U)
 8003450:	68fb      	ldr	r3, [r7, #12]
 8003452:	8d1b      	ldrh	r3, [r3, #40]	@ 0x28
 8003454:	2b00      	cmp	r3, #0
 8003456:	d1aa      	bne.n	80033ae <HAL_I2C_Mem_Write+0xde>
      }
    }

    /* Wait until BTF flag is set */
    if (I2C_WaitOnBTFFlagUntilTimeout(hi2c, Timeout, tickstart) != HAL_OK)
 8003458:	697a      	ldr	r2, [r7, #20]
 800345a:	6ab9      	ldr	r1, [r7, #40]	@ 0x28
 800345c:	68f8      	ldr	r0, [r7, #12]
 800345e:	f000 fd43 	bl	8003ee8 <I2C_WaitOnBTFFlagUntilTimeout>
 8003462:	4603      	mov	r3, r0
 8003464:	2b00      	cmp	r3, #0
 8003466:	d00d      	beq.n	8003484 <HAL_I2C_Mem_Write+0x1b4>
    {
      if (hi2c->ErrorCode == HAL_I2C_ERROR_AF)
 8003468:	68fb      	ldr	r3, [r7, #12]
 800346a:	6c1b      	ldr	r3, [r3, #64]	@ 0x40
 800346c:	2b04      	cmp	r3, #4
 800346e:	d107      	bne.n	8003480 <HAL_I2C_Mem_Write+0x1b0>
      {
        /* Generate Stop */
        SET_BIT(hi2c->Instance->CR1, I2C_CR1_STOP);
 8003470:	68fb      	ldr	r3, [r7, #12]
 8003472:	681b      	ldr	r3, [r3, #0]
 8003474:	681a      	ldr	r2, [r3, #0]
 8003476:	68fb      	ldr	r3, [r7, #12]
 8003478:	681b      	ldr	r3, [r3, #0]
 800347a:	f442 7200 	orr.w	r2, r2, #512	@ 0x200
 800347e:	601a      	str	r2, [r3, #0]
      }
      return HAL_ERROR;
 8003480:	2301      	movs	r3, #1
 8003482:	e016      	b.n	80034b2 <HAL_I2C_Mem_Write+0x1e2>
    }

    /* Generate Stop */
    SET_BIT(hi2c->Instance->CR1, I2C_CR1_STOP);
 8003484:	68fb      	ldr	r3, [r7, #12]
 8003486:	681b      	ldr	r3, [r3, #0]
 8003488:	681a      	ldr	r2, [r3, #0]
 800348a:	68fb      	ldr	r3, [r7, #12]
 800348c:	681b      	ldr	r3, [r3, #0]
 800348e:	f442 7200 	orr.w	r2, r2, #512	@ 0x200
 8003492:	601a      	str	r2, [r3, #0]

    hi2c->State = HAL_I2C_STATE_READY;
 8003494:	68fb      	ldr	r3, [r7, #12]
 8003496:	2220      	movs	r2, #32
 8003498:	f883 203d 	strb.w	r2, [r3, #61]	@ 0x3d
    hi2c->Mode = HAL_I2C_MODE_NONE;
 800349c:	68fb      	ldr	r3, [r7, #12]
 800349e:	2200      	movs	r2, #0
 80034a0:	f883 203e 	strb.w	r2, [r3, #62]	@ 0x3e

    /* Process Unlocked */
    __HAL_UNLOCK(hi2c);
 80034a4:	68fb      	ldr	r3, [r7, #12]
 80034a6:	2200      	movs	r2, #0
 80034a8:	f883 203c 	strb.w	r2, [r3, #60]	@ 0x3c

    return HAL_OK;
 80034ac:	2300      	movs	r3, #0
 80034ae:	e000      	b.n	80034b2 <HAL_I2C_Mem_Write+0x1e2>
  }
  else
  {
    return HAL_BUSY;
 80034b0:	2302      	movs	r3, #2
  }
}
 80034b2:	4618      	mov	r0, r3
 80034b4:	3718      	adds	r7, #24
 80034b6:	46bd      	mov	sp, r7
 80034b8:	bd80      	pop	{r7, pc}
 80034ba:	bf00      	nop
 80034bc:	00100002 	.word	0x00100002
 80034c0:	ffff0000 	.word	0xffff0000

080034c4 <HAL_I2C_Mem_Read>:
  * @param  Size Amount of data to be sent
  * @param  Timeout Timeout duration
  * @retval HAL status
  */
HAL_StatusTypeDef HAL_I2C_Mem_Read(I2C_HandleTypeDef *hi2c, uint16_t DevAddress, uint16_t MemAddress, uint16_t MemAddSize, uint8_t *pData, uint16_t Size, uint32_t Timeout)
{
 80034c4:	b580      	push	{r7, lr}
 80034c6:	b08c      	sub	sp, #48	@ 0x30
 80034c8:	af02      	add	r7, sp, #8
 80034ca:	60f8      	str	r0, [r7, #12]
 80034cc:	4608      	mov	r0, r1
 80034ce:	4611      	mov	r1, r2
 80034d0:	461a      	mov	r2, r3
 80034d2:	4603      	mov	r3, r0
 80034d4:	817b      	strh	r3, [r7, #10]
 80034d6:	460b      	mov	r3, r1
 80034d8:	813b      	strh	r3, [r7, #8]
 80034da:	4613      	mov	r3, r2
 80034dc:	80fb      	strh	r3, [r7, #6]
  /* Init tickstart for timeout management*/
  uint32_t tickstart = HAL_GetTick();
 80034de:	f7ff fa27 	bl	8002930 <HAL_GetTick>
 80034e2:	6278      	str	r0, [r7, #36]	@ 0x24

  /* Check the parameters */
  assert_param(IS_I2C_MEMADD_SIZE(MemAddSize));

  if (hi2c->State == HAL_I2C_STATE_READY)
 80034e4:	68fb      	ldr	r3, [r7, #12]
 80034e6:	f893 303d 	ldrb.w	r3, [r3, #61]	@ 0x3d
 80034ea:	b2db      	uxtb	r3, r3
 80034ec:	2b20      	cmp	r3, #32
 80034ee:	f040 8214 	bne.w	800391a <HAL_I2C_Mem_Read+0x456>
  {
    /* Wait until BUSY flag is reset */
    if (I2C_WaitOnFlagUntilTimeout(hi2c, I2C_FLAG_BUSY, SET, I2C_TIMEOUT_BUSY_FLAG, tickstart) != HAL_OK)
 80034f2:	6a7b      	ldr	r3, [r7, #36]	@ 0x24
 80034f4:	9300      	str	r3, [sp, #0]
 80034f6:	2319      	movs	r3, #25
 80034f8:	2201      	movs	r2, #1
 80034fa:	497b      	ldr	r1, [pc, #492]	@ (80036e8 <HAL_I2C_Mem_Read+0x224>)
 80034fc:	68f8      	ldr	r0, [r7, #12]
 80034fe:	f000 fb91 	bl	8003c24 <I2C_WaitOnFlagUntilTimeout>
 8003502:	4603      	mov	r3, r0
 8003504:	2b00      	cmp	r3, #0
 8003506:	d001      	beq.n	800350c <HAL_I2C_Mem_Read+0x48>
    {
      return HAL_BUSY;
 8003508:	2302      	movs	r3, #2
 800350a:	e207      	b.n	800391c <HAL_I2C_Mem_Read+0x458>
    }

    /* Process Locked */
    __HAL_LOCK(hi2c);
 800350c:	68fb      	ldr	r3, [r7, #12]
 800350e:	f893 303c 	ldrb.w	r3, [r3, #60]	@ 0x3c
 8003512:	2b01      	cmp	r3, #1
 8003514:	d101      	bne.n	800351a <HAL_I2C_Mem_Read+0x56>
 8003516:	2302      	movs	r3, #2
 8003518:	e200      	b.n	800391c <HAL_I2C_Mem_Read+0x458>
 800351a:	68fb      	ldr	r3, [r7, #12]
 800351c:	2201      	movs	r2, #1
 800351e:	f883 203c 	strb.w	r2, [r3, #60]	@ 0x3c

    /* Check if the I2C is already enabled */
    if ((hi2c->Instance->CR1 & I2C_CR1_PE) != I2C_CR1_PE)
 8003522:	68fb      	ldr	r3, [r7, #12]
 8003524:	681b      	ldr	r3, [r3, #0]
 8003526:	681b      	ldr	r3, [r3, #0]
 8003528:	f003 0301 	and.w	r3, r3, #1
 800352c:	2b01      	cmp	r3, #1
 800352e:	d007      	beq.n	8003540 <HAL_I2C_Mem_Read+0x7c>
    {
      /* Enable I2C peripheral */
      __HAL_I2C_ENABLE(hi2c);
 8003530:	68fb      	ldr	r3, [r7, #12]
 8003532:	681b      	ldr	r3, [r3, #0]
 8003534:	681a      	ldr	r2, [r3, #0]
 8003536:	68fb      	ldr	r3, [r7, #12]
 8003538:	681b      	ldr	r3, [r3, #0]
 800353a:	f042 0201 	orr.w	r2, r2, #1
 800353e:	601a      	str	r2, [r3, #0]
    }

    /* Disable Pos */
    CLEAR_BIT(hi2c->Instance->CR1, I2C_CR1_POS);
 8003540:	68fb      	ldr	r3, [r7, #12]
 8003542:	681b      	ldr	r3, [r3, #0]
 8003544:	681a      	ldr	r2, [r3, #0]
 8003546:	68fb      	ldr	r3, [r7, #12]
 8003548:	681b      	ldr	r3, [r3, #0]
 800354a:	f422 6200 	bic.w	r2, r2, #2048	@ 0x800
 800354e:	601a      	str	r2, [r3, #0]

    hi2c->State     = HAL_I2C_STATE_BUSY_RX;
 8003550:	68fb      	ldr	r3, [r7, #12]
 8003552:	2222      	movs	r2, #34	@ 0x22
 8003554:	f883 203d 	strb.w	r2, [r3, #61]	@ 0x3d
    hi2c->Mode      = HAL_I2C_MODE_MEM;
 8003558:	68fb      	ldr	r3, [r7, #12]
 800355a:	2240      	movs	r2, #64	@ 0x40
 800355c:	f883 203e 	strb.w	r2, [r3, #62]	@ 0x3e
    hi2c->ErrorCode = HAL_I2C_ERROR_NONE;
 8003560:	68fb      	ldr	r3, [r7, #12]
 8003562:	2200      	movs	r2, #0
 8003564:	641a      	str	r2, [r3, #64]	@ 0x40

    /* Prepare transfer parameters */
    hi2c->pBuffPtr    = pData;
 8003566:	68fb      	ldr	r3, [r7, #12]
 8003568:	6b3a      	ldr	r2, [r7, #48]	@ 0x30
 800356a:	625a      	str	r2, [r3, #36]	@ 0x24
    hi2c->XferCount   = Size;
 800356c:	68fb      	ldr	r3, [r7, #12]
 800356e:	8eba      	ldrh	r2, [r7, #52]	@ 0x34
 8003570:	855a      	strh	r2, [r3, #42]	@ 0x2a
    hi2c->XferSize    = hi2c->XferCount;
 8003572:	68fb      	ldr	r3, [r7, #12]
 8003574:	8d5b      	ldrh	r3, [r3, #42]	@ 0x2a
 8003576:	b29a      	uxth	r2, r3
 8003578:	68fb      	ldr	r3, [r7, #12]
 800357a:	851a      	strh	r2, [r3, #40]	@ 0x28
    hi2c->XferOptions = I2C_NO_OPTION_FRAME;
 800357c:	68fb      	ldr	r3, [r7, #12]
 800357e:	4a5b      	ldr	r2, [pc, #364]	@ (80036ec <HAL_I2C_Mem_Read+0x228>)
 8003580:	62da      	str	r2, [r3, #44]	@ 0x2c

    /* Send Slave Address and Memory Address */
    if (I2C_RequestMemoryRead(hi2c, DevAddress, MemAddress, MemAddSize, Timeout, tickstart) != HAL_OK)
 8003582:	88f8      	ldrh	r0, [r7, #6]
 8003584:	893a      	ldrh	r2, [r7, #8]
 8003586:	8979      	ldrh	r1, [r7, #10]
 8003588:	6a7b      	ldr	r3, [r7, #36]	@ 0x24
 800358a:	9301      	str	r3, [sp, #4]
 800358c:	6bbb      	ldr	r3, [r7, #56]	@ 0x38
 800358e:	9300      	str	r3, [sp, #0]
 8003590:	4603      	mov	r3, r0
 8003592:	68f8      	ldr	r0, [r7, #12]
 8003594:	f000 fa5e 	bl	8003a54 <I2C_RequestMemoryRead>
 8003598:	4603      	mov	r3, r0
 800359a:	2b00      	cmp	r3, #0
 800359c:	d001      	beq.n	80035a2 <HAL_I2C_Mem_Read+0xde>
    {
      return HAL_ERROR;
 800359e:	2301      	movs	r3, #1
 80035a0:	e1bc      	b.n	800391c <HAL_I2C_Mem_Read+0x458>
    }

    if (hi2c->XferSize == 0U)
 80035a2:	68fb      	ldr	r3, [r7, #12]
 80035a4:	8d1b      	ldrh	r3, [r3, #40]	@ 0x28
 80035a6:	2b00      	cmp	r3, #0
 80035a8:	d113      	bne.n	80035d2 <HAL_I2C_Mem_Read+0x10e>
    {
      /* Clear ADDR flag */
      __HAL_I2C_CLEAR_ADDRFLAG(hi2c);
 80035aa:	2300      	movs	r3, #0
 80035ac:	623b      	str	r3, [r7, #32]
 80035ae:	68fb      	ldr	r3, [r7, #12]
 80035b0:	681b      	ldr	r3, [r3, #0]
 80035b2:	695b      	ldr	r3, [r3, #20]
 80035b4:	623b      	str	r3, [r7, #32]
 80035b6:	68fb      	ldr	r3, [r7, #12]
 80035b8:	681b      	ldr	r3, [r3, #0]
 80035ba:	699b      	ldr	r3, [r3, #24]
 80035bc:	623b      	str	r3, [r7, #32]
 80035be:	6a3b      	ldr	r3, [r7, #32]

      /* Generate Stop */
      SET_BIT(hi2c->Instance->CR1, I2C_CR1_STOP);
 80035c0:	68fb      	ldr	r3, [r7, #12]
 80035c2:	681b      	ldr	r3, [r3, #0]
 80035c4:	681a      	ldr	r2, [r3, #0]
 80035c6:	68fb      	ldr	r3, [r7, #12]
 80035c8:	681b      	ldr	r3, [r3, #0]
 80035ca:	f442 7200 	orr.w	r2, r2, #512	@ 0x200
 80035ce:	601a      	str	r2, [r3, #0]
 80035d0:	e190      	b.n	80038f4 <HAL_I2C_Mem_Read+0x430>
    }
    else if (hi2c->XferSize == 1U)
 80035d2:	68fb      	ldr	r3, [r7, #12]
 80035d4:	8d1b      	ldrh	r3, [r3, #40]	@ 0x28
 80035d6:	2b01      	cmp	r3, #1
 80035d8:	d11b      	bne.n	8003612 <HAL_I2C_Mem_Read+0x14e>
    {
      /* Disable Acknowledge */
      CLEAR_BIT(hi2c->Instance->CR1, I2C_CR1_ACK);
 80035da:	68fb      	ldr	r3, [r7, #12]
 80035dc:	681b      	ldr	r3, [r3, #0]
 80035de:	681a      	ldr	r2, [r3, #0]
 80035e0:	68fb      	ldr	r3, [r7, #12]
 80035e2:	681b      	ldr	r3, [r3, #0]
 80035e4:	f422 6280 	bic.w	r2, r2, #1024	@ 0x400
 80035e8:	601a      	str	r2, [r3, #0]

      /* Clear ADDR flag */
      __HAL_I2C_CLEAR_ADDRFLAG(hi2c);
 80035ea:	2300      	movs	r3, #0
 80035ec:	61fb      	str	r3, [r7, #28]
 80035ee:	68fb      	ldr	r3, [r7, #12]
 80035f0:	681b      	ldr	r3, [r3, #0]
 80035f2:	695b      	ldr	r3, [r3, #20]
 80035f4:	61fb      	str	r3, [r7, #28]
 80035f6:	68fb      	ldr	r3, [r7, #12]
 80035f8:	681b      	ldr	r3, [r3, #0]
 80035fa:	699b      	ldr	r3, [r3, #24]
 80035fc:	61fb      	str	r3, [r7, #28]
 80035fe:	69fb      	ldr	r3, [r7, #28]

      /* Generate Stop */
      SET_BIT(hi2c->Instance->CR1, I2C_CR1_STOP);
 8003600:	68fb      	ldr	r3, [r7, #12]
 8003602:	681b      	ldr	r3, [r3, #0]
 8003604:	681a      	ldr	r2, [r3, #0]
 8003606:	68fb      	ldr	r3, [r7, #12]
 8003608:	681b      	ldr	r3, [r3, #0]
 800360a:	f442 7200 	orr.w	r2, r2, #512	@ 0x200
 800360e:	601a      	str	r2, [r3, #0]
 8003610:	e170      	b.n	80038f4 <HAL_I2C_Mem_Read+0x430>
    }
    else if (hi2c->XferSize == 2U)
 8003612:	68fb      	ldr	r3, [r7, #12]
 8003614:	8d1b      	ldrh	r3, [r3, #40]	@ 0x28
 8003616:	2b02      	cmp	r3, #2
 8003618:	d11b      	bne.n	8003652 <HAL_I2C_Mem_Read+0x18e>
    {
      /* Disable Acknowledge */
      CLEAR_BIT(hi2c->Instance->CR1, I2C_CR1_ACK);
 800361a:	68fb      	ldr	r3, [r7, #12]
 800361c:	681b      	ldr	r3, [r3, #0]
 800361e:	681a      	ldr	r2, [r3, #0]
 8003620:	68fb      	ldr	r3, [r7, #12]
 8003622:	681b      	ldr	r3, [r3, #0]
 8003624:	f422 6280 	bic.w	r2, r2, #1024	@ 0x400
 8003628:	601a      	str	r2, [r3, #0]

      /* Enable Pos */
      SET_BIT(hi2c->Instance->CR1, I2C_CR1_POS);
 800362a:	68fb      	ldr	r3, [r7, #12]
 800362c:	681b      	ldr	r3, [r3, #0]
 800362e:	681a      	ldr	r2, [r3, #0]
 8003630:	68fb      	ldr	r3, [r7, #12]
 8003632:	681b      	ldr	r3, [r3, #0]
 8003634:	f442 6200 	orr.w	r2, r2, #2048	@ 0x800
 8003638:	601a      	str	r2, [r3, #0]

      /* Clear ADDR flag */
      __HAL_I2C_CLEAR_ADDRFLAG(hi2c);
 800363a:	2300      	movs	r3, #0
 800363c:	61bb      	str	r3, [r7, #24]
 800363e:	68fb      	ldr	r3, [r7, #12]
 8003640:	681b      	ldr	r3, [r3, #0]
 8003642:	695b      	ldr	r3, [r3, #20]
 8003644:	61bb      	str	r3, [r7, #24]
 8003646:	68fb      	ldr	r3, [r7, #12]
 8003648:	681b      	ldr	r3, [r3, #0]
 800364a:	699b      	ldr	r3, [r3, #24]
 800364c:	61bb      	str	r3, [r7, #24]
 800364e:	69bb      	ldr	r3, [r7, #24]
 8003650:	e150      	b.n	80038f4 <HAL_I2C_Mem_Read+0x430>
    }
    else
    {
      /* Clear ADDR flag */
      __HAL_I2C_CLEAR_ADDRFLAG(hi2c);
 8003652:	2300      	movs	r3, #0
 8003654:	617b      	str	r3, [r7, #20]
 8003656:	68fb      	ldr	r3, [r7, #12]
 8003658:	681b      	ldr	r3, [r3, #0]
 800365a:	695b      	ldr	r3, [r3, #20]
 800365c:	617b      	str	r3, [r7, #20]
 800365e:	68fb      	ldr	r3, [r7, #12]
 8003660:	681b      	ldr	r3, [r3, #0]
 8003662:	699b      	ldr	r3, [r3, #24]
 8003664:	617b      	str	r3, [r7, #20]
 8003666:	697b      	ldr	r3, [r7, #20]
    }

    while (hi2c->XferSize > 0U)
 8003668:	e144      	b.n	80038f4 <HAL_I2C_Mem_Read+0x430>
    {
      if (hi2c->XferSize <= 3U)
 800366a:	68fb      	ldr	r3, [r7, #12]
 800366c:	8d1b      	ldrh	r3, [r3, #40]	@ 0x28
 800366e:	2b03      	cmp	r3, #3
 8003670:	f200 80f1 	bhi.w	8003856 <HAL_I2C_Mem_Read+0x392>
      {
        /* One byte */
        if (hi2c->XferSize == 1U)
 8003674:	68fb      	ldr	r3, [r7, #12]
 8003676:	8d1b      	ldrh	r3, [r3, #40]	@ 0x28
 8003678:	2b01      	cmp	r3, #1
 800367a:	d123      	bne.n	80036c4 <HAL_I2C_Mem_Read+0x200>
        {
          /* Wait until RXNE flag is set */
          if (I2C_WaitOnRXNEFlagUntilTimeout(hi2c, Timeout, tickstart) != HAL_OK)
 800367c:	6a7a      	ldr	r2, [r7, #36]	@ 0x24
 800367e:	6bb9      	ldr	r1, [r7, #56]	@ 0x38
 8003680:	68f8      	ldr	r0, [r7, #12]
 8003682:	f000 fc79 	bl	8003f78 <I2C_WaitOnRXNEFlagUntilTimeout>
 8003686:	4603      	mov	r3, r0
 8003688:	2b00      	cmp	r3, #0
 800368a:	d001      	beq.n	8003690 <HAL_I2C_Mem_Read+0x1cc>
          {
            return HAL_ERROR;
 800368c:	2301      	movs	r3, #1
 800368e:	e145      	b.n	800391c <HAL_I2C_Mem_Read+0x458>
          }

          /* Read data from DR */
          *hi2c->pBuffPtr = (uint8_t)hi2c->Instance->DR;
 8003690:	68fb      	ldr	r3, [r7, #12]
 8003692:	681b      	ldr	r3, [r3, #0]
 8003694:	691a      	ldr	r2, [r3, #16]
 8003696:	68fb      	ldr	r3, [r7, #12]
 8003698:	6a5b      	ldr	r3, [r3, #36]	@ 0x24
 800369a:	b2d2      	uxtb	r2, r2
 800369c:	701a      	strb	r2, [r3, #0]

          /* Increment Buffer pointer */
          hi2c->pBuffPtr++;
 800369e:	68fb      	ldr	r3, [r7, #12]
 80036a0:	6a5b      	ldr	r3, [r3, #36]	@ 0x24
 80036a2:	1c5a      	adds	r2, r3, #1
 80036a4:	68fb      	ldr	r3, [r7, #12]
 80036a6:	625a      	str	r2, [r3, #36]	@ 0x24

          /* Update counter */
          hi2c->XferSize--;
 80036a8:	68fb      	ldr	r3, [r7, #12]
 80036aa:	8d1b      	ldrh	r3, [r3, #40]	@ 0x28
 80036ac:	3b01      	subs	r3, #1
 80036ae:	b29a      	uxth	r2, r3
 80036b0:	68fb      	ldr	r3, [r7, #12]
 80036b2:	851a      	strh	r2, [r3, #40]	@ 0x28
          hi2c->XferCount--;
 80036b4:	68fb      	ldr	r3, [r7, #12]
 80036b6:	8d5b      	ldrh	r3, [r3, #42]	@ 0x2a
 80036b8:	b29b      	uxth	r3, r3
 80036ba:	3b01      	subs	r3, #1
 80036bc:	b29a      	uxth	r2, r3
 80036be:	68fb      	ldr	r3, [r7, #12]
 80036c0:	855a      	strh	r2, [r3, #42]	@ 0x2a
 80036c2:	e117      	b.n	80038f4 <HAL_I2C_Mem_Read+0x430>
        }
        /* Two bytes */
        else if (hi2c->XferSize == 2U)
 80036c4:	68fb      	ldr	r3, [r7, #12]
 80036c6:	8d1b      	ldrh	r3, [r3, #40]	@ 0x28
 80036c8:	2b02      	cmp	r3, #2
 80036ca:	d14e      	bne.n	800376a <HAL_I2C_Mem_Read+0x2a6>
        {
          /* Wait until BTF flag is set */
          if (I2C_WaitOnFlagUntilTimeout(hi2c, I2C_FLAG_BTF, RESET, Timeout, tickstart) != HAL_OK)
 80036cc:	6a7b      	ldr	r3, [r7, #36]	@ 0x24
 80036ce:	9300      	str	r3, [sp, #0]
 80036d0:	6bbb      	ldr	r3, [r7, #56]	@ 0x38
 80036d2:	2200      	movs	r2, #0
 80036d4:	4906      	ldr	r1, [pc, #24]	@ (80036f0 <HAL_I2C_Mem_Read+0x22c>)
 80036d6:	68f8      	ldr	r0, [r7, #12]
 80036d8:	f000 faa4 	bl	8003c24 <I2C_WaitOnFlagUntilTimeout>
 80036dc:	4603      	mov	r3, r0
 80036de:	2b00      	cmp	r3, #0
 80036e0:	d008      	beq.n	80036f4 <HAL_I2C_Mem_Read+0x230>
          {
            return HAL_ERROR;
 80036e2:	2301      	movs	r3, #1
 80036e4:	e11a      	b.n	800391c <HAL_I2C_Mem_Read+0x458>
 80036e6:	bf00      	nop
 80036e8:	00100002 	.word	0x00100002
 80036ec:	ffff0000 	.word	0xffff0000
 80036f0:	00010004 	.word	0x00010004
          }

          /* Generate Stop */
          SET_BIT(hi2c->Instance->CR1, I2C_CR1_STOP);
 80036f4:	68fb      	ldr	r3, [r7, #12]
 80036f6:	681b      	ldr	r3, [r3, #0]
 80036f8:	681a      	ldr	r2, [r3, #0]
 80036fa:	68fb      	ldr	r3, [r7, #12]
 80036fc:	681b      	ldr	r3, [r3, #0]
 80036fe:	f442 7200 	orr.w	r2, r2, #512	@ 0x200
 8003702:	601a      	str	r2, [r3, #0]

          /* Read data from DR */
          *hi2c->pBuffPtr = (uint8_t)hi2c->Instance->DR;
 8003704:	68fb      	ldr	r3, [r7, #12]
 8003706:	681b      	ldr	r3, [r3, #0]
 8003708:	691a      	ldr	r2, [r3, #16]
 800370a:	68fb      	ldr	r3, [r7, #12]
 800370c:	6a5b      	ldr	r3, [r3, #36]	@ 0x24
 800370e:	b2d2      	uxtb	r2, r2
 8003710:	701a      	strb	r2, [r3, #0]

          /* Increment Buffer pointer */
          hi2c->pBuffPtr++;
 8003712:	68fb      	ldr	r3, [r7, #12]
 8003714:	6a5b      	ldr	r3, [r3, #36]	@ 0x24
 8003716:	1c5a      	adds	r2, r3, #1
 8003718:	68fb      	ldr	r3, [r7, #12]
 800371a:	625a      	str	r2, [r3, #36]	@ 0x24

          /* Update counter */
          hi2c->XferSize--;
 800371c:	68fb      	ldr	r3, [r7, #12]
 800371e:	8d1b      	ldrh	r3, [r3, #40]	@ 0x28
 8003720:	3b01      	subs	r3, #1
 8003722:	b29a      	uxth	r2, r3
 8003724:	68fb      	ldr	r3, [r7, #12]
 8003726:	851a      	strh	r2, [r3, #40]	@ 0x28
          hi2c->XferCount--;
 8003728:	68fb      	ldr	r3, [r7, #12]
 800372a:	8d5b      	ldrh	r3, [r3, #42]	@ 0x2a
 800372c:	b29b      	uxth	r3, r3
 800372e:	3b01      	subs	r3, #1
 8003730:	b29a      	uxth	r2, r3
 8003732:	68fb      	ldr	r3, [r7, #12]
 8003734:	855a      	strh	r2, [r3, #42]	@ 0x2a

          /* Read data from DR */
          *hi2c->pBuffPtr = (uint8_t)hi2c->Instance->DR;
 8003736:	68fb      	ldr	r3, [r7, #12]
 8003738:	681b      	ldr	r3, [r3, #0]
 800373a:	691a      	ldr	r2, [r3, #16]
 800373c:	68fb      	ldr	r3, [r7, #12]
 800373e:	6a5b      	ldr	r3, [r3, #36]	@ 0x24
 8003740:	b2d2      	uxtb	r2, r2
 8003742:	701a      	strb	r2, [r3, #0]

          /* Increment Buffer pointer */
          hi2c->pBuffPtr++;
 8003744:	68fb      	ldr	r3, [r7, #12]
 8003746:	6a5b      	ldr	r3, [r3, #36]	@ 0x24
 8003748:	1c5a      	adds	r2, r3, #1
 800374a:	68fb      	ldr	r3, [r7, #12]
 800374c:	625a      	str	r2, [r3, #36]	@ 0x24

          /* Update counter */
          hi2c->XferSize--;
 800374e:	68fb      	ldr	r3, [r7, #12]
 8003750:	8d1b      	ldrh	r3, [r3, #40]	@ 0x28
 8003752:	3b01      	subs	r3, #1
 8003754:	b29a      	uxth	r2, r3
 8003756:	68fb      	ldr	r3, [r7, #12]
 8003758:	851a      	strh	r2, [r3, #40]	@ 0x28
          hi2c->XferCount--;
 800375a:	68fb      	ldr	r3, [r7, #12]
 800375c:	8d5b      	ldrh	r3, [r3, #42]	@ 0x2a
 800375e:	b29b      	uxth	r3, r3
 8003760:	3b01      	subs	r3, #1
 8003762:	b29a      	uxth	r2, r3
 8003764:	68fb      	ldr	r3, [r7, #12]
 8003766:	855a      	strh	r2, [r3, #42]	@ 0x2a
 8003768:	e0c4      	b.n	80038f4 <HAL_I2C_Mem_Read+0x430>
        }
        /* 3 Last bytes */
        else
        {
          /* Wait until BTF flag is set */
          if (I2C_WaitOnFlagUntilTimeout(hi2c, I2C_FLAG_BTF, RESET, Timeout, tickstart) != HAL_OK)
 800376a:	6a7b      	ldr	r3, [r7, #36]	@ 0x24
 800376c:	9300      	str	r3, [sp, #0]
 800376e:	6bbb      	ldr	r3, [r7, #56]	@ 0x38
 8003770:	2200      	movs	r2, #0
 8003772:	496c      	ldr	r1, [pc, #432]	@ (8003924 <HAL_I2C_Mem_Read+0x460>)
 8003774:	68f8      	ldr	r0, [r7, #12]
 8003776:	f000 fa55 	bl	8003c24 <I2C_WaitOnFlagUntilTimeout>
 800377a:	4603      	mov	r3, r0
 800377c:	2b00      	cmp	r3, #0
 800377e:	d001      	beq.n	8003784 <HAL_I2C_Mem_Read+0x2c0>
          {
            return HAL_ERROR;
 8003780:	2301      	movs	r3, #1
 8003782:	e0cb      	b.n	800391c <HAL_I2C_Mem_Read+0x458>
          }

          /* Disable Acknowledge */
          CLEAR_BIT(hi2c->Instance->CR1, I2C_CR1_ACK);
 8003784:	68fb      	ldr	r3, [r7, #12]
 8003786:	681b      	ldr	r3, [r3, #0]
 8003788:	681a      	ldr	r2, [r3, #0]
 800378a:	68fb      	ldr	r3, [r7, #12]
 800378c:	681b      	ldr	r3, [r3, #0]
 800378e:	f422 6280 	bic.w	r2, r2, #1024	@ 0x400
 8003792:	601a      	str	r2, [r3, #0]

          /* Read data from DR */
          *hi2c->pBuffPtr = (uint8_t)hi2c->Instance->DR;
 8003794:	68fb      	ldr	r3, [r7, #12]
 8003796:	681b      	ldr	r3, [r3, #0]
 8003798:	691a      	ldr	r2, [r3, #16]
 800379a:	68fb      	ldr	r3, [r7, #12]
 800379c:	6a5b      	ldr	r3, [r3, #36]	@ 0x24
 800379e:	b2d2      	uxtb	r2, r2
 80037a0:	701a      	strb	r2, [r3, #0]

          /* Increment Buffer pointer */
          hi2c->pBuffPtr++;
 80037a2:	68fb      	ldr	r3, [r7, #12]
 80037a4:	6a5b      	ldr	r3, [r3, #36]	@ 0x24
 80037a6:	1c5a      	adds	r2, r3, #1
 80037a8:	68fb      	ldr	r3, [r7, #12]
 80037aa:	625a      	str	r2, [r3, #36]	@ 0x24

          /* Update counter */
          hi2c->XferSize--;
 80037ac:	68fb      	ldr	r3, [r7, #12]
 80037ae:	8d1b      	ldrh	r3, [r3, #40]	@ 0x28
 80037b0:	3b01      	subs	r3, #1
 80037b2:	b29a      	uxth	r2, r3
 80037b4:	68fb      	ldr	r3, [r7, #12]
 80037b6:	851a      	strh	r2, [r3, #40]	@ 0x28
          hi2c->XferCount--;
 80037b8:	68fb      	ldr	r3, [r7, #12]
 80037ba:	8d5b      	ldrh	r3, [r3, #42]	@ 0x2a
 80037bc:	b29b      	uxth	r3, r3
 80037be:	3b01      	subs	r3, #1
 80037c0:	b29a      	uxth	r2, r3
 80037c2:	68fb      	ldr	r3, [r7, #12]
 80037c4:	855a      	strh	r2, [r3, #42]	@ 0x2a

          /* Wait until BTF flag is set */
          if (I2C_WaitOnFlagUntilTimeout(hi2c, I2C_FLAG_BTF, RESET, Timeout, tickstart) != HAL_OK)
 80037c6:	6a7b      	ldr	r3, [r7, #36]	@ 0x24
 80037c8:	9300      	str	r3, [sp, #0]
 80037ca:	6bbb      	ldr	r3, [r7, #56]	@ 0x38
 80037cc:	2200      	movs	r2, #0
 80037ce:	4955      	ldr	r1, [pc, #340]	@ (8003924 <HAL_I2C_Mem_Read+0x460>)
 80037d0:	68f8      	ldr	r0, [r7, #12]
 80037d2:	f000 fa27 	bl	8003c24 <I2C_WaitOnFlagUntilTimeout>
 80037d6:	4603      	mov	r3, r0
 80037d8:	2b00      	cmp	r3, #0
 80037da:	d001      	beq.n	80037e0 <HAL_I2C_Mem_Read+0x31c>
          {
            return HAL_ERROR;
 80037dc:	2301      	movs	r3, #1
 80037de:	e09d      	b.n	800391c <HAL_I2C_Mem_Read+0x458>
          }

          /* Generate Stop */
          SET_BIT(hi2c->Instance->CR1, I2C_CR1_STOP);
 80037e0:	68fb      	ldr	r3, [r7, #12]
 80037e2:	681b      	ldr	r3, [r3, #0]
 80037e4:	681a      	ldr	r2, [r3, #0]
 80037e6:	68fb      	ldr	r3, [r7, #12]
 80037e8:	681b      	ldr	r3, [r3, #0]
 80037ea:	f442 7200 	orr.w	r2, r2, #512	@ 0x200
 80037ee:	601a      	str	r2, [r3, #0]

          /* Read data from DR */
          *hi2c->pBuffPtr = (uint8_t)hi2c->Instance->DR;
 80037f0:	68fb      	ldr	r3, [r7, #12]
 80037f2:	681b      	ldr	r3, [r3, #0]
 80037f4:	691a      	ldr	r2, [r3, #16]
 80037f6:	68fb      	ldr	r3, [r7, #12]
 80037f8:	6a5b      	ldr	r3, [r3, #36]	@ 0x24
 80037fa:	b2d2      	uxtb	r2, r2
 80037fc:	701a      	strb	r2, [r3, #0]

          /* Increment Buffer pointer */
          hi2c->pBuffPtr++;
 80037fe:	68fb      	ldr	r3, [r7, #12]
 8003800:	6a5b      	ldr	r3, [r3, #36]	@ 0x24
 8003802:	1c5a      	adds	r2, r3, #1
 8003804:	68fb      	ldr	r3, [r7, #12]
 8003806:	625a      	str	r2, [r3, #36]	@ 0x24

          /* Update counter */
          hi2c->XferSize--;
 8003808:	68fb      	ldr	r3, [r7, #12]
 800380a:	8d1b      	ldrh	r3, [r3, #40]	@ 0x28
 800380c:	3b01      	subs	r3, #1
 800380e:	b29a      	uxth	r2, r3
 8003810:	68fb      	ldr	r3, [r7, #12]
 8003812:	851a      	strh	r2, [r3, #40]	@ 0x28
          hi2c->XferCount--;
 8003814:	68fb      	ldr	r3, [r7, #12]
 8003816:	8d5b      	ldrh	r3, [r3, #42]	@ 0x2a
 8003818:	b29b      	uxth	r3, r3
 800381a:	3b01      	subs	r3, #1
 800381c:	b29a      	uxth	r2, r3
 800381e:	68fb      	ldr	r3, [r7, #12]
 8003820:	855a      	strh	r2, [r3, #42]	@ 0x2a

          /* Read data from DR */
          *hi2c->pBuffPtr = (uint8_t)hi2c->Instance->DR;
 8003822:	68fb      	ldr	r3, [r7, #12]
 8003824:	681b      	ldr	r3, [r3, #0]
 8003826:	691a      	ldr	r2, [r3, #16]
 8003828:	68fb      	ldr	r3, [r7, #12]
 800382a:	6a5b      	ldr	r3, [r3, #36]	@ 0x24
 800382c:	b2d2      	uxtb	r2, r2
 800382e:	701a      	strb	r2, [r3, #0]

          /* Increment Buffer pointer */
          hi2c->pBuffPtr++;
 8003830:	68fb      	ldr	r3, [r7, #12]
 8003832:	6a5b      	ldr	r3, [r3, #36]	@ 0x24
 8003834:	1c5a      	adds	r2, r3, #1
 8003836:	68fb      	ldr	r3, [r7, #12]
 8003838:	625a      	str	r2, [r3, #36]	@ 0x24

          /* Update counter */
          hi2c->XferSize--;
 800383a:	68fb      	ldr	r3, [r7, #12]
 800383c:	8d1b      	ldrh	r3, [r3, #40]	@ 0x28
 800383e:	3b01      	subs	r3, #1
 8003840:	b29a      	uxth	r2, r3
 8003842:	68fb      	ldr	r3, [r7, #12]
 8003844:	851a      	strh	r2, [r3, #40]	@ 0x28
          hi2c->XferCount--;
 8003846:	68fb      	ldr	r3, [r7, #12]
 8003848:	8d5b      	ldrh	r3, [r3, #42]	@ 0x2a
 800384a:	b29b      	uxth	r3, r3
 800384c:	3b01      	subs	r3, #1
 800384e:	b29a      	uxth	r2, r3
 8003850:	68fb      	ldr	r3, [r7, #12]
 8003852:	855a      	strh	r2, [r3, #42]	@ 0x2a
 8003854:	e04e      	b.n	80038f4 <HAL_I2C_Mem_Read+0x430>
        }
      }
      else
      {
        /* Wait until RXNE flag is set */
        if (I2C_WaitOnRXNEFlagUntilTimeout(hi2c, Timeout, tickstart) != HAL_OK)
 8003856:	6a7a      	ldr	r2, [r7, #36]	@ 0x24
 8003858:	6bb9      	ldr	r1, [r7, #56]	@ 0x38
 800385a:	68f8      	ldr	r0, [r7, #12]
 800385c:	f000 fb8c 	bl	8003f78 <I2C_WaitOnRXNEFlagUntilTimeout>
 8003860:	4603      	mov	r3, r0
 8003862:	2b00      	cmp	r3, #0
 8003864:	d001      	beq.n	800386a <HAL_I2C_Mem_Read+0x3a6>
        {
          return HAL_ERROR;
 8003866:	2301      	movs	r3, #1
 8003868:	e058      	b.n	800391c <HAL_I2C_Mem_Read+0x458>
        }

        /* Read data from DR */
        *hi2c->pBuffPtr = (uint8_t)hi2c->Instance->DR;
 800386a:	68fb      	ldr	r3, [r7, #12]
 800386c:	681b      	ldr	r3, [r3, #0]
 800386e:	691a      	ldr	r2, [r3, #16]
 8003870:	68fb      	ldr	r3, [r7, #12]
 8003872:	6a5b      	ldr	r3, [r3, #36]	@ 0x24
 8003874:	b2d2      	uxtb	r2, r2
 8003876:	701a      	strb	r2, [r3, #0]

        /* Increment Buffer pointer */
        hi2c->pBuffPtr++;
 8003878:	68fb      	ldr	r3, [r7, #12]
 800387a:	6a5b      	ldr	r3, [r3, #36]	@ 0x24
 800387c:	1c5a      	adds	r2, r3, #1
 800387e:	68fb      	ldr	r3, [r7, #12]
 8003880:	625a      	str	r2, [r3, #36]	@ 0x24

        /* Update counter */
        hi2c->XferSize--;
 8003882:	68fb      	ldr	r3, [r7, #12]
 8003884:	8d1b      	ldrh	r3, [r3, #40]	@ 0x28
 8003886:	3b01      	subs	r3, #1
 8003888:	b29a      	uxth	r2, r3
 800388a:	68fb      	ldr	r3, [r7, #12]
 800388c:	851a      	strh	r2, [r3, #40]	@ 0x28
        hi2c->XferCount--;
 800388e:	68fb      	ldr	r3, [r7, #12]
 8003890:	8d5b      	ldrh	r3, [r3, #42]	@ 0x2a
 8003892:	b29b      	uxth	r3, r3
 8003894:	3b01      	subs	r3, #1
 8003896:	b29a      	uxth	r2, r3
 8003898:	68fb      	ldr	r3, [r7, #12]
 800389a:	855a      	strh	r2, [r3, #42]	@ 0x2a

        if (__HAL_I2C_GET_FLAG(hi2c, I2C_FLAG_BTF) == SET)
 800389c:	68fb      	ldr	r3, [r7, #12]
 800389e:	681b      	ldr	r3, [r3, #0]
 80038a0:	695b      	ldr	r3, [r3, #20]
 80038a2:	f003 0304 	and.w	r3, r3, #4
 80038a6:	2b04      	cmp	r3, #4
 80038a8:	d124      	bne.n	80038f4 <HAL_I2C_Mem_Read+0x430>
        {
          if (hi2c->XferSize == 3U)
 80038aa:	68fb      	ldr	r3, [r7, #12]
 80038ac:	8d1b      	ldrh	r3, [r3, #40]	@ 0x28
 80038ae:	2b03      	cmp	r3, #3
 80038b0:	d107      	bne.n	80038c2 <HAL_I2C_Mem_Read+0x3fe>
          {
            /* Disable Acknowledge */
            CLEAR_BIT(hi2c->Instance->CR1, I2C_CR1_ACK);
 80038b2:	68fb      	ldr	r3, [r7, #12]
 80038b4:	681b      	ldr	r3, [r3, #0]
 80038b6:	681a      	ldr	r2, [r3, #0]
 80038b8:	68fb      	ldr	r3, [r7, #12]
 80038ba:	681b      	ldr	r3, [r3, #0]
 80038bc:	f422 6280 	bic.w	r2, r2, #1024	@ 0x400
 80038c0:	601a      	str	r2, [r3, #0]
          }
          /* Read data from DR */
          *hi2c->pBuffPtr = (uint8_t)hi2c->Instance->DR;
 80038c2:	68fb      	ldr	r3, [r7, #12]
 80038c4:	681b      	ldr	r3, [r3, #0]
 80038c6:	691a      	ldr	r2, [r3, #16]
 80038c8:	68fb      	ldr	r3, [r7, #12]
 80038ca:	6a5b      	ldr	r3, [r3, #36]	@ 0x24
 80038cc:	b2d2      	uxtb	r2, r2
 80038ce:	701a      	strb	r2, [r3, #0]

          /* Increment Buffer pointer */
          hi2c->pBuffPtr++;
 80038d0:	68fb      	ldr	r3, [r7, #12]
 80038d2:	6a5b      	ldr	r3, [r3, #36]	@ 0x24
 80038d4:	1c5a      	adds	r2, r3, #1
 80038d6:	68fb      	ldr	r3, [r7, #12]
 80038d8:	625a      	str	r2, [r3, #36]	@ 0x24

          /* Update counter */
          hi2c->XferSize--;
 80038da:	68fb      	ldr	r3, [r7, #12]
 80038dc:	8d1b      	ldrh	r3, [r3, #40]	@ 0x28
 80038de:	3b01      	subs	r3, #1
 80038e0:	b29a      	uxth	r2, r3
 80038e2:	68fb      	ldr	r3, [r7, #12]
 80038e4:	851a      	strh	r2, [r3, #40]	@ 0x28
          hi2c->XferCount--;
 80038e6:	68fb      	ldr	r3, [r7, #12]
 80038e8:	8d5b      	ldrh	r3, [r3, #42]	@ 0x2a
 80038ea:	b29b      	uxth	r3, r3
 80038ec:	3b01      	subs	r3, #1
 80038ee:	b29a      	uxth	r2, r3
 80038f0:	68fb      	ldr	r3, [r7, #12]
 80038f2:	855a      	strh	r2, [r3, #42]	@ 0x2a
    while (hi2c->XferSize > 0U)
 80038f4:	68fb      	ldr	r3, [r7, #12]
 80038f6:	8d1b      	ldrh	r3, [r3, #40]	@ 0x28
 80038f8:	2b00      	cmp	r3, #0
 80038fa:	f47f aeb6 	bne.w	800366a <HAL_I2C_Mem_Read+0x1a6>
        }
      }
    }

    hi2c->State = HAL_I2C_STATE_READY;
 80038fe:	68fb      	ldr	r3, [r7, #12]
 8003900:	2220      	movs	r2, #32
 8003902:	f883 203d 	strb.w	r2, [r3, #61]	@ 0x3d
    hi2c->Mode = HAL_I2C_MODE_NONE;
 8003906:	68fb      	ldr	r3, [r7, #12]
 8003908:	2200      	movs	r2, #0
 800390a:	f883 203e 	strb.w	r2, [r3, #62]	@ 0x3e

    /* Process Unlocked */
    __HAL_UNLOCK(hi2c);
 800390e:	68fb      	ldr	r3, [r7, #12]
 8003910:	2200      	movs	r2, #0
 8003912:	f883 203c 	strb.w	r2, [r3, #60]	@ 0x3c

    return HAL_OK;
 8003916:	2300      	movs	r3, #0
 8003918:	e000      	b.n	800391c <HAL_I2C_Mem_Read+0x458>
  }
  else
  {
    return HAL_BUSY;
 800391a:	2302      	movs	r3, #2
  }
}
 800391c:	4618      	mov	r0, r3
 800391e:	3728      	adds	r7, #40	@ 0x28
 8003920:	46bd      	mov	sp, r7
 8003922:	bd80      	pop	{r7, pc}
 8003924:	00010004 	.word	0x00010004

08003928 <I2C_RequestMemoryWrite>:
  * @param  Timeout Timeout duration
  * @param  Tickstart Tick start value
  * @retval HAL status
  */
static HAL_StatusTypeDef I2C_RequestMemoryWrite(I2C_HandleTypeDef *hi2c, uint16_t DevAddress, uint16_t MemAddress, uint16_t MemAddSize, uint32_t Timeout, uint32_t Tickstart)
{
 8003928:	b580      	push	{r7, lr}
 800392a:	b088      	sub	sp, #32
 800392c:	af02      	add	r7, sp, #8
 800392e:	60f8      	str	r0, [r7, #12]
 8003930:	4608      	mov	r0, r1
 8003932:	4611      	mov	r1, r2
 8003934:	461a      	mov	r2, r3
 8003936:	4603      	mov	r3, r0
 8003938:	817b      	strh	r3, [r7, #10]
 800393a:	460b      	mov	r3, r1
 800393c:	813b      	strh	r3, [r7, #8]
 800393e:	4613      	mov	r3, r2
 8003940:	80fb      	strh	r3, [r7, #6]
  /* Generate Start */
  SET_BIT(hi2c->Instance->CR1, I2C_CR1_START);
 8003942:	68fb      	ldr	r3, [r7, #12]
 8003944:	681b      	ldr	r3, [r3, #0]
 8003946:	681a      	ldr	r2, [r3, #0]
 8003948:	68fb      	ldr	r3, [r7, #12]
 800394a:	681b      	ldr	r3, [r3, #0]
 800394c:	f442 7280 	orr.w	r2, r2, #256	@ 0x100
 8003950:	601a      	str	r2, [r3, #0]

  /* Wait until SB flag is set */
  if (I2C_WaitOnFlagUntilTimeout(hi2c, I2C_FLAG_SB, RESET, Timeout, Tickstart) != HAL_OK)
 8003952:	6a7b      	ldr	r3, [r7, #36]	@ 0x24
 8003954:	9300      	str	r3, [sp, #0]
 8003956:	6a3b      	ldr	r3, [r7, #32]
 8003958:	2200      	movs	r2, #0
 800395a:	f04f 1101 	mov.w	r1, #65537	@ 0x10001
 800395e:	68f8      	ldr	r0, [r7, #12]
 8003960:	f000 f960 	bl	8003c24 <I2C_WaitOnFlagUntilTimeout>
 8003964:	4603      	mov	r3, r0
 8003966:	2b00      	cmp	r3, #0
 8003968:	d00d      	beq.n	8003986 <I2C_RequestMemoryWrite+0x5e>
  {
    if (READ_BIT(hi2c->Instance->CR1, I2C_CR1_START) == I2C_CR1_START)
 800396a:	68fb      	ldr	r3, [r7, #12]
 800396c:	681b      	ldr	r3, [r3, #0]
 800396e:	681b      	ldr	r3, [r3, #0]
 8003970:	f403 7380 	and.w	r3, r3, #256	@ 0x100
 8003974:	f5b3 7f80 	cmp.w	r3, #256	@ 0x100
 8003978:	d103      	bne.n	8003982 <I2C_RequestMemoryWrite+0x5a>
    {
      hi2c->ErrorCode = HAL_I2C_WRONG_START;
 800397a:	68fb      	ldr	r3, [r7, #12]
 800397c:	f44f 7200 	mov.w	r2, #512	@ 0x200
 8003980:	641a      	str	r2, [r3, #64]	@ 0x40
    }
    return HAL_TIMEOUT;
 8003982:	2303      	movs	r3, #3
 8003984:	e05f      	b.n	8003a46 <I2C_RequestMemoryWrite+0x11e>
  }

  /* Send slave address */
  hi2c->Instance->DR = I2C_7BIT_ADD_WRITE(DevAddress);
 8003986:	897b      	ldrh	r3, [r7, #10]
 8003988:	b2db      	uxtb	r3, r3
 800398a:	461a      	mov	r2, r3
 800398c:	68fb      	ldr	r3, [r7, #12]
 800398e:	681b      	ldr	r3, [r3, #0]
 8003990:	f002 02fe 	and.w	r2, r2, #254	@ 0xfe
 8003994:	611a      	str	r2, [r3, #16]

  /* Wait until ADDR flag is set */
  if (I2C_WaitOnMasterAddressFlagUntilTimeout(hi2c, I2C_FLAG_ADDR, Timeout, Tickstart) != HAL_OK)
 8003996:	6a7b      	ldr	r3, [r7, #36]	@ 0x24
 8003998:	6a3a      	ldr	r2, [r7, #32]
 800399a:	492d      	ldr	r1, [pc, #180]	@ (8003a50 <I2C_RequestMemoryWrite+0x128>)
 800399c:	68f8      	ldr	r0, [r7, #12]
 800399e:	f000 f9bb 	bl	8003d18 <I2C_WaitOnMasterAddressFlagUntilTimeout>
 80039a2:	4603      	mov	r3, r0
 80039a4:	2b00      	cmp	r3, #0
 80039a6:	d001      	beq.n	80039ac <I2C_RequestMemoryWrite+0x84>
  {
    return HAL_ERROR;
 80039a8:	2301      	movs	r3, #1
 80039aa:	e04c      	b.n	8003a46 <I2C_RequestMemoryWrite+0x11e>
  }

  /* Clear ADDR flag */
  __HAL_I2C_CLEAR_ADDRFLAG(hi2c);
 80039ac:	2300      	movs	r3, #0
 80039ae:	617b      	str	r3, [r7, #20]
 80039b0:	68fb      	ldr	r3, [r7, #12]
 80039b2:	681b      	ldr	r3, [r3, #0]
 80039b4:	695b      	ldr	r3, [r3, #20]
 80039b6:	617b      	str	r3, [r7, #20]
 80039b8:	68fb      	ldr	r3, [r7, #12]
 80039ba:	681b      	ldr	r3, [r3, #0]
 80039bc:	699b      	ldr	r3, [r3, #24]
 80039be:	617b      	str	r3, [r7, #20]
 80039c0:	697b      	ldr	r3, [r7, #20]

  /* Wait until TXE flag is set */
  if (I2C_WaitOnTXEFlagUntilTimeout(hi2c, Timeout, Tickstart) != HAL_OK)
 80039c2:	6a7a      	ldr	r2, [r7, #36]	@ 0x24
 80039c4:	6a39      	ldr	r1, [r7, #32]
 80039c6:	68f8      	ldr	r0, [r7, #12]
 80039c8:	f000 fa46 	bl	8003e58 <I2C_WaitOnTXEFlagUntilTimeout>
 80039cc:	4603      	mov	r3, r0
 80039ce:	2b00      	cmp	r3, #0
 80039d0:	d00d      	beq.n	80039ee <I2C_RequestMemoryWrite+0xc6>
  {
    if (hi2c->ErrorCode == HAL_I2C_ERROR_AF)
 80039d2:	68fb      	ldr	r3, [r7, #12]
 80039d4:	6c1b      	ldr	r3, [r3, #64]	@ 0x40
 80039d6:	2b04      	cmp	r3, #4
 80039d8:	d107      	bne.n	80039ea <I2C_RequestMemoryWrite+0xc2>
    {
      /* Generate Stop */
      SET_BIT(hi2c->Instance->CR1, I2C_CR1_STOP);
 80039da:	68fb      	ldr	r3, [r7, #12]
 80039dc:	681b      	ldr	r3, [r3, #0]
 80039de:	681a      	ldr	r2, [r3, #0]
 80039e0:	68fb      	ldr	r3, [r7, #12]
 80039e2:	681b      	ldr	r3, [r3, #0]
 80039e4:	f442 7200 	orr.w	r2, r2, #512	@ 0x200
 80039e8:	601a      	str	r2, [r3, #0]
    }
    return HAL_ERROR;
 80039ea:	2301      	movs	r3, #1
 80039ec:	e02b      	b.n	8003a46 <I2C_RequestMemoryWrite+0x11e>
  }

  /* If Memory address size is 8Bit */
  if (MemAddSize == I2C_MEMADD_SIZE_8BIT)
 80039ee:	88fb      	ldrh	r3, [r7, #6]
 80039f0:	2b01      	cmp	r3, #1
 80039f2:	d105      	bne.n	8003a00 <I2C_RequestMemoryWrite+0xd8>
  {
    /* Send Memory Address */
    hi2c->Instance->DR = I2C_MEM_ADD_LSB(MemAddress);
 80039f4:	893b      	ldrh	r3, [r7, #8]
 80039f6:	b2da      	uxtb	r2, r3
 80039f8:	68fb      	ldr	r3, [r7, #12]
 80039fa:	681b      	ldr	r3, [r3, #0]
 80039fc:	611a      	str	r2, [r3, #16]
 80039fe:	e021      	b.n	8003a44 <I2C_RequestMemoryWrite+0x11c>
  }
  /* If Memory address size is 16Bit */
  else
  {
    /* Send MSB of Memory Address */
    hi2c->Instance->DR = I2C_MEM_ADD_MSB(MemAddress);
 8003a00:	893b      	ldrh	r3, [r7, #8]
 8003a02:	0a1b      	lsrs	r3, r3, #8
 8003a04:	b29b      	uxth	r3, r3
 8003a06:	b2da      	uxtb	r2, r3
 8003a08:	68fb      	ldr	r3, [r7, #12]
 8003a0a:	681b      	ldr	r3, [r3, #0]
 8003a0c:	611a      	str	r2, [r3, #16]

    /* Wait until TXE flag is set */
    if (I2C_WaitOnTXEFlagUntilTimeout(hi2c, Timeout, Tickstart) != HAL_OK)
 8003a0e:	6a7a      	ldr	r2, [r7, #36]	@ 0x24
 8003a10:	6a39      	ldr	r1, [r7, #32]
 8003a12:	68f8      	ldr	r0, [r7, #12]
 8003a14:	f000 fa20 	bl	8003e58 <I2C_WaitOnTXEFlagUntilTimeout>
 8003a18:	4603      	mov	r3, r0
 8003a1a:	2b00      	cmp	r3, #0
 8003a1c:	d00d      	beq.n	8003a3a <I2C_RequestMemoryWrite+0x112>
    {
      if (hi2c->ErrorCode == HAL_I2C_ERROR_AF)
 8003a1e:	68fb      	ldr	r3, [r7, #12]
 8003a20:	6c1b      	ldr	r3, [r3, #64]	@ 0x40
 8003a22:	2b04      	cmp	r3, #4
 8003a24:	d107      	bne.n	8003a36 <I2C_RequestMemoryWrite+0x10e>
      {
        /* Generate Stop */
        SET_BIT(hi2c->Instance->CR1, I2C_CR1_STOP);
 8003a26:	68fb      	ldr	r3, [r7, #12]
 8003a28:	681b      	ldr	r3, [r3, #0]
 8003a2a:	681a      	ldr	r2, [r3, #0]
 8003a2c:	68fb      	ldr	r3, [r7, #12]
 8003a2e:	681b      	ldr	r3, [r3, #0]
 8003a30:	f442 7200 	orr.w	r2, r2, #512	@ 0x200
 8003a34:	601a      	str	r2, [r3, #0]
      }
      return HAL_ERROR;
 8003a36:	2301      	movs	r3, #1
 8003a38:	e005      	b.n	8003a46 <I2C_RequestMemoryWrite+0x11e>
    }

    /* Send LSB of Memory Address */
    hi2c->Instance->DR = I2C_MEM_ADD_LSB(MemAddress);
 8003a3a:	893b      	ldrh	r3, [r7, #8]
 8003a3c:	b2da      	uxtb	r2, r3
 8003a3e:	68fb      	ldr	r3, [r7, #12]
 8003a40:	681b      	ldr	r3, [r3, #0]
 8003a42:	611a      	str	r2, [r3, #16]
  }

  return HAL_OK;
 8003a44:	2300      	movs	r3, #0
}
 8003a46:	4618      	mov	r0, r3
 8003a48:	3718      	adds	r7, #24
 8003a4a:	46bd      	mov	sp, r7
 8003a4c:	bd80      	pop	{r7, pc}
 8003a4e:	bf00      	nop
 8003a50:	00010002 	.word	0x00010002

08003a54 <I2C_RequestMemoryRead>:
  * @param  Timeout Timeout duration
  * @param  Tickstart Tick start value
  * @retval HAL status
  */
static HAL_StatusTypeDef I2C_RequestMemoryRead(I2C_HandleTypeDef *hi2c, uint16_t DevAddress, uint16_t MemAddress, uint16_t MemAddSize, uint32_t Timeout, uint32_t Tickstart)
{
 8003a54:	b580      	push	{r7, lr}
 8003a56:	b088      	sub	sp, #32
 8003a58:	af02      	add	r7, sp, #8
 8003a5a:	60f8      	str	r0, [r7, #12]
 8003a5c:	4608      	mov	r0, r1
 8003a5e:	4611      	mov	r1, r2
 8003a60:	461a      	mov	r2, r3
 8003a62:	4603      	mov	r3, r0
 8003a64:	817b      	strh	r3, [r7, #10]
 8003a66:	460b      	mov	r3, r1
 8003a68:	813b      	strh	r3, [r7, #8]
 8003a6a:	4613      	mov	r3, r2
 8003a6c:	80fb      	strh	r3, [r7, #6]
  /* Enable Acknowledge */
  SET_BIT(hi2c->Instance->CR1, I2C_CR1_ACK);
 8003a6e:	68fb      	ldr	r3, [r7, #12]
 8003a70:	681b      	ldr	r3, [r3, #0]
 8003a72:	681a      	ldr	r2, [r3, #0]
 8003a74:	68fb      	ldr	r3, [r7, #12]
 8003a76:	681b      	ldr	r3, [r3, #0]
 8003a78:	f442 6280 	orr.w	r2, r2, #1024	@ 0x400
 8003a7c:	601a      	str	r2, [r3, #0]

  /* Generate Start */
  SET_BIT(hi2c->Instance->CR1, I2C_CR1_START);
 8003a7e:	68fb      	ldr	r3, [r7, #12]
 8003a80:	681b      	ldr	r3, [r3, #0]
 8003a82:	681a      	ldr	r2, [r3, #0]
 8003a84:	68fb      	ldr	r3, [r7, #12]
 8003a86:	681b      	ldr	r3, [r3, #0]
 8003a88:	f442 7280 	orr.w	r2, r2, #256	@ 0x100
 8003a8c:	601a      	str	r2, [r3, #0]

  /* Wait until SB flag is set */
  if (I2C_WaitOnFlagUntilTimeout(hi2c, I2C_FLAG_SB, RESET, Timeout, Tickstart) != HAL_OK)
 8003a8e:	6a7b      	ldr	r3, [r7, #36]	@ 0x24
 8003a90:	9300      	str	r3, [sp, #0]
 8003a92:	6a3b      	ldr	r3, [r7, #32]
 8003a94:	2200      	movs	r2, #0
 8003a96:	f04f 1101 	mov.w	r1, #65537	@ 0x10001
 8003a9a:	68f8      	ldr	r0, [r7, #12]
 8003a9c:	f000 f8c2 	bl	8003c24 <I2C_WaitOnFlagUntilTimeout>
 8003aa0:	4603      	mov	r3, r0
 8003aa2:	2b00      	cmp	r3, #0
 8003aa4:	d00d      	beq.n	8003ac2 <I2C_RequestMemoryRead+0x6e>
  {
    if (READ_BIT(hi2c->Instance->CR1, I2C_CR1_START) == I2C_CR1_START)
 8003aa6:	68fb      	ldr	r3, [r7, #12]
 8003aa8:	681b      	ldr	r3, [r3, #0]
 8003aaa:	681b      	ldr	r3, [r3, #0]
 8003aac:	f403 7380 	and.w	r3, r3, #256	@ 0x100
 8003ab0:	f5b3 7f80 	cmp.w	r3, #256	@ 0x100
 8003ab4:	d103      	bne.n	8003abe <I2C_RequestMemoryRead+0x6a>
    {
      hi2c->ErrorCode = HAL_I2C_WRONG_START;
 8003ab6:	68fb      	ldr	r3, [r7, #12]
 8003ab8:	f44f 7200 	mov.w	r2, #512	@ 0x200
 8003abc:	641a      	str	r2, [r3, #64]	@ 0x40
    }
    return HAL_TIMEOUT;
 8003abe:	2303      	movs	r3, #3
 8003ac0:	e0aa      	b.n	8003c18 <I2C_RequestMemoryRead+0x1c4>
  }

  /* Send slave address */
  hi2c->Instance->DR = I2C_7BIT_ADD_WRITE(DevAddress);
 8003ac2:	897b      	ldrh	r3, [r7, #10]
 8003ac4:	b2db      	uxtb	r3, r3
 8003ac6:	461a      	mov	r2, r3
 8003ac8:	68fb      	ldr	r3, [r7, #12]
 8003aca:	681b      	ldr	r3, [r3, #0]
 8003acc:	f002 02fe 	and.w	r2, r2, #254	@ 0xfe
 8003ad0:	611a      	str	r2, [r3, #16]

  /* Wait until ADDR flag is set */
  if (I2C_WaitOnMasterAddressFlagUntilTimeout(hi2c, I2C_FLAG_ADDR, Timeout, Tickstart) != HAL_OK)
 8003ad2:	6a7b      	ldr	r3, [r7, #36]	@ 0x24
 8003ad4:	6a3a      	ldr	r2, [r7, #32]
 8003ad6:	4952      	ldr	r1, [pc, #328]	@ (8003c20 <I2C_RequestMemoryRead+0x1cc>)
 8003ad8:	68f8      	ldr	r0, [r7, #12]
 8003ada:	f000 f91d 	bl	8003d18 <I2C_WaitOnMasterAddressFlagUntilTimeout>
 8003ade:	4603      	mov	r3, r0
 8003ae0:	2b00      	cmp	r3, #0
 8003ae2:	d001      	beq.n	8003ae8 <I2C_RequestMemoryRead+0x94>
  {
    return HAL_ERROR;
 8003ae4:	2301      	movs	r3, #1
 8003ae6:	e097      	b.n	8003c18 <I2C_RequestMemoryRead+0x1c4>
  }

  /* Clear ADDR flag */
  __HAL_I2C_CLEAR_ADDRFLAG(hi2c);
 8003ae8:	2300      	movs	r3, #0
 8003aea:	617b      	str	r3, [r7, #20]
 8003aec:	68fb      	ldr	r3, [r7, #12]
 8003aee:	681b      	ldr	r3, [r3, #0]
 8003af0:	695b      	ldr	r3, [r3, #20]
 8003af2:	617b      	str	r3, [r7, #20]
 8003af4:	68fb      	ldr	r3, [r7, #12]
 8003af6:	681b      	ldr	r3, [r3, #0]
 8003af8:	699b      	ldr	r3, [r3, #24]
 8003afa:	617b      	str	r3, [r7, #20]
 8003afc:	697b      	ldr	r3, [r7, #20]

  /* Wait until TXE flag is set */
  if (I2C_WaitOnTXEFlagUntilTimeout(hi2c, Timeout, Tickstart) != HAL_OK)
 8003afe:	6a7a      	ldr	r2, [r7, #36]	@ 0x24
 8003b00:	6a39      	ldr	r1, [r7, #32]
 8003b02:	68f8      	ldr	r0, [r7, #12]
 8003b04:	f000 f9a8 	bl	8003e58 <I2C_WaitOnTXEFlagUntilTimeout>
 8003b08:	4603      	mov	r3, r0
 8003b0a:	2b00      	cmp	r3, #0
 8003b0c:	d00d      	beq.n	8003b2a <I2C_RequestMemoryRead+0xd6>
  {
    if (hi2c->ErrorCode == HAL_I2C_ERROR_AF)
 8003b0e:	68fb      	ldr	r3, [r7, #12]
 8003b10:	6c1b      	ldr	r3, [r3, #64]	@ 0x40
 8003b12:	2b04      	cmp	r3, #4
 8003b14:	d107      	bne.n	8003b26 <I2C_RequestMemoryRead+0xd2>
    {
      /* Generate Stop */
      SET_BIT(hi2c->Instance->CR1, I2C_CR1_STOP);
 8003b16:	68fb      	ldr	r3, [r7, #12]
 8003b18:	681b      	ldr	r3, [r3, #0]
 8003b1a:	681a      	ldr	r2, [r3, #0]
 8003b1c:	68fb      	ldr	r3, [r7, #12]
 8003b1e:	681b      	ldr	r3, [r3, #0]
 8003b20:	f442 7200 	orr.w	r2, r2, #512	@ 0x200
 8003b24:	601a      	str	r2, [r3, #0]
    }
    return HAL_ERROR;
 8003b26:	2301      	movs	r3, #1
 8003b28:	e076      	b.n	8003c18 <I2C_RequestMemoryRead+0x1c4>
  }

  /* If Memory address size is 8Bit */
  if (MemAddSize == I2C_MEMADD_SIZE_8BIT)
 8003b2a:	88fb      	ldrh	r3, [r7, #6]
 8003b2c:	2b01      	cmp	r3, #1
 8003b2e:	d105      	bne.n	8003b3c <I2C_RequestMemoryRead+0xe8>
  {
    /* Send Memory Address */
    hi2c->Instance->DR = I2C_MEM_ADD_LSB(MemAddress);
 8003b30:	893b      	ldrh	r3, [r7, #8]
 8003b32:	b2da      	uxtb	r2, r3
 8003b34:	68fb      	ldr	r3, [r7, #12]
 8003b36:	681b      	ldr	r3, [r3, #0]
 8003b38:	611a      	str	r2, [r3, #16]
 8003b3a:	e021      	b.n	8003b80 <I2C_RequestMemoryRead+0x12c>
  }
  /* If Memory address size is 16Bit */
  else
  {
    /* Send MSB of Memory Address */
    hi2c->Instance->DR = I2C_MEM_ADD_MSB(MemAddress);
 8003b3c:	893b      	ldrh	r3, [r7, #8]
 8003b3e:	0a1b      	lsrs	r3, r3, #8
 8003b40:	b29b      	uxth	r3, r3
 8003b42:	b2da      	uxtb	r2, r3
 8003b44:	68fb      	ldr	r3, [r7, #12]
 8003b46:	681b      	ldr	r3, [r3, #0]
 8003b48:	611a      	str	r2, [r3, #16]

    /* Wait until TXE flag is set */
    if (I2C_WaitOnTXEFlagUntilTimeout(hi2c, Timeout, Tickstart) != HAL_OK)
 8003b4a:	6a7a      	ldr	r2, [r7, #36]	@ 0x24
 8003b4c:	6a39      	ldr	r1, [r7, #32]
 8003b4e:	68f8      	ldr	r0, [r7, #12]
 8003b50:	f000 f982 	bl	8003e58 <I2C_WaitOnTXEFlagUntilTimeout>
 8003b54:	4603      	mov	r3, r0
 8003b56:	2b00      	cmp	r3, #0
 8003b58:	d00d      	beq.n	8003b76 <I2C_RequestMemoryRead+0x122>
    {
      if (hi2c->ErrorCode == HAL_I2C_ERROR_AF)
 8003b5a:	68fb      	ldr	r3, [r7, #12]
 8003b5c:	6c1b      	ldr	r3, [r3, #64]	@ 0x40
 8003b5e:	2b04      	cmp	r3, #4
 8003b60:	d107      	bne.n	8003b72 <I2C_RequestMemoryRead+0x11e>
      {
        /* Generate Stop */
        SET_BIT(hi2c->Instance->CR1, I2C_CR1_STOP);
 8003b62:	68fb      	ldr	r3, [r7, #12]
 8003b64:	681b      	ldr	r3, [r3, #0]
 8003b66:	681a      	ldr	r2, [r3, #0]
 8003b68:	68fb      	ldr	r3, [r7, #12]
 8003b6a:	681b      	ldr	r3, [r3, #0]
 8003b6c:	f442 7200 	orr.w	r2, r2, #512	@ 0x200
 8003b70:	601a      	str	r2, [r3, #0]
      }
      return HAL_ERROR;
 8003b72:	2301      	movs	r3, #1
 8003b74:	e050      	b.n	8003c18 <I2C_RequestMemoryRead+0x1c4>
    }

    /* Send LSB of Memory Address */
    hi2c->Instance->DR = I2C_MEM_ADD_LSB(MemAddress);
 8003b76:	893b      	ldrh	r3, [r7, #8]
 8003b78:	b2da      	uxtb	r2, r3
 8003b7a:	68fb      	ldr	r3, [r7, #12]
 8003b7c:	681b      	ldr	r3, [r3, #0]
 8003b7e:	611a      	str	r2, [r3, #16]
  }

  /* Wait until TXE flag is set */
  if (I2C_WaitOnTXEFlagUntilTimeout(hi2c, Timeout, Tickstart) != HAL_OK)
 8003b80:	6a7a      	ldr	r2, [r7, #36]	@ 0x24
 8003b82:	6a39      	ldr	r1, [r7, #32]
 8003b84:	68f8      	ldr	r0, [r7, #12]
 8003b86:	f000 f967 	bl	8003e58 <I2C_WaitOnTXEFlagUntilTimeout>
 8003b8a:	4603      	mov	r3, r0
 8003b8c:	2b00      	cmp	r3, #0
 8003b8e:	d00d      	beq.n	8003bac <I2C_RequestMemoryRead+0x158>
  {
    if (hi2c->ErrorCode == HAL_I2C_ERROR_AF)
 8003b90:	68fb      	ldr	r3, [r7, #12]
 8003b92:	6c1b      	ldr	r3, [r3, #64]	@ 0x40
 8003b94:	2b04      	cmp	r3, #4
 8003b96:	d107      	bne.n	8003ba8 <I2C_RequestMemoryRead+0x154>
    {
      /* Generate Stop */
      SET_BIT(hi2c->Instance->CR1, I2C_CR1_STOP);
 8003b98:	68fb      	ldr	r3, [r7, #12]
 8003b9a:	681b      	ldr	r3, [r3, #0]
 8003b9c:	681a      	ldr	r2, [r3, #0]
 8003b9e:	68fb      	ldr	r3, [r7, #12]
 8003ba0:	681b      	ldr	r3, [r3, #0]
 8003ba2:	f442 7200 	orr.w	r2, r2, #512	@ 0x200
 8003ba6:	601a      	str	r2, [r3, #0]
    }
    return HAL_ERROR;
 8003ba8:	2301      	movs	r3, #1
 8003baa:	e035      	b.n	8003c18 <I2C_RequestMemoryRead+0x1c4>
  }

  /* Generate Restart */
  SET_BIT(hi2c->Instance->CR1, I2C_CR1_START);
 8003bac:	68fb      	ldr	r3, [r7, #12]
 8003bae:	681b      	ldr	r3, [r3, #0]
 8003bb0:	681a      	ldr	r2, [r3, #0]
 8003bb2:	68fb      	ldr	r3, [r7, #12]
 8003bb4:	681b      	ldr	r3, [r3, #0]
 8003bb6:	f442 7280 	orr.w	r2, r2, #256	@ 0x100
 8003bba:	601a      	str	r2, [r3, #0]

  /* Wait until SB flag is set */
  if (I2C_WaitOnFlagUntilTimeout(hi2c, I2C_FLAG_SB, RESET, Timeout, Tickstart) != HAL_OK)
 8003bbc:	6a7b      	ldr	r3, [r7, #36]	@ 0x24
 8003bbe:	9300      	str	r3, [sp, #0]
 8003bc0:	6a3b      	ldr	r3, [r7, #32]
 8003bc2:	2200      	movs	r2, #0
 8003bc4:	f04f 1101 	mov.w	r1, #65537	@ 0x10001
 8003bc8:	68f8      	ldr	r0, [r7, #12]
 8003bca:	f000 f82b 	bl	8003c24 <I2C_WaitOnFlagUntilTimeout>
 8003bce:	4603      	mov	r3, r0
 8003bd0:	2b00      	cmp	r3, #0
 8003bd2:	d00d      	beq.n	8003bf0 <I2C_RequestMemoryRead+0x19c>
  {
    if (READ_BIT(hi2c->Instance->CR1, I2C_CR1_START) == I2C_CR1_START)
 8003bd4:	68fb      	ldr	r3, [r7, #12]
 8003bd6:	681b      	ldr	r3, [r3, #0]
 8003bd8:	681b      	ldr	r3, [r3, #0]
 8003bda:	f403 7380 	and.w	r3, r3, #256	@ 0x100
 8003bde:	f5b3 7f80 	cmp.w	r3, #256	@ 0x100
 8003be2:	d103      	bne.n	8003bec <I2C_RequestMemoryRead+0x198>
    {
      hi2c->ErrorCode = HAL_I2C_WRONG_START;
 8003be4:	68fb      	ldr	r3, [r7, #12]
 8003be6:	f44f 7200 	mov.w	r2, #512	@ 0x200
 8003bea:	641a      	str	r2, [r3, #64]	@ 0x40
    }
    return HAL_TIMEOUT;
 8003bec:	2303      	movs	r3, #3
 8003bee:	e013      	b.n	8003c18 <I2C_RequestMemoryRead+0x1c4>
  }

  /* Send slave address */
  hi2c->Instance->DR = I2C_7BIT_ADD_READ(DevAddress);
 8003bf0:	897b      	ldrh	r3, [r7, #10]
 8003bf2:	b2db      	uxtb	r3, r3
 8003bf4:	f043 0301 	orr.w	r3, r3, #1
 8003bf8:	b2da      	uxtb	r2, r3
 8003bfa:	68fb      	ldr	r3, [r7, #12]
 8003bfc:	681b      	ldr	r3, [r3, #0]
 8003bfe:	611a      	str	r2, [r3, #16]

  /* Wait until ADDR flag is set */
  if (I2C_WaitOnMasterAddressFlagUntilTimeout(hi2c, I2C_FLAG_ADDR, Timeout, Tickstart) != HAL_OK)
 8003c00:	6a7b      	ldr	r3, [r7, #36]	@ 0x24
 8003c02:	6a3a      	ldr	r2, [r7, #32]
 8003c04:	4906      	ldr	r1, [pc, #24]	@ (8003c20 <I2C_RequestMemoryRead+0x1cc>)
 8003c06:	68f8      	ldr	r0, [r7, #12]
 8003c08:	f000 f886 	bl	8003d18 <I2C_WaitOnMasterAddressFlagUntilTimeout>
 8003c0c:	4603      	mov	r3, r0
 8003c0e:	2b00      	cmp	r3, #0
 8003c10:	d001      	beq.n	8003c16 <I2C_RequestMemoryRead+0x1c2>
  {
    return HAL_ERROR;
 8003c12:	2301      	movs	r3, #1
 8003c14:	e000      	b.n	8003c18 <I2C_RequestMemoryRead+0x1c4>
  }

  return HAL_OK;
 8003c16:	2300      	movs	r3, #0
}
 8003c18:	4618      	mov	r0, r3
 8003c1a:	3718      	adds	r7, #24
 8003c1c:	46bd      	mov	sp, r7
 8003c1e:	bd80      	pop	{r7, pc}
 8003c20:	00010002 	.word	0x00010002

08003c24 <I2C_WaitOnFlagUntilTimeout>:
  * @param  Timeout Timeout duration
  * @param  Tickstart Tick start value
  * @retval HAL status
  */
static HAL_StatusTypeDef I2C_WaitOnFlagUntilTimeout(I2C_HandleTypeDef *hi2c, uint32_t Flag, FlagStatus Status, uint32_t Timeout, uint32_t Tickstart)
{
 8003c24:	b580      	push	{r7, lr}
 8003c26:	b084      	sub	sp, #16
 8003c28:	af00      	add	r7, sp, #0
 8003c2a:	60f8      	str	r0, [r7, #12]
 8003c2c:	60b9      	str	r1, [r7, #8]
 8003c2e:	603b      	str	r3, [r7, #0]
 8003c30:	4613      	mov	r3, r2
 8003c32:	71fb      	strb	r3, [r7, #7]
  /* Wait until flag is set */
  while (__HAL_I2C_GET_FLAG(hi2c, Flag) == Status)
 8003c34:	e048      	b.n	8003cc8 <I2C_WaitOnFlagUntilTimeout+0xa4>
  {
    /* Check for the Timeout */
    if (Timeout != HAL_MAX_DELAY)
 8003c36:	683b      	ldr	r3, [r7, #0]
 8003c38:	f1b3 3fff 	cmp.w	r3, #4294967295
 8003c3c:	d044      	beq.n	8003cc8 <I2C_WaitOnFlagUntilTimeout+0xa4>
    {
      if (((HAL_GetTick() - Tickstart) > Timeout) || (Timeout == 0U))
 8003c3e:	f7fe fe77 	bl	8002930 <HAL_GetTick>
 8003c42:	4602      	mov	r2, r0
 8003c44:	69bb      	ldr	r3, [r7, #24]
 8003c46:	1ad3      	subs	r3, r2, r3
 8003c48:	683a      	ldr	r2, [r7, #0]
 8003c4a:	429a      	cmp	r2, r3
 8003c4c:	d302      	bcc.n	8003c54 <I2C_WaitOnFlagUntilTimeout+0x30>
 8003c4e:	683b      	ldr	r3, [r7, #0]
 8003c50:	2b00      	cmp	r3, #0
 8003c52:	d139      	bne.n	8003cc8 <I2C_WaitOnFlagUntilTimeout+0xa4>
      {
        if ((__HAL_I2C_GET_FLAG(hi2c, Flag) == Status))
 8003c54:	68bb      	ldr	r3, [r7, #8]
 8003c56:	0c1b      	lsrs	r3, r3, #16
 8003c58:	b2db      	uxtb	r3, r3
 8003c5a:	2b01      	cmp	r3, #1
 8003c5c:	d10d      	bne.n	8003c7a <I2C_WaitOnFlagUntilTimeout+0x56>
 8003c5e:	68fb      	ldr	r3, [r7, #12]
 8003c60:	681b      	ldr	r3, [r3, #0]
 8003c62:	695b      	ldr	r3, [r3, #20]
 8003c64:	43da      	mvns	r2, r3
 8003c66:	68bb      	ldr	r3, [r7, #8]
 8003c68:	4013      	ands	r3, r2
 8003c6a:	b29b      	uxth	r3, r3
 8003c6c:	2b00      	cmp	r3, #0
 8003c6e:	bf0c      	ite	eq
 8003c70:	2301      	moveq	r3, #1
 8003c72:	2300      	movne	r3, #0
 8003c74:	b2db      	uxtb	r3, r3
 8003c76:	461a      	mov	r2, r3
 8003c78:	e00c      	b.n	8003c94 <I2C_WaitOnFlagUntilTimeout+0x70>
 8003c7a:	68fb      	ldr	r3, [r7, #12]
 8003c7c:	681b      	ldr	r3, [r3, #0]
 8003c7e:	699b      	ldr	r3, [r3, #24]
 8003c80:	43da      	mvns	r2, r3
 8003c82:	68bb      	ldr	r3, [r7, #8]
 8003c84:	4013      	ands	r3, r2
 8003c86:	b29b      	uxth	r3, r3
 8003c88:	2b00      	cmp	r3, #0
 8003c8a:	bf0c      	ite	eq
 8003c8c:	2301      	moveq	r3, #1
 8003c8e:	2300      	movne	r3, #0
 8003c90:	b2db      	uxtb	r3, r3
 8003c92:	461a      	mov	r2, r3
 8003c94:	79fb      	ldrb	r3, [r7, #7]
 8003c96:	429a      	cmp	r2, r3
 8003c98:	d116      	bne.n	8003cc8 <I2C_WaitOnFlagUntilTimeout+0xa4>
        {
          hi2c->PreviousState     = I2C_STATE_NONE;
 8003c9a:	68fb      	ldr	r3, [r7, #12]
 8003c9c:	2200      	movs	r2, #0
 8003c9e:	631a      	str	r2, [r3, #48]	@ 0x30
          hi2c->State             = HAL_I2C_STATE_READY;
 8003ca0:	68fb      	ldr	r3, [r7, #12]
 8003ca2:	2220      	movs	r2, #32
 8003ca4:	f883 203d 	strb.w	r2, [r3, #61]	@ 0x3d
          hi2c->Mode              = HAL_I2C_MODE_NONE;
 8003ca8:	68fb      	ldr	r3, [r7, #12]
 8003caa:	2200      	movs	r2, #0
 8003cac:	f883 203e 	strb.w	r2, [r3, #62]	@ 0x3e
          hi2c->ErrorCode         |= HAL_I2C_ERROR_TIMEOUT;
 8003cb0:	68fb      	ldr	r3, [r7, #12]
 8003cb2:	6c1b      	ldr	r3, [r3, #64]	@ 0x40
 8003cb4:	f043 0220 	orr.w	r2, r3, #32
 8003cb8:	68fb      	ldr	r3, [r7, #12]
 8003cba:	641a      	str	r2, [r3, #64]	@ 0x40

          /* Process Unlocked */
          __HAL_UNLOCK(hi2c);
 8003cbc:	68fb      	ldr	r3, [r7, #12]
 8003cbe:	2200      	movs	r2, #0
 8003cc0:	f883 203c 	strb.w	r2, [r3, #60]	@ 0x3c

          return HAL_ERROR;
 8003cc4:	2301      	movs	r3, #1
 8003cc6:	e023      	b.n	8003d10 <I2C_WaitOnFlagUntilTimeout+0xec>
  while (__HAL_I2C_GET_FLAG(hi2c, Flag) == Status)
 8003cc8:	68bb      	ldr	r3, [r7, #8]
 8003cca:	0c1b      	lsrs	r3, r3, #16
 8003ccc:	b2db      	uxtb	r3, r3
 8003cce:	2b01      	cmp	r3, #1
 8003cd0:	d10d      	bne.n	8003cee <I2C_WaitOnFlagUntilTimeout+0xca>
 8003cd2:	68fb      	ldr	r3, [r7, #12]
 8003cd4:	681b      	ldr	r3, [r3, #0]
 8003cd6:	695b      	ldr	r3, [r3, #20]
 8003cd8:	43da      	mvns	r2, r3
 8003cda:	68bb      	ldr	r3, [r7, #8]
 8003cdc:	4013      	ands	r3, r2
 8003cde:	b29b      	uxth	r3, r3
 8003ce0:	2b00      	cmp	r3, #0
 8003ce2:	bf0c      	ite	eq
 8003ce4:	2301      	moveq	r3, #1
 8003ce6:	2300      	movne	r3, #0
 8003ce8:	b2db      	uxtb	r3, r3
 8003cea:	461a      	mov	r2, r3
 8003cec:	e00c      	b.n	8003d08 <I2C_WaitOnFlagUntilTimeout+0xe4>
 8003cee:	68fb      	ldr	r3, [r7, #12]
 8003cf0:	681b      	ldr	r3, [r3, #0]
 8003cf2:	699b      	ldr	r3, [r3, #24]
 8003cf4:	43da      	mvns	r2, r3
 8003cf6:	68bb      	ldr	r3, [r7, #8]
 8003cf8:	4013      	ands	r3, r2
 8003cfa:	b29b      	uxth	r3, r3
 8003cfc:	2b00      	cmp	r3, #0
 8003cfe:	bf0c      	ite	eq
 8003d00:	2301      	moveq	r3, #1
 8003d02:	2300      	movne	r3, #0
 8003d04:	b2db      	uxtb	r3, r3
 8003d06:	461a      	mov	r2, r3
 8003d08:	79fb      	ldrb	r3, [r7, #7]
 8003d0a:	429a      	cmp	r2, r3
 8003d0c:	d093      	beq.n	8003c36 <I2C_WaitOnFlagUntilTimeout+0x12>
        }
      }
    }
  }
  return HAL_OK;
 8003d0e:	2300      	movs	r3, #0
}
 8003d10:	4618      	mov	r0, r3
 8003d12:	3710      	adds	r7, #16
 8003d14:	46bd      	mov	sp, r7
 8003d16:	bd80      	pop	{r7, pc}

08003d18 <I2C_WaitOnMasterAddressFlagUntilTimeout>:
  * @param  Timeout Timeout duration
  * @param  Tickstart Tick start value
  * @retval HAL status
  */
static HAL_StatusTypeDef I2C_WaitOnMasterAddressFlagUntilTimeout(I2C_HandleTypeDef *hi2c, uint32_t Flag, uint32_t Timeout, uint32_t Tickstart)
{
 8003d18:	b580      	push	{r7, lr}
 8003d1a:	b084      	sub	sp, #16
 8003d1c:	af00      	add	r7, sp, #0
 8003d1e:	60f8      	str	r0, [r7, #12]
 8003d20:	60b9      	str	r1, [r7, #8]
 8003d22:	607a      	str	r2, [r7, #4]
 8003d24:	603b      	str	r3, [r7, #0]
  while (__HAL_I2C_GET_FLAG(hi2c, Flag) == RESET)
 8003d26:	e071      	b.n	8003e0c <I2C_WaitOnMasterAddressFlagUntilTimeout+0xf4>
  {
    if (__HAL_I2C_GET_FLAG(hi2c, I2C_FLAG_AF) == SET)
 8003d28:	68fb      	ldr	r3, [r7, #12]
 8003d2a:	681b      	ldr	r3, [r3, #0]
 8003d2c:	695b      	ldr	r3, [r3, #20]
 8003d2e:	f403 6380 	and.w	r3, r3, #1024	@ 0x400
 8003d32:	f5b3 6f80 	cmp.w	r3, #1024	@ 0x400
 8003d36:	d123      	bne.n	8003d80 <I2C_WaitOnMasterAddressFlagUntilTimeout+0x68>
    {
      /* Generate Stop */
      SET_BIT(hi2c->Instance->CR1, I2C_CR1_STOP);
 8003d38:	68fb      	ldr	r3, [r7, #12]
 8003d3a:	681b      	ldr	r3, [r3, #0]
 8003d3c:	681a      	ldr	r2, [r3, #0]
 8003d3e:	68fb      	ldr	r3, [r7, #12]
 8003d40:	681b      	ldr	r3, [r3, #0]
 8003d42:	f442 7200 	orr.w	r2, r2, #512	@ 0x200
 8003d46:	601a      	str	r2, [r3, #0]

      /* Clear AF Flag */
      __HAL_I2C_CLEAR_FLAG(hi2c, I2C_FLAG_AF);
 8003d48:	68fb      	ldr	r3, [r7, #12]
 8003d4a:	681b      	ldr	r3, [r3, #0]
 8003d4c:	f46f 6280 	mvn.w	r2, #1024	@ 0x400
 8003d50:	615a      	str	r2, [r3, #20]

      hi2c->PreviousState       = I2C_STATE_NONE;
 8003d52:	68fb      	ldr	r3, [r7, #12]
 8003d54:	2200      	movs	r2, #0
 8003d56:	631a      	str	r2, [r3, #48]	@ 0x30
      hi2c->State               = HAL_I2C_STATE_READY;
 8003d58:	68fb      	ldr	r3, [r7, #12]
 8003d5a:	2220      	movs	r2, #32
 8003d5c:	f883 203d 	strb.w	r2, [r3, #61]	@ 0x3d
      hi2c->Mode                = HAL_I2C_MODE_NONE;
 8003d60:	68fb      	ldr	r3, [r7, #12]
 8003d62:	2200      	movs	r2, #0
 8003d64:	f883 203e 	strb.w	r2, [r3, #62]	@ 0x3e
      hi2c->ErrorCode           |= HAL_I2C_ERROR_AF;
 8003d68:	68fb      	ldr	r3, [r7, #12]
 8003d6a:	6c1b      	ldr	r3, [r3, #64]	@ 0x40
 8003d6c:	f043 0204 	orr.w	r2, r3, #4
 8003d70:	68fb      	ldr	r3, [r7, #12]
 8003d72:	641a      	str	r2, [r3, #64]	@ 0x40

      /* Process Unlocked */
      __HAL_UNLOCK(hi2c);
 8003d74:	68fb      	ldr	r3, [r7, #12]
 8003d76:	2200      	movs	r2, #0
 8003d78:	f883 203c 	strb.w	r2, [r3, #60]	@ 0x3c

      return HAL_ERROR;
 8003d7c:	2301      	movs	r3, #1
 8003d7e:	e067      	b.n	8003e50 <I2C_WaitOnMasterAddressFlagUntilTimeout+0x138>
    }

    /* Check for the Timeout */
    if (Timeout != HAL_MAX_DELAY)
 8003d80:	687b      	ldr	r3, [r7, #4]
 8003d82:	f1b3 3fff 	cmp.w	r3, #4294967295
 8003d86:	d041      	beq.n	8003e0c <I2C_WaitOnMasterAddressFlagUntilTimeout+0xf4>
    {
      if (((HAL_GetTick() - Tickstart) > Timeout) || (Timeout == 0U))
 8003d88:	f7fe fdd2 	bl	8002930 <HAL_GetTick>
 8003d8c:	4602      	mov	r2, r0
 8003d8e:	683b      	ldr	r3, [r7, #0]
 8003d90:	1ad3      	subs	r3, r2, r3
 8003d92:	687a      	ldr	r2, [r7, #4]
 8003d94:	429a      	cmp	r2, r3
 8003d96:	d302      	bcc.n	8003d9e <I2C_WaitOnMasterAddressFlagUntilTimeout+0x86>
 8003d98:	687b      	ldr	r3, [r7, #4]
 8003d9a:	2b00      	cmp	r3, #0
 8003d9c:	d136      	bne.n	8003e0c <I2C_WaitOnMasterAddressFlagUntilTimeout+0xf4>
      {
        if ((__HAL_I2C_GET_FLAG(hi2c, Flag) == RESET))
 8003d9e:	68bb      	ldr	r3, [r7, #8]
 8003da0:	0c1b      	lsrs	r3, r3, #16
 8003da2:	b2db      	uxtb	r3, r3
 8003da4:	2b01      	cmp	r3, #1
 8003da6:	d10c      	bne.n	8003dc2 <I2C_WaitOnMasterAddressFlagUntilTimeout+0xaa>
 8003da8:	68fb      	ldr	r3, [r7, #12]
 8003daa:	681b      	ldr	r3, [r3, #0]
 8003dac:	695b      	ldr	r3, [r3, #20]
 8003dae:	43da      	mvns	r2, r3
 8003db0:	68bb      	ldr	r3, [r7, #8]
 8003db2:	4013      	ands	r3, r2
 8003db4:	b29b      	uxth	r3, r3
 8003db6:	2b00      	cmp	r3, #0
 8003db8:	bf14      	ite	ne
 8003dba:	2301      	movne	r3, #1
 8003dbc:	2300      	moveq	r3, #0
 8003dbe:	b2db      	uxtb	r3, r3
 8003dc0:	e00b      	b.n	8003dda <I2C_WaitOnMasterAddressFlagUntilTimeout+0xc2>
 8003dc2:	68fb      	ldr	r3, [r7, #12]
 8003dc4:	681b      	ldr	r3, [r3, #0]
 8003dc6:	699b      	ldr	r3, [r3, #24]
 8003dc8:	43da      	mvns	r2, r3
 8003dca:	68bb      	ldr	r3, [r7, #8]
 8003dcc:	4013      	ands	r3, r2
 8003dce:	b29b      	uxth	r3, r3
 8003dd0:	2b00      	cmp	r3, #0
 8003dd2:	bf14      	ite	ne
 8003dd4:	2301      	movne	r3, #1
 8003dd6:	2300      	moveq	r3, #0
 8003dd8:	b2db      	uxtb	r3, r3
 8003dda:	2b00      	cmp	r3, #0
 8003ddc:	d016      	beq.n	8003e0c <I2C_WaitOnMasterAddressFlagUntilTimeout+0xf4>
        {
          hi2c->PreviousState       = I2C_STATE_NONE;
 8003dde:	68fb      	ldr	r3, [r7, #12]
 8003de0:	2200      	movs	r2, #0
 8003de2:	631a      	str	r2, [r3, #48]	@ 0x30
          hi2c->State               = HAL_I2C_STATE_READY;
 8003de4:	68fb      	ldr	r3, [r7, #12]
 8003de6:	2220      	movs	r2, #32
 8003de8:	f883 203d 	strb.w	r2, [r3, #61]	@ 0x3d
          hi2c->Mode                = HAL_I2C_MODE_NONE;
 8003dec:	68fb      	ldr	r3, [r7, #12]
 8003dee:	2200      	movs	r2, #0
 8003df0:	f883 203e 	strb.w	r2, [r3, #62]	@ 0x3e
          hi2c->ErrorCode           |= HAL_I2C_ERROR_TIMEOUT;
 8003df4:	68fb      	ldr	r3, [r7, #12]
 8003df6:	6c1b      	ldr	r3, [r3, #64]	@ 0x40
 8003df8:	f043 0220 	orr.w	r2, r3, #32
 8003dfc:	68fb      	ldr	r3, [r7, #12]
 8003dfe:	641a      	str	r2, [r3, #64]	@ 0x40

          /* Process Unlocked */
          __HAL_UNLOCK(hi2c);
 8003e00:	68fb      	ldr	r3, [r7, #12]
 8003e02:	2200      	movs	r2, #0
 8003e04:	f883 203c 	strb.w	r2, [r3, #60]	@ 0x3c

          return HAL_ERROR;
 8003e08:	2301      	movs	r3, #1
 8003e0a:	e021      	b.n	8003e50 <I2C_WaitOnMasterAddressFlagUntilTimeout+0x138>
  while (__HAL_I2C_GET_FLAG(hi2c, Flag) == RESET)
 8003e0c:	68bb      	ldr	r3, [r7, #8]
 8003e0e:	0c1b      	lsrs	r3, r3, #16
 8003e10:	b2db      	uxtb	r3, r3
 8003e12:	2b01      	cmp	r3, #1
 8003e14:	d10c      	bne.n	8003e30 <I2C_WaitOnMasterAddressFlagUntilTimeout+0x118>
 8003e16:	68fb      	ldr	r3, [r7, #12]
 8003e18:	681b      	ldr	r3, [r3, #0]
 8003e1a:	695b      	ldr	r3, [r3, #20]
 8003e1c:	43da      	mvns	r2, r3
 8003e1e:	68bb      	ldr	r3, [r7, #8]
 8003e20:	4013      	ands	r3, r2
 8003e22:	b29b      	uxth	r3, r3
 8003e24:	2b00      	cmp	r3, #0
 8003e26:	bf14      	ite	ne
 8003e28:	2301      	movne	r3, #1
 8003e2a:	2300      	moveq	r3, #0
 8003e2c:	b2db      	uxtb	r3, r3
 8003e2e:	e00b      	b.n	8003e48 <I2C_WaitOnMasterAddressFlagUntilTimeout+0x130>
 8003e30:	68fb      	ldr	r3, [r7, #12]
 8003e32:	681b      	ldr	r3, [r3, #0]
 8003e34:	699b      	ldr	r3, [r3, #24]
 8003e36:	43da      	mvns	r2, r3
 8003e38:	68bb      	ldr	r3, [r7, #8]
 8003e3a:	4013      	ands	r3, r2
 8003e3c:	b29b      	uxth	r3, r3
 8003e3e:	2b00      	cmp	r3, #0
 8003e40:	bf14      	ite	ne
 8003e42:	2301      	movne	r3, #1
 8003e44:	2300      	moveq	r3, #0
 8003e46:	b2db      	uxtb	r3, r3
 8003e48:	2b00      	cmp	r3, #0
 8003e4a:	f47f af6d 	bne.w	8003d28 <I2C_WaitOnMasterAddressFlagUntilTimeout+0x10>
        }
      }
    }
  }
  return HAL_OK;
 8003e4e:	2300      	movs	r3, #0
}
 8003e50:	4618      	mov	r0, r3
 8003e52:	3710      	adds	r7, #16
 8003e54:	46bd      	mov	sp, r7
 8003e56:	bd80      	pop	{r7, pc}

08003e58 <I2C_WaitOnTXEFlagUntilTimeout>:
  * @param  Timeout Timeout duration
  * @param  Tickstart Tick start value
  * @retval HAL status
  */
static HAL_StatusTypeDef I2C_WaitOnTXEFlagUntilTimeout(I2C_HandleTypeDef *hi2c, uint32_t Timeout, uint32_t Tickstart)
{
 8003e58:	b580      	push	{r7, lr}
 8003e5a:	b084      	sub	sp, #16
 8003e5c:	af00      	add	r7, sp, #0
 8003e5e:	60f8      	str	r0, [r7, #12]
 8003e60:	60b9      	str	r1, [r7, #8]
 8003e62:	607a      	str	r2, [r7, #4]
  while (__HAL_I2C_GET_FLAG(hi2c, I2C_FLAG_TXE) == RESET)
 8003e64:	e034      	b.n	8003ed0 <I2C_WaitOnTXEFlagUntilTimeout+0x78>
  {
    /* Check if a NACK is detected */
    if (I2C_IsAcknowledgeFailed(hi2c) != HAL_OK)
 8003e66:	68f8      	ldr	r0, [r7, #12]
 8003e68:	f000 f8e3 	bl	8004032 <I2C_IsAcknowledgeFailed>
 8003e6c:	4603      	mov	r3, r0
 8003e6e:	2b00      	cmp	r3, #0
 8003e70:	d001      	beq.n	8003e76 <I2C_WaitOnTXEFlagUntilTimeout+0x1e>
    {
      return HAL_ERROR;
 8003e72:	2301      	movs	r3, #1
 8003e74:	e034      	b.n	8003ee0 <I2C_WaitOnTXEFlagUntilTimeout+0x88>
    }

    /* Check for the Timeout */
    if (Timeout != HAL_MAX_DELAY)
 8003e76:	68bb      	ldr	r3, [r7, #8]
 8003e78:	f1b3 3fff 	cmp.w	r3, #4294967295
 8003e7c:	d028      	beq.n	8003ed0 <I2C_WaitOnTXEFlagUntilTimeout+0x78>
    {
      if (((HAL_GetTick() - Tickstart) > Timeout) || (Timeout == 0U))
 8003e7e:	f7fe fd57 	bl	8002930 <HAL_GetTick>
 8003e82:	4602      	mov	r2, r0
 8003e84:	687b      	ldr	r3, [r7, #4]
 8003e86:	1ad3      	subs	r3, r2, r3
 8003e88:	68ba      	ldr	r2, [r7, #8]
 8003e8a:	429a      	cmp	r2, r3
 8003e8c:	d302      	bcc.n	8003e94 <I2C_WaitOnTXEFlagUntilTimeout+0x3c>
 8003e8e:	68bb      	ldr	r3, [r7, #8]
 8003e90:	2b00      	cmp	r3, #0
 8003e92:	d11d      	bne.n	8003ed0 <I2C_WaitOnTXEFlagUntilTimeout+0x78>
      {
        if ((__HAL_I2C_GET_FLAG(hi2c, I2C_FLAG_TXE) == RESET))
 8003e94:	68fb      	ldr	r3, [r7, #12]
 8003e96:	681b      	ldr	r3, [r3, #0]
 8003e98:	695b      	ldr	r3, [r3, #20]
 8003e9a:	f003 0380 	and.w	r3, r3, #128	@ 0x80
 8003e9e:	2b80      	cmp	r3, #128	@ 0x80
 8003ea0:	d016      	beq.n	8003ed0 <I2C_WaitOnTXEFlagUntilTimeout+0x78>
        {
          hi2c->PreviousState       = I2C_STATE_NONE;
 8003ea2:	68fb      	ldr	r3, [r7, #12]
 8003ea4:	2200      	movs	r2, #0
 8003ea6:	631a      	str	r2, [r3, #48]	@ 0x30
          hi2c->State               = HAL_I2C_STATE_READY;
 8003ea8:	68fb      	ldr	r3, [r7, #12]
 8003eaa:	2220      	movs	r2, #32
 8003eac:	f883 203d 	strb.w	r2, [r3, #61]	@ 0x3d
          hi2c->Mode                = HAL_I2C_MODE_NONE;
 8003eb0:	68fb      	ldr	r3, [r7, #12]
 8003eb2:	2200      	movs	r2, #0
 8003eb4:	f883 203e 	strb.w	r2, [r3, #62]	@ 0x3e
          hi2c->ErrorCode           |= HAL_I2C_ERROR_TIMEOUT;
 8003eb8:	68fb      	ldr	r3, [r7, #12]
 8003eba:	6c1b      	ldr	r3, [r3, #64]	@ 0x40
 8003ebc:	f043 0220 	orr.w	r2, r3, #32
 8003ec0:	68fb      	ldr	r3, [r7, #12]
 8003ec2:	641a      	str	r2, [r3, #64]	@ 0x40

          /* Process Unlocked */
          __HAL_UNLOCK(hi2c);
 8003ec4:	68fb      	ldr	r3, [r7, #12]
 8003ec6:	2200      	movs	r2, #0
 8003ec8:	f883 203c 	strb.w	r2, [r3, #60]	@ 0x3c

          return HAL_ERROR;
 8003ecc:	2301      	movs	r3, #1
 8003ece:	e007      	b.n	8003ee0 <I2C_WaitOnTXEFlagUntilTimeout+0x88>
  while (__HAL_I2C_GET_FLAG(hi2c, I2C_FLAG_TXE) == RESET)
 8003ed0:	68fb      	ldr	r3, [r7, #12]
 8003ed2:	681b      	ldr	r3, [r3, #0]
 8003ed4:	695b      	ldr	r3, [r3, #20]
 8003ed6:	f003 0380 	and.w	r3, r3, #128	@ 0x80
 8003eda:	2b80      	cmp	r3, #128	@ 0x80
 8003edc:	d1c3      	bne.n	8003e66 <I2C_WaitOnTXEFlagUntilTimeout+0xe>
        }
      }
    }
  }
  return HAL_OK;
 8003ede:	2300      	movs	r3, #0
}
 8003ee0:	4618      	mov	r0, r3
 8003ee2:	3710      	adds	r7, #16
 8003ee4:	46bd      	mov	sp, r7
 8003ee6:	bd80      	pop	{r7, pc}

08003ee8 <I2C_WaitOnBTFFlagUntilTimeout>:
  * @param  Timeout Timeout duration
  * @param  Tickstart Tick start value
  * @retval HAL status
  */
static HAL_StatusTypeDef I2C_WaitOnBTFFlagUntilTimeout(I2C_HandleTypeDef *hi2c, uint32_t Timeout, uint32_t Tickstart)
{
 8003ee8:	b580      	push	{r7, lr}
 8003eea:	b084      	sub	sp, #16
 8003eec:	af00      	add	r7, sp, #0
 8003eee:	60f8      	str	r0, [r7, #12]
 8003ef0:	60b9      	str	r1, [r7, #8]
 8003ef2:	607a      	str	r2, [r7, #4]
  while (__HAL_I2C_GET_FLAG(hi2c, I2C_FLAG_BTF) == RESET)
 8003ef4:	e034      	b.n	8003f60 <I2C_WaitOnBTFFlagUntilTimeout+0x78>
  {
    /* Check if a NACK is detected */
    if (I2C_IsAcknowledgeFailed(hi2c) != HAL_OK)
 8003ef6:	68f8      	ldr	r0, [r7, #12]
 8003ef8:	f000 f89b 	bl	8004032 <I2C_IsAcknowledgeFailed>
 8003efc:	4603      	mov	r3, r0
 8003efe:	2b00      	cmp	r3, #0
 8003f00:	d001      	beq.n	8003f06 <I2C_WaitOnBTFFlagUntilTimeout+0x1e>
    {
      return HAL_ERROR;
 8003f02:	2301      	movs	r3, #1
 8003f04:	e034      	b.n	8003f70 <I2C_WaitOnBTFFlagUntilTimeout+0x88>
    }

    /* Check for the Timeout */
    if (Timeout != HAL_MAX_DELAY)
 8003f06:	68bb      	ldr	r3, [r7, #8]
 8003f08:	f1b3 3fff 	cmp.w	r3, #4294967295
 8003f0c:	d028      	beq.n	8003f60 <I2C_WaitOnBTFFlagUntilTimeout+0x78>
    {
      if (((HAL_GetTick() - Tickstart) > Timeout) || (Timeout == 0U))
 8003f0e:	f7fe fd0f 	bl	8002930 <HAL_GetTick>
 8003f12:	4602      	mov	r2, r0
 8003f14:	687b      	ldr	r3, [r7, #4]
 8003f16:	1ad3      	subs	r3, r2, r3
 8003f18:	68ba      	ldr	r2, [r7, #8]
 8003f1a:	429a      	cmp	r2, r3
 8003f1c:	d302      	bcc.n	8003f24 <I2C_WaitOnBTFFlagUntilTimeout+0x3c>
 8003f1e:	68bb      	ldr	r3, [r7, #8]
 8003f20:	2b00      	cmp	r3, #0
 8003f22:	d11d      	bne.n	8003f60 <I2C_WaitOnBTFFlagUntilTimeout+0x78>
      {
        if ((__HAL_I2C_GET_FLAG(hi2c, I2C_FLAG_BTF) == RESET))
 8003f24:	68fb      	ldr	r3, [r7, #12]
 8003f26:	681b      	ldr	r3, [r3, #0]
 8003f28:	695b      	ldr	r3, [r3, #20]
 8003f2a:	f003 0304 	and.w	r3, r3, #4
 8003f2e:	2b04      	cmp	r3, #4
 8003f30:	d016      	beq.n	8003f60 <I2C_WaitOnBTFFlagUntilTimeout+0x78>
        {
          hi2c->PreviousState       = I2C_STATE_NONE;
 8003f32:	68fb      	ldr	r3, [r7, #12]
 8003f34:	2200      	movs	r2, #0
 8003f36:	631a      	str	r2, [r3, #48]	@ 0x30
          hi2c->State               = HAL_I2C_STATE_READY;
 8003f38:	68fb      	ldr	r3, [r7, #12]
 8003f3a:	2220      	movs	r2, #32
 8003f3c:	f883 203d 	strb.w	r2, [r3, #61]	@ 0x3d
          hi2c->Mode                = HAL_I2C_MODE_NONE;
 8003f40:	68fb      	ldr	r3, [r7, #12]
 8003f42:	2200      	movs	r2, #0
 8003f44:	f883 203e 	strb.w	r2, [r3, #62]	@ 0x3e
          hi2c->ErrorCode           |= HAL_I2C_ERROR_TIMEOUT;
 8003f48:	68fb      	ldr	r3, [r7, #12]
 8003f4a:	6c1b      	ldr	r3, [r3, #64]	@ 0x40
 8003f4c:	f043 0220 	orr.w	r2, r3, #32
 8003f50:	68fb      	ldr	r3, [r7, #12]
 8003f52:	641a      	str	r2, [r3, #64]	@ 0x40

          /* Process Unlocked */
          __HAL_UNLOCK(hi2c);
 8003f54:	68fb      	ldr	r3, [r7, #12]
 8003f56:	2200      	movs	r2, #0
 8003f58:	f883 203c 	strb.w	r2, [r3, #60]	@ 0x3c

          return HAL_ERROR;
 8003f5c:	2301      	movs	r3, #1
 8003f5e:	e007      	b.n	8003f70 <I2C_WaitOnBTFFlagUntilTimeout+0x88>
  while (__HAL_I2C_GET_FLAG(hi2c, I2C_FLAG_BTF) == RESET)
 8003f60:	68fb      	ldr	r3, [r7, #12]
 8003f62:	681b      	ldr	r3, [r3, #0]
 8003f64:	695b      	ldr	r3, [r3, #20]
 8003f66:	f003 0304 	and.w	r3, r3, #4
 8003f6a:	2b04      	cmp	r3, #4
 8003f6c:	d1c3      	bne.n	8003ef6 <I2C_WaitOnBTFFlagUntilTimeout+0xe>
        }
      }
    }
  }
  return HAL_OK;
 8003f6e:	2300      	movs	r3, #0
}
 8003f70:	4618      	mov	r0, r3
 8003f72:	3710      	adds	r7, #16
 8003f74:	46bd      	mov	sp, r7
 8003f76:	bd80      	pop	{r7, pc}

08003f78 <I2C_WaitOnRXNEFlagUntilTimeout>:
  * @param  Timeout Timeout duration
  * @param  Tickstart Tick start value
  * @retval HAL status
  */
static HAL_StatusTypeDef I2C_WaitOnRXNEFlagUntilTimeout(I2C_HandleTypeDef *hi2c, uint32_t Timeout, uint32_t Tickstart)
{
 8003f78:	b580      	push	{r7, lr}
 8003f7a:	b084      	sub	sp, #16
 8003f7c:	af00      	add	r7, sp, #0
 8003f7e:	60f8      	str	r0, [r7, #12]
 8003f80:	60b9      	str	r1, [r7, #8]
 8003f82:	607a      	str	r2, [r7, #4]

  while (__HAL_I2C_GET_FLAG(hi2c, I2C_FLAG_RXNE) == RESET)
 8003f84:	e049      	b.n	800401a <I2C_WaitOnRXNEFlagUntilTimeout+0xa2>
  {
    /* Check if a STOPF is detected */
    if (__HAL_I2C_GET_FLAG(hi2c, I2C_FLAG_STOPF) == SET)
 8003f86:	68fb      	ldr	r3, [r7, #12]
 8003f88:	681b      	ldr	r3, [r3, #0]
 8003f8a:	695b      	ldr	r3, [r3, #20]
 8003f8c:	f003 0310 	and.w	r3, r3, #16
 8003f90:	2b10      	cmp	r3, #16
 8003f92:	d119      	bne.n	8003fc8 <I2C_WaitOnRXNEFlagUntilTimeout+0x50>
    {
      /* Clear STOP Flag */
      __HAL_I2C_CLEAR_FLAG(hi2c, I2C_FLAG_STOPF);
 8003f94:	68fb      	ldr	r3, [r7, #12]
 8003f96:	681b      	ldr	r3, [r3, #0]
 8003f98:	f06f 0210 	mvn.w	r2, #16
 8003f9c:	615a      	str	r2, [r3, #20]

      hi2c->PreviousState       = I2C_STATE_NONE;
 8003f9e:	68fb      	ldr	r3, [r7, #12]
 8003fa0:	2200      	movs	r2, #0
 8003fa2:	631a      	str	r2, [r3, #48]	@ 0x30
      hi2c->State               = HAL_I2C_STATE_READY;
 8003fa4:	68fb      	ldr	r3, [r7, #12]
 8003fa6:	2220      	movs	r2, #32
 8003fa8:	f883 203d 	strb.w	r2, [r3, #61]	@ 0x3d
      hi2c->Mode                = HAL_I2C_MODE_NONE;
 8003fac:	68fb      	ldr	r3, [r7, #12]
 8003fae:	2200      	movs	r2, #0
 8003fb0:	f883 203e 	strb.w	r2, [r3, #62]	@ 0x3e
      hi2c->ErrorCode           |= HAL_I2C_ERROR_NONE;
 8003fb4:	68fb      	ldr	r3, [r7, #12]
 8003fb6:	6c1a      	ldr	r2, [r3, #64]	@ 0x40
 8003fb8:	68fb      	ldr	r3, [r7, #12]
 8003fba:	641a      	str	r2, [r3, #64]	@ 0x40

      /* Process Unlocked */
      __HAL_UNLOCK(hi2c);
 8003fbc:	68fb      	ldr	r3, [r7, #12]
 8003fbe:	2200      	movs	r2, #0
 8003fc0:	f883 203c 	strb.w	r2, [r3, #60]	@ 0x3c

      return HAL_ERROR;
 8003fc4:	2301      	movs	r3, #1
 8003fc6:	e030      	b.n	800402a <I2C_WaitOnRXNEFlagUntilTimeout+0xb2>
    }

    /* Check for the Timeout */
    if (((HAL_GetTick() - Tickstart) > Timeout) || (Timeout == 0U))
 8003fc8:	f7fe fcb2 	bl	8002930 <HAL_GetTick>
 8003fcc:	4602      	mov	r2, r0
 8003fce:	687b      	ldr	r3, [r7, #4]
 8003fd0:	1ad3      	subs	r3, r2, r3
 8003fd2:	68ba      	ldr	r2, [r7, #8]
 8003fd4:	429a      	cmp	r2, r3
 8003fd6:	d302      	bcc.n	8003fde <I2C_WaitOnRXNEFlagUntilTimeout+0x66>
 8003fd8:	68bb      	ldr	r3, [r7, #8]
 8003fda:	2b00      	cmp	r3, #0
 8003fdc:	d11d      	bne.n	800401a <I2C_WaitOnRXNEFlagUntilTimeout+0xa2>
    {
      if ((__HAL_I2C_GET_FLAG(hi2c, I2C_FLAG_RXNE) == RESET))
 8003fde:	68fb      	ldr	r3, [r7, #12]
 8003fe0:	681b      	ldr	r3, [r3, #0]
 8003fe2:	695b      	ldr	r3, [r3, #20]
 8003fe4:	f003 0340 	and.w	r3, r3, #64	@ 0x40
 8003fe8:	2b40      	cmp	r3, #64	@ 0x40
 8003fea:	d016      	beq.n	800401a <I2C_WaitOnRXNEFlagUntilTimeout+0xa2>
      {
        hi2c->PreviousState       = I2C_STATE_NONE;
 8003fec:	68fb      	ldr	r3, [r7, #12]
 8003fee:	2200      	movs	r2, #0
 8003ff0:	631a      	str	r2, [r3, #48]	@ 0x30
        hi2c->State               = HAL_I2C_STATE_READY;
 8003ff2:	68fb      	ldr	r3, [r7, #12]
 8003ff4:	2220      	movs	r2, #32
 8003ff6:	f883 203d 	strb.w	r2, [r3, #61]	@ 0x3d
        hi2c->Mode                = HAL_I2C_MODE_NONE;
 8003ffa:	68fb      	ldr	r3, [r7, #12]
 8003ffc:	2200      	movs	r2, #0
 8003ffe:	f883 203e 	strb.w	r2, [r3, #62]	@ 0x3e
        hi2c->ErrorCode           |= HAL_I2C_ERROR_TIMEOUT;
 8004002:	68fb      	ldr	r3, [r7, #12]
 8004004:	6c1b      	ldr	r3, [r3, #64]	@ 0x40
 8004006:	f043 0220 	orr.w	r2, r3, #32
 800400a:	68fb      	ldr	r3, [r7, #12]
 800400c:	641a      	str	r2, [r3, #64]	@ 0x40

        /* Process Unlocked */
        __HAL_UNLOCK(hi2c);
 800400e:	68fb      	ldr	r3, [r7, #12]
 8004010:	2200      	movs	r2, #0
 8004012:	f883 203c 	strb.w	r2, [r3, #60]	@ 0x3c

        return HAL_ERROR;
 8004016:	2301      	movs	r3, #1
 8004018:	e007      	b.n	800402a <I2C_WaitOnRXNEFlagUntilTimeout+0xb2>
  while (__HAL_I2C_GET_FLAG(hi2c, I2C_FLAG_RXNE) == RESET)
 800401a:	68fb      	ldr	r3, [r7, #12]
 800401c:	681b      	ldr	r3, [r3, #0]
 800401e:	695b      	ldr	r3, [r3, #20]
 8004020:	f003 0340 	and.w	r3, r3, #64	@ 0x40
 8004024:	2b40      	cmp	r3, #64	@ 0x40
 8004026:	d1ae      	bne.n	8003f86 <I2C_WaitOnRXNEFlagUntilTimeout+0xe>
      }
    }
  }
  return HAL_OK;
 8004028:	2300      	movs	r3, #0
}
 800402a:	4618      	mov	r0, r3
 800402c:	3710      	adds	r7, #16
 800402e:	46bd      	mov	sp, r7
 8004030:	bd80      	pop	{r7, pc}

08004032 <I2C_IsAcknowledgeFailed>:
  * @param  hi2c Pointer to a I2C_HandleTypeDef structure that contains
  *                the configuration information for the specified I2C.
  * @retval HAL status
  */
static HAL_StatusTypeDef I2C_IsAcknowledgeFailed(I2C_HandleTypeDef *hi2c)
{
 8004032:	b480      	push	{r7}
 8004034:	b083      	sub	sp, #12
 8004036:	af00      	add	r7, sp, #0
 8004038:	6078      	str	r0, [r7, #4]
  if (__HAL_I2C_GET_FLAG(hi2c, I2C_FLAG_AF) == SET)
 800403a:	687b      	ldr	r3, [r7, #4]
 800403c:	681b      	ldr	r3, [r3, #0]
 800403e:	695b      	ldr	r3, [r3, #20]
 8004040:	f403 6380 	and.w	r3, r3, #1024	@ 0x400
 8004044:	f5b3 6f80 	cmp.w	r3, #1024	@ 0x400
 8004048:	d11b      	bne.n	8004082 <I2C_IsAcknowledgeFailed+0x50>
  {
    /* Clear NACKF Flag */
    __HAL_I2C_CLEAR_FLAG(hi2c, I2C_FLAG_AF);
 800404a:	687b      	ldr	r3, [r7, #4]
 800404c:	681b      	ldr	r3, [r3, #0]
 800404e:	f46f 6280 	mvn.w	r2, #1024	@ 0x400
 8004052:	615a      	str	r2, [r3, #20]

    hi2c->PreviousState       = I2C_STATE_NONE;
 8004054:	687b      	ldr	r3, [r7, #4]
 8004056:	2200      	movs	r2, #0
 8004058:	631a      	str	r2, [r3, #48]	@ 0x30
    hi2c->State               = HAL_I2C_STATE_READY;
 800405a:	687b      	ldr	r3, [r7, #4]
 800405c:	2220      	movs	r2, #32
 800405e:	f883 203d 	strb.w	r2, [r3, #61]	@ 0x3d
    hi2c->Mode                = HAL_I2C_MODE_NONE;
 8004062:	687b      	ldr	r3, [r7, #4]
 8004064:	2200      	movs	r2, #0
 8004066:	f883 203e 	strb.w	r2, [r3, #62]	@ 0x3e
    hi2c->ErrorCode           |= HAL_I2C_ERROR_AF;
 800406a:	687b      	ldr	r3, [r7, #4]
 800406c:	6c1b      	ldr	r3, [r3, #64]	@ 0x40
 800406e:	f043 0204 	orr.w	r2, r3, #4
 8004072:	687b      	ldr	r3, [r7, #4]
 8004074:	641a      	str	r2, [r3, #64]	@ 0x40

    /* Process Unlocked */
    __HAL_UNLOCK(hi2c);
 8004076:	687b      	ldr	r3, [r7, #4]
 8004078:	2200      	movs	r2, #0
 800407a:	f883 203c 	strb.w	r2, [r3, #60]	@ 0x3c

    return HAL_ERROR;
 800407e:	2301      	movs	r3, #1
 8004080:	e000      	b.n	8004084 <I2C_IsAcknowledgeFailed+0x52>
  }
  return HAL_OK;
 8004082:	2300      	movs	r3, #0
}
 8004084:	4618      	mov	r0, r3
 8004086:	370c      	adds	r7, #12
 8004088:	46bd      	mov	sp, r7
 800408a:	f85d 7b04 	ldr.w	r7, [sp], #4
 800408e:	4770      	bx	lr

08004090 <HAL_RCC_OscConfig>:
  *         supported by this API. User should request a transition to HSE Off
  *         first and then HSE On or HSE Bypass.
  * @retval HAL status
  */
__weak HAL_StatusTypeDef HAL_RCC_OscConfig(const RCC_OscInitTypeDef  *RCC_OscInitStruct)
{
 8004090:	b580      	push	{r7, lr}
 8004092:	b086      	sub	sp, #24
 8004094:	af00      	add	r7, sp, #0
 8004096:	6078      	str	r0, [r7, #4]
  uint32_t tickstart;
  uint32_t pll_config;
  /* Check Null pointer */
  if (RCC_OscInitStruct == NULL)
 8004098:	687b      	ldr	r3, [r7, #4]
 800409a:	2b00      	cmp	r3, #0
 800409c:	d101      	bne.n	80040a2 <HAL_RCC_OscConfig+0x12>
  {
    return HAL_ERROR;
 800409e:	2301      	movs	r3, #1
 80040a0:	e267      	b.n	8004572 <HAL_RCC_OscConfig+0x4e2>
  }

  /* Check the parameters */
  assert_param(IS_RCC_OSCILLATORTYPE(RCC_OscInitStruct->OscillatorType));
  /*------------------------------- HSE Configuration ------------------------*/
  if (((RCC_OscInitStruct->OscillatorType) & RCC_OSCILLATORTYPE_HSE) == RCC_OSCILLATORTYPE_HSE)
 80040a2:	687b      	ldr	r3, [r7, #4]
 80040a4:	681b      	ldr	r3, [r3, #0]
 80040a6:	f003 0301 	and.w	r3, r3, #1
 80040aa:	2b00      	cmp	r3, #0
 80040ac:	d075      	beq.n	800419a <HAL_RCC_OscConfig+0x10a>
  {
    /* Check the parameters */
    assert_param(IS_RCC_HSE(RCC_OscInitStruct->HSEState));
    /* When the HSE is used as system clock or clock source for PLL in these cases HSE will not disabled */
    if ((__HAL_RCC_GET_SYSCLK_SOURCE() == RCC_CFGR_SWS_HSE) || \
 80040ae:	4b88      	ldr	r3, [pc, #544]	@ (80042d0 <HAL_RCC_OscConfig+0x240>)
 80040b0:	689b      	ldr	r3, [r3, #8]
 80040b2:	f003 030c 	and.w	r3, r3, #12
 80040b6:	2b04      	cmp	r3, #4
 80040b8:	d00c      	beq.n	80040d4 <HAL_RCC_OscConfig+0x44>
        ((__HAL_RCC_GET_SYSCLK_SOURCE() == RCC_CFGR_SWS_PLL) && ((RCC->PLLCFGR & RCC_PLLCFGR_PLLSRC) == RCC_PLLCFGR_PLLSRC_HSE)))
 80040ba:	4b85      	ldr	r3, [pc, #532]	@ (80042d0 <HAL_RCC_OscConfig+0x240>)
 80040bc:	689b      	ldr	r3, [r3, #8]
 80040be:	f003 030c 	and.w	r3, r3, #12
    if ((__HAL_RCC_GET_SYSCLK_SOURCE() == RCC_CFGR_SWS_HSE) || \
 80040c2:	2b08      	cmp	r3, #8
 80040c4:	d112      	bne.n	80040ec <HAL_RCC_OscConfig+0x5c>
        ((__HAL_RCC_GET_SYSCLK_SOURCE() == RCC_CFGR_SWS_PLL) && ((RCC->PLLCFGR & RCC_PLLCFGR_PLLSRC) == RCC_PLLCFGR_PLLSRC_HSE)))
 80040c6:	4b82      	ldr	r3, [pc, #520]	@ (80042d0 <HAL_RCC_OscConfig+0x240>)
 80040c8:	685b      	ldr	r3, [r3, #4]
 80040ca:	f403 0380 	and.w	r3, r3, #4194304	@ 0x400000
 80040ce:	f5b3 0f80 	cmp.w	r3, #4194304	@ 0x400000
 80040d2:	d10b      	bne.n	80040ec <HAL_RCC_OscConfig+0x5c>
    {
      if ((__HAL_RCC_GET_FLAG(RCC_FLAG_HSERDY) != RESET) && (RCC_OscInitStruct->HSEState == RCC_HSE_OFF))
 80040d4:	4b7e      	ldr	r3, [pc, #504]	@ (80042d0 <HAL_RCC_OscConfig+0x240>)
 80040d6:	681b      	ldr	r3, [r3, #0]
 80040d8:	f403 3300 	and.w	r3, r3, #131072	@ 0x20000
 80040dc:	2b00      	cmp	r3, #0
 80040de:	d05b      	beq.n	8004198 <HAL_RCC_OscConfig+0x108>
 80040e0:	687b      	ldr	r3, [r7, #4]
 80040e2:	685b      	ldr	r3, [r3, #4]
 80040e4:	2b00      	cmp	r3, #0
 80040e6:	d157      	bne.n	8004198 <HAL_RCC_OscConfig+0x108>
      {
        return HAL_ERROR;
 80040e8:	2301      	movs	r3, #1
 80040ea:	e242      	b.n	8004572 <HAL_RCC_OscConfig+0x4e2>
      }
    }
    else
    {
      /* Set the new HSE configuration ---------------------------------------*/
      __HAL_RCC_HSE_CONFIG(RCC_OscInitStruct->HSEState);
 80040ec:	687b      	ldr	r3, [r7, #4]
 80040ee:	685b      	ldr	r3, [r3, #4]
 80040f0:	f5b3 3f80 	cmp.w	r3, #65536	@ 0x10000
 80040f4:	d106      	bne.n	8004104 <HAL_RCC_OscConfig+0x74>
 80040f6:	4b76      	ldr	r3, [pc, #472]	@ (80042d0 <HAL_RCC_OscConfig+0x240>)
 80040f8:	681b      	ldr	r3, [r3, #0]
 80040fa:	4a75      	ldr	r2, [pc, #468]	@ (80042d0 <HAL_RCC_OscConfig+0x240>)
 80040fc:	f443 3380 	orr.w	r3, r3, #65536	@ 0x10000
 8004100:	6013      	str	r3, [r2, #0]
 8004102:	e01d      	b.n	8004140 <HAL_RCC_OscConfig+0xb0>
 8004104:	687b      	ldr	r3, [r7, #4]
 8004106:	685b      	ldr	r3, [r3, #4]
 8004108:	f5b3 2fa0 	cmp.w	r3, #327680	@ 0x50000
 800410c:	d10c      	bne.n	8004128 <HAL_RCC_OscConfig+0x98>
 800410e:	4b70      	ldr	r3, [pc, #448]	@ (80042d0 <HAL_RCC_OscConfig+0x240>)
 8004110:	681b      	ldr	r3, [r3, #0]
 8004112:	4a6f      	ldr	r2, [pc, #444]	@ (80042d0 <HAL_RCC_OscConfig+0x240>)
 8004114:	f443 2380 	orr.w	r3, r3, #262144	@ 0x40000
 8004118:	6013      	str	r3, [r2, #0]
 800411a:	4b6d      	ldr	r3, [pc, #436]	@ (80042d0 <HAL_RCC_OscConfig+0x240>)
 800411c:	681b      	ldr	r3, [r3, #0]
 800411e:	4a6c      	ldr	r2, [pc, #432]	@ (80042d0 <HAL_RCC_OscConfig+0x240>)
 8004120:	f443 3380 	orr.w	r3, r3, #65536	@ 0x10000
 8004124:	6013      	str	r3, [r2, #0]
 8004126:	e00b      	b.n	8004140 <HAL_RCC_OscConfig+0xb0>
 8004128:	4b69      	ldr	r3, [pc, #420]	@ (80042d0 <HAL_RCC_OscConfig+0x240>)
 800412a:	681b      	ldr	r3, [r3, #0]
 800412c:	4a68      	ldr	r2, [pc, #416]	@ (80042d0 <HAL_RCC_OscConfig+0x240>)
 800412e:	f423 3380 	bic.w	r3, r3, #65536	@ 0x10000
 8004132:	6013      	str	r3, [r2, #0]
 8004134:	4b66      	ldr	r3, [pc, #408]	@ (80042d0 <HAL_RCC_OscConfig+0x240>)
 8004136:	681b      	ldr	r3, [r3, #0]
 8004138:	4a65      	ldr	r2, [pc, #404]	@ (80042d0 <HAL_RCC_OscConfig+0x240>)
 800413a:	f423 2380 	bic.w	r3, r3, #262144	@ 0x40000
 800413e:	6013      	str	r3, [r2, #0]

      /* Check the HSE State */
      if ((RCC_OscInitStruct->HSEState) != RCC_HSE_OFF)
 8004140:	687b      	ldr	r3, [r7, #4]
 8004142:	685b      	ldr	r3, [r3, #4]
 8004144:	2b00      	cmp	r3, #0
 8004146:	d013      	beq.n	8004170 <HAL_RCC_OscConfig+0xe0>
      {
        /* Get Start Tick */
        tickstart = HAL_GetTick();
 8004148:	f7fe fbf2 	bl	8002930 <HAL_GetTick>
 800414c:	6138      	str	r0, [r7, #16]

        /* Wait till HSE is ready */
        while (__HAL_RCC_GET_FLAG(RCC_FLAG_HSERDY) == RESET)
 800414e:	e008      	b.n	8004162 <HAL_RCC_OscConfig+0xd2>
        {
          if ((HAL_GetTick() - tickstart) > HSE_TIMEOUT_VALUE)
 8004150:	f7fe fbee 	bl	8002930 <HAL_GetTick>
 8004154:	4602      	mov	r2, r0
 8004156:	693b      	ldr	r3, [r7, #16]
 8004158:	1ad3      	subs	r3, r2, r3
 800415a:	2b64      	cmp	r3, #100	@ 0x64
 800415c:	d901      	bls.n	8004162 <HAL_RCC_OscConfig+0xd2>
          {
            return HAL_TIMEOUT;
 800415e:	2303      	movs	r3, #3
 8004160:	e207      	b.n	8004572 <HAL_RCC_OscConfig+0x4e2>
        while (__HAL_RCC_GET_FLAG(RCC_FLAG_HSERDY) == RESET)
 8004162:	4b5b      	ldr	r3, [pc, #364]	@ (80042d0 <HAL_RCC_OscConfig+0x240>)
 8004164:	681b      	ldr	r3, [r3, #0]
 8004166:	f403 3300 	and.w	r3, r3, #131072	@ 0x20000
 800416a:	2b00      	cmp	r3, #0
 800416c:	d0f0      	beq.n	8004150 <HAL_RCC_OscConfig+0xc0>
 800416e:	e014      	b.n	800419a <HAL_RCC_OscConfig+0x10a>
        }
      }
      else
      {
        /* Get Start Tick */
        tickstart = HAL_GetTick();
 8004170:	f7fe fbde 	bl	8002930 <HAL_GetTick>
 8004174:	6138      	str	r0, [r7, #16]

        /* Wait till HSE is bypassed or disabled */
        while (__HAL_RCC_GET_FLAG(RCC_FLAG_HSERDY) != RESET)
 8004176:	e008      	b.n	800418a <HAL_RCC_OscConfig+0xfa>
        {
          if ((HAL_GetTick() - tickstart) > HSE_TIMEOUT_VALUE)
 8004178:	f7fe fbda 	bl	8002930 <HAL_GetTick>
 800417c:	4602      	mov	r2, r0
 800417e:	693b      	ldr	r3, [r7, #16]
 8004180:	1ad3      	subs	r3, r2, r3
 8004182:	2b64      	cmp	r3, #100	@ 0x64
 8004184:	d901      	bls.n	800418a <HAL_RCC_OscConfig+0xfa>
          {
            return HAL_TIMEOUT;
 8004186:	2303      	movs	r3, #3
 8004188:	e1f3      	b.n	8004572 <HAL_RCC_OscConfig+0x4e2>
        while (__HAL_RCC_GET_FLAG(RCC_FLAG_HSERDY) != RESET)
 800418a:	4b51      	ldr	r3, [pc, #324]	@ (80042d0 <HAL_RCC_OscConfig+0x240>)
 800418c:	681b      	ldr	r3, [r3, #0]
 800418e:	f403 3300 	and.w	r3, r3, #131072	@ 0x20000
 8004192:	2b00      	cmp	r3, #0
 8004194:	d1f0      	bne.n	8004178 <HAL_RCC_OscConfig+0xe8>
 8004196:	e000      	b.n	800419a <HAL_RCC_OscConfig+0x10a>
      if ((__HAL_RCC_GET_FLAG(RCC_FLAG_HSERDY) != RESET) && (RCC_OscInitStruct->HSEState == RCC_HSE_OFF))
 8004198:	bf00      	nop
        }
      }
    }
  }
  /*----------------------------- HSI Configuration --------------------------*/
  if (((RCC_OscInitStruct->OscillatorType) & RCC_OSCILLATORTYPE_HSI) == RCC_OSCILLATORTYPE_HSI)
 800419a:	687b      	ldr	r3, [r7, #4]
 800419c:	681b      	ldr	r3, [r3, #0]
 800419e:	f003 0302 	and.w	r3, r3, #2
 80041a2:	2b00      	cmp	r3, #0
 80041a4:	d063      	beq.n	800426e <HAL_RCC_OscConfig+0x1de>
    /* Check the parameters */
    assert_param(IS_RCC_HSI(RCC_OscInitStruct->HSIState));
    assert_param(IS_RCC_CALIBRATION_VALUE(RCC_OscInitStruct->HSICalibrationValue));

    /* Check if HSI is used as system clock or as PLL source when PLL is selected as system clock */
    if ((__HAL_RCC_GET_SYSCLK_SOURCE() == RCC_CFGR_SWS_HSI) || \
 80041a6:	4b4a      	ldr	r3, [pc, #296]	@ (80042d0 <HAL_RCC_OscConfig+0x240>)
 80041a8:	689b      	ldr	r3, [r3, #8]
 80041aa:	f003 030c 	and.w	r3, r3, #12
 80041ae:	2b00      	cmp	r3, #0
 80041b0:	d00b      	beq.n	80041ca <HAL_RCC_OscConfig+0x13a>
        ((__HAL_RCC_GET_SYSCLK_SOURCE() == RCC_CFGR_SWS_PLL) && ((RCC->PLLCFGR & RCC_PLLCFGR_PLLSRC) == RCC_PLLCFGR_PLLSRC_HSI)))
 80041b2:	4b47      	ldr	r3, [pc, #284]	@ (80042d0 <HAL_RCC_OscConfig+0x240>)
 80041b4:	689b      	ldr	r3, [r3, #8]
 80041b6:	f003 030c 	and.w	r3, r3, #12
    if ((__HAL_RCC_GET_SYSCLK_SOURCE() == RCC_CFGR_SWS_HSI) || \
 80041ba:	2b08      	cmp	r3, #8
 80041bc:	d11c      	bne.n	80041f8 <HAL_RCC_OscConfig+0x168>
        ((__HAL_RCC_GET_SYSCLK_SOURCE() == RCC_CFGR_SWS_PLL) && ((RCC->PLLCFGR & RCC_PLLCFGR_PLLSRC) == RCC_PLLCFGR_PLLSRC_HSI)))
 80041be:	4b44      	ldr	r3, [pc, #272]	@ (80042d0 <HAL_RCC_OscConfig+0x240>)
 80041c0:	685b      	ldr	r3, [r3, #4]
 80041c2:	f403 0380 	and.w	r3, r3, #4194304	@ 0x400000
 80041c6:	2b00      	cmp	r3, #0
 80041c8:	d116      	bne.n	80041f8 <HAL_RCC_OscConfig+0x168>
    {
      /* When HSI is used as system clock it will not disabled */
      if ((__HAL_RCC_GET_FLAG(RCC_FLAG_HSIRDY) != RESET) && (RCC_OscInitStruct->HSIState != RCC_HSI_ON))
 80041ca:	4b41      	ldr	r3, [pc, #260]	@ (80042d0 <HAL_RCC_OscConfig+0x240>)
 80041cc:	681b      	ldr	r3, [r3, #0]
 80041ce:	f003 0302 	and.w	r3, r3, #2
 80041d2:	2b00      	cmp	r3, #0
 80041d4:	d005      	beq.n	80041e2 <HAL_RCC_OscConfig+0x152>
 80041d6:	687b      	ldr	r3, [r7, #4]
 80041d8:	68db      	ldr	r3, [r3, #12]
 80041da:	2b01      	cmp	r3, #1
 80041dc:	d001      	beq.n	80041e2 <HAL_RCC_OscConfig+0x152>
      {
        return HAL_ERROR;
 80041de:	2301      	movs	r3, #1
 80041e0:	e1c7      	b.n	8004572 <HAL_RCC_OscConfig+0x4e2>
      }
      /* Otherwise, just the calibration is allowed */
      else
      {
        /* Adjusts the Internal High Speed oscillator (HSI) calibration value.*/
        __HAL_RCC_HSI_CALIBRATIONVALUE_ADJUST(RCC_OscInitStruct->HSICalibrationValue);
 80041e2:	4b3b      	ldr	r3, [pc, #236]	@ (80042d0 <HAL_RCC_OscConfig+0x240>)
 80041e4:	681b      	ldr	r3, [r3, #0]
 80041e6:	f023 02f8 	bic.w	r2, r3, #248	@ 0xf8
 80041ea:	687b      	ldr	r3, [r7, #4]
 80041ec:	691b      	ldr	r3, [r3, #16]
 80041ee:	00db      	lsls	r3, r3, #3
 80041f0:	4937      	ldr	r1, [pc, #220]	@ (80042d0 <HAL_RCC_OscConfig+0x240>)
 80041f2:	4313      	orrs	r3, r2
 80041f4:	600b      	str	r3, [r1, #0]
      if ((__HAL_RCC_GET_FLAG(RCC_FLAG_HSIRDY) != RESET) && (RCC_OscInitStruct->HSIState != RCC_HSI_ON))
 80041f6:	e03a      	b.n	800426e <HAL_RCC_OscConfig+0x1de>
      }
    }
    else
    {
      /* Check the HSI State */
      if ((RCC_OscInitStruct->HSIState) != RCC_HSI_OFF)
 80041f8:	687b      	ldr	r3, [r7, #4]
 80041fa:	68db      	ldr	r3, [r3, #12]
 80041fc:	2b00      	cmp	r3, #0
 80041fe:	d020      	beq.n	8004242 <HAL_RCC_OscConfig+0x1b2>
      {
        /* Enable the Internal High Speed oscillator (HSI). */
        __HAL_RCC_HSI_ENABLE();
 8004200:	4b34      	ldr	r3, [pc, #208]	@ (80042d4 <HAL_RCC_OscConfig+0x244>)
 8004202:	2201      	movs	r2, #1
 8004204:	601a      	str	r2, [r3, #0]

        /* Get Start Tick*/
        tickstart = HAL_GetTick();
 8004206:	f7fe fb93 	bl	8002930 <HAL_GetTick>
 800420a:	6138      	str	r0, [r7, #16]

        /* Wait till HSI is ready */
        while (__HAL_RCC_GET_FLAG(RCC_FLAG_HSIRDY) == RESET)
 800420c:	e008      	b.n	8004220 <HAL_RCC_OscConfig+0x190>
        {
          if ((HAL_GetTick() - tickstart) > HSI_TIMEOUT_VALUE)
 800420e:	f7fe fb8f 	bl	8002930 <HAL_GetTick>
 8004212:	4602      	mov	r2, r0
 8004214:	693b      	ldr	r3, [r7, #16]
 8004216:	1ad3      	subs	r3, r2, r3
 8004218:	2b02      	cmp	r3, #2
 800421a:	d901      	bls.n	8004220 <HAL_RCC_OscConfig+0x190>
          {
            return HAL_TIMEOUT;
 800421c:	2303      	movs	r3, #3
 800421e:	e1a8      	b.n	8004572 <HAL_RCC_OscConfig+0x4e2>
        while (__HAL_RCC_GET_FLAG(RCC_FLAG_HSIRDY) == RESET)
 8004220:	4b2b      	ldr	r3, [pc, #172]	@ (80042d0 <HAL_RCC_OscConfig+0x240>)
 8004222:	681b      	ldr	r3, [r3, #0]
 8004224:	f003 0302 	and.w	r3, r3, #2
 8004228:	2b00      	cmp	r3, #0
 800422a:	d0f0      	beq.n	800420e <HAL_RCC_OscConfig+0x17e>
          }
        }

        /* Adjusts the Internal High Speed oscillator (HSI) calibration value. */
        __HAL_RCC_HSI_CALIBRATIONVALUE_ADJUST(RCC_OscInitStruct->HSICalibrationValue);
 800422c:	4b28      	ldr	r3, [pc, #160]	@ (80042d0 <HAL_RCC_OscConfig+0x240>)
 800422e:	681b      	ldr	r3, [r3, #0]
 8004230:	f023 02f8 	bic.w	r2, r3, #248	@ 0xf8
 8004234:	687b      	ldr	r3, [r7, #4]
 8004236:	691b      	ldr	r3, [r3, #16]
 8004238:	00db      	lsls	r3, r3, #3
 800423a:	4925      	ldr	r1, [pc, #148]	@ (80042d0 <HAL_RCC_OscConfig+0x240>)
 800423c:	4313      	orrs	r3, r2
 800423e:	600b      	str	r3, [r1, #0]
 8004240:	e015      	b.n	800426e <HAL_RCC_OscConfig+0x1de>
      }
      else
      {
        /* Disable the Internal High Speed oscillator (HSI). */
        __HAL_RCC_HSI_DISABLE();
 8004242:	4b24      	ldr	r3, [pc, #144]	@ (80042d4 <HAL_RCC_OscConfig+0x244>)
 8004244:	2200      	movs	r2, #0
 8004246:	601a      	str	r2, [r3, #0]

        /* Get Start Tick*/
        tickstart = HAL_GetTick();
 8004248:	f7fe fb72 	bl	8002930 <HAL_GetTick>
 800424c:	6138      	str	r0, [r7, #16]

        /* Wait till HSI is ready */
        while (__HAL_RCC_GET_FLAG(RCC_FLAG_HSIRDY) != RESET)
 800424e:	e008      	b.n	8004262 <HAL_RCC_OscConfig+0x1d2>
        {
          if ((HAL_GetTick() - tickstart) > HSI_TIMEOUT_VALUE)
 8004250:	f7fe fb6e 	bl	8002930 <HAL_GetTick>
 8004254:	4602      	mov	r2, r0
 8004256:	693b      	ldr	r3, [r7, #16]
 8004258:	1ad3      	subs	r3, r2, r3
 800425a:	2b02      	cmp	r3, #2
 800425c:	d901      	bls.n	8004262 <HAL_RCC_OscConfig+0x1d2>
          {
            return HAL_TIMEOUT;
 800425e:	2303      	movs	r3, #3
 8004260:	e187      	b.n	8004572 <HAL_RCC_OscConfig+0x4e2>
        while (__HAL_RCC_GET_FLAG(RCC_FLAG_HSIRDY) != RESET)
 8004262:	4b1b      	ldr	r3, [pc, #108]	@ (80042d0 <HAL_RCC_OscConfig+0x240>)
 8004264:	681b      	ldr	r3, [r3, #0]
 8004266:	f003 0302 	and.w	r3, r3, #2
 800426a:	2b00      	cmp	r3, #0
 800426c:	d1f0      	bne.n	8004250 <HAL_RCC_OscConfig+0x1c0>
        }
      }
    }
  }
  /*------------------------------ LSI Configuration -------------------------*/
  if (((RCC_OscInitStruct->OscillatorType) & RCC_OSCILLATORTYPE_LSI) == RCC_OSCILLATORTYPE_LSI)
 800426e:	687b      	ldr	r3, [r7, #4]
 8004270:	681b      	ldr	r3, [r3, #0]
 8004272:	f003 0308 	and.w	r3, r3, #8
 8004276:	2b00      	cmp	r3, #0
 8004278:	d036      	beq.n	80042e8 <HAL_RCC_OscConfig+0x258>
  {
    /* Check the parameters */
    assert_param(IS_RCC_LSI(RCC_OscInitStruct->LSIState));

    /* Check the LSI State */
    if ((RCC_OscInitStruct->LSIState) != RCC_LSI_OFF)
 800427a:	687b      	ldr	r3, [r7, #4]
 800427c:	695b      	ldr	r3, [r3, #20]
 800427e:	2b00      	cmp	r3, #0
 8004280:	d016      	beq.n	80042b0 <HAL_RCC_OscConfig+0x220>
    {
      /* Enable the Internal Low Speed oscillator (LSI). */
      __HAL_RCC_LSI_ENABLE();
 8004282:	4b15      	ldr	r3, [pc, #84]	@ (80042d8 <HAL_RCC_OscConfig+0x248>)
 8004284:	2201      	movs	r2, #1
 8004286:	601a      	str	r2, [r3, #0]

      /* Get Start Tick*/
      tickstart = HAL_GetTick();
 8004288:	f7fe fb52 	bl	8002930 <HAL_GetTick>
 800428c:	6138      	str	r0, [r7, #16]

      /* Wait till LSI is ready */
      while (__HAL_RCC_GET_FLAG(RCC_FLAG_LSIRDY) == RESET)
 800428e:	e008      	b.n	80042a2 <HAL_RCC_OscConfig+0x212>
      {
        if ((HAL_GetTick() - tickstart) > LSI_TIMEOUT_VALUE)
 8004290:	f7fe fb4e 	bl	8002930 <HAL_GetTick>
 8004294:	4602      	mov	r2, r0
 8004296:	693b      	ldr	r3, [r7, #16]
 8004298:	1ad3      	subs	r3, r2, r3
 800429a:	2b02      	cmp	r3, #2
 800429c:	d901      	bls.n	80042a2 <HAL_RCC_OscConfig+0x212>
        {
          return HAL_TIMEOUT;
 800429e:	2303      	movs	r3, #3
 80042a0:	e167      	b.n	8004572 <HAL_RCC_OscConfig+0x4e2>
      while (__HAL_RCC_GET_FLAG(RCC_FLAG_LSIRDY) == RESET)
 80042a2:	4b0b      	ldr	r3, [pc, #44]	@ (80042d0 <HAL_RCC_OscConfig+0x240>)
 80042a4:	6f5b      	ldr	r3, [r3, #116]	@ 0x74
 80042a6:	f003 0302 	and.w	r3, r3, #2
 80042aa:	2b00      	cmp	r3, #0
 80042ac:	d0f0      	beq.n	8004290 <HAL_RCC_OscConfig+0x200>
 80042ae:	e01b      	b.n	80042e8 <HAL_RCC_OscConfig+0x258>
      }
    }
    else
    {
      /* Disable the Internal Low Speed oscillator (LSI). */
      __HAL_RCC_LSI_DISABLE();
 80042b0:	4b09      	ldr	r3, [pc, #36]	@ (80042d8 <HAL_RCC_OscConfig+0x248>)
 80042b2:	2200      	movs	r2, #0
 80042b4:	601a      	str	r2, [r3, #0]

      /* Get Start Tick */
      tickstart = HAL_GetTick();
 80042b6:	f7fe fb3b 	bl	8002930 <HAL_GetTick>
 80042ba:	6138      	str	r0, [r7, #16]

      /* Wait till LSI is ready */
      while (__HAL_RCC_GET_FLAG(RCC_FLAG_LSIRDY) != RESET)
 80042bc:	e00e      	b.n	80042dc <HAL_RCC_OscConfig+0x24c>
      {
        if ((HAL_GetTick() - tickstart) > LSI_TIMEOUT_VALUE)
 80042be:	f7fe fb37 	bl	8002930 <HAL_GetTick>
 80042c2:	4602      	mov	r2, r0
 80042c4:	693b      	ldr	r3, [r7, #16]
 80042c6:	1ad3      	subs	r3, r2, r3
 80042c8:	2b02      	cmp	r3, #2
 80042ca:	d907      	bls.n	80042dc <HAL_RCC_OscConfig+0x24c>
        {
          return HAL_TIMEOUT;
 80042cc:	2303      	movs	r3, #3
 80042ce:	e150      	b.n	8004572 <HAL_RCC_OscConfig+0x4e2>
 80042d0:	40023800 	.word	0x40023800
 80042d4:	42470000 	.word	0x42470000
 80042d8:	42470e80 	.word	0x42470e80
      while (__HAL_RCC_GET_FLAG(RCC_FLAG_LSIRDY) != RESET)
 80042dc:	4b88      	ldr	r3, [pc, #544]	@ (8004500 <HAL_RCC_OscConfig+0x470>)
 80042de:	6f5b      	ldr	r3, [r3, #116]	@ 0x74
 80042e0:	f003 0302 	and.w	r3, r3, #2
 80042e4:	2b00      	cmp	r3, #0
 80042e6:	d1ea      	bne.n	80042be <HAL_RCC_OscConfig+0x22e>
        }
      }
    }
  }
  /*------------------------------ LSE Configuration -------------------------*/
  if (((RCC_OscInitStruct->OscillatorType) & RCC_OSCILLATORTYPE_LSE) == RCC_OSCILLATORTYPE_LSE)
 80042e8:	687b      	ldr	r3, [r7, #4]
 80042ea:	681b      	ldr	r3, [r3, #0]
 80042ec:	f003 0304 	and.w	r3, r3, #4
 80042f0:	2b00      	cmp	r3, #0
 80042f2:	f000 8097 	beq.w	8004424 <HAL_RCC_OscConfig+0x394>
  {
    FlagStatus       pwrclkchanged = RESET;
 80042f6:	2300      	movs	r3, #0
 80042f8:	75fb      	strb	r3, [r7, #23]
    /* Check the parameters */
    assert_param(IS_RCC_LSE(RCC_OscInitStruct->LSEState));

    /* Update LSE configuration in Backup Domain control register    */
    /* Requires to enable write access to Backup Domain of necessary */
    if (__HAL_RCC_PWR_IS_CLK_DISABLED())
 80042fa:	4b81      	ldr	r3, [pc, #516]	@ (8004500 <HAL_RCC_OscConfig+0x470>)
 80042fc:	6c1b      	ldr	r3, [r3, #64]	@ 0x40
 80042fe:	f003 5380 	and.w	r3, r3, #268435456	@ 0x10000000
 8004302:	2b00      	cmp	r3, #0
 8004304:	d10f      	bne.n	8004326 <HAL_RCC_OscConfig+0x296>
    {
      __HAL_RCC_PWR_CLK_ENABLE();
 8004306:	2300      	movs	r3, #0
 8004308:	60bb      	str	r3, [r7, #8]
 800430a:	4b7d      	ldr	r3, [pc, #500]	@ (8004500 <HAL_RCC_OscConfig+0x470>)
 800430c:	6c1b      	ldr	r3, [r3, #64]	@ 0x40
 800430e:	4a7c      	ldr	r2, [pc, #496]	@ (8004500 <HAL_RCC_OscConfig+0x470>)
 8004310:	f043 5380 	orr.w	r3, r3, #268435456	@ 0x10000000
 8004314:	6413      	str	r3, [r2, #64]	@ 0x40
 8004316:	4b7a      	ldr	r3, [pc, #488]	@ (8004500 <HAL_RCC_OscConfig+0x470>)
 8004318:	6c1b      	ldr	r3, [r3, #64]	@ 0x40
 800431a:	f003 5380 	and.w	r3, r3, #268435456	@ 0x10000000
 800431e:	60bb      	str	r3, [r7, #8]
 8004320:	68bb      	ldr	r3, [r7, #8]
      pwrclkchanged = SET;
 8004322:	2301      	movs	r3, #1
 8004324:	75fb      	strb	r3, [r7, #23]
    }

    if (HAL_IS_BIT_CLR(PWR->CR, PWR_CR_DBP))
 8004326:	4b77      	ldr	r3, [pc, #476]	@ (8004504 <HAL_RCC_OscConfig+0x474>)
 8004328:	681b      	ldr	r3, [r3, #0]
 800432a:	f403 7380 	and.w	r3, r3, #256	@ 0x100
 800432e:	2b00      	cmp	r3, #0
 8004330:	d118      	bne.n	8004364 <HAL_RCC_OscConfig+0x2d4>
    {
      /* Enable write access to Backup domain */
      SET_BIT(PWR->CR, PWR_CR_DBP);
 8004332:	4b74      	ldr	r3, [pc, #464]	@ (8004504 <HAL_RCC_OscConfig+0x474>)
 8004334:	681b      	ldr	r3, [r3, #0]
 8004336:	4a73      	ldr	r2, [pc, #460]	@ (8004504 <HAL_RCC_OscConfig+0x474>)
 8004338:	f443 7380 	orr.w	r3, r3, #256	@ 0x100
 800433c:	6013      	str	r3, [r2, #0]

      /* Wait for Backup domain Write protection disable */
      tickstart = HAL_GetTick();
 800433e:	f7fe faf7 	bl	8002930 <HAL_GetTick>
 8004342:	6138      	str	r0, [r7, #16]

      while (HAL_IS_BIT_CLR(PWR->CR, PWR_CR_DBP))
 8004344:	e008      	b.n	8004358 <HAL_RCC_OscConfig+0x2c8>
      {
        if ((HAL_GetTick() - tickstart) > RCC_DBP_TIMEOUT_VALUE)
 8004346:	f7fe faf3 	bl	8002930 <HAL_GetTick>
 800434a:	4602      	mov	r2, r0
 800434c:	693b      	ldr	r3, [r7, #16]
 800434e:	1ad3      	subs	r3, r2, r3
 8004350:	2b02      	cmp	r3, #2
 8004352:	d901      	bls.n	8004358 <HAL_RCC_OscConfig+0x2c8>
        {
          return HAL_TIMEOUT;
 8004354:	2303      	movs	r3, #3
 8004356:	e10c      	b.n	8004572 <HAL_RCC_OscConfig+0x4e2>
      while (HAL_IS_BIT_CLR(PWR->CR, PWR_CR_DBP))
 8004358:	4b6a      	ldr	r3, [pc, #424]	@ (8004504 <HAL_RCC_OscConfig+0x474>)
 800435a:	681b      	ldr	r3, [r3, #0]
 800435c:	f403 7380 	and.w	r3, r3, #256	@ 0x100
 8004360:	2b00      	cmp	r3, #0
 8004362:	d0f0      	beq.n	8004346 <HAL_RCC_OscConfig+0x2b6>
        }
      }
    }

    /* Set the new LSE configuration -----------------------------------------*/
    __HAL_RCC_LSE_CONFIG(RCC_OscInitStruct->LSEState);
 8004364:	687b      	ldr	r3, [r7, #4]
 8004366:	689b      	ldr	r3, [r3, #8]
 8004368:	2b01      	cmp	r3, #1
 800436a:	d106      	bne.n	800437a <HAL_RCC_OscConfig+0x2ea>
 800436c:	4b64      	ldr	r3, [pc, #400]	@ (8004500 <HAL_RCC_OscConfig+0x470>)
 800436e:	6f1b      	ldr	r3, [r3, #112]	@ 0x70
 8004370:	4a63      	ldr	r2, [pc, #396]	@ (8004500 <HAL_RCC_OscConfig+0x470>)
 8004372:	f043 0301 	orr.w	r3, r3, #1
 8004376:	6713      	str	r3, [r2, #112]	@ 0x70
 8004378:	e01c      	b.n	80043b4 <HAL_RCC_OscConfig+0x324>
 800437a:	687b      	ldr	r3, [r7, #4]
 800437c:	689b      	ldr	r3, [r3, #8]
 800437e:	2b05      	cmp	r3, #5
 8004380:	d10c      	bne.n	800439c <HAL_RCC_OscConfig+0x30c>
 8004382:	4b5f      	ldr	r3, [pc, #380]	@ (8004500 <HAL_RCC_OscConfig+0x470>)
 8004384:	6f1b      	ldr	r3, [r3, #112]	@ 0x70
 8004386:	4a5e      	ldr	r2, [pc, #376]	@ (8004500 <HAL_RCC_OscConfig+0x470>)
 8004388:	f043 0304 	orr.w	r3, r3, #4
 800438c:	6713      	str	r3, [r2, #112]	@ 0x70
 800438e:	4b5c      	ldr	r3, [pc, #368]	@ (8004500 <HAL_RCC_OscConfig+0x470>)
 8004390:	6f1b      	ldr	r3, [r3, #112]	@ 0x70
 8004392:	4a5b      	ldr	r2, [pc, #364]	@ (8004500 <HAL_RCC_OscConfig+0x470>)
 8004394:	f043 0301 	orr.w	r3, r3, #1
 8004398:	6713      	str	r3, [r2, #112]	@ 0x70
 800439a:	e00b      	b.n	80043b4 <HAL_RCC_OscConfig+0x324>
 800439c:	4b58      	ldr	r3, [pc, #352]	@ (8004500 <HAL_RCC_OscConfig+0x470>)
 800439e:	6f1b      	ldr	r3, [r3, #112]	@ 0x70
 80043a0:	4a57      	ldr	r2, [pc, #348]	@ (8004500 <HAL_RCC_OscConfig+0x470>)
 80043a2:	f023 0301 	bic.w	r3, r3, #1
 80043a6:	6713      	str	r3, [r2, #112]	@ 0x70
 80043a8:	4b55      	ldr	r3, [pc, #340]	@ (8004500 <HAL_RCC_OscConfig+0x470>)
 80043aa:	6f1b      	ldr	r3, [r3, #112]	@ 0x70
 80043ac:	4a54      	ldr	r2, [pc, #336]	@ (8004500 <HAL_RCC_OscConfig+0x470>)
 80043ae:	f023 0304 	bic.w	r3, r3, #4
 80043b2:	6713      	str	r3, [r2, #112]	@ 0x70
    /* Check the LSE State */
    if ((RCC_OscInitStruct->LSEState) != RCC_LSE_OFF)
 80043b4:	687b      	ldr	r3, [r7, #4]
 80043b6:	689b      	ldr	r3, [r3, #8]
 80043b8:	2b00      	cmp	r3, #0
 80043ba:	d015      	beq.n	80043e8 <HAL_RCC_OscConfig+0x358>
    {
      /* Get Start Tick*/
      tickstart = HAL_GetTick();
 80043bc:	f7fe fab8 	bl	8002930 <HAL_GetTick>
 80043c0:	6138      	str	r0, [r7, #16]

      /* Wait till LSE is ready */
      while (__HAL_RCC_GET_FLAG(RCC_FLAG_LSERDY) == RESET)
 80043c2:	e00a      	b.n	80043da <HAL_RCC_OscConfig+0x34a>
      {
        if ((HAL_GetTick() - tickstart) > RCC_LSE_TIMEOUT_VALUE)
 80043c4:	f7fe fab4 	bl	8002930 <HAL_GetTick>
 80043c8:	4602      	mov	r2, r0
 80043ca:	693b      	ldr	r3, [r7, #16]
 80043cc:	1ad3      	subs	r3, r2, r3
 80043ce:	f241 3288 	movw	r2, #5000	@ 0x1388
 80043d2:	4293      	cmp	r3, r2
 80043d4:	d901      	bls.n	80043da <HAL_RCC_OscConfig+0x34a>
        {
          return HAL_TIMEOUT;
 80043d6:	2303      	movs	r3, #3
 80043d8:	e0cb      	b.n	8004572 <HAL_RCC_OscConfig+0x4e2>
      while (__HAL_RCC_GET_FLAG(RCC_FLAG_LSERDY) == RESET)
 80043da:	4b49      	ldr	r3, [pc, #292]	@ (8004500 <HAL_RCC_OscConfig+0x470>)
 80043dc:	6f1b      	ldr	r3, [r3, #112]	@ 0x70
 80043de:	f003 0302 	and.w	r3, r3, #2
 80043e2:	2b00      	cmp	r3, #0
 80043e4:	d0ee      	beq.n	80043c4 <HAL_RCC_OscConfig+0x334>
 80043e6:	e014      	b.n	8004412 <HAL_RCC_OscConfig+0x382>
      }
    }
    else
    {
      /* Get Start Tick */
      tickstart = HAL_GetTick();
 80043e8:	f7fe faa2 	bl	8002930 <HAL_GetTick>
 80043ec:	6138      	str	r0, [r7, #16]

      /* Wait till LSE is ready */
      while (__HAL_RCC_GET_FLAG(RCC_FLAG_LSERDY) != RESET)
 80043ee:	e00a      	b.n	8004406 <HAL_RCC_OscConfig+0x376>
      {
        if ((HAL_GetTick() - tickstart) > RCC_LSE_TIMEOUT_VALUE)
 80043f0:	f7fe fa9e 	bl	8002930 <HAL_GetTick>
 80043f4:	4602      	mov	r2, r0
 80043f6:	693b      	ldr	r3, [r7, #16]
 80043f8:	1ad3      	subs	r3, r2, r3
 80043fa:	f241 3288 	movw	r2, #5000	@ 0x1388
 80043fe:	4293      	cmp	r3, r2
 8004400:	d901      	bls.n	8004406 <HAL_RCC_OscConfig+0x376>
        {
          return HAL_TIMEOUT;
 8004402:	2303      	movs	r3, #3
 8004404:	e0b5      	b.n	8004572 <HAL_RCC_OscConfig+0x4e2>
      while (__HAL_RCC_GET_FLAG(RCC_FLAG_LSERDY) != RESET)
 8004406:	4b3e      	ldr	r3, [pc, #248]	@ (8004500 <HAL_RCC_OscConfig+0x470>)
 8004408:	6f1b      	ldr	r3, [r3, #112]	@ 0x70
 800440a:	f003 0302 	and.w	r3, r3, #2
 800440e:	2b00      	cmp	r3, #0
 8004410:	d1ee      	bne.n	80043f0 <HAL_RCC_OscConfig+0x360>
        }
      }
    }

    /* Restore clock configuration if changed */
    if (pwrclkchanged == SET)
 8004412:	7dfb      	ldrb	r3, [r7, #23]
 8004414:	2b01      	cmp	r3, #1
 8004416:	d105      	bne.n	8004424 <HAL_RCC_OscConfig+0x394>
    {
      __HAL_RCC_PWR_CLK_DISABLE();
 8004418:	4b39      	ldr	r3, [pc, #228]	@ (8004500 <HAL_RCC_OscConfig+0x470>)
 800441a:	6c1b      	ldr	r3, [r3, #64]	@ 0x40
 800441c:	4a38      	ldr	r2, [pc, #224]	@ (8004500 <HAL_RCC_OscConfig+0x470>)
 800441e:	f023 5380 	bic.w	r3, r3, #268435456	@ 0x10000000
 8004422:	6413      	str	r3, [r2, #64]	@ 0x40
    }
  }
  /*-------------------------------- PLL Configuration -----------------------*/
  /* Check the parameters */
  assert_param(IS_RCC_PLL(RCC_OscInitStruct->PLL.PLLState));
  if ((RCC_OscInitStruct->PLL.PLLState) != RCC_PLL_NONE)
 8004424:	687b      	ldr	r3, [r7, #4]
 8004426:	699b      	ldr	r3, [r3, #24]
 8004428:	2b00      	cmp	r3, #0
 800442a:	f000 80a1 	beq.w	8004570 <HAL_RCC_OscConfig+0x4e0>
  {
    /* Check if the PLL is used as system clock or not */
    if (__HAL_RCC_GET_SYSCLK_SOURCE() != RCC_CFGR_SWS_PLL)
 800442e:	4b34      	ldr	r3, [pc, #208]	@ (8004500 <HAL_RCC_OscConfig+0x470>)
 8004430:	689b      	ldr	r3, [r3, #8]
 8004432:	f003 030c 	and.w	r3, r3, #12
 8004436:	2b08      	cmp	r3, #8
 8004438:	d05c      	beq.n	80044f4 <HAL_RCC_OscConfig+0x464>
    {
      if ((RCC_OscInitStruct->PLL.PLLState) == RCC_PLL_ON)
 800443a:	687b      	ldr	r3, [r7, #4]
 800443c:	699b      	ldr	r3, [r3, #24]
 800443e:	2b02      	cmp	r3, #2
 8004440:	d141      	bne.n	80044c6 <HAL_RCC_OscConfig+0x436>
        assert_param(IS_RCC_PLLN_VALUE(RCC_OscInitStruct->PLL.PLLN));
        assert_param(IS_RCC_PLLP_VALUE(RCC_OscInitStruct->PLL.PLLP));
        assert_param(IS_RCC_PLLQ_VALUE(RCC_OscInitStruct->PLL.PLLQ));

        /* Disable the main PLL. */
        __HAL_RCC_PLL_DISABLE();
 8004442:	4b31      	ldr	r3, [pc, #196]	@ (8004508 <HAL_RCC_OscConfig+0x478>)
 8004444:	2200      	movs	r2, #0
 8004446:	601a      	str	r2, [r3, #0]

        /* Get Start Tick */
        tickstart = HAL_GetTick();
 8004448:	f7fe fa72 	bl	8002930 <HAL_GetTick>
 800444c:	6138      	str	r0, [r7, #16]

        /* Wait till PLL is disabled */
        while (__HAL_RCC_GET_FLAG(RCC_FLAG_PLLRDY) != RESET)
 800444e:	e008      	b.n	8004462 <HAL_RCC_OscConfig+0x3d2>
        {
          if ((HAL_GetTick() - tickstart) > PLL_TIMEOUT_VALUE)
 8004450:	f7fe fa6e 	bl	8002930 <HAL_GetTick>
 8004454:	4602      	mov	r2, r0
 8004456:	693b      	ldr	r3, [r7, #16]
 8004458:	1ad3      	subs	r3, r2, r3
 800445a:	2b02      	cmp	r3, #2
 800445c:	d901      	bls.n	8004462 <HAL_RCC_OscConfig+0x3d2>
          {
            return HAL_TIMEOUT;
 800445e:	2303      	movs	r3, #3
 8004460:	e087      	b.n	8004572 <HAL_RCC_OscConfig+0x4e2>
        while (__HAL_RCC_GET_FLAG(RCC_FLAG_PLLRDY) != RESET)
 8004462:	4b27      	ldr	r3, [pc, #156]	@ (8004500 <HAL_RCC_OscConfig+0x470>)
 8004464:	681b      	ldr	r3, [r3, #0]
 8004466:	f003 7300 	and.w	r3, r3, #33554432	@ 0x2000000
 800446a:	2b00      	cmp	r3, #0
 800446c:	d1f0      	bne.n	8004450 <HAL_RCC_OscConfig+0x3c0>
          }
        }

        /* Configure the main PLL clock source, multiplication and division factors. */
        WRITE_REG(RCC->PLLCFGR, (RCC_OscInitStruct->PLL.PLLSource                                            | \
 800446e:	687b      	ldr	r3, [r7, #4]
 8004470:	69da      	ldr	r2, [r3, #28]
 8004472:	687b      	ldr	r3, [r7, #4]
 8004474:	6a1b      	ldr	r3, [r3, #32]
 8004476:	431a      	orrs	r2, r3
 8004478:	687b      	ldr	r3, [r7, #4]
 800447a:	6a5b      	ldr	r3, [r3, #36]	@ 0x24
 800447c:	019b      	lsls	r3, r3, #6
 800447e:	431a      	orrs	r2, r3
 8004480:	687b      	ldr	r3, [r7, #4]
 8004482:	6a9b      	ldr	r3, [r3, #40]	@ 0x28
 8004484:	085b      	lsrs	r3, r3, #1
 8004486:	3b01      	subs	r3, #1
 8004488:	041b      	lsls	r3, r3, #16
 800448a:	431a      	orrs	r2, r3
 800448c:	687b      	ldr	r3, [r7, #4]
 800448e:	6adb      	ldr	r3, [r3, #44]	@ 0x2c
 8004490:	061b      	lsls	r3, r3, #24
 8004492:	491b      	ldr	r1, [pc, #108]	@ (8004500 <HAL_RCC_OscConfig+0x470>)
 8004494:	4313      	orrs	r3, r2
 8004496:	604b      	str	r3, [r1, #4]
                                 RCC_OscInitStruct->PLL.PLLM                                                 | \
                                 (RCC_OscInitStruct->PLL.PLLN << RCC_PLLCFGR_PLLN_Pos)             | \
                                 (((RCC_OscInitStruct->PLL.PLLP >> 1U) - 1U) << RCC_PLLCFGR_PLLP_Pos) | \
                                 (RCC_OscInitStruct->PLL.PLLQ << RCC_PLLCFGR_PLLQ_Pos)));
        /* Enable the main PLL. */
        __HAL_RCC_PLL_ENABLE();
 8004498:	4b1b      	ldr	r3, [pc, #108]	@ (8004508 <HAL_RCC_OscConfig+0x478>)
 800449a:	2201      	movs	r2, #1
 800449c:	601a      	str	r2, [r3, #0]

        /* Get Start Tick */
        tickstart = HAL_GetTick();
 800449e:	f7fe fa47 	bl	8002930 <HAL_GetTick>
 80044a2:	6138      	str	r0, [r7, #16]

        /* Wait till PLL is ready */
        while (__HAL_RCC_GET_FLAG(RCC_FLAG_PLLRDY) == RESET)
 80044a4:	e008      	b.n	80044b8 <HAL_RCC_OscConfig+0x428>
        {
          if ((HAL_GetTick() - tickstart) > PLL_TIMEOUT_VALUE)
 80044a6:	f7fe fa43 	bl	8002930 <HAL_GetTick>
 80044aa:	4602      	mov	r2, r0
 80044ac:	693b      	ldr	r3, [r7, #16]
 80044ae:	1ad3      	subs	r3, r2, r3
 80044b0:	2b02      	cmp	r3, #2
 80044b2:	d901      	bls.n	80044b8 <HAL_RCC_OscConfig+0x428>
          {
            return HAL_TIMEOUT;
 80044b4:	2303      	movs	r3, #3
 80044b6:	e05c      	b.n	8004572 <HAL_RCC_OscConfig+0x4e2>
        while (__HAL_RCC_GET_FLAG(RCC_FLAG_PLLRDY) == RESET)
 80044b8:	4b11      	ldr	r3, [pc, #68]	@ (8004500 <HAL_RCC_OscConfig+0x470>)
 80044ba:	681b      	ldr	r3, [r3, #0]
 80044bc:	f003 7300 	and.w	r3, r3, #33554432	@ 0x2000000
 80044c0:	2b00      	cmp	r3, #0
 80044c2:	d0f0      	beq.n	80044a6 <HAL_RCC_OscConfig+0x416>
 80044c4:	e054      	b.n	8004570 <HAL_RCC_OscConfig+0x4e0>
        }
      }
      else
      {
        /* Disable the main PLL. */
        __HAL_RCC_PLL_DISABLE();
 80044c6:	4b10      	ldr	r3, [pc, #64]	@ (8004508 <HAL_RCC_OscConfig+0x478>)
 80044c8:	2200      	movs	r2, #0
 80044ca:	601a      	str	r2, [r3, #0]

        /* Get Start Tick */
        tickstart = HAL_GetTick();
 80044cc:	f7fe fa30 	bl	8002930 <HAL_GetTick>
 80044d0:	6138      	str	r0, [r7, #16]

        /* Wait till PLL is disabled */
        while (__HAL_RCC_GET_FLAG(RCC_FLAG_PLLRDY) != RESET)
 80044d2:	e008      	b.n	80044e6 <HAL_RCC_OscConfig+0x456>
        {
          if ((HAL_GetTick() - tickstart) > PLL_TIMEOUT_VALUE)
 80044d4:	f7fe fa2c 	bl	8002930 <HAL_GetTick>
 80044d8:	4602      	mov	r2, r0
 80044da:	693b      	ldr	r3, [r7, #16]
 80044dc:	1ad3      	subs	r3, r2, r3
 80044de:	2b02      	cmp	r3, #2
 80044e0:	d901      	bls.n	80044e6 <HAL_RCC_OscConfig+0x456>
          {
            return HAL_TIMEOUT;
 80044e2:	2303      	movs	r3, #3
 80044e4:	e045      	b.n	8004572 <HAL_RCC_OscConfig+0x4e2>
        while (__HAL_RCC_GET_FLAG(RCC_FLAG_PLLRDY) != RESET)
 80044e6:	4b06      	ldr	r3, [pc, #24]	@ (8004500 <HAL_RCC_OscConfig+0x470>)
 80044e8:	681b      	ldr	r3, [r3, #0]
 80044ea:	f003 7300 	and.w	r3, r3, #33554432	@ 0x2000000
 80044ee:	2b00      	cmp	r3, #0
 80044f0:	d1f0      	bne.n	80044d4 <HAL_RCC_OscConfig+0x444>
 80044f2:	e03d      	b.n	8004570 <HAL_RCC_OscConfig+0x4e0>
      }
    }
    else
    {
      /* Check if there is a request to disable the PLL used as System clock source */
      if ((RCC_OscInitStruct->PLL.PLLState) == RCC_PLL_OFF)
 80044f4:	687b      	ldr	r3, [r7, #4]
 80044f6:	699b      	ldr	r3, [r3, #24]
 80044f8:	2b01      	cmp	r3, #1
 80044fa:	d107      	bne.n	800450c <HAL_RCC_OscConfig+0x47c>
      {
        return HAL_ERROR;
 80044fc:	2301      	movs	r3, #1
 80044fe:	e038      	b.n	8004572 <HAL_RCC_OscConfig+0x4e2>
 8004500:	40023800 	.word	0x40023800
 8004504:	40007000 	.word	0x40007000
 8004508:	42470060 	.word	0x42470060
      }
      else
      {
        /* Do not return HAL_ERROR if request repeats the current configuration */
        pll_config = RCC->PLLCFGR;
 800450c:	4b1b      	ldr	r3, [pc, #108]	@ (800457c <HAL_RCC_OscConfig+0x4ec>)
 800450e:	685b      	ldr	r3, [r3, #4]
 8004510:	60fb      	str	r3, [r7, #12]
            (READ_BIT(pll_config, RCC_PLLCFGR_PLLN) != (RCC_OscInitStruct->PLL.PLLN) << RCC_PLLCFGR_PLLN_Pos) ||
            (READ_BIT(pll_config, RCC_PLLCFGR_PLLP) != (((RCC_OscInitStruct->PLL.PLLP >> 1U) - 1U)) << RCC_PLLCFGR_PLLP_Pos) ||
            (READ_BIT(pll_config, RCC_PLLCFGR_PLLQ) != (RCC_OscInitStruct->PLL.PLLQ << RCC_PLLCFGR_PLLQ_Pos)) ||
            (READ_BIT(pll_config, RCC_PLLCFGR_PLLR) != (RCC_OscInitStruct->PLL.PLLR << RCC_PLLCFGR_PLLR_Pos)))
#else
        if (((RCC_OscInitStruct->PLL.PLLState) == RCC_PLL_OFF) ||
 8004512:	687b      	ldr	r3, [r7, #4]
 8004514:	699b      	ldr	r3, [r3, #24]
 8004516:	2b01      	cmp	r3, #1
 8004518:	d028      	beq.n	800456c <HAL_RCC_OscConfig+0x4dc>
            (READ_BIT(pll_config, RCC_PLLCFGR_PLLSRC) != RCC_OscInitStruct->PLL.PLLSource) ||
 800451a:	68fb      	ldr	r3, [r7, #12]
 800451c:	f403 0280 	and.w	r2, r3, #4194304	@ 0x400000
 8004520:	687b      	ldr	r3, [r7, #4]
 8004522:	69db      	ldr	r3, [r3, #28]
        if (((RCC_OscInitStruct->PLL.PLLState) == RCC_PLL_OFF) ||
 8004524:	429a      	cmp	r2, r3
 8004526:	d121      	bne.n	800456c <HAL_RCC_OscConfig+0x4dc>
            (READ_BIT(pll_config, RCC_PLLCFGR_PLLM) != (RCC_OscInitStruct->PLL.PLLM) << RCC_PLLCFGR_PLLM_Pos) ||
 8004528:	68fb      	ldr	r3, [r7, #12]
 800452a:	f003 023f 	and.w	r2, r3, #63	@ 0x3f
 800452e:	687b      	ldr	r3, [r7, #4]
 8004530:	6a1b      	ldr	r3, [r3, #32]
            (READ_BIT(pll_config, RCC_PLLCFGR_PLLSRC) != RCC_OscInitStruct->PLL.PLLSource) ||
 8004532:	429a      	cmp	r2, r3
 8004534:	d11a      	bne.n	800456c <HAL_RCC_OscConfig+0x4dc>
            (READ_BIT(pll_config, RCC_PLLCFGR_PLLN) != (RCC_OscInitStruct->PLL.PLLN) << RCC_PLLCFGR_PLLN_Pos) ||
 8004536:	68fa      	ldr	r2, [r7, #12]
 8004538:	f647 73c0 	movw	r3, #32704	@ 0x7fc0
 800453c:	4013      	ands	r3, r2
 800453e:	687a      	ldr	r2, [r7, #4]
 8004540:	6a52      	ldr	r2, [r2, #36]	@ 0x24
 8004542:	0192      	lsls	r2, r2, #6
            (READ_BIT(pll_config, RCC_PLLCFGR_PLLM) != (RCC_OscInitStruct->PLL.PLLM) << RCC_PLLCFGR_PLLM_Pos) ||
 8004544:	4293      	cmp	r3, r2
 8004546:	d111      	bne.n	800456c <HAL_RCC_OscConfig+0x4dc>
            (READ_BIT(pll_config, RCC_PLLCFGR_PLLP) != (((RCC_OscInitStruct->PLL.PLLP >> 1U) - 1U)) << RCC_PLLCFGR_PLLP_Pos) ||
 8004548:	68fb      	ldr	r3, [r7, #12]
 800454a:	f403 3240 	and.w	r2, r3, #196608	@ 0x30000
 800454e:	687b      	ldr	r3, [r7, #4]
 8004550:	6a9b      	ldr	r3, [r3, #40]	@ 0x28
 8004552:	085b      	lsrs	r3, r3, #1
 8004554:	3b01      	subs	r3, #1
 8004556:	041b      	lsls	r3, r3, #16
            (READ_BIT(pll_config, RCC_PLLCFGR_PLLN) != (RCC_OscInitStruct->PLL.PLLN) << RCC_PLLCFGR_PLLN_Pos) ||
 8004558:	429a      	cmp	r2, r3
 800455a:	d107      	bne.n	800456c <HAL_RCC_OscConfig+0x4dc>
            (READ_BIT(pll_config, RCC_PLLCFGR_PLLQ) != (RCC_OscInitStruct->PLL.PLLQ << RCC_PLLCFGR_PLLQ_Pos)))
 800455c:	68fb      	ldr	r3, [r7, #12]
 800455e:	f003 6270 	and.w	r2, r3, #251658240	@ 0xf000000
 8004562:	687b      	ldr	r3, [r7, #4]
 8004564:	6adb      	ldr	r3, [r3, #44]	@ 0x2c
 8004566:	061b      	lsls	r3, r3, #24
            (READ_BIT(pll_config, RCC_PLLCFGR_PLLP) != (((RCC_OscInitStruct->PLL.PLLP >> 1U) - 1U)) << RCC_PLLCFGR_PLLP_Pos) ||
 8004568:	429a      	cmp	r2, r3
 800456a:	d001      	beq.n	8004570 <HAL_RCC_OscConfig+0x4e0>
#endif /* RCC_PLLCFGR_PLLR */
        {
          return HAL_ERROR;
 800456c:	2301      	movs	r3, #1
 800456e:	e000      	b.n	8004572 <HAL_RCC_OscConfig+0x4e2>
        }
      }
    }
  }
  return HAL_OK;
 8004570:	2300      	movs	r3, #0
}
 8004572:	4618      	mov	r0, r3
 8004574:	3718      	adds	r7, #24
 8004576:	46bd      	mov	sp, r7
 8004578:	bd80      	pop	{r7, pc}
 800457a:	bf00      	nop
 800457c:	40023800 	.word	0x40023800

08004580 <HAL_RCC_ClockConfig>:
  *         HPRE[3:0] bits to ensure that HCLK not exceed the maximum allowed frequency
  *         (for more details refer to section above "Initialization/de-initialization functions")
  * @retval None
  */
HAL_StatusTypeDef HAL_RCC_ClockConfig(const RCC_ClkInitTypeDef  *RCC_ClkInitStruct, uint32_t FLatency)
{
 8004580:	b580      	push	{r7, lr}
 8004582:	b084      	sub	sp, #16
 8004584:	af00      	add	r7, sp, #0
 8004586:	6078      	str	r0, [r7, #4]
 8004588:	6039      	str	r1, [r7, #0]
  uint32_t tickstart;

  /* Check Null pointer */
  if (RCC_ClkInitStruct == NULL)
 800458a:	687b      	ldr	r3, [r7, #4]
 800458c:	2b00      	cmp	r3, #0
 800458e:	d101      	bne.n	8004594 <HAL_RCC_ClockConfig+0x14>
  {
    return HAL_ERROR;
 8004590:	2301      	movs	r3, #1
 8004592:	e0cc      	b.n	800472e <HAL_RCC_ClockConfig+0x1ae>
  /* To correctly read data from FLASH memory, the number of wait states (LATENCY)
    must be correctly programmed according to the frequency of the CPU clock
    (HCLK) and the supply voltage of the device. */

  /* Increasing the number of wait states because of higher CPU frequency */
  if (FLatency > __HAL_FLASH_GET_LATENCY())
 8004594:	4b68      	ldr	r3, [pc, #416]	@ (8004738 <HAL_RCC_ClockConfig+0x1b8>)
 8004596:	681b      	ldr	r3, [r3, #0]
 8004598:	f003 0307 	and.w	r3, r3, #7
 800459c:	683a      	ldr	r2, [r7, #0]
 800459e:	429a      	cmp	r2, r3
 80045a0:	d90c      	bls.n	80045bc <HAL_RCC_ClockConfig+0x3c>
  {
    /* Program the new number of wait states to the LATENCY bits in the FLASH_ACR register */
    __HAL_FLASH_SET_LATENCY(FLatency);
 80045a2:	4b65      	ldr	r3, [pc, #404]	@ (8004738 <HAL_RCC_ClockConfig+0x1b8>)
 80045a4:	683a      	ldr	r2, [r7, #0]
 80045a6:	b2d2      	uxtb	r2, r2
 80045a8:	701a      	strb	r2, [r3, #0]

    /* Check that the new number of wait states is taken into account to access the Flash
    memory by reading the FLASH_ACR register */
    if (__HAL_FLASH_GET_LATENCY() != FLatency)
 80045aa:	4b63      	ldr	r3, [pc, #396]	@ (8004738 <HAL_RCC_ClockConfig+0x1b8>)
 80045ac:	681b      	ldr	r3, [r3, #0]
 80045ae:	f003 0307 	and.w	r3, r3, #7
 80045b2:	683a      	ldr	r2, [r7, #0]
 80045b4:	429a      	cmp	r2, r3
 80045b6:	d001      	beq.n	80045bc <HAL_RCC_ClockConfig+0x3c>
    {
      return HAL_ERROR;
 80045b8:	2301      	movs	r3, #1
 80045ba:	e0b8      	b.n	800472e <HAL_RCC_ClockConfig+0x1ae>
    }
  }

  /*-------------------------- HCLK Configuration --------------------------*/
  if (((RCC_ClkInitStruct->ClockType) & RCC_CLOCKTYPE_HCLK) == RCC_CLOCKTYPE_HCLK)
 80045bc:	687b      	ldr	r3, [r7, #4]
 80045be:	681b      	ldr	r3, [r3, #0]
 80045c0:	f003 0302 	and.w	r3, r3, #2
 80045c4:	2b00      	cmp	r3, #0
 80045c6:	d020      	beq.n	800460a <HAL_RCC_ClockConfig+0x8a>
  {
    /* Set the highest APBx dividers in order to ensure that we do not go through
       a non-spec phase whatever we decrease or increase HCLK. */
    if (((RCC_ClkInitStruct->ClockType) & RCC_CLOCKTYPE_PCLK1) == RCC_CLOCKTYPE_PCLK1)
 80045c8:	687b      	ldr	r3, [r7, #4]
 80045ca:	681b      	ldr	r3, [r3, #0]
 80045cc:	f003 0304 	and.w	r3, r3, #4
 80045d0:	2b00      	cmp	r3, #0
 80045d2:	d005      	beq.n	80045e0 <HAL_RCC_ClockConfig+0x60>
    {
      MODIFY_REG(RCC->CFGR, RCC_CFGR_PPRE1, RCC_HCLK_DIV16);
 80045d4:	4b59      	ldr	r3, [pc, #356]	@ (800473c <HAL_RCC_ClockConfig+0x1bc>)
 80045d6:	689b      	ldr	r3, [r3, #8]
 80045d8:	4a58      	ldr	r2, [pc, #352]	@ (800473c <HAL_RCC_ClockConfig+0x1bc>)
 80045da:	f443 53e0 	orr.w	r3, r3, #7168	@ 0x1c00
 80045de:	6093      	str	r3, [r2, #8]
    }

    if (((RCC_ClkInitStruct->ClockType) & RCC_CLOCKTYPE_PCLK2) == RCC_CLOCKTYPE_PCLK2)
 80045e0:	687b      	ldr	r3, [r7, #4]
 80045e2:	681b      	ldr	r3, [r3, #0]
 80045e4:	f003 0308 	and.w	r3, r3, #8
 80045e8:	2b00      	cmp	r3, #0
 80045ea:	d005      	beq.n	80045f8 <HAL_RCC_ClockConfig+0x78>
    {
      MODIFY_REG(RCC->CFGR, RCC_CFGR_PPRE2, (RCC_HCLK_DIV16 << 3));
 80045ec:	4b53      	ldr	r3, [pc, #332]	@ (800473c <HAL_RCC_ClockConfig+0x1bc>)
 80045ee:	689b      	ldr	r3, [r3, #8]
 80045f0:	4a52      	ldr	r2, [pc, #328]	@ (800473c <HAL_RCC_ClockConfig+0x1bc>)
 80045f2:	f443 4360 	orr.w	r3, r3, #57344	@ 0xe000
 80045f6:	6093      	str	r3, [r2, #8]
    }

    assert_param(IS_RCC_HCLK(RCC_ClkInitStruct->AHBCLKDivider));
    MODIFY_REG(RCC->CFGR, RCC_CFGR_HPRE, RCC_ClkInitStruct->AHBCLKDivider);
 80045f8:	4b50      	ldr	r3, [pc, #320]	@ (800473c <HAL_RCC_ClockConfig+0x1bc>)
 80045fa:	689b      	ldr	r3, [r3, #8]
 80045fc:	f023 02f0 	bic.w	r2, r3, #240	@ 0xf0
 8004600:	687b      	ldr	r3, [r7, #4]
 8004602:	689b      	ldr	r3, [r3, #8]
 8004604:	494d      	ldr	r1, [pc, #308]	@ (800473c <HAL_RCC_ClockConfig+0x1bc>)
 8004606:	4313      	orrs	r3, r2
 8004608:	608b      	str	r3, [r1, #8]
  }

  /*------------------------- SYSCLK Configuration ---------------------------*/
  if (((RCC_ClkInitStruct->ClockType) & RCC_CLOCKTYPE_SYSCLK) == RCC_CLOCKTYPE_SYSCLK)
 800460a:	687b      	ldr	r3, [r7, #4]
 800460c:	681b      	ldr	r3, [r3, #0]
 800460e:	f003 0301 	and.w	r3, r3, #1
 8004612:	2b00      	cmp	r3, #0
 8004614:	d044      	beq.n	80046a0 <HAL_RCC_ClockConfig+0x120>
  {
    assert_param(IS_RCC_SYSCLKSOURCE(RCC_ClkInitStruct->SYSCLKSource));

    /* HSE is selected as System Clock Source */
    if (RCC_ClkInitStruct->SYSCLKSource == RCC_SYSCLKSOURCE_HSE)
 8004616:	687b      	ldr	r3, [r7, #4]
 8004618:	685b      	ldr	r3, [r3, #4]
 800461a:	2b01      	cmp	r3, #1
 800461c:	d107      	bne.n	800462e <HAL_RCC_ClockConfig+0xae>
    {
      /* Check the HSE ready flag */
      if (__HAL_RCC_GET_FLAG(RCC_FLAG_HSERDY) == RESET)
 800461e:	4b47      	ldr	r3, [pc, #284]	@ (800473c <HAL_RCC_ClockConfig+0x1bc>)
 8004620:	681b      	ldr	r3, [r3, #0]
 8004622:	f403 3300 	and.w	r3, r3, #131072	@ 0x20000
 8004626:	2b00      	cmp	r3, #0
 8004628:	d119      	bne.n	800465e <HAL_RCC_ClockConfig+0xde>
      {
        return HAL_ERROR;
 800462a:	2301      	movs	r3, #1
 800462c:	e07f      	b.n	800472e <HAL_RCC_ClockConfig+0x1ae>
      }
    }
    /* PLL is selected as System Clock Source */
    else if ((RCC_ClkInitStruct->SYSCLKSource == RCC_SYSCLKSOURCE_PLLCLK)   ||
 800462e:	687b      	ldr	r3, [r7, #4]
 8004630:	685b      	ldr	r3, [r3, #4]
 8004632:	2b02      	cmp	r3, #2
 8004634:	d003      	beq.n	800463e <HAL_RCC_ClockConfig+0xbe>
             (RCC_ClkInitStruct->SYSCLKSource == RCC_SYSCLKSOURCE_PLLRCLK))
 8004636:	687b      	ldr	r3, [r7, #4]
 8004638:	685b      	ldr	r3, [r3, #4]
    else if ((RCC_ClkInitStruct->SYSCLKSource == RCC_SYSCLKSOURCE_PLLCLK)   ||
 800463a:	2b03      	cmp	r3, #3
 800463c:	d107      	bne.n	800464e <HAL_RCC_ClockConfig+0xce>
    {
      /* Check the PLL ready flag */
      if (__HAL_RCC_GET_FLAG(RCC_FLAG_PLLRDY) == RESET)
 800463e:	4b3f      	ldr	r3, [pc, #252]	@ (800473c <HAL_RCC_ClockConfig+0x1bc>)
 8004640:	681b      	ldr	r3, [r3, #0]
 8004642:	f003 7300 	and.w	r3, r3, #33554432	@ 0x2000000
 8004646:	2b00      	cmp	r3, #0
 8004648:	d109      	bne.n	800465e <HAL_RCC_ClockConfig+0xde>
      {
        return HAL_ERROR;
 800464a:	2301      	movs	r3, #1
 800464c:	e06f      	b.n	800472e <HAL_RCC_ClockConfig+0x1ae>
    }
    /* HSI is selected as System Clock Source */
    else
    {
      /* Check the HSI ready flag */
      if (__HAL_RCC_GET_FLAG(RCC_FLAG_HSIRDY) == RESET)
 800464e:	4b3b      	ldr	r3, [pc, #236]	@ (800473c <HAL_RCC_ClockConfig+0x1bc>)
 8004650:	681b      	ldr	r3, [r3, #0]
 8004652:	f003 0302 	and.w	r3, r3, #2
 8004656:	2b00      	cmp	r3, #0
 8004658:	d101      	bne.n	800465e <HAL_RCC_ClockConfig+0xde>
      {
        return HAL_ERROR;
 800465a:	2301      	movs	r3, #1
 800465c:	e067      	b.n	800472e <HAL_RCC_ClockConfig+0x1ae>
      }
    }

    __HAL_RCC_SYSCLK_CONFIG(RCC_ClkInitStruct->SYSCLKSource);
 800465e:	4b37      	ldr	r3, [pc, #220]	@ (800473c <HAL_RCC_ClockConfig+0x1bc>)
 8004660:	689b      	ldr	r3, [r3, #8]
 8004662:	f023 0203 	bic.w	r2, r3, #3
 8004666:	687b      	ldr	r3, [r7, #4]
 8004668:	685b      	ldr	r3, [r3, #4]
 800466a:	4934      	ldr	r1, [pc, #208]	@ (800473c <HAL_RCC_ClockConfig+0x1bc>)
 800466c:	4313      	orrs	r3, r2
 800466e:	608b      	str	r3, [r1, #8]

    /* Get Start Tick */
    tickstart = HAL_GetTick();
 8004670:	f7fe f95e 	bl	8002930 <HAL_GetTick>
 8004674:	60f8      	str	r0, [r7, #12]

    while (__HAL_RCC_GET_SYSCLK_SOURCE() != (RCC_ClkInitStruct->SYSCLKSource << RCC_CFGR_SWS_Pos))
 8004676:	e00a      	b.n	800468e <HAL_RCC_ClockConfig+0x10e>
    {
      if ((HAL_GetTick() - tickstart) > CLOCKSWITCH_TIMEOUT_VALUE)
 8004678:	f7fe f95a 	bl	8002930 <HAL_GetTick>
 800467c:	4602      	mov	r2, r0
 800467e:	68fb      	ldr	r3, [r7, #12]
 8004680:	1ad3      	subs	r3, r2, r3
 8004682:	f241 3288 	movw	r2, #5000	@ 0x1388
 8004686:	4293      	cmp	r3, r2
 8004688:	d901      	bls.n	800468e <HAL_RCC_ClockConfig+0x10e>
      {
        return HAL_TIMEOUT;
 800468a:	2303      	movs	r3, #3
 800468c:	e04f      	b.n	800472e <HAL_RCC_ClockConfig+0x1ae>
    while (__HAL_RCC_GET_SYSCLK_SOURCE() != (RCC_ClkInitStruct->SYSCLKSource << RCC_CFGR_SWS_Pos))
 800468e:	4b2b      	ldr	r3, [pc, #172]	@ (800473c <HAL_RCC_ClockConfig+0x1bc>)
 8004690:	689b      	ldr	r3, [r3, #8]
 8004692:	f003 020c 	and.w	r2, r3, #12
 8004696:	687b      	ldr	r3, [r7, #4]
 8004698:	685b      	ldr	r3, [r3, #4]
 800469a:	009b      	lsls	r3, r3, #2
 800469c:	429a      	cmp	r2, r3
 800469e:	d1eb      	bne.n	8004678 <HAL_RCC_ClockConfig+0xf8>
      }
    }
  }

  /* Decreasing the number of wait states because of lower CPU frequency */
  if (FLatency < __HAL_FLASH_GET_LATENCY())
 80046a0:	4b25      	ldr	r3, [pc, #148]	@ (8004738 <HAL_RCC_ClockConfig+0x1b8>)
 80046a2:	681b      	ldr	r3, [r3, #0]
 80046a4:	f003 0307 	and.w	r3, r3, #7
 80046a8:	683a      	ldr	r2, [r7, #0]
 80046aa:	429a      	cmp	r2, r3
 80046ac:	d20c      	bcs.n	80046c8 <HAL_RCC_ClockConfig+0x148>
  {
    /* Program the new number of wait states to the LATENCY bits in the FLASH_ACR register */
    __HAL_FLASH_SET_LATENCY(FLatency);
 80046ae:	4b22      	ldr	r3, [pc, #136]	@ (8004738 <HAL_RCC_ClockConfig+0x1b8>)
 80046b0:	683a      	ldr	r2, [r7, #0]
 80046b2:	b2d2      	uxtb	r2, r2
 80046b4:	701a      	strb	r2, [r3, #0]

    /* Check that the new number of wait states is taken into account to access the Flash
    memory by reading the FLASH_ACR register */
    if (__HAL_FLASH_GET_LATENCY() != FLatency)
 80046b6:	4b20      	ldr	r3, [pc, #128]	@ (8004738 <HAL_RCC_ClockConfig+0x1b8>)
 80046b8:	681b      	ldr	r3, [r3, #0]
 80046ba:	f003 0307 	and.w	r3, r3, #7
 80046be:	683a      	ldr	r2, [r7, #0]
 80046c0:	429a      	cmp	r2, r3
 80046c2:	d001      	beq.n	80046c8 <HAL_RCC_ClockConfig+0x148>
    {
      return HAL_ERROR;
 80046c4:	2301      	movs	r3, #1
 80046c6:	e032      	b.n	800472e <HAL_RCC_ClockConfig+0x1ae>
    }
  }

  /*-------------------------- PCLK1 Configuration ---------------------------*/
  if (((RCC_ClkInitStruct->ClockType) & RCC_CLOCKTYPE_PCLK1) == RCC_CLOCKTYPE_PCLK1)
 80046c8:	687b      	ldr	r3, [r7, #4]
 80046ca:	681b      	ldr	r3, [r3, #0]
 80046cc:	f003 0304 	and.w	r3, r3, #4
 80046d0:	2b00      	cmp	r3, #0
 80046d2:	d008      	beq.n	80046e6 <HAL_RCC_ClockConfig+0x166>
  {
    assert_param(IS_RCC_PCLK(RCC_ClkInitStruct->APB1CLKDivider));
    MODIFY_REG(RCC->CFGR, RCC_CFGR_PPRE1, RCC_ClkInitStruct->APB1CLKDivider);
 80046d4:	4b19      	ldr	r3, [pc, #100]	@ (800473c <HAL_RCC_ClockConfig+0x1bc>)
 80046d6:	689b      	ldr	r3, [r3, #8]
 80046d8:	f423 52e0 	bic.w	r2, r3, #7168	@ 0x1c00
 80046dc:	687b      	ldr	r3, [r7, #4]
 80046de:	68db      	ldr	r3, [r3, #12]
 80046e0:	4916      	ldr	r1, [pc, #88]	@ (800473c <HAL_RCC_ClockConfig+0x1bc>)
 80046e2:	4313      	orrs	r3, r2
 80046e4:	608b      	str	r3, [r1, #8]
  }

  /*-------------------------- PCLK2 Configuration ---------------------------*/
  if (((RCC_ClkInitStruct->ClockType) & RCC_CLOCKTYPE_PCLK2) == RCC_CLOCKTYPE_PCLK2)
 80046e6:	687b      	ldr	r3, [r7, #4]
 80046e8:	681b      	ldr	r3, [r3, #0]
 80046ea:	f003 0308 	and.w	r3, r3, #8
 80046ee:	2b00      	cmp	r3, #0
 80046f0:	d009      	beq.n	8004706 <HAL_RCC_ClockConfig+0x186>
  {
    assert_param(IS_RCC_PCLK(RCC_ClkInitStruct->APB2CLKDivider));
    MODIFY_REG(RCC->CFGR, RCC_CFGR_PPRE2, ((RCC_ClkInitStruct->APB2CLKDivider) << 3U));
 80046f2:	4b12      	ldr	r3, [pc, #72]	@ (800473c <HAL_RCC_ClockConfig+0x1bc>)
 80046f4:	689b      	ldr	r3, [r3, #8]
 80046f6:	f423 4260 	bic.w	r2, r3, #57344	@ 0xe000
 80046fa:	687b      	ldr	r3, [r7, #4]
 80046fc:	691b      	ldr	r3, [r3, #16]
 80046fe:	00db      	lsls	r3, r3, #3
 8004700:	490e      	ldr	r1, [pc, #56]	@ (800473c <HAL_RCC_ClockConfig+0x1bc>)
 8004702:	4313      	orrs	r3, r2
 8004704:	608b      	str	r3, [r1, #8]
  }

  /* Update the SystemCoreClock global variable */
  SystemCoreClock = HAL_RCC_GetSysClockFreq() >> AHBPrescTable[(RCC->CFGR & RCC_CFGR_HPRE) >> RCC_CFGR_HPRE_Pos];
 8004706:	f000 f821 	bl	800474c <HAL_RCC_GetSysClockFreq>
 800470a:	4602      	mov	r2, r0
 800470c:	4b0b      	ldr	r3, [pc, #44]	@ (800473c <HAL_RCC_ClockConfig+0x1bc>)
 800470e:	689b      	ldr	r3, [r3, #8]
 8004710:	091b      	lsrs	r3, r3, #4
 8004712:	f003 030f 	and.w	r3, r3, #15
 8004716:	490a      	ldr	r1, [pc, #40]	@ (8004740 <HAL_RCC_ClockConfig+0x1c0>)
 8004718:	5ccb      	ldrb	r3, [r1, r3]
 800471a:	fa22 f303 	lsr.w	r3, r2, r3
 800471e:	4a09      	ldr	r2, [pc, #36]	@ (8004744 <HAL_RCC_ClockConfig+0x1c4>)
 8004720:	6013      	str	r3, [r2, #0]

  /* Configure the source of time base considering new system clocks settings */
  HAL_InitTick(uwTickPrio);
 8004722:	4b09      	ldr	r3, [pc, #36]	@ (8004748 <HAL_RCC_ClockConfig+0x1c8>)
 8004724:	681b      	ldr	r3, [r3, #0]
 8004726:	4618      	mov	r0, r3
 8004728:	f7fe f8be 	bl	80028a8 <HAL_InitTick>

  return HAL_OK;
 800472c:	2300      	movs	r3, #0
}
 800472e:	4618      	mov	r0, r3
 8004730:	3710      	adds	r7, #16
 8004732:	46bd      	mov	sp, r7
 8004734:	bd80      	pop	{r7, pc}
 8004736:	bf00      	nop
 8004738:	40023c00 	.word	0x40023c00
 800473c:	40023800 	.word	0x40023800
 8004740:	08009a2c 	.word	0x08009a2c
 8004744:	20000004 	.word	0x20000004
 8004748:	20000008 	.word	0x20000008

0800474c <HAL_RCC_GetSysClockFreq>:
  *
  *
  * @retval SYSCLK frequency
  */
__weak uint32_t HAL_RCC_GetSysClockFreq(void)
{
 800474c:	e92d 4fb0 	stmdb	sp!, {r4, r5, r7, r8, r9, sl, fp, lr}
 8004750:	b090      	sub	sp, #64	@ 0x40
 8004752:	af00      	add	r7, sp, #0
  uint32_t pllm = 0U;
 8004754:	2300      	movs	r3, #0
 8004756:	637b      	str	r3, [r7, #52]	@ 0x34
  uint32_t pllvco = 0U;
 8004758:	2300      	movs	r3, #0
 800475a:	63fb      	str	r3, [r7, #60]	@ 0x3c
  uint32_t pllp = 0U;
 800475c:	2300      	movs	r3, #0
 800475e:	633b      	str	r3, [r7, #48]	@ 0x30
  uint32_t sysclockfreq = 0U;
 8004760:	2300      	movs	r3, #0
 8004762:	63bb      	str	r3, [r7, #56]	@ 0x38

  /* Get SYSCLK source -------------------------------------------------------*/
  switch (RCC->CFGR & RCC_CFGR_SWS)
 8004764:	4b59      	ldr	r3, [pc, #356]	@ (80048cc <HAL_RCC_GetSysClockFreq+0x180>)
 8004766:	689b      	ldr	r3, [r3, #8]
 8004768:	f003 030c 	and.w	r3, r3, #12
 800476c:	2b08      	cmp	r3, #8
 800476e:	d00d      	beq.n	800478c <HAL_RCC_GetSysClockFreq+0x40>
 8004770:	2b08      	cmp	r3, #8
 8004772:	f200 80a1 	bhi.w	80048b8 <HAL_RCC_GetSysClockFreq+0x16c>
 8004776:	2b00      	cmp	r3, #0
 8004778:	d002      	beq.n	8004780 <HAL_RCC_GetSysClockFreq+0x34>
 800477a:	2b04      	cmp	r3, #4
 800477c:	d003      	beq.n	8004786 <HAL_RCC_GetSysClockFreq+0x3a>
 800477e:	e09b      	b.n	80048b8 <HAL_RCC_GetSysClockFreq+0x16c>
  {
    case RCC_CFGR_SWS_HSI:  /* HSI used as system clock source */
    {
      sysclockfreq = HSI_VALUE;
 8004780:	4b53      	ldr	r3, [pc, #332]	@ (80048d0 <HAL_RCC_GetSysClockFreq+0x184>)
 8004782:	63bb      	str	r3, [r7, #56]	@ 0x38
      break;
 8004784:	e09b      	b.n	80048be <HAL_RCC_GetSysClockFreq+0x172>
    }
    case RCC_CFGR_SWS_HSE:  /* HSE used as system clock  source */
    {
      sysclockfreq = HSE_VALUE;
 8004786:	4b53      	ldr	r3, [pc, #332]	@ (80048d4 <HAL_RCC_GetSysClockFreq+0x188>)
 8004788:	63bb      	str	r3, [r7, #56]	@ 0x38
      break;
 800478a:	e098      	b.n	80048be <HAL_RCC_GetSysClockFreq+0x172>
    }
    case RCC_CFGR_SWS_PLL:  /* PLL used as system clock  source */
    {
      /* PLL_VCO = (HSE_VALUE or HSI_VALUE / PLLM) * PLLN
      SYSCLK = PLL_VCO / PLLP */
      pllm = RCC->PLLCFGR & RCC_PLLCFGR_PLLM;
 800478c:	4b4f      	ldr	r3, [pc, #316]	@ (80048cc <HAL_RCC_GetSysClockFreq+0x180>)
 800478e:	685b      	ldr	r3, [r3, #4]
 8004790:	f003 033f 	and.w	r3, r3, #63	@ 0x3f
 8004794:	637b      	str	r3, [r7, #52]	@ 0x34
      if (__HAL_RCC_GET_PLL_OSCSOURCE() != RCC_PLLSOURCE_HSI)
 8004796:	4b4d      	ldr	r3, [pc, #308]	@ (80048cc <HAL_RCC_GetSysClockFreq+0x180>)
 8004798:	685b      	ldr	r3, [r3, #4]
 800479a:	f403 0380 	and.w	r3, r3, #4194304	@ 0x400000
 800479e:	2b00      	cmp	r3, #0
 80047a0:	d028      	beq.n	80047f4 <HAL_RCC_GetSysClockFreq+0xa8>
      {
        /* HSE used as PLL clock source */
        pllvco = (uint32_t)((((uint64_t) HSE_VALUE * ((uint64_t)((RCC->PLLCFGR & RCC_PLLCFGR_PLLN) >> RCC_PLLCFGR_PLLN_Pos)))) / (uint64_t)pllm);
 80047a2:	4b4a      	ldr	r3, [pc, #296]	@ (80048cc <HAL_RCC_GetSysClockFreq+0x180>)
 80047a4:	685b      	ldr	r3, [r3, #4]
 80047a6:	099b      	lsrs	r3, r3, #6
 80047a8:	2200      	movs	r2, #0
 80047aa:	623b      	str	r3, [r7, #32]
 80047ac:	627a      	str	r2, [r7, #36]	@ 0x24
 80047ae:	6a3b      	ldr	r3, [r7, #32]
 80047b0:	f3c3 0008 	ubfx	r0, r3, #0, #9
 80047b4:	2100      	movs	r1, #0
 80047b6:	4b47      	ldr	r3, [pc, #284]	@ (80048d4 <HAL_RCC_GetSysClockFreq+0x188>)
 80047b8:	fb03 f201 	mul.w	r2, r3, r1
 80047bc:	2300      	movs	r3, #0
 80047be:	fb00 f303 	mul.w	r3, r0, r3
 80047c2:	4413      	add	r3, r2
 80047c4:	4a43      	ldr	r2, [pc, #268]	@ (80048d4 <HAL_RCC_GetSysClockFreq+0x188>)
 80047c6:	fba0 1202 	umull	r1, r2, r0, r2
 80047ca:	62fa      	str	r2, [r7, #44]	@ 0x2c
 80047cc:	460a      	mov	r2, r1
 80047ce:	62ba      	str	r2, [r7, #40]	@ 0x28
 80047d0:	6afa      	ldr	r2, [r7, #44]	@ 0x2c
 80047d2:	4413      	add	r3, r2
 80047d4:	62fb      	str	r3, [r7, #44]	@ 0x2c
 80047d6:	6b7b      	ldr	r3, [r7, #52]	@ 0x34
 80047d8:	2200      	movs	r2, #0
 80047da:	61bb      	str	r3, [r7, #24]
 80047dc:	61fa      	str	r2, [r7, #28]
 80047de:	e9d7 2306 	ldrd	r2, r3, [r7, #24]
 80047e2:	e9d7 010a 	ldrd	r0, r1, [r7, #40]	@ 0x28
 80047e6:	f7fc fa57 	bl	8000c98 <__aeabi_uldivmod>
 80047ea:	4602      	mov	r2, r0
 80047ec:	460b      	mov	r3, r1
 80047ee:	4613      	mov	r3, r2
 80047f0:	63fb      	str	r3, [r7, #60]	@ 0x3c
 80047f2:	e053      	b.n	800489c <HAL_RCC_GetSysClockFreq+0x150>
      }
      else
      {
        /* HSI used as PLL clock source */
        pllvco = (uint32_t)((((uint64_t) HSI_VALUE * ((uint64_t)((RCC->PLLCFGR & RCC_PLLCFGR_PLLN) >> RCC_PLLCFGR_PLLN_Pos)))) / (uint64_t)pllm);
 80047f4:	4b35      	ldr	r3, [pc, #212]	@ (80048cc <HAL_RCC_GetSysClockFreq+0x180>)
 80047f6:	685b      	ldr	r3, [r3, #4]
 80047f8:	099b      	lsrs	r3, r3, #6
 80047fa:	2200      	movs	r2, #0
 80047fc:	613b      	str	r3, [r7, #16]
 80047fe:	617a      	str	r2, [r7, #20]
 8004800:	693b      	ldr	r3, [r7, #16]
 8004802:	f3c3 0a08 	ubfx	sl, r3, #0, #9
 8004806:	f04f 0b00 	mov.w	fp, #0
 800480a:	4652      	mov	r2, sl
 800480c:	465b      	mov	r3, fp
 800480e:	f04f 0000 	mov.w	r0, #0
 8004812:	f04f 0100 	mov.w	r1, #0
 8004816:	0159      	lsls	r1, r3, #5
 8004818:	ea41 61d2 	orr.w	r1, r1, r2, lsr #27
 800481c:	0150      	lsls	r0, r2, #5
 800481e:	4602      	mov	r2, r0
 8004820:	460b      	mov	r3, r1
 8004822:	ebb2 080a 	subs.w	r8, r2, sl
 8004826:	eb63 090b 	sbc.w	r9, r3, fp
 800482a:	f04f 0200 	mov.w	r2, #0
 800482e:	f04f 0300 	mov.w	r3, #0
 8004832:	ea4f 1389 	mov.w	r3, r9, lsl #6
 8004836:	ea43 6398 	orr.w	r3, r3, r8, lsr #26
 800483a:	ea4f 1288 	mov.w	r2, r8, lsl #6
 800483e:	ebb2 0408 	subs.w	r4, r2, r8
 8004842:	eb63 0509 	sbc.w	r5, r3, r9
 8004846:	f04f 0200 	mov.w	r2, #0
 800484a:	f04f 0300 	mov.w	r3, #0
 800484e:	00eb      	lsls	r3, r5, #3
 8004850:	ea43 7354 	orr.w	r3, r3, r4, lsr #29
 8004854:	00e2      	lsls	r2, r4, #3
 8004856:	4614      	mov	r4, r2
 8004858:	461d      	mov	r5, r3
 800485a:	eb14 030a 	adds.w	r3, r4, sl
 800485e:	603b      	str	r3, [r7, #0]
 8004860:	eb45 030b 	adc.w	r3, r5, fp
 8004864:	607b      	str	r3, [r7, #4]
 8004866:	f04f 0200 	mov.w	r2, #0
 800486a:	f04f 0300 	mov.w	r3, #0
 800486e:	e9d7 4500 	ldrd	r4, r5, [r7]
 8004872:	4629      	mov	r1, r5
 8004874:	028b      	lsls	r3, r1, #10
 8004876:	4621      	mov	r1, r4
 8004878:	ea43 5391 	orr.w	r3, r3, r1, lsr #22
 800487c:	4621      	mov	r1, r4
 800487e:	028a      	lsls	r2, r1, #10
 8004880:	4610      	mov	r0, r2
 8004882:	4619      	mov	r1, r3
 8004884:	6b7b      	ldr	r3, [r7, #52]	@ 0x34
 8004886:	2200      	movs	r2, #0
 8004888:	60bb      	str	r3, [r7, #8]
 800488a:	60fa      	str	r2, [r7, #12]
 800488c:	e9d7 2302 	ldrd	r2, r3, [r7, #8]
 8004890:	f7fc fa02 	bl	8000c98 <__aeabi_uldivmod>
 8004894:	4602      	mov	r2, r0
 8004896:	460b      	mov	r3, r1
 8004898:	4613      	mov	r3, r2
 800489a:	63fb      	str	r3, [r7, #60]	@ 0x3c
      }
      pllp = ((((RCC->PLLCFGR & RCC_PLLCFGR_PLLP) >> RCC_PLLCFGR_PLLP_Pos) + 1U) * 2U);
 800489c:	4b0b      	ldr	r3, [pc, #44]	@ (80048cc <HAL_RCC_GetSysClockFreq+0x180>)
 800489e:	685b      	ldr	r3, [r3, #4]
 80048a0:	0c1b      	lsrs	r3, r3, #16
 80048a2:	f003 0303 	and.w	r3, r3, #3
 80048a6:	3301      	adds	r3, #1
 80048a8:	005b      	lsls	r3, r3, #1
 80048aa:	633b      	str	r3, [r7, #48]	@ 0x30

      sysclockfreq = pllvco / pllp;
 80048ac:	6bfa      	ldr	r2, [r7, #60]	@ 0x3c
 80048ae:	6b3b      	ldr	r3, [r7, #48]	@ 0x30
 80048b0:	fbb2 f3f3 	udiv	r3, r2, r3
 80048b4:	63bb      	str	r3, [r7, #56]	@ 0x38
      break;
 80048b6:	e002      	b.n	80048be <HAL_RCC_GetSysClockFreq+0x172>
    }
    default:
    {
      sysclockfreq = HSI_VALUE;
 80048b8:	4b05      	ldr	r3, [pc, #20]	@ (80048d0 <HAL_RCC_GetSysClockFreq+0x184>)
 80048ba:	63bb      	str	r3, [r7, #56]	@ 0x38
      break;
 80048bc:	bf00      	nop
    }
  }
  return sysclockfreq;
 80048be:	6bbb      	ldr	r3, [r7, #56]	@ 0x38
}
 80048c0:	4618      	mov	r0, r3
 80048c2:	3740      	adds	r7, #64	@ 0x40
 80048c4:	46bd      	mov	sp, r7
 80048c6:	e8bd 8fb0 	ldmia.w	sp!, {r4, r5, r7, r8, r9, sl, fp, pc}
 80048ca:	bf00      	nop
 80048cc:	40023800 	.word	0x40023800
 80048d0:	00f42400 	.word	0x00f42400
 80048d4:	017d7840 	.word	0x017d7840

080048d8 <HAL_RCC_GetHCLKFreq>:
  * @note   The SystemCoreClock CMSIS variable is used to store System Clock Frequency
  *         and updated within this function
  * @retval HCLK frequency
  */
uint32_t HAL_RCC_GetHCLKFreq(void)
{
 80048d8:	b480      	push	{r7}
 80048da:	af00      	add	r7, sp, #0
  return SystemCoreClock;
 80048dc:	4b03      	ldr	r3, [pc, #12]	@ (80048ec <HAL_RCC_GetHCLKFreq+0x14>)
 80048de:	681b      	ldr	r3, [r3, #0]
}
 80048e0:	4618      	mov	r0, r3
 80048e2:	46bd      	mov	sp, r7
 80048e4:	f85d 7b04 	ldr.w	r7, [sp], #4
 80048e8:	4770      	bx	lr
 80048ea:	bf00      	nop
 80048ec:	20000004 	.word	0x20000004

080048f0 <HAL_RCC_GetPCLK1Freq>:
  * @note   Each time PCLK1 changes, this function must be called to update the
  *         right PCLK1 value. Otherwise, any configuration based on this function will be incorrect.
  * @retval PCLK1 frequency
  */
uint32_t HAL_RCC_GetPCLK1Freq(void)
{
 80048f0:	b580      	push	{r7, lr}
 80048f2:	af00      	add	r7, sp, #0
  /* Get HCLK source and Compute PCLK1 frequency ---------------------------*/
  return (HAL_RCC_GetHCLKFreq() >> APBPrescTable[(RCC->CFGR & RCC_CFGR_PPRE1) >> RCC_CFGR_PPRE1_Pos]);
 80048f4:	f7ff fff0 	bl	80048d8 <HAL_RCC_GetHCLKFreq>
 80048f8:	4602      	mov	r2, r0
 80048fa:	4b05      	ldr	r3, [pc, #20]	@ (8004910 <HAL_RCC_GetPCLK1Freq+0x20>)
 80048fc:	689b      	ldr	r3, [r3, #8]
 80048fe:	0a9b      	lsrs	r3, r3, #10
 8004900:	f003 0307 	and.w	r3, r3, #7
 8004904:	4903      	ldr	r1, [pc, #12]	@ (8004914 <HAL_RCC_GetPCLK1Freq+0x24>)
 8004906:	5ccb      	ldrb	r3, [r1, r3]
 8004908:	fa22 f303 	lsr.w	r3, r2, r3
}
 800490c:	4618      	mov	r0, r3
 800490e:	bd80      	pop	{r7, pc}
 8004910:	40023800 	.word	0x40023800
 8004914:	08009a3c 	.word	0x08009a3c

08004918 <HAL_RCC_GetPCLK2Freq>:
  * @note   Each time PCLK2 changes, this function must be called to update the
  *         right PCLK2 value. Otherwise, any configuration based on this function will be incorrect.
  * @retval PCLK2 frequency
  */
uint32_t HAL_RCC_GetPCLK2Freq(void)
{
 8004918:	b580      	push	{r7, lr}
 800491a:	af00      	add	r7, sp, #0
  /* Get HCLK source and Compute PCLK2 frequency ---------------------------*/
  return (HAL_RCC_GetHCLKFreq() >> APBPrescTable[(RCC->CFGR & RCC_CFGR_PPRE2) >> RCC_CFGR_PPRE2_Pos]);
 800491c:	f7ff ffdc 	bl	80048d8 <HAL_RCC_GetHCLKFreq>
 8004920:	4602      	mov	r2, r0
 8004922:	4b05      	ldr	r3, [pc, #20]	@ (8004938 <HAL_RCC_GetPCLK2Freq+0x20>)
 8004924:	689b      	ldr	r3, [r3, #8]
 8004926:	0b5b      	lsrs	r3, r3, #13
 8004928:	f003 0307 	and.w	r3, r3, #7
 800492c:	4903      	ldr	r1, [pc, #12]	@ (800493c <HAL_RCC_GetPCLK2Freq+0x24>)
 800492e:	5ccb      	ldrb	r3, [r1, r3]
 8004930:	fa22 f303 	lsr.w	r3, r2, r3
}
 8004934:	4618      	mov	r0, r3
 8004936:	bd80      	pop	{r7, pc}
 8004938:	40023800 	.word	0x40023800
 800493c:	08009a3c 	.word	0x08009a3c

08004940 <HAL_UART_Init>:
  * @param  huart  Pointer to a UART_HandleTypeDef structure that contains
  *                the configuration information for the specified UART module.
  * @retval HAL status
  */
HAL_StatusTypeDef HAL_UART_Init(UART_HandleTypeDef *huart)
{
 8004940:	b580      	push	{r7, lr}
 8004942:	b082      	sub	sp, #8
 8004944:	af00      	add	r7, sp, #0
 8004946:	6078      	str	r0, [r7, #4]
  /* Check the UART handle allocation */
  if (huart == NULL)
 8004948:	687b      	ldr	r3, [r7, #4]
 800494a:	2b00      	cmp	r3, #0
 800494c:	d101      	bne.n	8004952 <HAL_UART_Init+0x12>
  {
    return HAL_ERROR;
 800494e:	2301      	movs	r3, #1
 8004950:	e042      	b.n	80049d8 <HAL_UART_Init+0x98>
    assert_param(IS_UART_INSTANCE(huart->Instance));
  }
  assert_param(IS_UART_WORD_LENGTH(huart->Init.WordLength));
  assert_param(IS_UART_OVERSAMPLING(huart->Init.OverSampling));

  if (huart->gState == HAL_UART_STATE_RESET)
 8004952:	687b      	ldr	r3, [r7, #4]
 8004954:	f893 3041 	ldrb.w	r3, [r3, #65]	@ 0x41
 8004958:	b2db      	uxtb	r3, r3
 800495a:	2b00      	cmp	r3, #0
 800495c:	d106      	bne.n	800496c <HAL_UART_Init+0x2c>
  {
    /* Allocate lock resource and initialize it */
    huart->Lock = HAL_UNLOCKED;
 800495e:	687b      	ldr	r3, [r7, #4]
 8004960:	2200      	movs	r2, #0
 8004962:	f883 2040 	strb.w	r2, [r3, #64]	@ 0x40

    /* Init the low level hardware */
    huart->MspInitCallback(huart);
#else
    /* Init the low level hardware : GPIO, CLOCK */
    HAL_UART_MspInit(huart);
 8004966:	6878      	ldr	r0, [r7, #4]
 8004968:	f7fd fdd8 	bl	800251c <HAL_UART_MspInit>
#endif /* (USE_HAL_UART_REGISTER_CALLBACKS) */
  }

  huart->gState = HAL_UART_STATE_BUSY;
 800496c:	687b      	ldr	r3, [r7, #4]
 800496e:	2224      	movs	r2, #36	@ 0x24
 8004970:	f883 2041 	strb.w	r2, [r3, #65]	@ 0x41

  /* Disable the peripheral */
  __HAL_UART_DISABLE(huart);
 8004974:	687b      	ldr	r3, [r7, #4]
 8004976:	681b      	ldr	r3, [r3, #0]
 8004978:	68da      	ldr	r2, [r3, #12]
 800497a:	687b      	ldr	r3, [r7, #4]
 800497c:	681b      	ldr	r3, [r3, #0]
 800497e:	f422 5200 	bic.w	r2, r2, #8192	@ 0x2000
 8004982:	60da      	str	r2, [r3, #12]

  /* Set the UART Communication parameters */
  UART_SetConfig(huart);
 8004984:	6878      	ldr	r0, [r7, #4]
 8004986:	f000 fdd5 	bl	8005534 <UART_SetConfig>

  /* In asynchronous mode, the following bits must be kept cleared:
     - LINEN and CLKEN bits in the USART_CR2 register,
     - SCEN, HDSEL and IREN  bits in the USART_CR3 register.*/
  CLEAR_BIT(huart->Instance->CR2, (USART_CR2_LINEN | USART_CR2_CLKEN));
 800498a:	687b      	ldr	r3, [r7, #4]
 800498c:	681b      	ldr	r3, [r3, #0]
 800498e:	691a      	ldr	r2, [r3, #16]
 8004990:	687b      	ldr	r3, [r7, #4]
 8004992:	681b      	ldr	r3, [r3, #0]
 8004994:	f422 4290 	bic.w	r2, r2, #18432	@ 0x4800
 8004998:	611a      	str	r2, [r3, #16]
  CLEAR_BIT(huart->Instance->CR3, (USART_CR3_SCEN | USART_CR3_HDSEL | USART_CR3_IREN));
 800499a:	687b      	ldr	r3, [r7, #4]
 800499c:	681b      	ldr	r3, [r3, #0]
 800499e:	695a      	ldr	r2, [r3, #20]
 80049a0:	687b      	ldr	r3, [r7, #4]
 80049a2:	681b      	ldr	r3, [r3, #0]
 80049a4:	f022 022a 	bic.w	r2, r2, #42	@ 0x2a
 80049a8:	615a      	str	r2, [r3, #20]

  /* Enable the peripheral */
  __HAL_UART_ENABLE(huart);
 80049aa:	687b      	ldr	r3, [r7, #4]
 80049ac:	681b      	ldr	r3, [r3, #0]
 80049ae:	68da      	ldr	r2, [r3, #12]
 80049b0:	687b      	ldr	r3, [r7, #4]
 80049b2:	681b      	ldr	r3, [r3, #0]
 80049b4:	f442 5200 	orr.w	r2, r2, #8192	@ 0x2000
 80049b8:	60da      	str	r2, [r3, #12]

  /* Initialize the UART state */
  huart->ErrorCode = HAL_UART_ERROR_NONE;
 80049ba:	687b      	ldr	r3, [r7, #4]
 80049bc:	2200      	movs	r2, #0
 80049be:	645a      	str	r2, [r3, #68]	@ 0x44
  huart->gState = HAL_UART_STATE_READY;
 80049c0:	687b      	ldr	r3, [r7, #4]
 80049c2:	2220      	movs	r2, #32
 80049c4:	f883 2041 	strb.w	r2, [r3, #65]	@ 0x41
  huart->RxState = HAL_UART_STATE_READY;
 80049c8:	687b      	ldr	r3, [r7, #4]
 80049ca:	2220      	movs	r2, #32
 80049cc:	f883 2042 	strb.w	r2, [r3, #66]	@ 0x42
  huart->RxEventType = HAL_UART_RXEVENT_TC;
 80049d0:	687b      	ldr	r3, [r7, #4]
 80049d2:	2200      	movs	r2, #0
 80049d4:	635a      	str	r2, [r3, #52]	@ 0x34

  return HAL_OK;
 80049d6:	2300      	movs	r3, #0
}
 80049d8:	4618      	mov	r0, r3
 80049da:	3708      	adds	r7, #8
 80049dc:	46bd      	mov	sp, r7
 80049de:	bd80      	pop	{r7, pc}

080049e0 <HAL_UART_Transmit>:
  * @param  Size  Amount of data elements (u8 or u16) to be sent
  * @param  Timeout Timeout duration
  * @retval HAL status
  */
HAL_StatusTypeDef HAL_UART_Transmit(UART_HandleTypeDef *huart, const uint8_t *pData, uint16_t Size, uint32_t Timeout)
{
 80049e0:	b580      	push	{r7, lr}
 80049e2:	b08a      	sub	sp, #40	@ 0x28
 80049e4:	af02      	add	r7, sp, #8
 80049e6:	60f8      	str	r0, [r7, #12]
 80049e8:	60b9      	str	r1, [r7, #8]
 80049ea:	603b      	str	r3, [r7, #0]
 80049ec:	4613      	mov	r3, r2
 80049ee:	80fb      	strh	r3, [r7, #6]
  const uint8_t  *pdata8bits;
  const uint16_t *pdata16bits;
  uint32_t tickstart = 0U;
 80049f0:	2300      	movs	r3, #0
 80049f2:	617b      	str	r3, [r7, #20]

  /* Check that a Tx process is not already ongoing */
  if (huart->gState == HAL_UART_STATE_READY)
 80049f4:	68fb      	ldr	r3, [r7, #12]
 80049f6:	f893 3041 	ldrb.w	r3, [r3, #65]	@ 0x41
 80049fa:	b2db      	uxtb	r3, r3
 80049fc:	2b20      	cmp	r3, #32
 80049fe:	d175      	bne.n	8004aec <HAL_UART_Transmit+0x10c>
  {
    if ((pData == NULL) || (Size == 0U))
 8004a00:	68bb      	ldr	r3, [r7, #8]
 8004a02:	2b00      	cmp	r3, #0
 8004a04:	d002      	beq.n	8004a0c <HAL_UART_Transmit+0x2c>
 8004a06:	88fb      	ldrh	r3, [r7, #6]
 8004a08:	2b00      	cmp	r3, #0
 8004a0a:	d101      	bne.n	8004a10 <HAL_UART_Transmit+0x30>
    {
      return  HAL_ERROR;
 8004a0c:	2301      	movs	r3, #1
 8004a0e:	e06e      	b.n	8004aee <HAL_UART_Transmit+0x10e>
    }

    huart->ErrorCode = HAL_UART_ERROR_NONE;
 8004a10:	68fb      	ldr	r3, [r7, #12]
 8004a12:	2200      	movs	r2, #0
 8004a14:	645a      	str	r2, [r3, #68]	@ 0x44
    huart->gState = HAL_UART_STATE_BUSY_TX;
 8004a16:	68fb      	ldr	r3, [r7, #12]
 8004a18:	2221      	movs	r2, #33	@ 0x21
 8004a1a:	f883 2041 	strb.w	r2, [r3, #65]	@ 0x41

    /* Init tickstart for timeout management */
    tickstart = HAL_GetTick();
 8004a1e:	f7fd ff87 	bl	8002930 <HAL_GetTick>
 8004a22:	6178      	str	r0, [r7, #20]

    huart->TxXferSize = Size;
 8004a24:	68fb      	ldr	r3, [r7, #12]
 8004a26:	88fa      	ldrh	r2, [r7, #6]
 8004a28:	849a      	strh	r2, [r3, #36]	@ 0x24
    huart->TxXferCount = Size;
 8004a2a:	68fb      	ldr	r3, [r7, #12]
 8004a2c:	88fa      	ldrh	r2, [r7, #6]
 8004a2e:	84da      	strh	r2, [r3, #38]	@ 0x26

    /* In case of 9bits/No Parity transfer, pData needs to be handled as a uint16_t pointer */
    if ((huart->Init.WordLength == UART_WORDLENGTH_9B) && (huart->Init.Parity == UART_PARITY_NONE))
 8004a30:	68fb      	ldr	r3, [r7, #12]
 8004a32:	689b      	ldr	r3, [r3, #8]
 8004a34:	f5b3 5f80 	cmp.w	r3, #4096	@ 0x1000
 8004a38:	d108      	bne.n	8004a4c <HAL_UART_Transmit+0x6c>
 8004a3a:	68fb      	ldr	r3, [r7, #12]
 8004a3c:	691b      	ldr	r3, [r3, #16]
 8004a3e:	2b00      	cmp	r3, #0
 8004a40:	d104      	bne.n	8004a4c <HAL_UART_Transmit+0x6c>
    {
      pdata8bits  = NULL;
 8004a42:	2300      	movs	r3, #0
 8004a44:	61fb      	str	r3, [r7, #28]
      pdata16bits = (const uint16_t *) pData;
 8004a46:	68bb      	ldr	r3, [r7, #8]
 8004a48:	61bb      	str	r3, [r7, #24]
 8004a4a:	e003      	b.n	8004a54 <HAL_UART_Transmit+0x74>
    }
    else
    {
      pdata8bits  = pData;
 8004a4c:	68bb      	ldr	r3, [r7, #8]
 8004a4e:	61fb      	str	r3, [r7, #28]
      pdata16bits = NULL;
 8004a50:	2300      	movs	r3, #0
 8004a52:	61bb      	str	r3, [r7, #24]
    }

    while (huart->TxXferCount > 0U)
 8004a54:	e02e      	b.n	8004ab4 <HAL_UART_Transmit+0xd4>
    {
      if (UART_WaitOnFlagUntilTimeout(huart, UART_FLAG_TXE, RESET, tickstart, Timeout) != HAL_OK)
 8004a56:	683b      	ldr	r3, [r7, #0]
 8004a58:	9300      	str	r3, [sp, #0]
 8004a5a:	697b      	ldr	r3, [r7, #20]
 8004a5c:	2200      	movs	r2, #0
 8004a5e:	2180      	movs	r1, #128	@ 0x80
 8004a60:	68f8      	ldr	r0, [r7, #12]
 8004a62:	f000 fb39 	bl	80050d8 <UART_WaitOnFlagUntilTimeout>
 8004a66:	4603      	mov	r3, r0
 8004a68:	2b00      	cmp	r3, #0
 8004a6a:	d005      	beq.n	8004a78 <HAL_UART_Transmit+0x98>
      {
        huart->gState = HAL_UART_STATE_READY;
 8004a6c:	68fb      	ldr	r3, [r7, #12]
 8004a6e:	2220      	movs	r2, #32
 8004a70:	f883 2041 	strb.w	r2, [r3, #65]	@ 0x41

        return HAL_TIMEOUT;
 8004a74:	2303      	movs	r3, #3
 8004a76:	e03a      	b.n	8004aee <HAL_UART_Transmit+0x10e>
      }
      if (pdata8bits == NULL)
 8004a78:	69fb      	ldr	r3, [r7, #28]
 8004a7a:	2b00      	cmp	r3, #0
 8004a7c:	d10b      	bne.n	8004a96 <HAL_UART_Transmit+0xb6>
      {
        huart->Instance->DR = (uint16_t)(*pdata16bits & 0x01FFU);
 8004a7e:	69bb      	ldr	r3, [r7, #24]
 8004a80:	881b      	ldrh	r3, [r3, #0]
 8004a82:	461a      	mov	r2, r3
 8004a84:	68fb      	ldr	r3, [r7, #12]
 8004a86:	681b      	ldr	r3, [r3, #0]
 8004a88:	f3c2 0208 	ubfx	r2, r2, #0, #9
 8004a8c:	605a      	str	r2, [r3, #4]
        pdata16bits++;
 8004a8e:	69bb      	ldr	r3, [r7, #24]
 8004a90:	3302      	adds	r3, #2
 8004a92:	61bb      	str	r3, [r7, #24]
 8004a94:	e007      	b.n	8004aa6 <HAL_UART_Transmit+0xc6>
      }
      else
      {
        huart->Instance->DR = (uint8_t)(*pdata8bits & 0xFFU);
 8004a96:	69fb      	ldr	r3, [r7, #28]
 8004a98:	781a      	ldrb	r2, [r3, #0]
 8004a9a:	68fb      	ldr	r3, [r7, #12]
 8004a9c:	681b      	ldr	r3, [r3, #0]
 8004a9e:	605a      	str	r2, [r3, #4]
        pdata8bits++;
 8004aa0:	69fb      	ldr	r3, [r7, #28]
 8004aa2:	3301      	adds	r3, #1
 8004aa4:	61fb      	str	r3, [r7, #28]
      }
      huart->TxXferCount--;
 8004aa6:	68fb      	ldr	r3, [r7, #12]
 8004aa8:	8cdb      	ldrh	r3, [r3, #38]	@ 0x26
 8004aaa:	b29b      	uxth	r3, r3
 8004aac:	3b01      	subs	r3, #1
 8004aae:	b29a      	uxth	r2, r3
 8004ab0:	68fb      	ldr	r3, [r7, #12]
 8004ab2:	84da      	strh	r2, [r3, #38]	@ 0x26
    while (huart->TxXferCount > 0U)
 8004ab4:	68fb      	ldr	r3, [r7, #12]
 8004ab6:	8cdb      	ldrh	r3, [r3, #38]	@ 0x26
 8004ab8:	b29b      	uxth	r3, r3
 8004aba:	2b00      	cmp	r3, #0
 8004abc:	d1cb      	bne.n	8004a56 <HAL_UART_Transmit+0x76>
    }

    if (UART_WaitOnFlagUntilTimeout(huart, UART_FLAG_TC, RESET, tickstart, Timeout) != HAL_OK)
 8004abe:	683b      	ldr	r3, [r7, #0]
 8004ac0:	9300      	str	r3, [sp, #0]
 8004ac2:	697b      	ldr	r3, [r7, #20]
 8004ac4:	2200      	movs	r2, #0
 8004ac6:	2140      	movs	r1, #64	@ 0x40
 8004ac8:	68f8      	ldr	r0, [r7, #12]
 8004aca:	f000 fb05 	bl	80050d8 <UART_WaitOnFlagUntilTimeout>
 8004ace:	4603      	mov	r3, r0
 8004ad0:	2b00      	cmp	r3, #0
 8004ad2:	d005      	beq.n	8004ae0 <HAL_UART_Transmit+0x100>
    {
      huart->gState = HAL_UART_STATE_READY;
 8004ad4:	68fb      	ldr	r3, [r7, #12]
 8004ad6:	2220      	movs	r2, #32
 8004ad8:	f883 2041 	strb.w	r2, [r3, #65]	@ 0x41

      return HAL_TIMEOUT;
 8004adc:	2303      	movs	r3, #3
 8004ade:	e006      	b.n	8004aee <HAL_UART_Transmit+0x10e>
    }

    /* At end of Tx process, restore huart->gState to Ready */
    huart->gState = HAL_UART_STATE_READY;
 8004ae0:	68fb      	ldr	r3, [r7, #12]
 8004ae2:	2220      	movs	r2, #32
 8004ae4:	f883 2041 	strb.w	r2, [r3, #65]	@ 0x41

    return HAL_OK;
 8004ae8:	2300      	movs	r3, #0
 8004aea:	e000      	b.n	8004aee <HAL_UART_Transmit+0x10e>
  }
  else
  {
    return HAL_BUSY;
 8004aec:	2302      	movs	r3, #2
  }
}
 8004aee:	4618      	mov	r0, r3
 8004af0:	3720      	adds	r7, #32
 8004af2:	46bd      	mov	sp, r7
 8004af4:	bd80      	pop	{r7, pc}

08004af6 <HAL_UART_Receive_IT>:
  * @param  pData Pointer to data buffer (u8 or u16 data elements).
  * @param  Size  Amount of data elements (u8 or u16) to be received.
  * @retval HAL status
  */
HAL_StatusTypeDef HAL_UART_Receive_IT(UART_HandleTypeDef *huart, uint8_t *pData, uint16_t Size)
{
 8004af6:	b580      	push	{r7, lr}
 8004af8:	b084      	sub	sp, #16
 8004afa:	af00      	add	r7, sp, #0
 8004afc:	60f8      	str	r0, [r7, #12]
 8004afe:	60b9      	str	r1, [r7, #8]
 8004b00:	4613      	mov	r3, r2
 8004b02:	80fb      	strh	r3, [r7, #6]
  /* Check that a Rx process is not already ongoing */
  if (huart->RxState == HAL_UART_STATE_READY)
 8004b04:	68fb      	ldr	r3, [r7, #12]
 8004b06:	f893 3042 	ldrb.w	r3, [r3, #66]	@ 0x42
 8004b0a:	b2db      	uxtb	r3, r3
 8004b0c:	2b20      	cmp	r3, #32
 8004b0e:	d112      	bne.n	8004b36 <HAL_UART_Receive_IT+0x40>
  {
    if ((pData == NULL) || (Size == 0U))
 8004b10:	68bb      	ldr	r3, [r7, #8]
 8004b12:	2b00      	cmp	r3, #0
 8004b14:	d002      	beq.n	8004b1c <HAL_UART_Receive_IT+0x26>
 8004b16:	88fb      	ldrh	r3, [r7, #6]
 8004b18:	2b00      	cmp	r3, #0
 8004b1a:	d101      	bne.n	8004b20 <HAL_UART_Receive_IT+0x2a>
    {
      return HAL_ERROR;
 8004b1c:	2301      	movs	r3, #1
 8004b1e:	e00b      	b.n	8004b38 <HAL_UART_Receive_IT+0x42>
    }

    /* Set Reception type to Standard reception */
    huart->ReceptionType = HAL_UART_RECEPTION_STANDARD;
 8004b20:	68fb      	ldr	r3, [r7, #12]
 8004b22:	2200      	movs	r2, #0
 8004b24:	631a      	str	r2, [r3, #48]	@ 0x30

    return (UART_Start_Receive_IT(huart, pData, Size));
 8004b26:	88fb      	ldrh	r3, [r7, #6]
 8004b28:	461a      	mov	r2, r3
 8004b2a:	68b9      	ldr	r1, [r7, #8]
 8004b2c:	68f8      	ldr	r0, [r7, #12]
 8004b2e:	f000 fb2c 	bl	800518a <UART_Start_Receive_IT>
 8004b32:	4603      	mov	r3, r0
 8004b34:	e000      	b.n	8004b38 <HAL_UART_Receive_IT+0x42>
  }
  else
  {
    return HAL_BUSY;
 8004b36:	2302      	movs	r3, #2
  }
}
 8004b38:	4618      	mov	r0, r3
 8004b3a:	3710      	adds	r7, #16
 8004b3c:	46bd      	mov	sp, r7
 8004b3e:	bd80      	pop	{r7, pc}

08004b40 <HAL_UART_IRQHandler>:
  * @param  huart  Pointer to a UART_HandleTypeDef structure that contains
  *                the configuration information for the specified UART module.
  * @retval None
  */
void HAL_UART_IRQHandler(UART_HandleTypeDef *huart)
{
 8004b40:	b580      	push	{r7, lr}
 8004b42:	b0ba      	sub	sp, #232	@ 0xe8
 8004b44:	af00      	add	r7, sp, #0
 8004b46:	6078      	str	r0, [r7, #4]
  uint32_t isrflags   = READ_REG(huart->Instance->SR);
 8004b48:	687b      	ldr	r3, [r7, #4]
 8004b4a:	681b      	ldr	r3, [r3, #0]
 8004b4c:	681b      	ldr	r3, [r3, #0]
 8004b4e:	f8c7 30e4 	str.w	r3, [r7, #228]	@ 0xe4
  uint32_t cr1its     = READ_REG(huart->Instance->CR1);
 8004b52:	687b      	ldr	r3, [r7, #4]
 8004b54:	681b      	ldr	r3, [r3, #0]
 8004b56:	68db      	ldr	r3, [r3, #12]
 8004b58:	f8c7 30e0 	str.w	r3, [r7, #224]	@ 0xe0
  uint32_t cr3its     = READ_REG(huart->Instance->CR3);
 8004b5c:	687b      	ldr	r3, [r7, #4]
 8004b5e:	681b      	ldr	r3, [r3, #0]
 8004b60:	695b      	ldr	r3, [r3, #20]
 8004b62:	f8c7 30dc 	str.w	r3, [r7, #220]	@ 0xdc
  uint32_t errorflags = 0x00U;
 8004b66:	2300      	movs	r3, #0
 8004b68:	f8c7 30d8 	str.w	r3, [r7, #216]	@ 0xd8
  uint32_t dmarequest = 0x00U;
 8004b6c:	2300      	movs	r3, #0
 8004b6e:	f8c7 30d4 	str.w	r3, [r7, #212]	@ 0xd4

  /* If no error occurs */
  errorflags = (isrflags & (uint32_t)(USART_SR_PE | USART_SR_FE | USART_SR_ORE | USART_SR_NE));
 8004b72:	f8d7 30e4 	ldr.w	r3, [r7, #228]	@ 0xe4
 8004b76:	f003 030f 	and.w	r3, r3, #15
 8004b7a:	f8c7 30d8 	str.w	r3, [r7, #216]	@ 0xd8
  if (errorflags == RESET)
 8004b7e:	f8d7 30d8 	ldr.w	r3, [r7, #216]	@ 0xd8
 8004b82:	2b00      	cmp	r3, #0
 8004b84:	d10f      	bne.n	8004ba6 <HAL_UART_IRQHandler+0x66>
  {
    /* UART in mode Receiver -------------------------------------------------*/
    if (((isrflags & USART_SR_RXNE) != RESET) && ((cr1its & USART_CR1_RXNEIE) != RESET))
 8004b86:	f8d7 30e4 	ldr.w	r3, [r7, #228]	@ 0xe4
 8004b8a:	f003 0320 	and.w	r3, r3, #32
 8004b8e:	2b00      	cmp	r3, #0
 8004b90:	d009      	beq.n	8004ba6 <HAL_UART_IRQHandler+0x66>
 8004b92:	f8d7 30e0 	ldr.w	r3, [r7, #224]	@ 0xe0
 8004b96:	f003 0320 	and.w	r3, r3, #32
 8004b9a:	2b00      	cmp	r3, #0
 8004b9c:	d003      	beq.n	8004ba6 <HAL_UART_IRQHandler+0x66>
    {
      UART_Receive_IT(huart);
 8004b9e:	6878      	ldr	r0, [r7, #4]
 8004ba0:	f000 fc09 	bl	80053b6 <UART_Receive_IT>
      return;
 8004ba4:	e273      	b.n	800508e <HAL_UART_IRQHandler+0x54e>
    }
  }

  /* If some errors occur */
  if ((errorflags != RESET) && (((cr3its & USART_CR3_EIE) != RESET)
 8004ba6:	f8d7 30d8 	ldr.w	r3, [r7, #216]	@ 0xd8
 8004baa:	2b00      	cmp	r3, #0
 8004bac:	f000 80de 	beq.w	8004d6c <HAL_UART_IRQHandler+0x22c>
 8004bb0:	f8d7 30dc 	ldr.w	r3, [r7, #220]	@ 0xdc
 8004bb4:	f003 0301 	and.w	r3, r3, #1
 8004bb8:	2b00      	cmp	r3, #0
 8004bba:	d106      	bne.n	8004bca <HAL_UART_IRQHandler+0x8a>
                                || ((cr1its & (USART_CR1_RXNEIE | USART_CR1_PEIE)) != RESET)))
 8004bbc:	f8d7 30e0 	ldr.w	r3, [r7, #224]	@ 0xe0
 8004bc0:	f403 7390 	and.w	r3, r3, #288	@ 0x120
 8004bc4:	2b00      	cmp	r3, #0
 8004bc6:	f000 80d1 	beq.w	8004d6c <HAL_UART_IRQHandler+0x22c>
  {
    /* UART parity error interrupt occurred ----------------------------------*/
    if (((isrflags & USART_SR_PE) != RESET) && ((cr1its & USART_CR1_PEIE) != RESET))
 8004bca:	f8d7 30e4 	ldr.w	r3, [r7, #228]	@ 0xe4
 8004bce:	f003 0301 	and.w	r3, r3, #1
 8004bd2:	2b00      	cmp	r3, #0
 8004bd4:	d00b      	beq.n	8004bee <HAL_UART_IRQHandler+0xae>
 8004bd6:	f8d7 30e0 	ldr.w	r3, [r7, #224]	@ 0xe0
 8004bda:	f403 7380 	and.w	r3, r3, #256	@ 0x100
 8004bde:	2b00      	cmp	r3, #0
 8004be0:	d005      	beq.n	8004bee <HAL_UART_IRQHandler+0xae>
    {
      huart->ErrorCode |= HAL_UART_ERROR_PE;
 8004be2:	687b      	ldr	r3, [r7, #4]
 8004be4:	6c5b      	ldr	r3, [r3, #68]	@ 0x44
 8004be6:	f043 0201 	orr.w	r2, r3, #1
 8004bea:	687b      	ldr	r3, [r7, #4]
 8004bec:	645a      	str	r2, [r3, #68]	@ 0x44
    }

    /* UART noise error interrupt occurred -----------------------------------*/
    if (((isrflags & USART_SR_NE) != RESET) && ((cr3its & USART_CR3_EIE) != RESET))
 8004bee:	f8d7 30e4 	ldr.w	r3, [r7, #228]	@ 0xe4
 8004bf2:	f003 0304 	and.w	r3, r3, #4
 8004bf6:	2b00      	cmp	r3, #0
 8004bf8:	d00b      	beq.n	8004c12 <HAL_UART_IRQHandler+0xd2>
 8004bfa:	f8d7 30dc 	ldr.w	r3, [r7, #220]	@ 0xdc
 8004bfe:	f003 0301 	and.w	r3, r3, #1
 8004c02:	2b00      	cmp	r3, #0
 8004c04:	d005      	beq.n	8004c12 <HAL_UART_IRQHandler+0xd2>
    {
      huart->ErrorCode |= HAL_UART_ERROR_NE;
 8004c06:	687b      	ldr	r3, [r7, #4]
 8004c08:	6c5b      	ldr	r3, [r3, #68]	@ 0x44
 8004c0a:	f043 0202 	orr.w	r2, r3, #2
 8004c0e:	687b      	ldr	r3, [r7, #4]
 8004c10:	645a      	str	r2, [r3, #68]	@ 0x44
    }

    /* UART frame error interrupt occurred -----------------------------------*/
    if (((isrflags & USART_SR_FE) != RESET) && ((cr3its & USART_CR3_EIE) != RESET))
 8004c12:	f8d7 30e4 	ldr.w	r3, [r7, #228]	@ 0xe4
 8004c16:	f003 0302 	and.w	r3, r3, #2
 8004c1a:	2b00      	cmp	r3, #0
 8004c1c:	d00b      	beq.n	8004c36 <HAL_UART_IRQHandler+0xf6>
 8004c1e:	f8d7 30dc 	ldr.w	r3, [r7, #220]	@ 0xdc
 8004c22:	f003 0301 	and.w	r3, r3, #1
 8004c26:	2b00      	cmp	r3, #0
 8004c28:	d005      	beq.n	8004c36 <HAL_UART_IRQHandler+0xf6>
    {
      huart->ErrorCode |= HAL_UART_ERROR_FE;
 8004c2a:	687b      	ldr	r3, [r7, #4]
 8004c2c:	6c5b      	ldr	r3, [r3, #68]	@ 0x44
 8004c2e:	f043 0204 	orr.w	r2, r3, #4
 8004c32:	687b      	ldr	r3, [r7, #4]
 8004c34:	645a      	str	r2, [r3, #68]	@ 0x44
    }

    /* UART Over-Run interrupt occurred --------------------------------------*/
    if (((isrflags & USART_SR_ORE) != RESET) && (((cr1its & USART_CR1_RXNEIE) != RESET)
 8004c36:	f8d7 30e4 	ldr.w	r3, [r7, #228]	@ 0xe4
 8004c3a:	f003 0308 	and.w	r3, r3, #8
 8004c3e:	2b00      	cmp	r3, #0
 8004c40:	d011      	beq.n	8004c66 <HAL_UART_IRQHandler+0x126>
 8004c42:	f8d7 30e0 	ldr.w	r3, [r7, #224]	@ 0xe0
 8004c46:	f003 0320 	and.w	r3, r3, #32
 8004c4a:	2b00      	cmp	r3, #0
 8004c4c:	d105      	bne.n	8004c5a <HAL_UART_IRQHandler+0x11a>
                                                 || ((cr3its & USART_CR3_EIE) != RESET)))
 8004c4e:	f8d7 30dc 	ldr.w	r3, [r7, #220]	@ 0xdc
 8004c52:	f003 0301 	and.w	r3, r3, #1
 8004c56:	2b00      	cmp	r3, #0
 8004c58:	d005      	beq.n	8004c66 <HAL_UART_IRQHandler+0x126>
    {
      huart->ErrorCode |= HAL_UART_ERROR_ORE;
 8004c5a:	687b      	ldr	r3, [r7, #4]
 8004c5c:	6c5b      	ldr	r3, [r3, #68]	@ 0x44
 8004c5e:	f043 0208 	orr.w	r2, r3, #8
 8004c62:	687b      	ldr	r3, [r7, #4]
 8004c64:	645a      	str	r2, [r3, #68]	@ 0x44
    }

    /* Call UART Error Call back function if need be --------------------------*/
    if (huart->ErrorCode != HAL_UART_ERROR_NONE)
 8004c66:	687b      	ldr	r3, [r7, #4]
 8004c68:	6c5b      	ldr	r3, [r3, #68]	@ 0x44
 8004c6a:	2b00      	cmp	r3, #0
 8004c6c:	f000 820a 	beq.w	8005084 <HAL_UART_IRQHandler+0x544>
    {
      /* UART in mode Receiver -----------------------------------------------*/
      if (((isrflags & USART_SR_RXNE) != RESET) && ((cr1its & USART_CR1_RXNEIE) != RESET))
 8004c70:	f8d7 30e4 	ldr.w	r3, [r7, #228]	@ 0xe4
 8004c74:	f003 0320 	and.w	r3, r3, #32
 8004c78:	2b00      	cmp	r3, #0
 8004c7a:	d008      	beq.n	8004c8e <HAL_UART_IRQHandler+0x14e>
 8004c7c:	f8d7 30e0 	ldr.w	r3, [r7, #224]	@ 0xe0
 8004c80:	f003 0320 	and.w	r3, r3, #32
 8004c84:	2b00      	cmp	r3, #0
 8004c86:	d002      	beq.n	8004c8e <HAL_UART_IRQHandler+0x14e>
      {
        UART_Receive_IT(huart);
 8004c88:	6878      	ldr	r0, [r7, #4]
 8004c8a:	f000 fb94 	bl	80053b6 <UART_Receive_IT>
      }

      /* If Overrun error occurs, or if any error occurs in DMA mode reception,
         consider error as blocking */
      dmarequest = HAL_IS_BIT_SET(huart->Instance->CR3, USART_CR3_DMAR);
 8004c8e:	687b      	ldr	r3, [r7, #4]
 8004c90:	681b      	ldr	r3, [r3, #0]
 8004c92:	695b      	ldr	r3, [r3, #20]
 8004c94:	f003 0340 	and.w	r3, r3, #64	@ 0x40
 8004c98:	2b40      	cmp	r3, #64	@ 0x40
 8004c9a:	bf0c      	ite	eq
 8004c9c:	2301      	moveq	r3, #1
 8004c9e:	2300      	movne	r3, #0
 8004ca0:	b2db      	uxtb	r3, r3
 8004ca2:	f8c7 30d4 	str.w	r3, [r7, #212]	@ 0xd4
      if (((huart->ErrorCode & HAL_UART_ERROR_ORE) != RESET) || dmarequest)
 8004ca6:	687b      	ldr	r3, [r7, #4]
 8004ca8:	6c5b      	ldr	r3, [r3, #68]	@ 0x44
 8004caa:	f003 0308 	and.w	r3, r3, #8
 8004cae:	2b00      	cmp	r3, #0
 8004cb0:	d103      	bne.n	8004cba <HAL_UART_IRQHandler+0x17a>
 8004cb2:	f8d7 30d4 	ldr.w	r3, [r7, #212]	@ 0xd4
 8004cb6:	2b00      	cmp	r3, #0
 8004cb8:	d04f      	beq.n	8004d5a <HAL_UART_IRQHandler+0x21a>
      {
        /* Blocking error : transfer is aborted
           Set the UART state ready to be able to start again the process,
           Disable Rx Interrupts, and disable Rx DMA request, if ongoing */
        UART_EndRxTransfer(huart);
 8004cba:	6878      	ldr	r0, [r7, #4]
 8004cbc:	f000 fa9f 	bl	80051fe <UART_EndRxTransfer>

        /* Disable the UART DMA Rx request if enabled */
        if (HAL_IS_BIT_SET(huart->Instance->CR3, USART_CR3_DMAR))
 8004cc0:	687b      	ldr	r3, [r7, #4]
 8004cc2:	681b      	ldr	r3, [r3, #0]
 8004cc4:	695b      	ldr	r3, [r3, #20]
 8004cc6:	f003 0340 	and.w	r3, r3, #64	@ 0x40
 8004cca:	2b40      	cmp	r3, #64	@ 0x40
 8004ccc:	d141      	bne.n	8004d52 <HAL_UART_IRQHandler+0x212>
        {
          ATOMIC_CLEAR_BIT(huart->Instance->CR3, USART_CR3_DMAR);
 8004cce:	687b      	ldr	r3, [r7, #4]
 8004cd0:	681b      	ldr	r3, [r3, #0]
 8004cd2:	3314      	adds	r3, #20
 8004cd4:	f8c7 309c 	str.w	r3, [r7, #156]	@ 0x9c
   __ASM volatile ("ldrex %0, %1" : "=r" (result) : "Q" (*addr) );
 8004cd8:	f8d7 309c 	ldr.w	r3, [r7, #156]	@ 0x9c
 8004cdc:	e853 3f00 	ldrex	r3, [r3]
 8004ce0:	f8c7 3098 	str.w	r3, [r7, #152]	@ 0x98
   return(result);
 8004ce4:	f8d7 3098 	ldr.w	r3, [r7, #152]	@ 0x98
 8004ce8:	f023 0340 	bic.w	r3, r3, #64	@ 0x40
 8004cec:	f8c7 30d0 	str.w	r3, [r7, #208]	@ 0xd0
 8004cf0:	687b      	ldr	r3, [r7, #4]
 8004cf2:	681b      	ldr	r3, [r3, #0]
 8004cf4:	3314      	adds	r3, #20
 8004cf6:	f8d7 20d0 	ldr.w	r2, [r7, #208]	@ 0xd0
 8004cfa:	f8c7 20a8 	str.w	r2, [r7, #168]	@ 0xa8
 8004cfe:	f8c7 30a4 	str.w	r3, [r7, #164]	@ 0xa4
   __ASM volatile ("strex %0, %2, %1" : "=&r" (result), "=Q" (*addr) : "r" (value) );
 8004d02:	f8d7 10a4 	ldr.w	r1, [r7, #164]	@ 0xa4
 8004d06:	f8d7 20a8 	ldr.w	r2, [r7, #168]	@ 0xa8
 8004d0a:	e841 2300 	strex	r3, r2, [r1]
 8004d0e:	f8c7 30a0 	str.w	r3, [r7, #160]	@ 0xa0
   return(result);
 8004d12:	f8d7 30a0 	ldr.w	r3, [r7, #160]	@ 0xa0
 8004d16:	2b00      	cmp	r3, #0
 8004d18:	d1d9      	bne.n	8004cce <HAL_UART_IRQHandler+0x18e>

          /* Abort the UART DMA Rx stream */
          if (huart->hdmarx != NULL)
 8004d1a:	687b      	ldr	r3, [r7, #4]
 8004d1c:	6bdb      	ldr	r3, [r3, #60]	@ 0x3c
 8004d1e:	2b00      	cmp	r3, #0
 8004d20:	d013      	beq.n	8004d4a <HAL_UART_IRQHandler+0x20a>
          {
            /* Set the UART DMA Abort callback :
               will lead to call HAL_UART_ErrorCallback() at end of DMA abort procedure */
            huart->hdmarx->XferAbortCallback = UART_DMAAbortOnError;
 8004d22:	687b      	ldr	r3, [r7, #4]
 8004d24:	6bdb      	ldr	r3, [r3, #60]	@ 0x3c
 8004d26:	4a8a      	ldr	r2, [pc, #552]	@ (8004f50 <HAL_UART_IRQHandler+0x410>)
 8004d28:	651a      	str	r2, [r3, #80]	@ 0x50
            if (HAL_DMA_Abort_IT(huart->hdmarx) != HAL_OK)
 8004d2a:	687b      	ldr	r3, [r7, #4]
 8004d2c:	6bdb      	ldr	r3, [r3, #60]	@ 0x3c
 8004d2e:	4618      	mov	r0, r3
 8004d30:	f7fd ffaf 	bl	8002c92 <HAL_DMA_Abort_IT>
 8004d34:	4603      	mov	r3, r0
 8004d36:	2b00      	cmp	r3, #0
 8004d38:	d016      	beq.n	8004d68 <HAL_UART_IRQHandler+0x228>
            {
              /* Call Directly XferAbortCallback function in case of error */
              huart->hdmarx->XferAbortCallback(huart->hdmarx);
 8004d3a:	687b      	ldr	r3, [r7, #4]
 8004d3c:	6bdb      	ldr	r3, [r3, #60]	@ 0x3c
 8004d3e:	6d1b      	ldr	r3, [r3, #80]	@ 0x50
 8004d40:	687a      	ldr	r2, [r7, #4]
 8004d42:	6bd2      	ldr	r2, [r2, #60]	@ 0x3c
 8004d44:	4610      	mov	r0, r2
 8004d46:	4798      	blx	r3
        if (HAL_IS_BIT_SET(huart->Instance->CR3, USART_CR3_DMAR))
 8004d48:	e00e      	b.n	8004d68 <HAL_UART_IRQHandler+0x228>
#if (USE_HAL_UART_REGISTER_CALLBACKS == 1)
            /*Call registered error callback*/
            huart->ErrorCallback(huart);
#else
            /*Call legacy weak error callback*/
            HAL_UART_ErrorCallback(huart);
 8004d4a:	6878      	ldr	r0, [r7, #4]
 8004d4c:	f7fc fee4 	bl	8001b18 <HAL_UART_ErrorCallback>
        if (HAL_IS_BIT_SET(huart->Instance->CR3, USART_CR3_DMAR))
 8004d50:	e00a      	b.n	8004d68 <HAL_UART_IRQHandler+0x228>
#if (USE_HAL_UART_REGISTER_CALLBACKS == 1)
          /*Call registered error callback*/
          huart->ErrorCallback(huart);
#else
          /*Call legacy weak error callback*/
          HAL_UART_ErrorCallback(huart);
 8004d52:	6878      	ldr	r0, [r7, #4]
 8004d54:	f7fc fee0 	bl	8001b18 <HAL_UART_ErrorCallback>
        if (HAL_IS_BIT_SET(huart->Instance->CR3, USART_CR3_DMAR))
 8004d58:	e006      	b.n	8004d68 <HAL_UART_IRQHandler+0x228>
#if (USE_HAL_UART_REGISTER_CALLBACKS == 1)
        /*Call registered error callback*/
        huart->ErrorCallback(huart);
#else
        /*Call legacy weak error callback*/
        HAL_UART_ErrorCallback(huart);
 8004d5a:	6878      	ldr	r0, [r7, #4]
 8004d5c:	f7fc fedc 	bl	8001b18 <HAL_UART_ErrorCallback>
#endif /* USE_HAL_UART_REGISTER_CALLBACKS */

        huart->ErrorCode = HAL_UART_ERROR_NONE;
 8004d60:	687b      	ldr	r3, [r7, #4]
 8004d62:	2200      	movs	r2, #0
 8004d64:	645a      	str	r2, [r3, #68]	@ 0x44
      }
    }
    return;
 8004d66:	e18d      	b.n	8005084 <HAL_UART_IRQHandler+0x544>
        if (HAL_IS_BIT_SET(huart->Instance->CR3, USART_CR3_DMAR))
 8004d68:	bf00      	nop
    return;
 8004d6a:	e18b      	b.n	8005084 <HAL_UART_IRQHandler+0x544>
  } /* End if some error occurs */

  /* Check current reception Mode :
     If Reception till IDLE event has been selected : */
  if ((huart->ReceptionType == HAL_UART_RECEPTION_TOIDLE)
 8004d6c:	687b      	ldr	r3, [r7, #4]
 8004d6e:	6b1b      	ldr	r3, [r3, #48]	@ 0x30
 8004d70:	2b01      	cmp	r3, #1
 8004d72:	f040 8167 	bne.w	8005044 <HAL_UART_IRQHandler+0x504>
      && ((isrflags & USART_SR_IDLE) != 0U)
 8004d76:	f8d7 30e4 	ldr.w	r3, [r7, #228]	@ 0xe4
 8004d7a:	f003 0310 	and.w	r3, r3, #16
 8004d7e:	2b00      	cmp	r3, #0
 8004d80:	f000 8160 	beq.w	8005044 <HAL_UART_IRQHandler+0x504>
      && ((cr1its & USART_CR1_IDLEIE) != 0U))
 8004d84:	f8d7 30e0 	ldr.w	r3, [r7, #224]	@ 0xe0
 8004d88:	f003 0310 	and.w	r3, r3, #16
 8004d8c:	2b00      	cmp	r3, #0
 8004d8e:	f000 8159 	beq.w	8005044 <HAL_UART_IRQHandler+0x504>
  {
    __HAL_UART_CLEAR_IDLEFLAG(huart);
 8004d92:	2300      	movs	r3, #0
 8004d94:	60bb      	str	r3, [r7, #8]
 8004d96:	687b      	ldr	r3, [r7, #4]
 8004d98:	681b      	ldr	r3, [r3, #0]
 8004d9a:	681b      	ldr	r3, [r3, #0]
 8004d9c:	60bb      	str	r3, [r7, #8]
 8004d9e:	687b      	ldr	r3, [r7, #4]
 8004da0:	681b      	ldr	r3, [r3, #0]
 8004da2:	685b      	ldr	r3, [r3, #4]
 8004da4:	60bb      	str	r3, [r7, #8]
 8004da6:	68bb      	ldr	r3, [r7, #8]

    /* Check if DMA mode is enabled in UART */
    if (HAL_IS_BIT_SET(huart->Instance->CR3, USART_CR3_DMAR))
 8004da8:	687b      	ldr	r3, [r7, #4]
 8004daa:	681b      	ldr	r3, [r3, #0]
 8004dac:	695b      	ldr	r3, [r3, #20]
 8004dae:	f003 0340 	and.w	r3, r3, #64	@ 0x40
 8004db2:	2b40      	cmp	r3, #64	@ 0x40
 8004db4:	f040 80ce 	bne.w	8004f54 <HAL_UART_IRQHandler+0x414>
    {
      /* DMA mode enabled */
      /* Check received length : If all expected data are received, do nothing,
         (DMA cplt callback will be called).
         Otherwise, if at least one data has already been received, IDLE event is to be notified to user */
      uint16_t nb_remaining_rx_data = (uint16_t) __HAL_DMA_GET_COUNTER(huart->hdmarx);
 8004db8:	687b      	ldr	r3, [r7, #4]
 8004dba:	6bdb      	ldr	r3, [r3, #60]	@ 0x3c
 8004dbc:	681b      	ldr	r3, [r3, #0]
 8004dbe:	685b      	ldr	r3, [r3, #4]
 8004dc0:	f8a7 30be 	strh.w	r3, [r7, #190]	@ 0xbe
      if ((nb_remaining_rx_data > 0U)
 8004dc4:	f8b7 30be 	ldrh.w	r3, [r7, #190]	@ 0xbe
 8004dc8:	2b00      	cmp	r3, #0
 8004dca:	f000 80a9 	beq.w	8004f20 <HAL_UART_IRQHandler+0x3e0>
          && (nb_remaining_rx_data < huart->RxXferSize))
 8004dce:	687b      	ldr	r3, [r7, #4]
 8004dd0:	8d9b      	ldrh	r3, [r3, #44]	@ 0x2c
 8004dd2:	f8b7 20be 	ldrh.w	r2, [r7, #190]	@ 0xbe
 8004dd6:	429a      	cmp	r2, r3
 8004dd8:	f080 80a2 	bcs.w	8004f20 <HAL_UART_IRQHandler+0x3e0>
      {
        /* Reception is not complete */
        huart->RxXferCount = nb_remaining_rx_data;
 8004ddc:	687b      	ldr	r3, [r7, #4]
 8004dde:	f8b7 20be 	ldrh.w	r2, [r7, #190]	@ 0xbe
 8004de2:	85da      	strh	r2, [r3, #46]	@ 0x2e

        /* In Normal mode, end DMA xfer and HAL UART Rx process*/
        if (huart->hdmarx->Init.Mode != DMA_CIRCULAR)
 8004de4:	687b      	ldr	r3, [r7, #4]
 8004de6:	6bdb      	ldr	r3, [r3, #60]	@ 0x3c
 8004de8:	69db      	ldr	r3, [r3, #28]
 8004dea:	f5b3 7f80 	cmp.w	r3, #256	@ 0x100
 8004dee:	f000 8088 	beq.w	8004f02 <HAL_UART_IRQHandler+0x3c2>
        {
          /* Disable PE and ERR (Frame error, noise error, overrun error) interrupts */
          ATOMIC_CLEAR_BIT(huart->Instance->CR1, USART_CR1_PEIE);
 8004df2:	687b      	ldr	r3, [r7, #4]
 8004df4:	681b      	ldr	r3, [r3, #0]
 8004df6:	330c      	adds	r3, #12
 8004df8:	f8c7 3088 	str.w	r3, [r7, #136]	@ 0x88
   __ASM volatile ("ldrex %0, %1" : "=r" (result) : "Q" (*addr) );
 8004dfc:	f8d7 3088 	ldr.w	r3, [r7, #136]	@ 0x88
 8004e00:	e853 3f00 	ldrex	r3, [r3]
 8004e04:	f8c7 3084 	str.w	r3, [r7, #132]	@ 0x84
   return(result);
 8004e08:	f8d7 3084 	ldr.w	r3, [r7, #132]	@ 0x84
 8004e0c:	f423 7380 	bic.w	r3, r3, #256	@ 0x100
 8004e10:	f8c7 30b8 	str.w	r3, [r7, #184]	@ 0xb8
 8004e14:	687b      	ldr	r3, [r7, #4]
 8004e16:	681b      	ldr	r3, [r3, #0]
 8004e18:	330c      	adds	r3, #12
 8004e1a:	f8d7 20b8 	ldr.w	r2, [r7, #184]	@ 0xb8
 8004e1e:	f8c7 2094 	str.w	r2, [r7, #148]	@ 0x94
 8004e22:	f8c7 3090 	str.w	r3, [r7, #144]	@ 0x90
   __ASM volatile ("strex %0, %2, %1" : "=&r" (result), "=Q" (*addr) : "r" (value) );
 8004e26:	f8d7 1090 	ldr.w	r1, [r7, #144]	@ 0x90
 8004e2a:	f8d7 2094 	ldr.w	r2, [r7, #148]	@ 0x94
 8004e2e:	e841 2300 	strex	r3, r2, [r1]
 8004e32:	f8c7 308c 	str.w	r3, [r7, #140]	@ 0x8c
   return(result);
 8004e36:	f8d7 308c 	ldr.w	r3, [r7, #140]	@ 0x8c
 8004e3a:	2b00      	cmp	r3, #0
 8004e3c:	d1d9      	bne.n	8004df2 <HAL_UART_IRQHandler+0x2b2>
          ATOMIC_CLEAR_BIT(huart->Instance->CR3, USART_CR3_EIE);
 8004e3e:	687b      	ldr	r3, [r7, #4]
 8004e40:	681b      	ldr	r3, [r3, #0]
 8004e42:	3314      	adds	r3, #20
 8004e44:	677b      	str	r3, [r7, #116]	@ 0x74
   __ASM volatile ("ldrex %0, %1" : "=r" (result) : "Q" (*addr) );
 8004e46:	6f7b      	ldr	r3, [r7, #116]	@ 0x74
 8004e48:	e853 3f00 	ldrex	r3, [r3]
 8004e4c:	673b      	str	r3, [r7, #112]	@ 0x70
   return(result);
 8004e4e:	6f3b      	ldr	r3, [r7, #112]	@ 0x70
 8004e50:	f023 0301 	bic.w	r3, r3, #1
 8004e54:	f8c7 30b4 	str.w	r3, [r7, #180]	@ 0xb4
 8004e58:	687b      	ldr	r3, [r7, #4]
 8004e5a:	681b      	ldr	r3, [r3, #0]
 8004e5c:	3314      	adds	r3, #20
 8004e5e:	f8d7 20b4 	ldr.w	r2, [r7, #180]	@ 0xb4
 8004e62:	f8c7 2080 	str.w	r2, [r7, #128]	@ 0x80
 8004e66:	67fb      	str	r3, [r7, #124]	@ 0x7c
   __ASM volatile ("strex %0, %2, %1" : "=&r" (result), "=Q" (*addr) : "r" (value) );
 8004e68:	6ff9      	ldr	r1, [r7, #124]	@ 0x7c
 8004e6a:	f8d7 2080 	ldr.w	r2, [r7, #128]	@ 0x80
 8004e6e:	e841 2300 	strex	r3, r2, [r1]
 8004e72:	67bb      	str	r3, [r7, #120]	@ 0x78
   return(result);
 8004e74:	6fbb      	ldr	r3, [r7, #120]	@ 0x78
 8004e76:	2b00      	cmp	r3, #0
 8004e78:	d1e1      	bne.n	8004e3e <HAL_UART_IRQHandler+0x2fe>

          /* Disable the DMA transfer for the receiver request by resetting the DMAR bit
             in the UART CR3 register */
          ATOMIC_CLEAR_BIT(huart->Instance->CR3, USART_CR3_DMAR);
 8004e7a:	687b      	ldr	r3, [r7, #4]
 8004e7c:	681b      	ldr	r3, [r3, #0]
 8004e7e:	3314      	adds	r3, #20
 8004e80:	663b      	str	r3, [r7, #96]	@ 0x60
   __ASM volatile ("ldrex %0, %1" : "=r" (result) : "Q" (*addr) );
 8004e82:	6e3b      	ldr	r3, [r7, #96]	@ 0x60
 8004e84:	e853 3f00 	ldrex	r3, [r3]
 8004e88:	65fb      	str	r3, [r7, #92]	@ 0x5c
   return(result);
 8004e8a:	6dfb      	ldr	r3, [r7, #92]	@ 0x5c
 8004e8c:	f023 0340 	bic.w	r3, r3, #64	@ 0x40
 8004e90:	f8c7 30b0 	str.w	r3, [r7, #176]	@ 0xb0
 8004e94:	687b      	ldr	r3, [r7, #4]
 8004e96:	681b      	ldr	r3, [r3, #0]
 8004e98:	3314      	adds	r3, #20
 8004e9a:	f8d7 20b0 	ldr.w	r2, [r7, #176]	@ 0xb0
 8004e9e:	66fa      	str	r2, [r7, #108]	@ 0x6c
 8004ea0:	66bb      	str	r3, [r7, #104]	@ 0x68
   __ASM volatile ("strex %0, %2, %1" : "=&r" (result), "=Q" (*addr) : "r" (value) );
 8004ea2:	6eb9      	ldr	r1, [r7, #104]	@ 0x68
 8004ea4:	6efa      	ldr	r2, [r7, #108]	@ 0x6c
 8004ea6:	e841 2300 	strex	r3, r2, [r1]
 8004eaa:	667b      	str	r3, [r7, #100]	@ 0x64
   return(result);
 8004eac:	6e7b      	ldr	r3, [r7, #100]	@ 0x64
 8004eae:	2b00      	cmp	r3, #0
 8004eb0:	d1e3      	bne.n	8004e7a <HAL_UART_IRQHandler+0x33a>

          /* At end of Rx process, restore huart->RxState to Ready */
          huart->RxState = HAL_UART_STATE_READY;
 8004eb2:	687b      	ldr	r3, [r7, #4]
 8004eb4:	2220      	movs	r2, #32
 8004eb6:	f883 2042 	strb.w	r2, [r3, #66]	@ 0x42
          huart->ReceptionType = HAL_UART_RECEPTION_STANDARD;
 8004eba:	687b      	ldr	r3, [r7, #4]
 8004ebc:	2200      	movs	r2, #0
 8004ebe:	631a      	str	r2, [r3, #48]	@ 0x30

          ATOMIC_CLEAR_BIT(huart->Instance->CR1, USART_CR1_IDLEIE);
 8004ec0:	687b      	ldr	r3, [r7, #4]
 8004ec2:	681b      	ldr	r3, [r3, #0]
 8004ec4:	330c      	adds	r3, #12
 8004ec6:	64fb      	str	r3, [r7, #76]	@ 0x4c
   __ASM volatile ("ldrex %0, %1" : "=r" (result) : "Q" (*addr) );
 8004ec8:	6cfb      	ldr	r3, [r7, #76]	@ 0x4c
 8004eca:	e853 3f00 	ldrex	r3, [r3]
 8004ece:	64bb      	str	r3, [r7, #72]	@ 0x48
   return(result);
 8004ed0:	6cbb      	ldr	r3, [r7, #72]	@ 0x48
 8004ed2:	f023 0310 	bic.w	r3, r3, #16
 8004ed6:	f8c7 30ac 	str.w	r3, [r7, #172]	@ 0xac
 8004eda:	687b      	ldr	r3, [r7, #4]
 8004edc:	681b      	ldr	r3, [r3, #0]
 8004ede:	330c      	adds	r3, #12
 8004ee0:	f8d7 20ac 	ldr.w	r2, [r7, #172]	@ 0xac
 8004ee4:	65ba      	str	r2, [r7, #88]	@ 0x58
 8004ee6:	657b      	str	r3, [r7, #84]	@ 0x54
   __ASM volatile ("strex %0, %2, %1" : "=&r" (result), "=Q" (*addr) : "r" (value) );
 8004ee8:	6d79      	ldr	r1, [r7, #84]	@ 0x54
 8004eea:	6dba      	ldr	r2, [r7, #88]	@ 0x58
 8004eec:	e841 2300 	strex	r3, r2, [r1]
 8004ef0:	653b      	str	r3, [r7, #80]	@ 0x50
   return(result);
 8004ef2:	6d3b      	ldr	r3, [r7, #80]	@ 0x50
 8004ef4:	2b00      	cmp	r3, #0
 8004ef6:	d1e3      	bne.n	8004ec0 <HAL_UART_IRQHandler+0x380>

          /* Last bytes received, so no need as the abort is immediate */
          (void)HAL_DMA_Abort(huart->hdmarx);
 8004ef8:	687b      	ldr	r3, [r7, #4]
 8004efa:	6bdb      	ldr	r3, [r3, #60]	@ 0x3c
 8004efc:	4618      	mov	r0, r3
 8004efe:	f7fd fe58 	bl	8002bb2 <HAL_DMA_Abort>
        }

        /* Initialize type of RxEvent that correspond to RxEvent callback execution;
        In this case, Rx Event type is Idle Event */
        huart->RxEventType = HAL_UART_RXEVENT_IDLE;
 8004f02:	687b      	ldr	r3, [r7, #4]
 8004f04:	2202      	movs	r2, #2
 8004f06:	635a      	str	r2, [r3, #52]	@ 0x34
#if (USE_HAL_UART_REGISTER_CALLBACKS == 1)
        /*Call registered Rx Event callback*/
        huart->RxEventCallback(huart, (huart->RxXferSize - huart->RxXferCount));
#else
        /*Call legacy weak Rx Event callback*/
        HAL_UARTEx_RxEventCallback(huart, (huart->RxXferSize - huart->RxXferCount));
 8004f08:	687b      	ldr	r3, [r7, #4]
 8004f0a:	8d9a      	ldrh	r2, [r3, #44]	@ 0x2c
 8004f0c:	687b      	ldr	r3, [r7, #4]
 8004f0e:	8ddb      	ldrh	r3, [r3, #46]	@ 0x2e
 8004f10:	b29b      	uxth	r3, r3
 8004f12:	1ad3      	subs	r3, r2, r3
 8004f14:	b29b      	uxth	r3, r3
 8004f16:	4619      	mov	r1, r3
 8004f18:	6878      	ldr	r0, [r7, #4]
 8004f1a:	f000 f8c5 	bl	80050a8 <HAL_UARTEx_RxEventCallback>
            HAL_UARTEx_RxEventCallback(huart, huart->RxXferSize);
#endif /* (USE_HAL_UART_REGISTER_CALLBACKS) */
          }
        }
      }
      return;
 8004f1e:	e0b3      	b.n	8005088 <HAL_UART_IRQHandler+0x548>
        if (nb_remaining_rx_data == huart->RxXferSize)
 8004f20:	687b      	ldr	r3, [r7, #4]
 8004f22:	8d9b      	ldrh	r3, [r3, #44]	@ 0x2c
 8004f24:	f8b7 20be 	ldrh.w	r2, [r7, #190]	@ 0xbe
 8004f28:	429a      	cmp	r2, r3
 8004f2a:	f040 80ad 	bne.w	8005088 <HAL_UART_IRQHandler+0x548>
          if (huart->hdmarx->Init.Mode == DMA_CIRCULAR)
 8004f2e:	687b      	ldr	r3, [r7, #4]
 8004f30:	6bdb      	ldr	r3, [r3, #60]	@ 0x3c
 8004f32:	69db      	ldr	r3, [r3, #28]
 8004f34:	f5b3 7f80 	cmp.w	r3, #256	@ 0x100
 8004f38:	f040 80a6 	bne.w	8005088 <HAL_UART_IRQHandler+0x548>
            huart->RxEventType = HAL_UART_RXEVENT_IDLE;
 8004f3c:	687b      	ldr	r3, [r7, #4]
 8004f3e:	2202      	movs	r2, #2
 8004f40:	635a      	str	r2, [r3, #52]	@ 0x34
            HAL_UARTEx_RxEventCallback(huart, huart->RxXferSize);
 8004f42:	687b      	ldr	r3, [r7, #4]
 8004f44:	8d9b      	ldrh	r3, [r3, #44]	@ 0x2c
 8004f46:	4619      	mov	r1, r3
 8004f48:	6878      	ldr	r0, [r7, #4]
 8004f4a:	f000 f8ad 	bl	80050a8 <HAL_UARTEx_RxEventCallback>
      return;
 8004f4e:	e09b      	b.n	8005088 <HAL_UART_IRQHandler+0x548>
 8004f50:	080052c5 	.word	0x080052c5
    else
    {
      /* DMA mode not enabled */
      /* Check received length : If all expected data are received, do nothing.
         Otherwise, if at least one data has already been received, IDLE event is to be notified to user */
      uint16_t nb_rx_data = huart->RxXferSize - huart->RxXferCount;
 8004f54:	687b      	ldr	r3, [r7, #4]
 8004f56:	8d9a      	ldrh	r2, [r3, #44]	@ 0x2c
 8004f58:	687b      	ldr	r3, [r7, #4]
 8004f5a:	8ddb      	ldrh	r3, [r3, #46]	@ 0x2e
 8004f5c:	b29b      	uxth	r3, r3
 8004f5e:	1ad3      	subs	r3, r2, r3
 8004f60:	f8a7 30ce 	strh.w	r3, [r7, #206]	@ 0xce
      if ((huart->RxXferCount > 0U)
 8004f64:	687b      	ldr	r3, [r7, #4]
 8004f66:	8ddb      	ldrh	r3, [r3, #46]	@ 0x2e
 8004f68:	b29b      	uxth	r3, r3
 8004f6a:	2b00      	cmp	r3, #0
 8004f6c:	f000 808e 	beq.w	800508c <HAL_UART_IRQHandler+0x54c>
          && (nb_rx_data > 0U))
 8004f70:	f8b7 30ce 	ldrh.w	r3, [r7, #206]	@ 0xce
 8004f74:	2b00      	cmp	r3, #0
 8004f76:	f000 8089 	beq.w	800508c <HAL_UART_IRQHandler+0x54c>
      {
        /* Disable the UART Parity Error Interrupt and RXNE interrupts */
        ATOMIC_CLEAR_BIT(huart->Instance->CR1, (USART_CR1_RXNEIE | USART_CR1_PEIE));
 8004f7a:	687b      	ldr	r3, [r7, #4]
 8004f7c:	681b      	ldr	r3, [r3, #0]
 8004f7e:	330c      	adds	r3, #12
 8004f80:	63bb      	str	r3, [r7, #56]	@ 0x38
   __ASM volatile ("ldrex %0, %1" : "=r" (result) : "Q" (*addr) );
 8004f82:	6bbb      	ldr	r3, [r7, #56]	@ 0x38
 8004f84:	e853 3f00 	ldrex	r3, [r3]
 8004f88:	637b      	str	r3, [r7, #52]	@ 0x34
   return(result);
 8004f8a:	6b7b      	ldr	r3, [r7, #52]	@ 0x34
 8004f8c:	f423 7390 	bic.w	r3, r3, #288	@ 0x120
 8004f90:	f8c7 30c8 	str.w	r3, [r7, #200]	@ 0xc8
 8004f94:	687b      	ldr	r3, [r7, #4]
 8004f96:	681b      	ldr	r3, [r3, #0]
 8004f98:	330c      	adds	r3, #12
 8004f9a:	f8d7 20c8 	ldr.w	r2, [r7, #200]	@ 0xc8
 8004f9e:	647a      	str	r2, [r7, #68]	@ 0x44
 8004fa0:	643b      	str	r3, [r7, #64]	@ 0x40
   __ASM volatile ("strex %0, %2, %1" : "=&r" (result), "=Q" (*addr) : "r" (value) );
 8004fa2:	6c39      	ldr	r1, [r7, #64]	@ 0x40
 8004fa4:	6c7a      	ldr	r2, [r7, #68]	@ 0x44
 8004fa6:	e841 2300 	strex	r3, r2, [r1]
 8004faa:	63fb      	str	r3, [r7, #60]	@ 0x3c
   return(result);
 8004fac:	6bfb      	ldr	r3, [r7, #60]	@ 0x3c
 8004fae:	2b00      	cmp	r3, #0
 8004fb0:	d1e3      	bne.n	8004f7a <HAL_UART_IRQHandler+0x43a>

        /* Disable the UART Error Interrupt: (Frame error, noise error, overrun error) */
        ATOMIC_CLEAR_BIT(huart->Instance->CR3, USART_CR3_EIE);
 8004fb2:	687b      	ldr	r3, [r7, #4]
 8004fb4:	681b      	ldr	r3, [r3, #0]
 8004fb6:	3314      	adds	r3, #20
 8004fb8:	627b      	str	r3, [r7, #36]	@ 0x24
   __ASM volatile ("ldrex %0, %1" : "=r" (result) : "Q" (*addr) );
 8004fba:	6a7b      	ldr	r3, [r7, #36]	@ 0x24
 8004fbc:	e853 3f00 	ldrex	r3, [r3]
 8004fc0:	623b      	str	r3, [r7, #32]
   return(result);
 8004fc2:	6a3b      	ldr	r3, [r7, #32]
 8004fc4:	f023 0301 	bic.w	r3, r3, #1
 8004fc8:	f8c7 30c4 	str.w	r3, [r7, #196]	@ 0xc4
 8004fcc:	687b      	ldr	r3, [r7, #4]
 8004fce:	681b      	ldr	r3, [r3, #0]
 8004fd0:	3314      	adds	r3, #20
 8004fd2:	f8d7 20c4 	ldr.w	r2, [r7, #196]	@ 0xc4
 8004fd6:	633a      	str	r2, [r7, #48]	@ 0x30
 8004fd8:	62fb      	str	r3, [r7, #44]	@ 0x2c
   __ASM volatile ("strex %0, %2, %1" : "=&r" (result), "=Q" (*addr) : "r" (value) );
 8004fda:	6af9      	ldr	r1, [r7, #44]	@ 0x2c
 8004fdc:	6b3a      	ldr	r2, [r7, #48]	@ 0x30
 8004fde:	e841 2300 	strex	r3, r2, [r1]
 8004fe2:	62bb      	str	r3, [r7, #40]	@ 0x28
   return(result);
 8004fe4:	6abb      	ldr	r3, [r7, #40]	@ 0x28
 8004fe6:	2b00      	cmp	r3, #0
 8004fe8:	d1e3      	bne.n	8004fb2 <HAL_UART_IRQHandler+0x472>

        /* Rx process is completed, restore huart->RxState to Ready */
        huart->RxState = HAL_UART_STATE_READY;
 8004fea:	687b      	ldr	r3, [r7, #4]
 8004fec:	2220      	movs	r2, #32
 8004fee:	f883 2042 	strb.w	r2, [r3, #66]	@ 0x42
        huart->ReceptionType = HAL_UART_RECEPTION_STANDARD;
 8004ff2:	687b      	ldr	r3, [r7, #4]
 8004ff4:	2200      	movs	r2, #0
 8004ff6:	631a      	str	r2, [r3, #48]	@ 0x30

        ATOMIC_CLEAR_BIT(huart->Instance->CR1, USART_CR1_IDLEIE);
 8004ff8:	687b      	ldr	r3, [r7, #4]
 8004ffa:	681b      	ldr	r3, [r3, #0]
 8004ffc:	330c      	adds	r3, #12
 8004ffe:	613b      	str	r3, [r7, #16]
   __ASM volatile ("ldrex %0, %1" : "=r" (result) : "Q" (*addr) );
 8005000:	693b      	ldr	r3, [r7, #16]
 8005002:	e853 3f00 	ldrex	r3, [r3]
 8005006:	60fb      	str	r3, [r7, #12]
   return(result);
 8005008:	68fb      	ldr	r3, [r7, #12]
 800500a:	f023 0310 	bic.w	r3, r3, #16
 800500e:	f8c7 30c0 	str.w	r3, [r7, #192]	@ 0xc0
 8005012:	687b      	ldr	r3, [r7, #4]
 8005014:	681b      	ldr	r3, [r3, #0]
 8005016:	330c      	adds	r3, #12
 8005018:	f8d7 20c0 	ldr.w	r2, [r7, #192]	@ 0xc0
 800501c:	61fa      	str	r2, [r7, #28]
 800501e:	61bb      	str	r3, [r7, #24]
   __ASM volatile ("strex %0, %2, %1" : "=&r" (result), "=Q" (*addr) : "r" (value) );
 8005020:	69b9      	ldr	r1, [r7, #24]
 8005022:	69fa      	ldr	r2, [r7, #28]
 8005024:	e841 2300 	strex	r3, r2, [r1]
 8005028:	617b      	str	r3, [r7, #20]
   return(result);
 800502a:	697b      	ldr	r3, [r7, #20]
 800502c:	2b00      	cmp	r3, #0
 800502e:	d1e3      	bne.n	8004ff8 <HAL_UART_IRQHandler+0x4b8>

        /* Initialize type of RxEvent that correspond to RxEvent callback execution;
           In this case, Rx Event type is Idle Event */
        huart->RxEventType = HAL_UART_RXEVENT_IDLE;
 8005030:	687b      	ldr	r3, [r7, #4]
 8005032:	2202      	movs	r2, #2
 8005034:	635a      	str	r2, [r3, #52]	@ 0x34
#if (USE_HAL_UART_REGISTER_CALLBACKS == 1)
        /*Call registered Rx complete callback*/
        huart->RxEventCallback(huart, nb_rx_data);
#else
        /*Call legacy weak Rx Event callback*/
        HAL_UARTEx_RxEventCallback(huart, nb_rx_data);
 8005036:	f8b7 30ce 	ldrh.w	r3, [r7, #206]	@ 0xce
 800503a:	4619      	mov	r1, r3
 800503c:	6878      	ldr	r0, [r7, #4]
 800503e:	f000 f833 	bl	80050a8 <HAL_UARTEx_RxEventCallback>
#endif /* USE_HAL_UART_REGISTER_CALLBACKS */
      }
      return;
 8005042:	e023      	b.n	800508c <HAL_UART_IRQHandler+0x54c>
    }
  }

  /* UART in mode Transmitter ------------------------------------------------*/
  if (((isrflags & USART_SR_TXE) != RESET) && ((cr1its & USART_CR1_TXEIE) != RESET))
 8005044:	f8d7 30e4 	ldr.w	r3, [r7, #228]	@ 0xe4
 8005048:	f003 0380 	and.w	r3, r3, #128	@ 0x80
 800504c:	2b00      	cmp	r3, #0
 800504e:	d009      	beq.n	8005064 <HAL_UART_IRQHandler+0x524>
 8005050:	f8d7 30e0 	ldr.w	r3, [r7, #224]	@ 0xe0
 8005054:	f003 0380 	and.w	r3, r3, #128	@ 0x80
 8005058:	2b00      	cmp	r3, #0
 800505a:	d003      	beq.n	8005064 <HAL_UART_IRQHandler+0x524>
  {
    UART_Transmit_IT(huart);
 800505c:	6878      	ldr	r0, [r7, #4]
 800505e:	f000 f942 	bl	80052e6 <UART_Transmit_IT>
    return;
 8005062:	e014      	b.n	800508e <HAL_UART_IRQHandler+0x54e>
  }

  /* UART in mode Transmitter end --------------------------------------------*/
  if (((isrflags & USART_SR_TC) != RESET) && ((cr1its & USART_CR1_TCIE) != RESET))
 8005064:	f8d7 30e4 	ldr.w	r3, [r7, #228]	@ 0xe4
 8005068:	f003 0340 	and.w	r3, r3, #64	@ 0x40
 800506c:	2b00      	cmp	r3, #0
 800506e:	d00e      	beq.n	800508e <HAL_UART_IRQHandler+0x54e>
 8005070:	f8d7 30e0 	ldr.w	r3, [r7, #224]	@ 0xe0
 8005074:	f003 0340 	and.w	r3, r3, #64	@ 0x40
 8005078:	2b00      	cmp	r3, #0
 800507a:	d008      	beq.n	800508e <HAL_UART_IRQHandler+0x54e>
  {
    UART_EndTransmit_IT(huart);
 800507c:	6878      	ldr	r0, [r7, #4]
 800507e:	f000 f982 	bl	8005386 <UART_EndTransmit_IT>
    return;
 8005082:	e004      	b.n	800508e <HAL_UART_IRQHandler+0x54e>
    return;
 8005084:	bf00      	nop
 8005086:	e002      	b.n	800508e <HAL_UART_IRQHandler+0x54e>
      return;
 8005088:	bf00      	nop
 800508a:	e000      	b.n	800508e <HAL_UART_IRQHandler+0x54e>
      return;
 800508c:	bf00      	nop
  }
}
 800508e:	37e8      	adds	r7, #232	@ 0xe8
 8005090:	46bd      	mov	sp, r7
 8005092:	bd80      	pop	{r7, pc}

08005094 <HAL_UART_TxCpltCallback>:
  * @param  huart  Pointer to a UART_HandleTypeDef structure that contains
  *                the configuration information for the specified UART module.
  * @retval None
  */
__weak void HAL_UART_TxCpltCallback(UART_HandleTypeDef *huart)
{
 8005094:	b480      	push	{r7}
 8005096:	b083      	sub	sp, #12
 8005098:	af00      	add	r7, sp, #0
 800509a:	6078      	str	r0, [r7, #4]
  /* Prevent unused argument(s) compilation warning */
  UNUSED(huart);
  /* NOTE: This function should not be modified, when the callback is needed,
           the HAL_UART_TxCpltCallback could be implemented in the user file
   */
}
 800509c:	bf00      	nop
 800509e:	370c      	adds	r7, #12
 80050a0:	46bd      	mov	sp, r7
 80050a2:	f85d 7b04 	ldr.w	r7, [sp], #4
 80050a6:	4770      	bx	lr

080050a8 <HAL_UARTEx_RxEventCallback>:
  * @param  Size  Number of data available in application reception buffer (indicates a position in
  *               reception buffer until which, data are available)
  * @retval None
  */
__weak void HAL_UARTEx_RxEventCallback(UART_HandleTypeDef *huart, uint16_t Size)
{
 80050a8:	b480      	push	{r7}
 80050aa:	b083      	sub	sp, #12
 80050ac:	af00      	add	r7, sp, #0
 80050ae:	6078      	str	r0, [r7, #4]
 80050b0:	460b      	mov	r3, r1
 80050b2:	807b      	strh	r3, [r7, #2]
  UNUSED(Size);

  /* NOTE : This function should not be modified, when the callback is needed,
            the HAL_UARTEx_RxEventCallback can be implemented in the user file.
   */
}
 80050b4:	bf00      	nop
 80050b6:	370c      	adds	r7, #12
 80050b8:	46bd      	mov	sp, r7
 80050ba:	f85d 7b04 	ldr.w	r7, [sp], #4
 80050be:	4770      	bx	lr

080050c0 <HAL_UART_GetError>:
  * @param  huart Pointer to a UART_HandleTypeDef structure that contains
  *               the configuration information for the specified UART.
  * @retval UART Error Code
  */
uint32_t HAL_UART_GetError(const UART_HandleTypeDef *huart)
{
 80050c0:	b480      	push	{r7}
 80050c2:	b083      	sub	sp, #12
 80050c4:	af00      	add	r7, sp, #0
 80050c6:	6078      	str	r0, [r7, #4]
  return huart->ErrorCode;
 80050c8:	687b      	ldr	r3, [r7, #4]
 80050ca:	6c5b      	ldr	r3, [r3, #68]	@ 0x44
}
 80050cc:	4618      	mov	r0, r3
 80050ce:	370c      	adds	r7, #12
 80050d0:	46bd      	mov	sp, r7
 80050d2:	f85d 7b04 	ldr.w	r7, [sp], #4
 80050d6:	4770      	bx	lr

080050d8 <UART_WaitOnFlagUntilTimeout>:
  * @param  Timeout Timeout duration
  * @retval HAL status
  */
static HAL_StatusTypeDef UART_WaitOnFlagUntilTimeout(UART_HandleTypeDef *huart, uint32_t Flag, FlagStatus Status,
                                                     uint32_t Tickstart, uint32_t Timeout)
{
 80050d8:	b580      	push	{r7, lr}
 80050da:	b086      	sub	sp, #24
 80050dc:	af00      	add	r7, sp, #0
 80050de:	60f8      	str	r0, [r7, #12]
 80050e0:	60b9      	str	r1, [r7, #8]
 80050e2:	603b      	str	r3, [r7, #0]
 80050e4:	4613      	mov	r3, r2
 80050e6:	71fb      	strb	r3, [r7, #7]
  /* Wait until flag is set */
  while ((__HAL_UART_GET_FLAG(huart, Flag) ? SET : RESET) == Status)
 80050e8:	e03b      	b.n	8005162 <UART_WaitOnFlagUntilTimeout+0x8a>
  {
    /* Check for the Timeout */
    if (Timeout != HAL_MAX_DELAY)
 80050ea:	6a3b      	ldr	r3, [r7, #32]
 80050ec:	f1b3 3fff 	cmp.w	r3, #4294967295
 80050f0:	d037      	beq.n	8005162 <UART_WaitOnFlagUntilTimeout+0x8a>
    {
      if (((HAL_GetTick() - Tickstart) > Timeout) || (Timeout == 0U))
 80050f2:	f7fd fc1d 	bl	8002930 <HAL_GetTick>
 80050f6:	4602      	mov	r2, r0
 80050f8:	683b      	ldr	r3, [r7, #0]
 80050fa:	1ad3      	subs	r3, r2, r3
 80050fc:	6a3a      	ldr	r2, [r7, #32]
 80050fe:	429a      	cmp	r2, r3
 8005100:	d302      	bcc.n	8005108 <UART_WaitOnFlagUntilTimeout+0x30>
 8005102:	6a3b      	ldr	r3, [r7, #32]
 8005104:	2b00      	cmp	r3, #0
 8005106:	d101      	bne.n	800510c <UART_WaitOnFlagUntilTimeout+0x34>
      {

        return HAL_TIMEOUT;
 8005108:	2303      	movs	r3, #3
 800510a:	e03a      	b.n	8005182 <UART_WaitOnFlagUntilTimeout+0xaa>
      }

      if ((READ_BIT(huart->Instance->CR1, USART_CR1_RE) != 0U) && (Flag != UART_FLAG_TXE) && (Flag != UART_FLAG_TC))
 800510c:	68fb      	ldr	r3, [r7, #12]
 800510e:	681b      	ldr	r3, [r3, #0]
 8005110:	68db      	ldr	r3, [r3, #12]
 8005112:	f003 0304 	and.w	r3, r3, #4
 8005116:	2b00      	cmp	r3, #0
 8005118:	d023      	beq.n	8005162 <UART_WaitOnFlagUntilTimeout+0x8a>
 800511a:	68bb      	ldr	r3, [r7, #8]
 800511c:	2b80      	cmp	r3, #128	@ 0x80
 800511e:	d020      	beq.n	8005162 <UART_WaitOnFlagUntilTimeout+0x8a>
 8005120:	68bb      	ldr	r3, [r7, #8]
 8005122:	2b40      	cmp	r3, #64	@ 0x40
 8005124:	d01d      	beq.n	8005162 <UART_WaitOnFlagUntilTimeout+0x8a>
      {
        if (__HAL_UART_GET_FLAG(huart, UART_FLAG_ORE) == SET)
 8005126:	68fb      	ldr	r3, [r7, #12]
 8005128:	681b      	ldr	r3, [r3, #0]
 800512a:	681b      	ldr	r3, [r3, #0]
 800512c:	f003 0308 	and.w	r3, r3, #8
 8005130:	2b08      	cmp	r3, #8
 8005132:	d116      	bne.n	8005162 <UART_WaitOnFlagUntilTimeout+0x8a>
        {
          /* Clear Overrun Error flag*/
          __HAL_UART_CLEAR_OREFLAG(huart);
 8005134:	2300      	movs	r3, #0
 8005136:	617b      	str	r3, [r7, #20]
 8005138:	68fb      	ldr	r3, [r7, #12]
 800513a:	681b      	ldr	r3, [r3, #0]
 800513c:	681b      	ldr	r3, [r3, #0]
 800513e:	617b      	str	r3, [r7, #20]
 8005140:	68fb      	ldr	r3, [r7, #12]
 8005142:	681b      	ldr	r3, [r3, #0]
 8005144:	685b      	ldr	r3, [r3, #4]
 8005146:	617b      	str	r3, [r7, #20]
 8005148:	697b      	ldr	r3, [r7, #20]

          /* Blocking error : transfer is aborted
          Set the UART state ready to be able to start again the process,
          Disable Rx Interrupts if ongoing */
          UART_EndRxTransfer(huart);
 800514a:	68f8      	ldr	r0, [r7, #12]
 800514c:	f000 f857 	bl	80051fe <UART_EndRxTransfer>

          huart->ErrorCode = HAL_UART_ERROR_ORE;
 8005150:	68fb      	ldr	r3, [r7, #12]
 8005152:	2208      	movs	r2, #8
 8005154:	645a      	str	r2, [r3, #68]	@ 0x44

          /* Process Unlocked */
          __HAL_UNLOCK(huart);
 8005156:	68fb      	ldr	r3, [r7, #12]
 8005158:	2200      	movs	r2, #0
 800515a:	f883 2040 	strb.w	r2, [r3, #64]	@ 0x40

          return HAL_ERROR;
 800515e:	2301      	movs	r3, #1
 8005160:	e00f      	b.n	8005182 <UART_WaitOnFlagUntilTimeout+0xaa>
  while ((__HAL_UART_GET_FLAG(huart, Flag) ? SET : RESET) == Status)
 8005162:	68fb      	ldr	r3, [r7, #12]
 8005164:	681b      	ldr	r3, [r3, #0]
 8005166:	681a      	ldr	r2, [r3, #0]
 8005168:	68bb      	ldr	r3, [r7, #8]
 800516a:	4013      	ands	r3, r2
 800516c:	68ba      	ldr	r2, [r7, #8]
 800516e:	429a      	cmp	r2, r3
 8005170:	bf0c      	ite	eq
 8005172:	2301      	moveq	r3, #1
 8005174:	2300      	movne	r3, #0
 8005176:	b2db      	uxtb	r3, r3
 8005178:	461a      	mov	r2, r3
 800517a:	79fb      	ldrb	r3, [r7, #7]
 800517c:	429a      	cmp	r2, r3
 800517e:	d0b4      	beq.n	80050ea <UART_WaitOnFlagUntilTimeout+0x12>
        }
      }
    }
  }
  return HAL_OK;
 8005180:	2300      	movs	r3, #0
}
 8005182:	4618      	mov	r0, r3
 8005184:	3718      	adds	r7, #24
 8005186:	46bd      	mov	sp, r7
 8005188:	bd80      	pop	{r7, pc}

0800518a <UART_Start_Receive_IT>:
  * @param  pData Pointer to data buffer (u8 or u16 data elements).
  * @param  Size  Amount of data elements (u8 or u16) to be received.
  * @retval HAL status
  */
HAL_StatusTypeDef UART_Start_Receive_IT(UART_HandleTypeDef *huart, uint8_t *pData, uint16_t Size)
{
 800518a:	b480      	push	{r7}
 800518c:	b085      	sub	sp, #20
 800518e:	af00      	add	r7, sp, #0
 8005190:	60f8      	str	r0, [r7, #12]
 8005192:	60b9      	str	r1, [r7, #8]
 8005194:	4613      	mov	r3, r2
 8005196:	80fb      	strh	r3, [r7, #6]
  huart->pRxBuffPtr = pData;
 8005198:	68fb      	ldr	r3, [r7, #12]
 800519a:	68ba      	ldr	r2, [r7, #8]
 800519c:	629a      	str	r2, [r3, #40]	@ 0x28
  huart->RxXferSize = Size;
 800519e:	68fb      	ldr	r3, [r7, #12]
 80051a0:	88fa      	ldrh	r2, [r7, #6]
 80051a2:	859a      	strh	r2, [r3, #44]	@ 0x2c
  huart->RxXferCount = Size;
 80051a4:	68fb      	ldr	r3, [r7, #12]
 80051a6:	88fa      	ldrh	r2, [r7, #6]
 80051a8:	85da      	strh	r2, [r3, #46]	@ 0x2e

  huart->ErrorCode = HAL_UART_ERROR_NONE;
 80051aa:	68fb      	ldr	r3, [r7, #12]
 80051ac:	2200      	movs	r2, #0
 80051ae:	645a      	str	r2, [r3, #68]	@ 0x44
  huart->RxState = HAL_UART_STATE_BUSY_RX;
 80051b0:	68fb      	ldr	r3, [r7, #12]
 80051b2:	2222      	movs	r2, #34	@ 0x22
 80051b4:	f883 2042 	strb.w	r2, [r3, #66]	@ 0x42

  if (huart->Init.Parity != UART_PARITY_NONE)
 80051b8:	68fb      	ldr	r3, [r7, #12]
 80051ba:	691b      	ldr	r3, [r3, #16]
 80051bc:	2b00      	cmp	r3, #0
 80051be:	d007      	beq.n	80051d0 <UART_Start_Receive_IT+0x46>
  {
    /* Enable the UART Parity Error Interrupt */
    __HAL_UART_ENABLE_IT(huart, UART_IT_PE);
 80051c0:	68fb      	ldr	r3, [r7, #12]
 80051c2:	681b      	ldr	r3, [r3, #0]
 80051c4:	68da      	ldr	r2, [r3, #12]
 80051c6:	68fb      	ldr	r3, [r7, #12]
 80051c8:	681b      	ldr	r3, [r3, #0]
 80051ca:	f442 7280 	orr.w	r2, r2, #256	@ 0x100
 80051ce:	60da      	str	r2, [r3, #12]
  }

  /* Enable the UART Error Interrupt: (Frame error, noise error, overrun error) */
  __HAL_UART_ENABLE_IT(huart, UART_IT_ERR);
 80051d0:	68fb      	ldr	r3, [r7, #12]
 80051d2:	681b      	ldr	r3, [r3, #0]
 80051d4:	695a      	ldr	r2, [r3, #20]
 80051d6:	68fb      	ldr	r3, [r7, #12]
 80051d8:	681b      	ldr	r3, [r3, #0]
 80051da:	f042 0201 	orr.w	r2, r2, #1
 80051de:	615a      	str	r2, [r3, #20]

  /* Enable the UART Data Register not empty Interrupt */
  __HAL_UART_ENABLE_IT(huart, UART_IT_RXNE);
 80051e0:	68fb      	ldr	r3, [r7, #12]
 80051e2:	681b      	ldr	r3, [r3, #0]
 80051e4:	68da      	ldr	r2, [r3, #12]
 80051e6:	68fb      	ldr	r3, [r7, #12]
 80051e8:	681b      	ldr	r3, [r3, #0]
 80051ea:	f042 0220 	orr.w	r2, r2, #32
 80051ee:	60da      	str	r2, [r3, #12]

  return HAL_OK;
 80051f0:	2300      	movs	r3, #0
}
 80051f2:	4618      	mov	r0, r3
 80051f4:	3714      	adds	r7, #20
 80051f6:	46bd      	mov	sp, r7
 80051f8:	f85d 7b04 	ldr.w	r7, [sp], #4
 80051fc:	4770      	bx	lr

080051fe <UART_EndRxTransfer>:
  * @brief  End ongoing Rx transfer on UART peripheral (following error detection or Reception completion).
  * @param  huart UART handle.
  * @retval None
  */
static void UART_EndRxTransfer(UART_HandleTypeDef *huart)
{
 80051fe:	b480      	push	{r7}
 8005200:	b095      	sub	sp, #84	@ 0x54
 8005202:	af00      	add	r7, sp, #0
 8005204:	6078      	str	r0, [r7, #4]
  /* Disable RXNE, PE and ERR (Frame error, noise error, overrun error) interrupts */
  ATOMIC_CLEAR_BIT(huart->Instance->CR1, (USART_CR1_RXNEIE | USART_CR1_PEIE));
 8005206:	687b      	ldr	r3, [r7, #4]
 8005208:	681b      	ldr	r3, [r3, #0]
 800520a:	330c      	adds	r3, #12
 800520c:	637b      	str	r3, [r7, #52]	@ 0x34
   __ASM volatile ("ldrex %0, %1" : "=r" (result) : "Q" (*addr) );
 800520e:	6b7b      	ldr	r3, [r7, #52]	@ 0x34
 8005210:	e853 3f00 	ldrex	r3, [r3]
 8005214:	633b      	str	r3, [r7, #48]	@ 0x30
   return(result);
 8005216:	6b3b      	ldr	r3, [r7, #48]	@ 0x30
 8005218:	f423 7390 	bic.w	r3, r3, #288	@ 0x120
 800521c:	64fb      	str	r3, [r7, #76]	@ 0x4c
 800521e:	687b      	ldr	r3, [r7, #4]
 8005220:	681b      	ldr	r3, [r3, #0]
 8005222:	330c      	adds	r3, #12
 8005224:	6cfa      	ldr	r2, [r7, #76]	@ 0x4c
 8005226:	643a      	str	r2, [r7, #64]	@ 0x40
 8005228:	63fb      	str	r3, [r7, #60]	@ 0x3c
   __ASM volatile ("strex %0, %2, %1" : "=&r" (result), "=Q" (*addr) : "r" (value) );
 800522a:	6bf9      	ldr	r1, [r7, #60]	@ 0x3c
 800522c:	6c3a      	ldr	r2, [r7, #64]	@ 0x40
 800522e:	e841 2300 	strex	r3, r2, [r1]
 8005232:	63bb      	str	r3, [r7, #56]	@ 0x38
   return(result);
 8005234:	6bbb      	ldr	r3, [r7, #56]	@ 0x38
 8005236:	2b00      	cmp	r3, #0
 8005238:	d1e5      	bne.n	8005206 <UART_EndRxTransfer+0x8>
  ATOMIC_CLEAR_BIT(huart->Instance->CR3, USART_CR3_EIE);
 800523a:	687b      	ldr	r3, [r7, #4]
 800523c:	681b      	ldr	r3, [r3, #0]
 800523e:	3314      	adds	r3, #20
 8005240:	623b      	str	r3, [r7, #32]
   __ASM volatile ("ldrex %0, %1" : "=r" (result) : "Q" (*addr) );
 8005242:	6a3b      	ldr	r3, [r7, #32]
 8005244:	e853 3f00 	ldrex	r3, [r3]
 8005248:	61fb      	str	r3, [r7, #28]
   return(result);
 800524a:	69fb      	ldr	r3, [r7, #28]
 800524c:	f023 0301 	bic.w	r3, r3, #1
 8005250:	64bb      	str	r3, [r7, #72]	@ 0x48
 8005252:	687b      	ldr	r3, [r7, #4]
 8005254:	681b      	ldr	r3, [r3, #0]
 8005256:	3314      	adds	r3, #20
 8005258:	6cba      	ldr	r2, [r7, #72]	@ 0x48
 800525a:	62fa      	str	r2, [r7, #44]	@ 0x2c
 800525c:	62bb      	str	r3, [r7, #40]	@ 0x28
   __ASM volatile ("strex %0, %2, %1" : "=&r" (result), "=Q" (*addr) : "r" (value) );
 800525e:	6ab9      	ldr	r1, [r7, #40]	@ 0x28
 8005260:	6afa      	ldr	r2, [r7, #44]	@ 0x2c
 8005262:	e841 2300 	strex	r3, r2, [r1]
 8005266:	627b      	str	r3, [r7, #36]	@ 0x24
   return(result);
 8005268:	6a7b      	ldr	r3, [r7, #36]	@ 0x24
 800526a:	2b00      	cmp	r3, #0
 800526c:	d1e5      	bne.n	800523a <UART_EndRxTransfer+0x3c>

  /* In case of reception waiting for IDLE event, disable also the IDLE IE interrupt source */
  if (huart->ReceptionType == HAL_UART_RECEPTION_TOIDLE)
 800526e:	687b      	ldr	r3, [r7, #4]
 8005270:	6b1b      	ldr	r3, [r3, #48]	@ 0x30
 8005272:	2b01      	cmp	r3, #1
 8005274:	d119      	bne.n	80052aa <UART_EndRxTransfer+0xac>
  {
    ATOMIC_CLEAR_BIT(huart->Instance->CR1, USART_CR1_IDLEIE);
 8005276:	687b      	ldr	r3, [r7, #4]
 8005278:	681b      	ldr	r3, [r3, #0]
 800527a:	330c      	adds	r3, #12
 800527c:	60fb      	str	r3, [r7, #12]
   __ASM volatile ("ldrex %0, %1" : "=r" (result) : "Q" (*addr) );
 800527e:	68fb      	ldr	r3, [r7, #12]
 8005280:	e853 3f00 	ldrex	r3, [r3]
 8005284:	60bb      	str	r3, [r7, #8]
   return(result);
 8005286:	68bb      	ldr	r3, [r7, #8]
 8005288:	f023 0310 	bic.w	r3, r3, #16
 800528c:	647b      	str	r3, [r7, #68]	@ 0x44
 800528e:	687b      	ldr	r3, [r7, #4]
 8005290:	681b      	ldr	r3, [r3, #0]
 8005292:	330c      	adds	r3, #12
 8005294:	6c7a      	ldr	r2, [r7, #68]	@ 0x44
 8005296:	61ba      	str	r2, [r7, #24]
 8005298:	617b      	str	r3, [r7, #20]
   __ASM volatile ("strex %0, %2, %1" : "=&r" (result), "=Q" (*addr) : "r" (value) );
 800529a:	6979      	ldr	r1, [r7, #20]
 800529c:	69ba      	ldr	r2, [r7, #24]
 800529e:	e841 2300 	strex	r3, r2, [r1]
 80052a2:	613b      	str	r3, [r7, #16]
   return(result);
 80052a4:	693b      	ldr	r3, [r7, #16]
 80052a6:	2b00      	cmp	r3, #0
 80052a8:	d1e5      	bne.n	8005276 <UART_EndRxTransfer+0x78>
  }

  /* At end of Rx process, restore huart->RxState to Ready */
  huart->RxState = HAL_UART_STATE_READY;
 80052aa:	687b      	ldr	r3, [r7, #4]
 80052ac:	2220      	movs	r2, #32
 80052ae:	f883 2042 	strb.w	r2, [r3, #66]	@ 0x42
  huart->ReceptionType = HAL_UART_RECEPTION_STANDARD;
 80052b2:	687b      	ldr	r3, [r7, #4]
 80052b4:	2200      	movs	r2, #0
 80052b6:	631a      	str	r2, [r3, #48]	@ 0x30
}
 80052b8:	bf00      	nop
 80052ba:	3754      	adds	r7, #84	@ 0x54
 80052bc:	46bd      	mov	sp, r7
 80052be:	f85d 7b04 	ldr.w	r7, [sp], #4
 80052c2:	4770      	bx	lr

080052c4 <UART_DMAAbortOnError>:
  * @param  hdma  Pointer to a DMA_HandleTypeDef structure that contains
  *               the configuration information for the specified DMA module.
  * @retval None
  */
static void UART_DMAAbortOnError(DMA_HandleTypeDef *hdma)
{
 80052c4:	b580      	push	{r7, lr}
 80052c6:	b084      	sub	sp, #16
 80052c8:	af00      	add	r7, sp, #0
 80052ca:	6078      	str	r0, [r7, #4]
  UART_HandleTypeDef *huart = (UART_HandleTypeDef *)((DMA_HandleTypeDef *)hdma)->Parent;
 80052cc:	687b      	ldr	r3, [r7, #4]
 80052ce:	6b9b      	ldr	r3, [r3, #56]	@ 0x38
 80052d0:	60fb      	str	r3, [r7, #12]
  huart->RxXferCount = 0x00U;
 80052d2:	68fb      	ldr	r3, [r7, #12]
 80052d4:	2200      	movs	r2, #0
 80052d6:	85da      	strh	r2, [r3, #46]	@ 0x2e
#if (USE_HAL_UART_REGISTER_CALLBACKS == 1)
  /*Call registered error callback*/
  huart->ErrorCallback(huart);
#else
  /*Call legacy weak error callback*/
  HAL_UART_ErrorCallback(huart);
 80052d8:	68f8      	ldr	r0, [r7, #12]
 80052da:	f7fc fc1d 	bl	8001b18 <HAL_UART_ErrorCallback>
#endif /* USE_HAL_UART_REGISTER_CALLBACKS */
}
 80052de:	bf00      	nop
 80052e0:	3710      	adds	r7, #16
 80052e2:	46bd      	mov	sp, r7
 80052e4:	bd80      	pop	{r7, pc}

080052e6 <UART_Transmit_IT>:
  * @param  huart  Pointer to a UART_HandleTypeDef structure that contains
  *                the configuration information for the specified UART module.
  * @retval HAL status
  */
static HAL_StatusTypeDef UART_Transmit_IT(UART_HandleTypeDef *huart)
{
 80052e6:	b480      	push	{r7}
 80052e8:	b085      	sub	sp, #20
 80052ea:	af00      	add	r7, sp, #0
 80052ec:	6078      	str	r0, [r7, #4]
  const uint16_t *tmp;

  /* Check that a Tx process is ongoing */
  if (huart->gState == HAL_UART_STATE_BUSY_TX)
 80052ee:	687b      	ldr	r3, [r7, #4]
 80052f0:	f893 3041 	ldrb.w	r3, [r3, #65]	@ 0x41
 80052f4:	b2db      	uxtb	r3, r3
 80052f6:	2b21      	cmp	r3, #33	@ 0x21
 80052f8:	d13e      	bne.n	8005378 <UART_Transmit_IT+0x92>
  {
    if ((huart->Init.WordLength == UART_WORDLENGTH_9B) && (huart->Init.Parity == UART_PARITY_NONE))
 80052fa:	687b      	ldr	r3, [r7, #4]
 80052fc:	689b      	ldr	r3, [r3, #8]
 80052fe:	f5b3 5f80 	cmp.w	r3, #4096	@ 0x1000
 8005302:	d114      	bne.n	800532e <UART_Transmit_IT+0x48>
 8005304:	687b      	ldr	r3, [r7, #4]
 8005306:	691b      	ldr	r3, [r3, #16]
 8005308:	2b00      	cmp	r3, #0
 800530a:	d110      	bne.n	800532e <UART_Transmit_IT+0x48>
    {
      tmp = (const uint16_t *) huart->pTxBuffPtr;
 800530c:	687b      	ldr	r3, [r7, #4]
 800530e:	6a1b      	ldr	r3, [r3, #32]
 8005310:	60fb      	str	r3, [r7, #12]
      huart->Instance->DR = (uint16_t)(*tmp & (uint16_t)0x01FF);
 8005312:	68fb      	ldr	r3, [r7, #12]
 8005314:	881b      	ldrh	r3, [r3, #0]
 8005316:	461a      	mov	r2, r3
 8005318:	687b      	ldr	r3, [r7, #4]
 800531a:	681b      	ldr	r3, [r3, #0]
 800531c:	f3c2 0208 	ubfx	r2, r2, #0, #9
 8005320:	605a      	str	r2, [r3, #4]
      huart->pTxBuffPtr += 2U;
 8005322:	687b      	ldr	r3, [r7, #4]
 8005324:	6a1b      	ldr	r3, [r3, #32]
 8005326:	1c9a      	adds	r2, r3, #2
 8005328:	687b      	ldr	r3, [r7, #4]
 800532a:	621a      	str	r2, [r3, #32]
 800532c:	e008      	b.n	8005340 <UART_Transmit_IT+0x5a>
    }
    else
    {
      huart->Instance->DR = (uint8_t)(*huart->pTxBuffPtr++ & (uint8_t)0x00FF);
 800532e:	687b      	ldr	r3, [r7, #4]
 8005330:	6a1b      	ldr	r3, [r3, #32]
 8005332:	1c59      	adds	r1, r3, #1
 8005334:	687a      	ldr	r2, [r7, #4]
 8005336:	6211      	str	r1, [r2, #32]
 8005338:	781a      	ldrb	r2, [r3, #0]
 800533a:	687b      	ldr	r3, [r7, #4]
 800533c:	681b      	ldr	r3, [r3, #0]
 800533e:	605a      	str	r2, [r3, #4]
    }

    if (--huart->TxXferCount == 0U)
 8005340:	687b      	ldr	r3, [r7, #4]
 8005342:	8cdb      	ldrh	r3, [r3, #38]	@ 0x26
 8005344:	b29b      	uxth	r3, r3
 8005346:	3b01      	subs	r3, #1
 8005348:	b29b      	uxth	r3, r3
 800534a:	687a      	ldr	r2, [r7, #4]
 800534c:	4619      	mov	r1, r3
 800534e:	84d1      	strh	r1, [r2, #38]	@ 0x26
 8005350:	2b00      	cmp	r3, #0
 8005352:	d10f      	bne.n	8005374 <UART_Transmit_IT+0x8e>
    {
      /* Disable the UART Transmit Data Register Empty Interrupt */
      __HAL_UART_DISABLE_IT(huart, UART_IT_TXE);
 8005354:	687b      	ldr	r3, [r7, #4]
 8005356:	681b      	ldr	r3, [r3, #0]
 8005358:	68da      	ldr	r2, [r3, #12]
 800535a:	687b      	ldr	r3, [r7, #4]
 800535c:	681b      	ldr	r3, [r3, #0]
 800535e:	f022 0280 	bic.w	r2, r2, #128	@ 0x80
 8005362:	60da      	str	r2, [r3, #12]

      /* Enable the UART Transmit Complete Interrupt */
      __HAL_UART_ENABLE_IT(huart, UART_IT_TC);
 8005364:	687b      	ldr	r3, [r7, #4]
 8005366:	681b      	ldr	r3, [r3, #0]
 8005368:	68da      	ldr	r2, [r3, #12]
 800536a:	687b      	ldr	r3, [r7, #4]
 800536c:	681b      	ldr	r3, [r3, #0]
 800536e:	f042 0240 	orr.w	r2, r2, #64	@ 0x40
 8005372:	60da      	str	r2, [r3, #12]
    }
    return HAL_OK;
 8005374:	2300      	movs	r3, #0
 8005376:	e000      	b.n	800537a <UART_Transmit_IT+0x94>
  }
  else
  {
    return HAL_BUSY;
 8005378:	2302      	movs	r3, #2
  }
}
 800537a:	4618      	mov	r0, r3
 800537c:	3714      	adds	r7, #20
 800537e:	46bd      	mov	sp, r7
 8005380:	f85d 7b04 	ldr.w	r7, [sp], #4
 8005384:	4770      	bx	lr

08005386 <UART_EndTransmit_IT>:
  * @param  huart  Pointer to a UART_HandleTypeDef structure that contains
  *                the configuration information for the specified UART module.
  * @retval HAL status
  */
static HAL_StatusTypeDef UART_EndTransmit_IT(UART_HandleTypeDef *huart)
{
 8005386:	b580      	push	{r7, lr}
 8005388:	b082      	sub	sp, #8
 800538a:	af00      	add	r7, sp, #0
 800538c:	6078      	str	r0, [r7, #4]
  /* Disable the UART Transmit Complete Interrupt */
  __HAL_UART_DISABLE_IT(huart, UART_IT_TC);
 800538e:	687b      	ldr	r3, [r7, #4]
 8005390:	681b      	ldr	r3, [r3, #0]
 8005392:	68da      	ldr	r2, [r3, #12]
 8005394:	687b      	ldr	r3, [r7, #4]
 8005396:	681b      	ldr	r3, [r3, #0]
 8005398:	f022 0240 	bic.w	r2, r2, #64	@ 0x40
 800539c:	60da      	str	r2, [r3, #12]

  /* Tx process is ended, restore huart->gState to Ready */
  huart->gState = HAL_UART_STATE_READY;
 800539e:	687b      	ldr	r3, [r7, #4]
 80053a0:	2220      	movs	r2, #32
 80053a2:	f883 2041 	strb.w	r2, [r3, #65]	@ 0x41
#if (USE_HAL_UART_REGISTER_CALLBACKS == 1)
  /*Call registered Tx complete callback*/
  huart->TxCpltCallback(huart);
#else
  /*Call legacy weak Tx complete callback*/
  HAL_UART_TxCpltCallback(huart);
 80053a6:	6878      	ldr	r0, [r7, #4]
 80053a8:	f7ff fe74 	bl	8005094 <HAL_UART_TxCpltCallback>
#endif /* USE_HAL_UART_REGISTER_CALLBACKS */

  return HAL_OK;
 80053ac:	2300      	movs	r3, #0
}
 80053ae:	4618      	mov	r0, r3
 80053b0:	3708      	adds	r7, #8
 80053b2:	46bd      	mov	sp, r7
 80053b4:	bd80      	pop	{r7, pc}

080053b6 <UART_Receive_IT>:
  * @param  huart  Pointer to a UART_HandleTypeDef structure that contains
  *                the configuration information for the specified UART module.
  * @retval HAL status
  */
static HAL_StatusTypeDef UART_Receive_IT(UART_HandleTypeDef *huart)
{
 80053b6:	b580      	push	{r7, lr}
 80053b8:	b08c      	sub	sp, #48	@ 0x30
 80053ba:	af00      	add	r7, sp, #0
 80053bc:	6078      	str	r0, [r7, #4]
  uint8_t  *pdata8bits = NULL;
 80053be:	2300      	movs	r3, #0
 80053c0:	62fb      	str	r3, [r7, #44]	@ 0x2c
  uint16_t *pdata16bits = NULL;
 80053c2:	2300      	movs	r3, #0
 80053c4:	62bb      	str	r3, [r7, #40]	@ 0x28

  /* Check that a Rx process is ongoing */
  if (huart->RxState == HAL_UART_STATE_BUSY_RX)
 80053c6:	687b      	ldr	r3, [r7, #4]
 80053c8:	f893 3042 	ldrb.w	r3, [r3, #66]	@ 0x42
 80053cc:	b2db      	uxtb	r3, r3
 80053ce:	2b22      	cmp	r3, #34	@ 0x22
 80053d0:	f040 80aa 	bne.w	8005528 <UART_Receive_IT+0x172>
  {
    if ((huart->Init.WordLength == UART_WORDLENGTH_9B) && (huart->Init.Parity == UART_PARITY_NONE))
 80053d4:	687b      	ldr	r3, [r7, #4]
 80053d6:	689b      	ldr	r3, [r3, #8]
 80053d8:	f5b3 5f80 	cmp.w	r3, #4096	@ 0x1000
 80053dc:	d115      	bne.n	800540a <UART_Receive_IT+0x54>
 80053de:	687b      	ldr	r3, [r7, #4]
 80053e0:	691b      	ldr	r3, [r3, #16]
 80053e2:	2b00      	cmp	r3, #0
 80053e4:	d111      	bne.n	800540a <UART_Receive_IT+0x54>
    {
      /* Unused pdata8bits */
      UNUSED(pdata8bits);
      pdata16bits = (uint16_t *) huart->pRxBuffPtr;
 80053e6:	687b      	ldr	r3, [r7, #4]
 80053e8:	6a9b      	ldr	r3, [r3, #40]	@ 0x28
 80053ea:	62bb      	str	r3, [r7, #40]	@ 0x28
      *pdata16bits = (uint16_t)(huart->Instance->DR & (uint16_t)0x01FF);
 80053ec:	687b      	ldr	r3, [r7, #4]
 80053ee:	681b      	ldr	r3, [r3, #0]
 80053f0:	685b      	ldr	r3, [r3, #4]
 80053f2:	b29b      	uxth	r3, r3
 80053f4:	f3c3 0308 	ubfx	r3, r3, #0, #9
 80053f8:	b29a      	uxth	r2, r3
 80053fa:	6abb      	ldr	r3, [r7, #40]	@ 0x28
 80053fc:	801a      	strh	r2, [r3, #0]
      huart->pRxBuffPtr += 2U;
 80053fe:	687b      	ldr	r3, [r7, #4]
 8005400:	6a9b      	ldr	r3, [r3, #40]	@ 0x28
 8005402:	1c9a      	adds	r2, r3, #2
 8005404:	687b      	ldr	r3, [r7, #4]
 8005406:	629a      	str	r2, [r3, #40]	@ 0x28
 8005408:	e024      	b.n	8005454 <UART_Receive_IT+0x9e>
    }
    else
    {
      pdata8bits = (uint8_t *) huart->pRxBuffPtr;
 800540a:	687b      	ldr	r3, [r7, #4]
 800540c:	6a9b      	ldr	r3, [r3, #40]	@ 0x28
 800540e:	62fb      	str	r3, [r7, #44]	@ 0x2c
      /* Unused pdata16bits */
      UNUSED(pdata16bits);

      if ((huart->Init.WordLength == UART_WORDLENGTH_9B) || ((huart->Init.WordLength == UART_WORDLENGTH_8B) && (huart->Init.Parity == UART_PARITY_NONE)))
 8005410:	687b      	ldr	r3, [r7, #4]
 8005412:	689b      	ldr	r3, [r3, #8]
 8005414:	f5b3 5f80 	cmp.w	r3, #4096	@ 0x1000
 8005418:	d007      	beq.n	800542a <UART_Receive_IT+0x74>
 800541a:	687b      	ldr	r3, [r7, #4]
 800541c:	689b      	ldr	r3, [r3, #8]
 800541e:	2b00      	cmp	r3, #0
 8005420:	d10a      	bne.n	8005438 <UART_Receive_IT+0x82>
 8005422:	687b      	ldr	r3, [r7, #4]
 8005424:	691b      	ldr	r3, [r3, #16]
 8005426:	2b00      	cmp	r3, #0
 8005428:	d106      	bne.n	8005438 <UART_Receive_IT+0x82>
      {
        *pdata8bits = (uint8_t)(huart->Instance->DR & (uint8_t)0x00FF);
 800542a:	687b      	ldr	r3, [r7, #4]
 800542c:	681b      	ldr	r3, [r3, #0]
 800542e:	685b      	ldr	r3, [r3, #4]
 8005430:	b2da      	uxtb	r2, r3
 8005432:	6afb      	ldr	r3, [r7, #44]	@ 0x2c
 8005434:	701a      	strb	r2, [r3, #0]
 8005436:	e008      	b.n	800544a <UART_Receive_IT+0x94>
      }
      else
      {
        *pdata8bits = (uint8_t)(huart->Instance->DR & (uint8_t)0x007F);
 8005438:	687b      	ldr	r3, [r7, #4]
 800543a:	681b      	ldr	r3, [r3, #0]
 800543c:	685b      	ldr	r3, [r3, #4]
 800543e:	b2db      	uxtb	r3, r3
 8005440:	f003 037f 	and.w	r3, r3, #127	@ 0x7f
 8005444:	b2da      	uxtb	r2, r3
 8005446:	6afb      	ldr	r3, [r7, #44]	@ 0x2c
 8005448:	701a      	strb	r2, [r3, #0]
      }
      huart->pRxBuffPtr += 1U;
 800544a:	687b      	ldr	r3, [r7, #4]
 800544c:	6a9b      	ldr	r3, [r3, #40]	@ 0x28
 800544e:	1c5a      	adds	r2, r3, #1
 8005450:	687b      	ldr	r3, [r7, #4]
 8005452:	629a      	str	r2, [r3, #40]	@ 0x28
    }

    if (--huart->RxXferCount == 0U)
 8005454:	687b      	ldr	r3, [r7, #4]
 8005456:	8ddb      	ldrh	r3, [r3, #46]	@ 0x2e
 8005458:	b29b      	uxth	r3, r3
 800545a:	3b01      	subs	r3, #1
 800545c:	b29b      	uxth	r3, r3
 800545e:	687a      	ldr	r2, [r7, #4]
 8005460:	4619      	mov	r1, r3
 8005462:	85d1      	strh	r1, [r2, #46]	@ 0x2e
 8005464:	2b00      	cmp	r3, #0
 8005466:	d15d      	bne.n	8005524 <UART_Receive_IT+0x16e>
    {
      /* Disable the UART Data Register not empty Interrupt */
      __HAL_UART_DISABLE_IT(huart, UART_IT_RXNE);
 8005468:	687b      	ldr	r3, [r7, #4]
 800546a:	681b      	ldr	r3, [r3, #0]
 800546c:	68da      	ldr	r2, [r3, #12]
 800546e:	687b      	ldr	r3, [r7, #4]
 8005470:	681b      	ldr	r3, [r3, #0]
 8005472:	f022 0220 	bic.w	r2, r2, #32
 8005476:	60da      	str	r2, [r3, #12]

      /* Disable the UART Parity Error Interrupt */
      __HAL_UART_DISABLE_IT(huart, UART_IT_PE);
 8005478:	687b      	ldr	r3, [r7, #4]
 800547a:	681b      	ldr	r3, [r3, #0]
 800547c:	68da      	ldr	r2, [r3, #12]
 800547e:	687b      	ldr	r3, [r7, #4]
 8005480:	681b      	ldr	r3, [r3, #0]
 8005482:	f422 7280 	bic.w	r2, r2, #256	@ 0x100
 8005486:	60da      	str	r2, [r3, #12]

      /* Disable the UART Error Interrupt: (Frame error, noise error, overrun error) */
      __HAL_UART_DISABLE_IT(huart, UART_IT_ERR);
 8005488:	687b      	ldr	r3, [r7, #4]
 800548a:	681b      	ldr	r3, [r3, #0]
 800548c:	695a      	ldr	r2, [r3, #20]
 800548e:	687b      	ldr	r3, [r7, #4]
 8005490:	681b      	ldr	r3, [r3, #0]
 8005492:	f022 0201 	bic.w	r2, r2, #1
 8005496:	615a      	str	r2, [r3, #20]

      /* Rx process is completed, restore huart->RxState to Ready */
      huart->RxState = HAL_UART_STATE_READY;
 8005498:	687b      	ldr	r3, [r7, #4]
 800549a:	2220      	movs	r2, #32
 800549c:	f883 2042 	strb.w	r2, [r3, #66]	@ 0x42

      /* Initialize type of RxEvent to Transfer Complete */
      huart->RxEventType = HAL_UART_RXEVENT_TC;
 80054a0:	687b      	ldr	r3, [r7, #4]
 80054a2:	2200      	movs	r2, #0
 80054a4:	635a      	str	r2, [r3, #52]	@ 0x34

      /* Check current reception Mode :
         If Reception till IDLE event has been selected : */
      if (huart->ReceptionType == HAL_UART_RECEPTION_TOIDLE)
 80054a6:	687b      	ldr	r3, [r7, #4]
 80054a8:	6b1b      	ldr	r3, [r3, #48]	@ 0x30
 80054aa:	2b01      	cmp	r3, #1
 80054ac:	d135      	bne.n	800551a <UART_Receive_IT+0x164>
      {
        /* Set reception type to Standard */
        huart->ReceptionType = HAL_UART_RECEPTION_STANDARD;
 80054ae:	687b      	ldr	r3, [r7, #4]
 80054b0:	2200      	movs	r2, #0
 80054b2:	631a      	str	r2, [r3, #48]	@ 0x30

        /* Disable IDLE interrupt */
        ATOMIC_CLEAR_BIT(huart->Instance->CR1, USART_CR1_IDLEIE);
 80054b4:	687b      	ldr	r3, [r7, #4]
 80054b6:	681b      	ldr	r3, [r3, #0]
 80054b8:	330c      	adds	r3, #12
 80054ba:	617b      	str	r3, [r7, #20]
   __ASM volatile ("ldrex %0, %1" : "=r" (result) : "Q" (*addr) );
 80054bc:	697b      	ldr	r3, [r7, #20]
 80054be:	e853 3f00 	ldrex	r3, [r3]
 80054c2:	613b      	str	r3, [r7, #16]
   return(result);
 80054c4:	693b      	ldr	r3, [r7, #16]
 80054c6:	f023 0310 	bic.w	r3, r3, #16
 80054ca:	627b      	str	r3, [r7, #36]	@ 0x24
 80054cc:	687b      	ldr	r3, [r7, #4]
 80054ce:	681b      	ldr	r3, [r3, #0]
 80054d0:	330c      	adds	r3, #12
 80054d2:	6a7a      	ldr	r2, [r7, #36]	@ 0x24
 80054d4:	623a      	str	r2, [r7, #32]
 80054d6:	61fb      	str	r3, [r7, #28]
   __ASM volatile ("strex %0, %2, %1" : "=&r" (result), "=Q" (*addr) : "r" (value) );
 80054d8:	69f9      	ldr	r1, [r7, #28]
 80054da:	6a3a      	ldr	r2, [r7, #32]
 80054dc:	e841 2300 	strex	r3, r2, [r1]
 80054e0:	61bb      	str	r3, [r7, #24]
   return(result);
 80054e2:	69bb      	ldr	r3, [r7, #24]
 80054e4:	2b00      	cmp	r3, #0
 80054e6:	d1e5      	bne.n	80054b4 <UART_Receive_IT+0xfe>

        /* Check if IDLE flag is set */
        if (__HAL_UART_GET_FLAG(huart, UART_FLAG_IDLE))
 80054e8:	687b      	ldr	r3, [r7, #4]
 80054ea:	681b      	ldr	r3, [r3, #0]
 80054ec:	681b      	ldr	r3, [r3, #0]
 80054ee:	f003 0310 	and.w	r3, r3, #16
 80054f2:	2b10      	cmp	r3, #16
 80054f4:	d10a      	bne.n	800550c <UART_Receive_IT+0x156>
        {
          /* Clear IDLE flag in ISR */
          __HAL_UART_CLEAR_IDLEFLAG(huart);
 80054f6:	2300      	movs	r3, #0
 80054f8:	60fb      	str	r3, [r7, #12]
 80054fa:	687b      	ldr	r3, [r7, #4]
 80054fc:	681b      	ldr	r3, [r3, #0]
 80054fe:	681b      	ldr	r3, [r3, #0]
 8005500:	60fb      	str	r3, [r7, #12]
 8005502:	687b      	ldr	r3, [r7, #4]
 8005504:	681b      	ldr	r3, [r3, #0]
 8005506:	685b      	ldr	r3, [r3, #4]
 8005508:	60fb      	str	r3, [r7, #12]
 800550a:	68fb      	ldr	r3, [r7, #12]
#if (USE_HAL_UART_REGISTER_CALLBACKS == 1)
        /*Call registered Rx Event callback*/
        huart->RxEventCallback(huart, huart->RxXferSize);
#else
        /*Call legacy weak Rx Event callback*/
        HAL_UARTEx_RxEventCallback(huart, huart->RxXferSize);
 800550c:	687b      	ldr	r3, [r7, #4]
 800550e:	8d9b      	ldrh	r3, [r3, #44]	@ 0x2c
 8005510:	4619      	mov	r1, r3
 8005512:	6878      	ldr	r0, [r7, #4]
 8005514:	f7ff fdc8 	bl	80050a8 <HAL_UARTEx_RxEventCallback>
 8005518:	e002      	b.n	8005520 <UART_Receive_IT+0x16a>
#if (USE_HAL_UART_REGISTER_CALLBACKS == 1)
        /*Call registered Rx complete callback*/
        huart->RxCpltCallback(huart);
#else
        /*Call legacy weak Rx complete callback*/
        HAL_UART_RxCpltCallback(huart);
 800551a:	6878      	ldr	r0, [r7, #4]
 800551c:	f7fc fa68 	bl	80019f0 <HAL_UART_RxCpltCallback>
#endif /* USE_HAL_UART_REGISTER_CALLBACKS */
      }

      return HAL_OK;
 8005520:	2300      	movs	r3, #0
 8005522:	e002      	b.n	800552a <UART_Receive_IT+0x174>
    }
    return HAL_OK;
 8005524:	2300      	movs	r3, #0
 8005526:	e000      	b.n	800552a <UART_Receive_IT+0x174>
  }
  else
  {
    return HAL_BUSY;
 8005528:	2302      	movs	r3, #2
  }
}
 800552a:	4618      	mov	r0, r3
 800552c:	3730      	adds	r7, #48	@ 0x30
 800552e:	46bd      	mov	sp, r7
 8005530:	bd80      	pop	{r7, pc}
	...

08005534 <UART_SetConfig>:
  * @param  huart  Pointer to a UART_HandleTypeDef structure that contains
  *                the configuration information for the specified UART module.
  * @retval None
  */
static void UART_SetConfig(UART_HandleTypeDef *huart)
{
 8005534:	e92d 4fb0 	stmdb	sp!, {r4, r5, r7, r8, r9, sl, fp, lr}
 8005538:	b0c0      	sub	sp, #256	@ 0x100
 800553a:	af00      	add	r7, sp, #0
 800553c:	f8c7 00f4 	str.w	r0, [r7, #244]	@ 0xf4
  assert_param(IS_UART_MODE(huart->Init.Mode));

  /*-------------------------- USART CR2 Configuration -----------------------*/
  /* Configure the UART Stop Bits: Set STOP[13:12] bits
     according to huart->Init.StopBits value */
  MODIFY_REG(huart->Instance->CR2, USART_CR2_STOP, huart->Init.StopBits);
 8005540:	f8d7 30f4 	ldr.w	r3, [r7, #244]	@ 0xf4
 8005544:	681b      	ldr	r3, [r3, #0]
 8005546:	691b      	ldr	r3, [r3, #16]
 8005548:	f423 5040 	bic.w	r0, r3, #12288	@ 0x3000
 800554c:	f8d7 30f4 	ldr.w	r3, [r7, #244]	@ 0xf4
 8005550:	68d9      	ldr	r1, [r3, #12]
 8005552:	f8d7 30f4 	ldr.w	r3, [r7, #244]	@ 0xf4
 8005556:	681a      	ldr	r2, [r3, #0]
 8005558:	ea40 0301 	orr.w	r3, r0, r1
 800555c:	6113      	str	r3, [r2, #16]
     Set the M bits according to huart->Init.WordLength value
     Set PCE and PS bits according to huart->Init.Parity value
     Set TE and RE bits according to huart->Init.Mode value
     Set OVER8 bit according to huart->Init.OverSampling value */

  tmpreg = (uint32_t)huart->Init.WordLength | huart->Init.Parity | huart->Init.Mode | huart->Init.OverSampling;
 800555e:	f8d7 30f4 	ldr.w	r3, [r7, #244]	@ 0xf4
 8005562:	689a      	ldr	r2, [r3, #8]
 8005564:	f8d7 30f4 	ldr.w	r3, [r7, #244]	@ 0xf4
 8005568:	691b      	ldr	r3, [r3, #16]
 800556a:	431a      	orrs	r2, r3
 800556c:	f8d7 30f4 	ldr.w	r3, [r7, #244]	@ 0xf4
 8005570:	695b      	ldr	r3, [r3, #20]
 8005572:	431a      	orrs	r2, r3
 8005574:	f8d7 30f4 	ldr.w	r3, [r7, #244]	@ 0xf4
 8005578:	69db      	ldr	r3, [r3, #28]
 800557a:	4313      	orrs	r3, r2
 800557c:	f8c7 30f8 	str.w	r3, [r7, #248]	@ 0xf8
  MODIFY_REG(huart->Instance->CR1,
 8005580:	f8d7 30f4 	ldr.w	r3, [r7, #244]	@ 0xf4
 8005584:	681b      	ldr	r3, [r3, #0]
 8005586:	68db      	ldr	r3, [r3, #12]
 8005588:	f423 4116 	bic.w	r1, r3, #38400	@ 0x9600
 800558c:	f021 010c 	bic.w	r1, r1, #12
 8005590:	f8d7 30f4 	ldr.w	r3, [r7, #244]	@ 0xf4
 8005594:	681a      	ldr	r2, [r3, #0]
 8005596:	f8d7 30f8 	ldr.w	r3, [r7, #248]	@ 0xf8
 800559a:	430b      	orrs	r3, r1
 800559c:	60d3      	str	r3, [r2, #12]
             (uint32_t)(USART_CR1_M | USART_CR1_PCE | USART_CR1_PS | USART_CR1_TE | USART_CR1_RE | USART_CR1_OVER8),
             tmpreg);

  /*-------------------------- USART CR3 Configuration -----------------------*/
  /* Configure the UART HFC: Set CTSE and RTSE bits according to huart->Init.HwFlowCtl value */
  MODIFY_REG(huart->Instance->CR3, (USART_CR3_RTSE | USART_CR3_CTSE), huart->Init.HwFlowCtl);
 800559e:	f8d7 30f4 	ldr.w	r3, [r7, #244]	@ 0xf4
 80055a2:	681b      	ldr	r3, [r3, #0]
 80055a4:	695b      	ldr	r3, [r3, #20]
 80055a6:	f423 7040 	bic.w	r0, r3, #768	@ 0x300
 80055aa:	f8d7 30f4 	ldr.w	r3, [r7, #244]	@ 0xf4
 80055ae:	6999      	ldr	r1, [r3, #24]
 80055b0:	f8d7 30f4 	ldr.w	r3, [r7, #244]	@ 0xf4
 80055b4:	681a      	ldr	r2, [r3, #0]
 80055b6:	ea40 0301 	orr.w	r3, r0, r1
 80055ba:	6153      	str	r3, [r2, #20]
    if ((huart->Instance == USART1) || (huart->Instance == USART6) || (huart->Instance == UART9) || (huart->Instance == UART10))
    {
      pclk = HAL_RCC_GetPCLK2Freq();
    }
#elif defined(USART6)
    if ((huart->Instance == USART1) || (huart->Instance == USART6))
 80055bc:	f8d7 30f4 	ldr.w	r3, [r7, #244]	@ 0xf4
 80055c0:	681a      	ldr	r2, [r3, #0]
 80055c2:	4b8f      	ldr	r3, [pc, #572]	@ (8005800 <UART_SetConfig+0x2cc>)
 80055c4:	429a      	cmp	r2, r3
 80055c6:	d005      	beq.n	80055d4 <UART_SetConfig+0xa0>
 80055c8:	f8d7 30f4 	ldr.w	r3, [r7, #244]	@ 0xf4
 80055cc:	681a      	ldr	r2, [r3, #0]
 80055ce:	4b8d      	ldr	r3, [pc, #564]	@ (8005804 <UART_SetConfig+0x2d0>)
 80055d0:	429a      	cmp	r2, r3
 80055d2:	d104      	bne.n	80055de <UART_SetConfig+0xaa>
    {
      pclk = HAL_RCC_GetPCLK2Freq();
 80055d4:	f7ff f9a0 	bl	8004918 <HAL_RCC_GetPCLK2Freq>
 80055d8:	f8c7 00fc 	str.w	r0, [r7, #252]	@ 0xfc
 80055dc:	e003      	b.n	80055e6 <UART_SetConfig+0xb2>
      pclk = HAL_RCC_GetPCLK2Freq();
    }
#endif /* USART6 */
    else
    {
      pclk = HAL_RCC_GetPCLK1Freq();
 80055de:	f7ff f987 	bl	80048f0 <HAL_RCC_GetPCLK1Freq>
 80055e2:	f8c7 00fc 	str.w	r0, [r7, #252]	@ 0xfc
    }
  /*-------------------------- USART BRR Configuration ---------------------*/
  if (huart->Init.OverSampling == UART_OVERSAMPLING_8)
 80055e6:	f8d7 30f4 	ldr.w	r3, [r7, #244]	@ 0xf4
 80055ea:	69db      	ldr	r3, [r3, #28]
 80055ec:	f5b3 4f00 	cmp.w	r3, #32768	@ 0x8000
 80055f0:	f040 810c 	bne.w	800580c <UART_SetConfig+0x2d8>
  {
    huart->Instance->BRR = UART_BRR_SAMPLING8(pclk, huart->Init.BaudRate);
 80055f4:	f8d7 30fc 	ldr.w	r3, [r7, #252]	@ 0xfc
 80055f8:	2200      	movs	r2, #0
 80055fa:	f8c7 30e8 	str.w	r3, [r7, #232]	@ 0xe8
 80055fe:	f8c7 20ec 	str.w	r2, [r7, #236]	@ 0xec
 8005602:	e9d7 453a 	ldrd	r4, r5, [r7, #232]	@ 0xe8
 8005606:	4622      	mov	r2, r4
 8005608:	462b      	mov	r3, r5
 800560a:	1891      	adds	r1, r2, r2
 800560c:	65b9      	str	r1, [r7, #88]	@ 0x58
 800560e:	415b      	adcs	r3, r3
 8005610:	65fb      	str	r3, [r7, #92]	@ 0x5c
 8005612:	e9d7 2316 	ldrd	r2, r3, [r7, #88]	@ 0x58
 8005616:	4621      	mov	r1, r4
 8005618:	eb12 0801 	adds.w	r8, r2, r1
 800561c:	4629      	mov	r1, r5
 800561e:	eb43 0901 	adc.w	r9, r3, r1
 8005622:	f04f 0200 	mov.w	r2, #0
 8005626:	f04f 0300 	mov.w	r3, #0
 800562a:	ea4f 03c9 	mov.w	r3, r9, lsl #3
 800562e:	ea43 7358 	orr.w	r3, r3, r8, lsr #29
 8005632:	ea4f 02c8 	mov.w	r2, r8, lsl #3
 8005636:	4690      	mov	r8, r2
 8005638:	4699      	mov	r9, r3
 800563a:	4623      	mov	r3, r4
 800563c:	eb18 0303 	adds.w	r3, r8, r3
 8005640:	f8c7 30e0 	str.w	r3, [r7, #224]	@ 0xe0
 8005644:	462b      	mov	r3, r5
 8005646:	eb49 0303 	adc.w	r3, r9, r3
 800564a:	f8c7 30e4 	str.w	r3, [r7, #228]	@ 0xe4
 800564e:	f8d7 30f4 	ldr.w	r3, [r7, #244]	@ 0xf4
 8005652:	685b      	ldr	r3, [r3, #4]
 8005654:	2200      	movs	r2, #0
 8005656:	f8c7 30d8 	str.w	r3, [r7, #216]	@ 0xd8
 800565a:	f8c7 20dc 	str.w	r2, [r7, #220]	@ 0xdc
 800565e:	e9d7 1236 	ldrd	r1, r2, [r7, #216]	@ 0xd8
 8005662:	460b      	mov	r3, r1
 8005664:	18db      	adds	r3, r3, r3
 8005666:	653b      	str	r3, [r7, #80]	@ 0x50
 8005668:	4613      	mov	r3, r2
 800566a:	eb42 0303 	adc.w	r3, r2, r3
 800566e:	657b      	str	r3, [r7, #84]	@ 0x54
 8005670:	e9d7 2314 	ldrd	r2, r3, [r7, #80]	@ 0x50
 8005674:	e9d7 0138 	ldrd	r0, r1, [r7, #224]	@ 0xe0
 8005678:	f7fb fb0e 	bl	8000c98 <__aeabi_uldivmod>
 800567c:	4602      	mov	r2, r0
 800567e:	460b      	mov	r3, r1
 8005680:	4b61      	ldr	r3, [pc, #388]	@ (8005808 <UART_SetConfig+0x2d4>)
 8005682:	fba3 2302 	umull	r2, r3, r3, r2
 8005686:	095b      	lsrs	r3, r3, #5
 8005688:	011c      	lsls	r4, r3, #4
 800568a:	f8d7 30fc 	ldr.w	r3, [r7, #252]	@ 0xfc
 800568e:	2200      	movs	r2, #0
 8005690:	f8c7 30d0 	str.w	r3, [r7, #208]	@ 0xd0
 8005694:	f8c7 20d4 	str.w	r2, [r7, #212]	@ 0xd4
 8005698:	e9d7 8934 	ldrd	r8, r9, [r7, #208]	@ 0xd0
 800569c:	4642      	mov	r2, r8
 800569e:	464b      	mov	r3, r9
 80056a0:	1891      	adds	r1, r2, r2
 80056a2:	64b9      	str	r1, [r7, #72]	@ 0x48
 80056a4:	415b      	adcs	r3, r3
 80056a6:	64fb      	str	r3, [r7, #76]	@ 0x4c
 80056a8:	e9d7 2312 	ldrd	r2, r3, [r7, #72]	@ 0x48
 80056ac:	4641      	mov	r1, r8
 80056ae:	eb12 0a01 	adds.w	sl, r2, r1
 80056b2:	4649      	mov	r1, r9
 80056b4:	eb43 0b01 	adc.w	fp, r3, r1
 80056b8:	f04f 0200 	mov.w	r2, #0
 80056bc:	f04f 0300 	mov.w	r3, #0
 80056c0:	ea4f 03cb 	mov.w	r3, fp, lsl #3
 80056c4:	ea43 735a 	orr.w	r3, r3, sl, lsr #29
 80056c8:	ea4f 02ca 	mov.w	r2, sl, lsl #3
 80056cc:	4692      	mov	sl, r2
 80056ce:	469b      	mov	fp, r3
 80056d0:	4643      	mov	r3, r8
 80056d2:	eb1a 0303 	adds.w	r3, sl, r3
 80056d6:	f8c7 30c8 	str.w	r3, [r7, #200]	@ 0xc8
 80056da:	464b      	mov	r3, r9
 80056dc:	eb4b 0303 	adc.w	r3, fp, r3
 80056e0:	f8c7 30cc 	str.w	r3, [r7, #204]	@ 0xcc
 80056e4:	f8d7 30f4 	ldr.w	r3, [r7, #244]	@ 0xf4
 80056e8:	685b      	ldr	r3, [r3, #4]
 80056ea:	2200      	movs	r2, #0
 80056ec:	f8c7 30c0 	str.w	r3, [r7, #192]	@ 0xc0
 80056f0:	f8c7 20c4 	str.w	r2, [r7, #196]	@ 0xc4
 80056f4:	e9d7 1230 	ldrd	r1, r2, [r7, #192]	@ 0xc0
 80056f8:	460b      	mov	r3, r1
 80056fa:	18db      	adds	r3, r3, r3
 80056fc:	643b      	str	r3, [r7, #64]	@ 0x40
 80056fe:	4613      	mov	r3, r2
 8005700:	eb42 0303 	adc.w	r3, r2, r3
 8005704:	647b      	str	r3, [r7, #68]	@ 0x44
 8005706:	e9d7 2310 	ldrd	r2, r3, [r7, #64]	@ 0x40
 800570a:	e9d7 0132 	ldrd	r0, r1, [r7, #200]	@ 0xc8
 800570e:	f7fb fac3 	bl	8000c98 <__aeabi_uldivmod>
 8005712:	4602      	mov	r2, r0
 8005714:	460b      	mov	r3, r1
 8005716:	4611      	mov	r1, r2
 8005718:	4b3b      	ldr	r3, [pc, #236]	@ (8005808 <UART_SetConfig+0x2d4>)
 800571a:	fba3 2301 	umull	r2, r3, r3, r1
 800571e:	095b      	lsrs	r3, r3, #5
 8005720:	2264      	movs	r2, #100	@ 0x64
 8005722:	fb02 f303 	mul.w	r3, r2, r3
 8005726:	1acb      	subs	r3, r1, r3
 8005728:	00db      	lsls	r3, r3, #3
 800572a:	f103 0232 	add.w	r2, r3, #50	@ 0x32
 800572e:	4b36      	ldr	r3, [pc, #216]	@ (8005808 <UART_SetConfig+0x2d4>)
 8005730:	fba3 2302 	umull	r2, r3, r3, r2
 8005734:	095b      	lsrs	r3, r3, #5
 8005736:	005b      	lsls	r3, r3, #1
 8005738:	f403 73f8 	and.w	r3, r3, #496	@ 0x1f0
 800573c:	441c      	add	r4, r3
 800573e:	f8d7 30fc 	ldr.w	r3, [r7, #252]	@ 0xfc
 8005742:	2200      	movs	r2, #0
 8005744:	f8c7 30b8 	str.w	r3, [r7, #184]	@ 0xb8
 8005748:	f8c7 20bc 	str.w	r2, [r7, #188]	@ 0xbc
 800574c:	e9d7 892e 	ldrd	r8, r9, [r7, #184]	@ 0xb8
 8005750:	4642      	mov	r2, r8
 8005752:	464b      	mov	r3, r9
 8005754:	1891      	adds	r1, r2, r2
 8005756:	63b9      	str	r1, [r7, #56]	@ 0x38
 8005758:	415b      	adcs	r3, r3
 800575a:	63fb      	str	r3, [r7, #60]	@ 0x3c
 800575c:	e9d7 230e 	ldrd	r2, r3, [r7, #56]	@ 0x38
 8005760:	4641      	mov	r1, r8
 8005762:	1851      	adds	r1, r2, r1
 8005764:	6339      	str	r1, [r7, #48]	@ 0x30
 8005766:	4649      	mov	r1, r9
 8005768:	414b      	adcs	r3, r1
 800576a:	637b      	str	r3, [r7, #52]	@ 0x34
 800576c:	f04f 0200 	mov.w	r2, #0
 8005770:	f04f 0300 	mov.w	r3, #0
 8005774:	e9d7 ab0c 	ldrd	sl, fp, [r7, #48]	@ 0x30
 8005778:	4659      	mov	r1, fp
 800577a:	00cb      	lsls	r3, r1, #3
 800577c:	4651      	mov	r1, sl
 800577e:	ea43 7351 	orr.w	r3, r3, r1, lsr #29
 8005782:	4651      	mov	r1, sl
 8005784:	00ca      	lsls	r2, r1, #3
 8005786:	4610      	mov	r0, r2
 8005788:	4619      	mov	r1, r3
 800578a:	4603      	mov	r3, r0
 800578c:	4642      	mov	r2, r8
 800578e:	189b      	adds	r3, r3, r2
 8005790:	f8c7 30b0 	str.w	r3, [r7, #176]	@ 0xb0
 8005794:	464b      	mov	r3, r9
 8005796:	460a      	mov	r2, r1
 8005798:	eb42 0303 	adc.w	r3, r2, r3
 800579c:	f8c7 30b4 	str.w	r3, [r7, #180]	@ 0xb4
 80057a0:	f8d7 30f4 	ldr.w	r3, [r7, #244]	@ 0xf4
 80057a4:	685b      	ldr	r3, [r3, #4]
 80057a6:	2200      	movs	r2, #0
 80057a8:	f8c7 30a8 	str.w	r3, [r7, #168]	@ 0xa8
 80057ac:	f8c7 20ac 	str.w	r2, [r7, #172]	@ 0xac
 80057b0:	e9d7 122a 	ldrd	r1, r2, [r7, #168]	@ 0xa8
 80057b4:	460b      	mov	r3, r1
 80057b6:	18db      	adds	r3, r3, r3
 80057b8:	62bb      	str	r3, [r7, #40]	@ 0x28
 80057ba:	4613      	mov	r3, r2
 80057bc:	eb42 0303 	adc.w	r3, r2, r3
 80057c0:	62fb      	str	r3, [r7, #44]	@ 0x2c
 80057c2:	e9d7 230a 	ldrd	r2, r3, [r7, #40]	@ 0x28
 80057c6:	e9d7 012c 	ldrd	r0, r1, [r7, #176]	@ 0xb0
 80057ca:	f7fb fa65 	bl	8000c98 <__aeabi_uldivmod>
 80057ce:	4602      	mov	r2, r0
 80057d0:	460b      	mov	r3, r1
 80057d2:	4b0d      	ldr	r3, [pc, #52]	@ (8005808 <UART_SetConfig+0x2d4>)
 80057d4:	fba3 1302 	umull	r1, r3, r3, r2
 80057d8:	095b      	lsrs	r3, r3, #5
 80057da:	2164      	movs	r1, #100	@ 0x64
 80057dc:	fb01 f303 	mul.w	r3, r1, r3
 80057e0:	1ad3      	subs	r3, r2, r3
 80057e2:	00db      	lsls	r3, r3, #3
 80057e4:	3332      	adds	r3, #50	@ 0x32
 80057e6:	4a08      	ldr	r2, [pc, #32]	@ (8005808 <UART_SetConfig+0x2d4>)
 80057e8:	fba2 2303 	umull	r2, r3, r2, r3
 80057ec:	095b      	lsrs	r3, r3, #5
 80057ee:	f003 0207 	and.w	r2, r3, #7
 80057f2:	f8d7 30f4 	ldr.w	r3, [r7, #244]	@ 0xf4
 80057f6:	681b      	ldr	r3, [r3, #0]
 80057f8:	4422      	add	r2, r4
 80057fa:	609a      	str	r2, [r3, #8]
  }
  else
  {
    huart->Instance->BRR = UART_BRR_SAMPLING16(pclk, huart->Init.BaudRate);
  }
}
 80057fc:	e106      	b.n	8005a0c <UART_SetConfig+0x4d8>
 80057fe:	bf00      	nop
 8005800:	40011000 	.word	0x40011000
 8005804:	40011400 	.word	0x40011400
 8005808:	51eb851f 	.word	0x51eb851f
    huart->Instance->BRR = UART_BRR_SAMPLING16(pclk, huart->Init.BaudRate);
 800580c:	f8d7 30fc 	ldr.w	r3, [r7, #252]	@ 0xfc
 8005810:	2200      	movs	r2, #0
 8005812:	f8c7 30a0 	str.w	r3, [r7, #160]	@ 0xa0
 8005816:	f8c7 20a4 	str.w	r2, [r7, #164]	@ 0xa4
 800581a:	e9d7 8928 	ldrd	r8, r9, [r7, #160]	@ 0xa0
 800581e:	4642      	mov	r2, r8
 8005820:	464b      	mov	r3, r9
 8005822:	1891      	adds	r1, r2, r2
 8005824:	6239      	str	r1, [r7, #32]
 8005826:	415b      	adcs	r3, r3
 8005828:	627b      	str	r3, [r7, #36]	@ 0x24
 800582a:	e9d7 2308 	ldrd	r2, r3, [r7, #32]
 800582e:	4641      	mov	r1, r8
 8005830:	1854      	adds	r4, r2, r1
 8005832:	4649      	mov	r1, r9
 8005834:	eb43 0501 	adc.w	r5, r3, r1
 8005838:	f04f 0200 	mov.w	r2, #0
 800583c:	f04f 0300 	mov.w	r3, #0
 8005840:	00eb      	lsls	r3, r5, #3
 8005842:	ea43 7354 	orr.w	r3, r3, r4, lsr #29
 8005846:	00e2      	lsls	r2, r4, #3
 8005848:	4614      	mov	r4, r2
 800584a:	461d      	mov	r5, r3
 800584c:	4643      	mov	r3, r8
 800584e:	18e3      	adds	r3, r4, r3
 8005850:	f8c7 3098 	str.w	r3, [r7, #152]	@ 0x98
 8005854:	464b      	mov	r3, r9
 8005856:	eb45 0303 	adc.w	r3, r5, r3
 800585a:	f8c7 309c 	str.w	r3, [r7, #156]	@ 0x9c
 800585e:	f8d7 30f4 	ldr.w	r3, [r7, #244]	@ 0xf4
 8005862:	685b      	ldr	r3, [r3, #4]
 8005864:	2200      	movs	r2, #0
 8005866:	f8c7 3090 	str.w	r3, [r7, #144]	@ 0x90
 800586a:	f8c7 2094 	str.w	r2, [r7, #148]	@ 0x94
 800586e:	f04f 0200 	mov.w	r2, #0
 8005872:	f04f 0300 	mov.w	r3, #0
 8005876:	e9d7 4524 	ldrd	r4, r5, [r7, #144]	@ 0x90
 800587a:	4629      	mov	r1, r5
 800587c:	008b      	lsls	r3, r1, #2
 800587e:	4621      	mov	r1, r4
 8005880:	ea43 7391 	orr.w	r3, r3, r1, lsr #30
 8005884:	4621      	mov	r1, r4
 8005886:	008a      	lsls	r2, r1, #2
 8005888:	e9d7 0126 	ldrd	r0, r1, [r7, #152]	@ 0x98
 800588c:	f7fb fa04 	bl	8000c98 <__aeabi_uldivmod>
 8005890:	4602      	mov	r2, r0
 8005892:	460b      	mov	r3, r1
 8005894:	4b60      	ldr	r3, [pc, #384]	@ (8005a18 <UART_SetConfig+0x4e4>)
 8005896:	fba3 2302 	umull	r2, r3, r3, r2
 800589a:	095b      	lsrs	r3, r3, #5
 800589c:	011c      	lsls	r4, r3, #4
 800589e:	f8d7 30fc 	ldr.w	r3, [r7, #252]	@ 0xfc
 80058a2:	2200      	movs	r2, #0
 80058a4:	f8c7 3088 	str.w	r3, [r7, #136]	@ 0x88
 80058a8:	f8c7 208c 	str.w	r2, [r7, #140]	@ 0x8c
 80058ac:	e9d7 8922 	ldrd	r8, r9, [r7, #136]	@ 0x88
 80058b0:	4642      	mov	r2, r8
 80058b2:	464b      	mov	r3, r9
 80058b4:	1891      	adds	r1, r2, r2
 80058b6:	61b9      	str	r1, [r7, #24]
 80058b8:	415b      	adcs	r3, r3
 80058ba:	61fb      	str	r3, [r7, #28]
 80058bc:	e9d7 2306 	ldrd	r2, r3, [r7, #24]
 80058c0:	4641      	mov	r1, r8
 80058c2:	1851      	adds	r1, r2, r1
 80058c4:	6139      	str	r1, [r7, #16]
 80058c6:	4649      	mov	r1, r9
 80058c8:	414b      	adcs	r3, r1
 80058ca:	617b      	str	r3, [r7, #20]
 80058cc:	f04f 0200 	mov.w	r2, #0
 80058d0:	f04f 0300 	mov.w	r3, #0
 80058d4:	e9d7 ab04 	ldrd	sl, fp, [r7, #16]
 80058d8:	4659      	mov	r1, fp
 80058da:	00cb      	lsls	r3, r1, #3
 80058dc:	4651      	mov	r1, sl
 80058de:	ea43 7351 	orr.w	r3, r3, r1, lsr #29
 80058e2:	4651      	mov	r1, sl
 80058e4:	00ca      	lsls	r2, r1, #3
 80058e6:	4610      	mov	r0, r2
 80058e8:	4619      	mov	r1, r3
 80058ea:	4603      	mov	r3, r0
 80058ec:	4642      	mov	r2, r8
 80058ee:	189b      	adds	r3, r3, r2
 80058f0:	f8c7 3080 	str.w	r3, [r7, #128]	@ 0x80
 80058f4:	464b      	mov	r3, r9
 80058f6:	460a      	mov	r2, r1
 80058f8:	eb42 0303 	adc.w	r3, r2, r3
 80058fc:	f8c7 3084 	str.w	r3, [r7, #132]	@ 0x84
 8005900:	f8d7 30f4 	ldr.w	r3, [r7, #244]	@ 0xf4
 8005904:	685b      	ldr	r3, [r3, #4]
 8005906:	2200      	movs	r2, #0
 8005908:	67bb      	str	r3, [r7, #120]	@ 0x78
 800590a:	67fa      	str	r2, [r7, #124]	@ 0x7c
 800590c:	f04f 0200 	mov.w	r2, #0
 8005910:	f04f 0300 	mov.w	r3, #0
 8005914:	e9d7 891e 	ldrd	r8, r9, [r7, #120]	@ 0x78
 8005918:	4649      	mov	r1, r9
 800591a:	008b      	lsls	r3, r1, #2
 800591c:	4641      	mov	r1, r8
 800591e:	ea43 7391 	orr.w	r3, r3, r1, lsr #30
 8005922:	4641      	mov	r1, r8
 8005924:	008a      	lsls	r2, r1, #2
 8005926:	e9d7 0120 	ldrd	r0, r1, [r7, #128]	@ 0x80
 800592a:	f7fb f9b5 	bl	8000c98 <__aeabi_uldivmod>
 800592e:	4602      	mov	r2, r0
 8005930:	460b      	mov	r3, r1
 8005932:	4611      	mov	r1, r2
 8005934:	4b38      	ldr	r3, [pc, #224]	@ (8005a18 <UART_SetConfig+0x4e4>)
 8005936:	fba3 2301 	umull	r2, r3, r3, r1
 800593a:	095b      	lsrs	r3, r3, #5
 800593c:	2264      	movs	r2, #100	@ 0x64
 800593e:	fb02 f303 	mul.w	r3, r2, r3
 8005942:	1acb      	subs	r3, r1, r3
 8005944:	011b      	lsls	r3, r3, #4
 8005946:	3332      	adds	r3, #50	@ 0x32
 8005948:	4a33      	ldr	r2, [pc, #204]	@ (8005a18 <UART_SetConfig+0x4e4>)
 800594a:	fba2 2303 	umull	r2, r3, r2, r3
 800594e:	095b      	lsrs	r3, r3, #5
 8005950:	f003 03f0 	and.w	r3, r3, #240	@ 0xf0
 8005954:	441c      	add	r4, r3
 8005956:	f8d7 30fc 	ldr.w	r3, [r7, #252]	@ 0xfc
 800595a:	2200      	movs	r2, #0
 800595c:	673b      	str	r3, [r7, #112]	@ 0x70
 800595e:	677a      	str	r2, [r7, #116]	@ 0x74
 8005960:	e9d7 891c 	ldrd	r8, r9, [r7, #112]	@ 0x70
 8005964:	4642      	mov	r2, r8
 8005966:	464b      	mov	r3, r9
 8005968:	1891      	adds	r1, r2, r2
 800596a:	60b9      	str	r1, [r7, #8]
 800596c:	415b      	adcs	r3, r3
 800596e:	60fb      	str	r3, [r7, #12]
 8005970:	e9d7 2302 	ldrd	r2, r3, [r7, #8]
 8005974:	4641      	mov	r1, r8
 8005976:	1851      	adds	r1, r2, r1
 8005978:	6039      	str	r1, [r7, #0]
 800597a:	4649      	mov	r1, r9
 800597c:	414b      	adcs	r3, r1
 800597e:	607b      	str	r3, [r7, #4]
 8005980:	f04f 0200 	mov.w	r2, #0
 8005984:	f04f 0300 	mov.w	r3, #0
 8005988:	e9d7 ab00 	ldrd	sl, fp, [r7]
 800598c:	4659      	mov	r1, fp
 800598e:	00cb      	lsls	r3, r1, #3
 8005990:	4651      	mov	r1, sl
 8005992:	ea43 7351 	orr.w	r3, r3, r1, lsr #29
 8005996:	4651      	mov	r1, sl
 8005998:	00ca      	lsls	r2, r1, #3
 800599a:	4610      	mov	r0, r2
 800599c:	4619      	mov	r1, r3
 800599e:	4603      	mov	r3, r0
 80059a0:	4642      	mov	r2, r8
 80059a2:	189b      	adds	r3, r3, r2
 80059a4:	66bb      	str	r3, [r7, #104]	@ 0x68
 80059a6:	464b      	mov	r3, r9
 80059a8:	460a      	mov	r2, r1
 80059aa:	eb42 0303 	adc.w	r3, r2, r3
 80059ae:	66fb      	str	r3, [r7, #108]	@ 0x6c
 80059b0:	f8d7 30f4 	ldr.w	r3, [r7, #244]	@ 0xf4
 80059b4:	685b      	ldr	r3, [r3, #4]
 80059b6:	2200      	movs	r2, #0
 80059b8:	663b      	str	r3, [r7, #96]	@ 0x60
 80059ba:	667a      	str	r2, [r7, #100]	@ 0x64
 80059bc:	f04f 0200 	mov.w	r2, #0
 80059c0:	f04f 0300 	mov.w	r3, #0
 80059c4:	e9d7 8918 	ldrd	r8, r9, [r7, #96]	@ 0x60
 80059c8:	4649      	mov	r1, r9
 80059ca:	008b      	lsls	r3, r1, #2
 80059cc:	4641      	mov	r1, r8
 80059ce:	ea43 7391 	orr.w	r3, r3, r1, lsr #30
 80059d2:	4641      	mov	r1, r8
 80059d4:	008a      	lsls	r2, r1, #2
 80059d6:	e9d7 011a 	ldrd	r0, r1, [r7, #104]	@ 0x68
 80059da:	f7fb f95d 	bl	8000c98 <__aeabi_uldivmod>
 80059de:	4602      	mov	r2, r0
 80059e0:	460b      	mov	r3, r1
 80059e2:	4b0d      	ldr	r3, [pc, #52]	@ (8005a18 <UART_SetConfig+0x4e4>)
 80059e4:	fba3 1302 	umull	r1, r3, r3, r2
 80059e8:	095b      	lsrs	r3, r3, #5
 80059ea:	2164      	movs	r1, #100	@ 0x64
 80059ec:	fb01 f303 	mul.w	r3, r1, r3
 80059f0:	1ad3      	subs	r3, r2, r3
 80059f2:	011b      	lsls	r3, r3, #4
 80059f4:	3332      	adds	r3, #50	@ 0x32
 80059f6:	4a08      	ldr	r2, [pc, #32]	@ (8005a18 <UART_SetConfig+0x4e4>)
 80059f8:	fba2 2303 	umull	r2, r3, r2, r3
 80059fc:	095b      	lsrs	r3, r3, #5
 80059fe:	f003 020f 	and.w	r2, r3, #15
 8005a02:	f8d7 30f4 	ldr.w	r3, [r7, #244]	@ 0xf4
 8005a06:	681b      	ldr	r3, [r3, #0]
 8005a08:	4422      	add	r2, r4
 8005a0a:	609a      	str	r2, [r3, #8]
}
 8005a0c:	bf00      	nop
 8005a0e:	f507 7780 	add.w	r7, r7, #256	@ 0x100
 8005a12:	46bd      	mov	sp, r7
 8005a14:	e8bd 8fb0 	ldmia.w	sp!, {r4, r5, r7, r8, r9, sl, fp, pc}
 8005a18:	51eb851f 	.word	0x51eb851f

08005a1c <sqrtf>:
 8005a1c:	b508      	push	{r3, lr}
 8005a1e:	ed2d 8b02 	vpush	{d8}
 8005a22:	eeb0 8a40 	vmov.f32	s16, s0
 8005a26:	f000 f817 	bl	8005a58 <__ieee754_sqrtf>
 8005a2a:	eeb4 8a48 	vcmp.f32	s16, s16
 8005a2e:	eef1 fa10 	vmrs	APSR_nzcv, fpscr
 8005a32:	d60c      	bvs.n	8005a4e <sqrtf+0x32>
 8005a34:	eddf 8a07 	vldr	s17, [pc, #28]	@ 8005a54 <sqrtf+0x38>
 8005a38:	eeb4 8ae8 	vcmpe.f32	s16, s17
 8005a3c:	eef1 fa10 	vmrs	APSR_nzcv, fpscr
 8005a40:	d505      	bpl.n	8005a4e <sqrtf+0x32>
 8005a42:	f001 fc99 	bl	8007378 <__errno>
 8005a46:	ee88 0aa8 	vdiv.f32	s0, s17, s17
 8005a4a:	2321      	movs	r3, #33	@ 0x21
 8005a4c:	6003      	str	r3, [r0, #0]
 8005a4e:	ecbd 8b02 	vpop	{d8}
 8005a52:	bd08      	pop	{r3, pc}
 8005a54:	00000000 	.word	0x00000000

08005a58 <__ieee754_sqrtf>:
 8005a58:	eeb1 0ac0 	vsqrt.f32	s0, s0
 8005a5c:	4770      	bx	lr

08005a5e <atof>:
 8005a5e:	2100      	movs	r1, #0
 8005a60:	f000 be06 	b.w	8006670 <strtod>

08005a64 <atoi>:
 8005a64:	220a      	movs	r2, #10
 8005a66:	2100      	movs	r1, #0
 8005a68:	f000 be88 	b.w	800677c <strtol>

08005a6c <sulp>:
 8005a6c:	b570      	push	{r4, r5, r6, lr}
 8005a6e:	4604      	mov	r4, r0
 8005a70:	460d      	mov	r5, r1
 8005a72:	ec45 4b10 	vmov	d0, r4, r5
 8005a76:	4616      	mov	r6, r2
 8005a78:	f003 fad2 	bl	8009020 <__ulp>
 8005a7c:	ec51 0b10 	vmov	r0, r1, d0
 8005a80:	b17e      	cbz	r6, 8005aa2 <sulp+0x36>
 8005a82:	f3c5 530a 	ubfx	r3, r5, #20, #11
 8005a86:	f1c3 036b 	rsb	r3, r3, #107	@ 0x6b
 8005a8a:	2b00      	cmp	r3, #0
 8005a8c:	dd09      	ble.n	8005aa2 <sulp+0x36>
 8005a8e:	051b      	lsls	r3, r3, #20
 8005a90:	f103 557f 	add.w	r5, r3, #1069547520	@ 0x3fc00000
 8005a94:	2400      	movs	r4, #0
 8005a96:	f505 1540 	add.w	r5, r5, #3145728	@ 0x300000
 8005a9a:	4622      	mov	r2, r4
 8005a9c:	462b      	mov	r3, r5
 8005a9e:	f7fa fdb3 	bl	8000608 <__aeabi_dmul>
 8005aa2:	ec41 0b10 	vmov	d0, r0, r1
 8005aa6:	bd70      	pop	{r4, r5, r6, pc}

08005aa8 <_strtod_l>:
 8005aa8:	e92d 4ff0 	stmdb	sp!, {r4, r5, r6, r7, r8, r9, sl, fp, lr}
 8005aac:	b09f      	sub	sp, #124	@ 0x7c
 8005aae:	460c      	mov	r4, r1
 8005ab0:	9217      	str	r2, [sp, #92]	@ 0x5c
 8005ab2:	2200      	movs	r2, #0
 8005ab4:	921a      	str	r2, [sp, #104]	@ 0x68
 8005ab6:	9005      	str	r0, [sp, #20]
 8005ab8:	f04f 0a00 	mov.w	sl, #0
 8005abc:	f04f 0b00 	mov.w	fp, #0
 8005ac0:	460a      	mov	r2, r1
 8005ac2:	9219      	str	r2, [sp, #100]	@ 0x64
 8005ac4:	7811      	ldrb	r1, [r2, #0]
 8005ac6:	292b      	cmp	r1, #43	@ 0x2b
 8005ac8:	d04a      	beq.n	8005b60 <_strtod_l+0xb8>
 8005aca:	d838      	bhi.n	8005b3e <_strtod_l+0x96>
 8005acc:	290d      	cmp	r1, #13
 8005ace:	d832      	bhi.n	8005b36 <_strtod_l+0x8e>
 8005ad0:	2908      	cmp	r1, #8
 8005ad2:	d832      	bhi.n	8005b3a <_strtod_l+0x92>
 8005ad4:	2900      	cmp	r1, #0
 8005ad6:	d03b      	beq.n	8005b50 <_strtod_l+0xa8>
 8005ad8:	2200      	movs	r2, #0
 8005ada:	920e      	str	r2, [sp, #56]	@ 0x38
 8005adc:	9d19      	ldr	r5, [sp, #100]	@ 0x64
 8005ade:	782a      	ldrb	r2, [r5, #0]
 8005ae0:	2a30      	cmp	r2, #48	@ 0x30
 8005ae2:	f040 80b2 	bne.w	8005c4a <_strtod_l+0x1a2>
 8005ae6:	786a      	ldrb	r2, [r5, #1]
 8005ae8:	f002 02df 	and.w	r2, r2, #223	@ 0xdf
 8005aec:	2a58      	cmp	r2, #88	@ 0x58
 8005aee:	d16e      	bne.n	8005bce <_strtod_l+0x126>
 8005af0:	9302      	str	r3, [sp, #8]
 8005af2:	9b0e      	ldr	r3, [sp, #56]	@ 0x38
 8005af4:	9301      	str	r3, [sp, #4]
 8005af6:	ab1a      	add	r3, sp, #104	@ 0x68
 8005af8:	9300      	str	r3, [sp, #0]
 8005afa:	4a8f      	ldr	r2, [pc, #572]	@ (8005d38 <_strtod_l+0x290>)
 8005afc:	9805      	ldr	r0, [sp, #20]
 8005afe:	ab1b      	add	r3, sp, #108	@ 0x6c
 8005b00:	a919      	add	r1, sp, #100	@ 0x64
 8005b02:	f002 fb87 	bl	8008214 <__gethex>
 8005b06:	f010 060f 	ands.w	r6, r0, #15
 8005b0a:	4604      	mov	r4, r0
 8005b0c:	d005      	beq.n	8005b1a <_strtod_l+0x72>
 8005b0e:	2e06      	cmp	r6, #6
 8005b10:	d128      	bne.n	8005b64 <_strtod_l+0xbc>
 8005b12:	3501      	adds	r5, #1
 8005b14:	2300      	movs	r3, #0
 8005b16:	9519      	str	r5, [sp, #100]	@ 0x64
 8005b18:	930e      	str	r3, [sp, #56]	@ 0x38
 8005b1a:	9b17      	ldr	r3, [sp, #92]	@ 0x5c
 8005b1c:	2b00      	cmp	r3, #0
 8005b1e:	f040 858e 	bne.w	800663e <_strtod_l+0xb96>
 8005b22:	9b0e      	ldr	r3, [sp, #56]	@ 0x38
 8005b24:	b1cb      	cbz	r3, 8005b5a <_strtod_l+0xb2>
 8005b26:	4652      	mov	r2, sl
 8005b28:	f10b 4300 	add.w	r3, fp, #2147483648	@ 0x80000000
 8005b2c:	ec43 2b10 	vmov	d0, r2, r3
 8005b30:	b01f      	add	sp, #124	@ 0x7c
 8005b32:	e8bd 8ff0 	ldmia.w	sp!, {r4, r5, r6, r7, r8, r9, sl, fp, pc}
 8005b36:	2920      	cmp	r1, #32
 8005b38:	d1ce      	bne.n	8005ad8 <_strtod_l+0x30>
 8005b3a:	3201      	adds	r2, #1
 8005b3c:	e7c1      	b.n	8005ac2 <_strtod_l+0x1a>
 8005b3e:	292d      	cmp	r1, #45	@ 0x2d
 8005b40:	d1ca      	bne.n	8005ad8 <_strtod_l+0x30>
 8005b42:	2101      	movs	r1, #1
 8005b44:	910e      	str	r1, [sp, #56]	@ 0x38
 8005b46:	1c51      	adds	r1, r2, #1
 8005b48:	9119      	str	r1, [sp, #100]	@ 0x64
 8005b4a:	7852      	ldrb	r2, [r2, #1]
 8005b4c:	2a00      	cmp	r2, #0
 8005b4e:	d1c5      	bne.n	8005adc <_strtod_l+0x34>
 8005b50:	9b17      	ldr	r3, [sp, #92]	@ 0x5c
 8005b52:	9419      	str	r4, [sp, #100]	@ 0x64
 8005b54:	2b00      	cmp	r3, #0
 8005b56:	f040 8570 	bne.w	800663a <_strtod_l+0xb92>
 8005b5a:	4652      	mov	r2, sl
 8005b5c:	465b      	mov	r3, fp
 8005b5e:	e7e5      	b.n	8005b2c <_strtod_l+0x84>
 8005b60:	2100      	movs	r1, #0
 8005b62:	e7ef      	b.n	8005b44 <_strtod_l+0x9c>
 8005b64:	9a1a      	ldr	r2, [sp, #104]	@ 0x68
 8005b66:	b13a      	cbz	r2, 8005b78 <_strtod_l+0xd0>
 8005b68:	2135      	movs	r1, #53	@ 0x35
 8005b6a:	a81c      	add	r0, sp, #112	@ 0x70
 8005b6c:	f003 fb52 	bl	8009214 <__copybits>
 8005b70:	991a      	ldr	r1, [sp, #104]	@ 0x68
 8005b72:	9805      	ldr	r0, [sp, #20]
 8005b74:	f002 ff28 	bl	80089c8 <_Bfree>
 8005b78:	3e01      	subs	r6, #1
 8005b7a:	9a1b      	ldr	r2, [sp, #108]	@ 0x6c
 8005b7c:	2e04      	cmp	r6, #4
 8005b7e:	d806      	bhi.n	8005b8e <_strtod_l+0xe6>
 8005b80:	e8df f006 	tbb	[pc, r6]
 8005b84:	201d0314 	.word	0x201d0314
 8005b88:	14          	.byte	0x14
 8005b89:	00          	.byte	0x00
 8005b8a:	e9dd ab1c 	ldrd	sl, fp, [sp, #112]	@ 0x70
 8005b8e:	05e1      	lsls	r1, r4, #23
 8005b90:	bf48      	it	mi
 8005b92:	f04b 4b00 	orrmi.w	fp, fp, #2147483648	@ 0x80000000
 8005b96:	f02b 4300 	bic.w	r3, fp, #2147483648	@ 0x80000000
 8005b9a:	0d1b      	lsrs	r3, r3, #20
 8005b9c:	051b      	lsls	r3, r3, #20
 8005b9e:	2b00      	cmp	r3, #0
 8005ba0:	d1bb      	bne.n	8005b1a <_strtod_l+0x72>
 8005ba2:	f001 fbe9 	bl	8007378 <__errno>
 8005ba6:	2322      	movs	r3, #34	@ 0x22
 8005ba8:	6003      	str	r3, [r0, #0]
 8005baa:	e7b6      	b.n	8005b1a <_strtod_l+0x72>
 8005bac:	e9dd a31c 	ldrd	sl, r3, [sp, #112]	@ 0x70
 8005bb0:	f202 4233 	addw	r2, r2, #1075	@ 0x433
 8005bb4:	f423 1380 	bic.w	r3, r3, #1048576	@ 0x100000
 8005bb8:	ea43 5b02 	orr.w	fp, r3, r2, lsl #20
 8005bbc:	e7e7      	b.n	8005b8e <_strtod_l+0xe6>
 8005bbe:	f8df b180 	ldr.w	fp, [pc, #384]	@ 8005d40 <_strtod_l+0x298>
 8005bc2:	e7e4      	b.n	8005b8e <_strtod_l+0xe6>
 8005bc4:	f06f 4b00 	mvn.w	fp, #2147483648	@ 0x80000000
 8005bc8:	f04f 3aff 	mov.w	sl, #4294967295
 8005bcc:	e7df      	b.n	8005b8e <_strtod_l+0xe6>
 8005bce:	9b19      	ldr	r3, [sp, #100]	@ 0x64
 8005bd0:	1c5a      	adds	r2, r3, #1
 8005bd2:	9219      	str	r2, [sp, #100]	@ 0x64
 8005bd4:	785b      	ldrb	r3, [r3, #1]
 8005bd6:	2b30      	cmp	r3, #48	@ 0x30
 8005bd8:	d0f9      	beq.n	8005bce <_strtod_l+0x126>
 8005bda:	2b00      	cmp	r3, #0
 8005bdc:	d09d      	beq.n	8005b1a <_strtod_l+0x72>
 8005bde:	2301      	movs	r3, #1
 8005be0:	2700      	movs	r7, #0
 8005be2:	9308      	str	r3, [sp, #32]
 8005be4:	9b19      	ldr	r3, [sp, #100]	@ 0x64
 8005be6:	930c      	str	r3, [sp, #48]	@ 0x30
 8005be8:	970b      	str	r7, [sp, #44]	@ 0x2c
 8005bea:	46b9      	mov	r9, r7
 8005bec:	220a      	movs	r2, #10
 8005bee:	9819      	ldr	r0, [sp, #100]	@ 0x64
 8005bf0:	7805      	ldrb	r5, [r0, #0]
 8005bf2:	f1a5 0330 	sub.w	r3, r5, #48	@ 0x30
 8005bf6:	b2d9      	uxtb	r1, r3
 8005bf8:	2909      	cmp	r1, #9
 8005bfa:	d928      	bls.n	8005c4e <_strtod_l+0x1a6>
 8005bfc:	494f      	ldr	r1, [pc, #316]	@ (8005d3c <_strtod_l+0x294>)
 8005bfe:	2201      	movs	r2, #1
 8005c00:	f001 fb48 	bl	8007294 <strncmp>
 8005c04:	2800      	cmp	r0, #0
 8005c06:	d032      	beq.n	8005c6e <_strtod_l+0x1c6>
 8005c08:	2000      	movs	r0, #0
 8005c0a:	462a      	mov	r2, r5
 8005c0c:	900a      	str	r0, [sp, #40]	@ 0x28
 8005c0e:	464d      	mov	r5, r9
 8005c10:	4603      	mov	r3, r0
 8005c12:	2a65      	cmp	r2, #101	@ 0x65
 8005c14:	d001      	beq.n	8005c1a <_strtod_l+0x172>
 8005c16:	2a45      	cmp	r2, #69	@ 0x45
 8005c18:	d114      	bne.n	8005c44 <_strtod_l+0x19c>
 8005c1a:	b91d      	cbnz	r5, 8005c24 <_strtod_l+0x17c>
 8005c1c:	9a08      	ldr	r2, [sp, #32]
 8005c1e:	4302      	orrs	r2, r0
 8005c20:	d096      	beq.n	8005b50 <_strtod_l+0xa8>
 8005c22:	2500      	movs	r5, #0
 8005c24:	9c19      	ldr	r4, [sp, #100]	@ 0x64
 8005c26:	1c62      	adds	r2, r4, #1
 8005c28:	9219      	str	r2, [sp, #100]	@ 0x64
 8005c2a:	7862      	ldrb	r2, [r4, #1]
 8005c2c:	2a2b      	cmp	r2, #43	@ 0x2b
 8005c2e:	d07a      	beq.n	8005d26 <_strtod_l+0x27e>
 8005c30:	2a2d      	cmp	r2, #45	@ 0x2d
 8005c32:	d07e      	beq.n	8005d32 <_strtod_l+0x28a>
 8005c34:	f04f 0c00 	mov.w	ip, #0
 8005c38:	f1a2 0130 	sub.w	r1, r2, #48	@ 0x30
 8005c3c:	2909      	cmp	r1, #9
 8005c3e:	f240 8085 	bls.w	8005d4c <_strtod_l+0x2a4>
 8005c42:	9419      	str	r4, [sp, #100]	@ 0x64
 8005c44:	f04f 0800 	mov.w	r8, #0
 8005c48:	e0a5      	b.n	8005d96 <_strtod_l+0x2ee>
 8005c4a:	2300      	movs	r3, #0
 8005c4c:	e7c8      	b.n	8005be0 <_strtod_l+0x138>
 8005c4e:	f1b9 0f08 	cmp.w	r9, #8
 8005c52:	bfd8      	it	le
 8005c54:	990b      	ldrle	r1, [sp, #44]	@ 0x2c
 8005c56:	f100 0001 	add.w	r0, r0, #1
 8005c5a:	bfda      	itte	le
 8005c5c:	fb02 3301 	mlale	r3, r2, r1, r3
 8005c60:	930b      	strle	r3, [sp, #44]	@ 0x2c
 8005c62:	fb02 3707 	mlagt	r7, r2, r7, r3
 8005c66:	f109 0901 	add.w	r9, r9, #1
 8005c6a:	9019      	str	r0, [sp, #100]	@ 0x64
 8005c6c:	e7bf      	b.n	8005bee <_strtod_l+0x146>
 8005c6e:	9b19      	ldr	r3, [sp, #100]	@ 0x64
 8005c70:	1c5a      	adds	r2, r3, #1
 8005c72:	9219      	str	r2, [sp, #100]	@ 0x64
 8005c74:	785a      	ldrb	r2, [r3, #1]
 8005c76:	f1b9 0f00 	cmp.w	r9, #0
 8005c7a:	d03b      	beq.n	8005cf4 <_strtod_l+0x24c>
 8005c7c:	900a      	str	r0, [sp, #40]	@ 0x28
 8005c7e:	464d      	mov	r5, r9
 8005c80:	f1a2 0330 	sub.w	r3, r2, #48	@ 0x30
 8005c84:	2b09      	cmp	r3, #9
 8005c86:	d912      	bls.n	8005cae <_strtod_l+0x206>
 8005c88:	2301      	movs	r3, #1
 8005c8a:	e7c2      	b.n	8005c12 <_strtod_l+0x16a>
 8005c8c:	9b19      	ldr	r3, [sp, #100]	@ 0x64
 8005c8e:	1c5a      	adds	r2, r3, #1
 8005c90:	9219      	str	r2, [sp, #100]	@ 0x64
 8005c92:	785a      	ldrb	r2, [r3, #1]
 8005c94:	3001      	adds	r0, #1
 8005c96:	2a30      	cmp	r2, #48	@ 0x30
 8005c98:	d0f8      	beq.n	8005c8c <_strtod_l+0x1e4>
 8005c9a:	f1a2 0331 	sub.w	r3, r2, #49	@ 0x31
 8005c9e:	2b08      	cmp	r3, #8
 8005ca0:	f200 84d2 	bhi.w	8006648 <_strtod_l+0xba0>
 8005ca4:	9b19      	ldr	r3, [sp, #100]	@ 0x64
 8005ca6:	900a      	str	r0, [sp, #40]	@ 0x28
 8005ca8:	2000      	movs	r0, #0
 8005caa:	930c      	str	r3, [sp, #48]	@ 0x30
 8005cac:	4605      	mov	r5, r0
 8005cae:	3a30      	subs	r2, #48	@ 0x30
 8005cb0:	f100 0301 	add.w	r3, r0, #1
 8005cb4:	d018      	beq.n	8005ce8 <_strtod_l+0x240>
 8005cb6:	990a      	ldr	r1, [sp, #40]	@ 0x28
 8005cb8:	4419      	add	r1, r3
 8005cba:	910a      	str	r1, [sp, #40]	@ 0x28
 8005cbc:	462e      	mov	r6, r5
 8005cbe:	f04f 0e0a 	mov.w	lr, #10
 8005cc2:	1c71      	adds	r1, r6, #1
 8005cc4:	eba1 0c05 	sub.w	ip, r1, r5
 8005cc8:	4563      	cmp	r3, ip
 8005cca:	dc15      	bgt.n	8005cf8 <_strtod_l+0x250>
 8005ccc:	ea20 70e0 	bic.w	r0, r0, r0, asr #31
 8005cd0:	182b      	adds	r3, r5, r0
 8005cd2:	2b08      	cmp	r3, #8
 8005cd4:	f105 0501 	add.w	r5, r5, #1
 8005cd8:	4405      	add	r5, r0
 8005cda:	dc1a      	bgt.n	8005d12 <_strtod_l+0x26a>
 8005cdc:	990b      	ldr	r1, [sp, #44]	@ 0x2c
 8005cde:	230a      	movs	r3, #10
 8005ce0:	fb03 2301 	mla	r3, r3, r1, r2
 8005ce4:	930b      	str	r3, [sp, #44]	@ 0x2c
 8005ce6:	2300      	movs	r3, #0
 8005ce8:	9a19      	ldr	r2, [sp, #100]	@ 0x64
 8005cea:	1c51      	adds	r1, r2, #1
 8005cec:	9119      	str	r1, [sp, #100]	@ 0x64
 8005cee:	7852      	ldrb	r2, [r2, #1]
 8005cf0:	4618      	mov	r0, r3
 8005cf2:	e7c5      	b.n	8005c80 <_strtod_l+0x1d8>
 8005cf4:	4648      	mov	r0, r9
 8005cf6:	e7ce      	b.n	8005c96 <_strtod_l+0x1ee>
 8005cf8:	2e08      	cmp	r6, #8
 8005cfa:	dc05      	bgt.n	8005d08 <_strtod_l+0x260>
 8005cfc:	9e0b      	ldr	r6, [sp, #44]	@ 0x2c
 8005cfe:	fb0e f606 	mul.w	r6, lr, r6
 8005d02:	960b      	str	r6, [sp, #44]	@ 0x2c
 8005d04:	460e      	mov	r6, r1
 8005d06:	e7dc      	b.n	8005cc2 <_strtod_l+0x21a>
 8005d08:	2910      	cmp	r1, #16
 8005d0a:	bfd8      	it	le
 8005d0c:	fb0e f707 	mulle.w	r7, lr, r7
 8005d10:	e7f8      	b.n	8005d04 <_strtod_l+0x25c>
 8005d12:	2b0f      	cmp	r3, #15
 8005d14:	bfdc      	itt	le
 8005d16:	230a      	movle	r3, #10
 8005d18:	fb03 2707 	mlale	r7, r3, r7, r2
 8005d1c:	e7e3      	b.n	8005ce6 <_strtod_l+0x23e>
 8005d1e:	2300      	movs	r3, #0
 8005d20:	930a      	str	r3, [sp, #40]	@ 0x28
 8005d22:	2301      	movs	r3, #1
 8005d24:	e77a      	b.n	8005c1c <_strtod_l+0x174>
 8005d26:	f04f 0c00 	mov.w	ip, #0
 8005d2a:	1ca2      	adds	r2, r4, #2
 8005d2c:	9219      	str	r2, [sp, #100]	@ 0x64
 8005d2e:	78a2      	ldrb	r2, [r4, #2]
 8005d30:	e782      	b.n	8005c38 <_strtod_l+0x190>
 8005d32:	f04f 0c01 	mov.w	ip, #1
 8005d36:	e7f8      	b.n	8005d2a <_strtod_l+0x282>
 8005d38:	08009c2c 	.word	0x08009c2c
 8005d3c:	08009a44 	.word	0x08009a44
 8005d40:	7ff00000 	.word	0x7ff00000
 8005d44:	9a19      	ldr	r2, [sp, #100]	@ 0x64
 8005d46:	1c51      	adds	r1, r2, #1
 8005d48:	9119      	str	r1, [sp, #100]	@ 0x64
 8005d4a:	7852      	ldrb	r2, [r2, #1]
 8005d4c:	2a30      	cmp	r2, #48	@ 0x30
 8005d4e:	d0f9      	beq.n	8005d44 <_strtod_l+0x29c>
 8005d50:	f1a2 0131 	sub.w	r1, r2, #49	@ 0x31
 8005d54:	2908      	cmp	r1, #8
 8005d56:	f63f af75 	bhi.w	8005c44 <_strtod_l+0x19c>
 8005d5a:	3a30      	subs	r2, #48	@ 0x30
 8005d5c:	9209      	str	r2, [sp, #36]	@ 0x24
 8005d5e:	9a19      	ldr	r2, [sp, #100]	@ 0x64
 8005d60:	920f      	str	r2, [sp, #60]	@ 0x3c
 8005d62:	f04f 080a 	mov.w	r8, #10
 8005d66:	9a19      	ldr	r2, [sp, #100]	@ 0x64
 8005d68:	1c56      	adds	r6, r2, #1
 8005d6a:	9619      	str	r6, [sp, #100]	@ 0x64
 8005d6c:	7852      	ldrb	r2, [r2, #1]
 8005d6e:	f1a2 0e30 	sub.w	lr, r2, #48	@ 0x30
 8005d72:	f1be 0f09 	cmp.w	lr, #9
 8005d76:	d939      	bls.n	8005dec <_strtod_l+0x344>
 8005d78:	990f      	ldr	r1, [sp, #60]	@ 0x3c
 8005d7a:	1a76      	subs	r6, r6, r1
 8005d7c:	2e08      	cmp	r6, #8
 8005d7e:	f644 681f 	movw	r8, #19999	@ 0x4e1f
 8005d82:	dc03      	bgt.n	8005d8c <_strtod_l+0x2e4>
 8005d84:	9909      	ldr	r1, [sp, #36]	@ 0x24
 8005d86:	4588      	cmp	r8, r1
 8005d88:	bfa8      	it	ge
 8005d8a:	4688      	movge	r8, r1
 8005d8c:	f1bc 0f00 	cmp.w	ip, #0
 8005d90:	d001      	beq.n	8005d96 <_strtod_l+0x2ee>
 8005d92:	f1c8 0800 	rsb	r8, r8, #0
 8005d96:	2d00      	cmp	r5, #0
 8005d98:	d14e      	bne.n	8005e38 <_strtod_l+0x390>
 8005d9a:	9908      	ldr	r1, [sp, #32]
 8005d9c:	4308      	orrs	r0, r1
 8005d9e:	f47f aebc 	bne.w	8005b1a <_strtod_l+0x72>
 8005da2:	2b00      	cmp	r3, #0
 8005da4:	f47f aed4 	bne.w	8005b50 <_strtod_l+0xa8>
 8005da8:	2a69      	cmp	r2, #105	@ 0x69
 8005daa:	d028      	beq.n	8005dfe <_strtod_l+0x356>
 8005dac:	dc25      	bgt.n	8005dfa <_strtod_l+0x352>
 8005dae:	2a49      	cmp	r2, #73	@ 0x49
 8005db0:	d025      	beq.n	8005dfe <_strtod_l+0x356>
 8005db2:	2a4e      	cmp	r2, #78	@ 0x4e
 8005db4:	f47f aecc 	bne.w	8005b50 <_strtod_l+0xa8>
 8005db8:	499a      	ldr	r1, [pc, #616]	@ (8006024 <_strtod_l+0x57c>)
 8005dba:	a819      	add	r0, sp, #100	@ 0x64
 8005dbc:	f002 fc4c 	bl	8008658 <__match>
 8005dc0:	2800      	cmp	r0, #0
 8005dc2:	f43f aec5 	beq.w	8005b50 <_strtod_l+0xa8>
 8005dc6:	9b19      	ldr	r3, [sp, #100]	@ 0x64
 8005dc8:	781b      	ldrb	r3, [r3, #0]
 8005dca:	2b28      	cmp	r3, #40	@ 0x28
 8005dcc:	d12e      	bne.n	8005e2c <_strtod_l+0x384>
 8005dce:	4996      	ldr	r1, [pc, #600]	@ (8006028 <_strtod_l+0x580>)
 8005dd0:	aa1c      	add	r2, sp, #112	@ 0x70
 8005dd2:	a819      	add	r0, sp, #100	@ 0x64
 8005dd4:	f002 fc54 	bl	8008680 <__hexnan>
 8005dd8:	2805      	cmp	r0, #5
 8005dda:	d127      	bne.n	8005e2c <_strtod_l+0x384>
 8005ddc:	9b1d      	ldr	r3, [sp, #116]	@ 0x74
 8005dde:	f8dd a070 	ldr.w	sl, [sp, #112]	@ 0x70
 8005de2:	f043 4bff 	orr.w	fp, r3, #2139095040	@ 0x7f800000
 8005de6:	f44b 0be0 	orr.w	fp, fp, #7340032	@ 0x700000
 8005dea:	e696      	b.n	8005b1a <_strtod_l+0x72>
 8005dec:	9909      	ldr	r1, [sp, #36]	@ 0x24
 8005dee:	fb08 2101 	mla	r1, r8, r1, r2
 8005df2:	f1a1 0230 	sub.w	r2, r1, #48	@ 0x30
 8005df6:	9209      	str	r2, [sp, #36]	@ 0x24
 8005df8:	e7b5      	b.n	8005d66 <_strtod_l+0x2be>
 8005dfa:	2a6e      	cmp	r2, #110	@ 0x6e
 8005dfc:	e7da      	b.n	8005db4 <_strtod_l+0x30c>
 8005dfe:	498b      	ldr	r1, [pc, #556]	@ (800602c <_strtod_l+0x584>)
 8005e00:	a819      	add	r0, sp, #100	@ 0x64
 8005e02:	f002 fc29 	bl	8008658 <__match>
 8005e06:	2800      	cmp	r0, #0
 8005e08:	f43f aea2 	beq.w	8005b50 <_strtod_l+0xa8>
 8005e0c:	9b19      	ldr	r3, [sp, #100]	@ 0x64
 8005e0e:	4988      	ldr	r1, [pc, #544]	@ (8006030 <_strtod_l+0x588>)
 8005e10:	3b01      	subs	r3, #1
 8005e12:	a819      	add	r0, sp, #100	@ 0x64
 8005e14:	9319      	str	r3, [sp, #100]	@ 0x64
 8005e16:	f002 fc1f 	bl	8008658 <__match>
 8005e1a:	b910      	cbnz	r0, 8005e22 <_strtod_l+0x37a>
 8005e1c:	9b19      	ldr	r3, [sp, #100]	@ 0x64
 8005e1e:	3301      	adds	r3, #1
 8005e20:	9319      	str	r3, [sp, #100]	@ 0x64
 8005e22:	f8df b21c 	ldr.w	fp, [pc, #540]	@ 8006040 <_strtod_l+0x598>
 8005e26:	f04f 0a00 	mov.w	sl, #0
 8005e2a:	e676      	b.n	8005b1a <_strtod_l+0x72>
 8005e2c:	4881      	ldr	r0, [pc, #516]	@ (8006034 <_strtod_l+0x58c>)
 8005e2e:	f001 fadf 	bl	80073f0 <nan>
 8005e32:	ec5b ab10 	vmov	sl, fp, d0
 8005e36:	e670      	b.n	8005b1a <_strtod_l+0x72>
 8005e38:	9b0a      	ldr	r3, [sp, #40]	@ 0x28
 8005e3a:	980b      	ldr	r0, [sp, #44]	@ 0x2c
 8005e3c:	eba8 0303 	sub.w	r3, r8, r3
 8005e40:	f1b9 0f00 	cmp.w	r9, #0
 8005e44:	bf08      	it	eq
 8005e46:	46a9      	moveq	r9, r5
 8005e48:	2d10      	cmp	r5, #16
 8005e4a:	9309      	str	r3, [sp, #36]	@ 0x24
 8005e4c:	462c      	mov	r4, r5
 8005e4e:	bfa8      	it	ge
 8005e50:	2410      	movge	r4, #16
 8005e52:	f7fa fb5f 	bl	8000514 <__aeabi_ui2d>
 8005e56:	2d09      	cmp	r5, #9
 8005e58:	4682      	mov	sl, r0
 8005e5a:	468b      	mov	fp, r1
 8005e5c:	dc13      	bgt.n	8005e86 <_strtod_l+0x3de>
 8005e5e:	9b09      	ldr	r3, [sp, #36]	@ 0x24
 8005e60:	2b00      	cmp	r3, #0
 8005e62:	f43f ae5a 	beq.w	8005b1a <_strtod_l+0x72>
 8005e66:	9b09      	ldr	r3, [sp, #36]	@ 0x24
 8005e68:	dd78      	ble.n	8005f5c <_strtod_l+0x4b4>
 8005e6a:	2b16      	cmp	r3, #22
 8005e6c:	dc5f      	bgt.n	8005f2e <_strtod_l+0x486>
 8005e6e:	4972      	ldr	r1, [pc, #456]	@ (8006038 <_strtod_l+0x590>)
 8005e70:	eb01 01c3 	add.w	r1, r1, r3, lsl #3
 8005e74:	e9d1 0100 	ldrd	r0, r1, [r1]
 8005e78:	4652      	mov	r2, sl
 8005e7a:	465b      	mov	r3, fp
 8005e7c:	f7fa fbc4 	bl	8000608 <__aeabi_dmul>
 8005e80:	4682      	mov	sl, r0
 8005e82:	468b      	mov	fp, r1
 8005e84:	e649      	b.n	8005b1a <_strtod_l+0x72>
 8005e86:	4b6c      	ldr	r3, [pc, #432]	@ (8006038 <_strtod_l+0x590>)
 8005e88:	eb03 03c4 	add.w	r3, r3, r4, lsl #3
 8005e8c:	e953 2312 	ldrd	r2, r3, [r3, #-72]	@ 0x48
 8005e90:	f7fa fbba 	bl	8000608 <__aeabi_dmul>
 8005e94:	4682      	mov	sl, r0
 8005e96:	4638      	mov	r0, r7
 8005e98:	468b      	mov	fp, r1
 8005e9a:	f7fa fb3b 	bl	8000514 <__aeabi_ui2d>
 8005e9e:	4602      	mov	r2, r0
 8005ea0:	460b      	mov	r3, r1
 8005ea2:	4650      	mov	r0, sl
 8005ea4:	4659      	mov	r1, fp
 8005ea6:	f7fa f9f9 	bl	800029c <__adddf3>
 8005eaa:	2d0f      	cmp	r5, #15
 8005eac:	4682      	mov	sl, r0
 8005eae:	468b      	mov	fp, r1
 8005eb0:	ddd5      	ble.n	8005e5e <_strtod_l+0x3b6>
 8005eb2:	9b09      	ldr	r3, [sp, #36]	@ 0x24
 8005eb4:	1b2c      	subs	r4, r5, r4
 8005eb6:	441c      	add	r4, r3
 8005eb8:	2c00      	cmp	r4, #0
 8005eba:	f340 8093 	ble.w	8005fe4 <_strtod_l+0x53c>
 8005ebe:	f014 030f 	ands.w	r3, r4, #15
 8005ec2:	d00a      	beq.n	8005eda <_strtod_l+0x432>
 8005ec4:	495c      	ldr	r1, [pc, #368]	@ (8006038 <_strtod_l+0x590>)
 8005ec6:	eb01 01c3 	add.w	r1, r1, r3, lsl #3
 8005eca:	4652      	mov	r2, sl
 8005ecc:	465b      	mov	r3, fp
 8005ece:	e9d1 0100 	ldrd	r0, r1, [r1]
 8005ed2:	f7fa fb99 	bl	8000608 <__aeabi_dmul>
 8005ed6:	4682      	mov	sl, r0
 8005ed8:	468b      	mov	fp, r1
 8005eda:	f034 040f 	bics.w	r4, r4, #15
 8005ede:	d073      	beq.n	8005fc8 <_strtod_l+0x520>
 8005ee0:	f5b4 7f9a 	cmp.w	r4, #308	@ 0x134
 8005ee4:	dd49      	ble.n	8005f7a <_strtod_l+0x4d2>
 8005ee6:	2400      	movs	r4, #0
 8005ee8:	46a0      	mov	r8, r4
 8005eea:	940b      	str	r4, [sp, #44]	@ 0x2c
 8005eec:	46a1      	mov	r9, r4
 8005eee:	9a05      	ldr	r2, [sp, #20]
 8005ef0:	f8df b14c 	ldr.w	fp, [pc, #332]	@ 8006040 <_strtod_l+0x598>
 8005ef4:	2322      	movs	r3, #34	@ 0x22
 8005ef6:	6013      	str	r3, [r2, #0]
 8005ef8:	f04f 0a00 	mov.w	sl, #0
 8005efc:	9b0b      	ldr	r3, [sp, #44]	@ 0x2c
 8005efe:	2b00      	cmp	r3, #0
 8005f00:	f43f ae0b 	beq.w	8005b1a <_strtod_l+0x72>
 8005f04:	991a      	ldr	r1, [sp, #104]	@ 0x68
 8005f06:	9805      	ldr	r0, [sp, #20]
 8005f08:	f002 fd5e 	bl	80089c8 <_Bfree>
 8005f0c:	9805      	ldr	r0, [sp, #20]
 8005f0e:	4649      	mov	r1, r9
 8005f10:	f002 fd5a 	bl	80089c8 <_Bfree>
 8005f14:	9805      	ldr	r0, [sp, #20]
 8005f16:	4641      	mov	r1, r8
 8005f18:	f002 fd56 	bl	80089c8 <_Bfree>
 8005f1c:	990b      	ldr	r1, [sp, #44]	@ 0x2c
 8005f1e:	9805      	ldr	r0, [sp, #20]
 8005f20:	f002 fd52 	bl	80089c8 <_Bfree>
 8005f24:	9805      	ldr	r0, [sp, #20]
 8005f26:	4621      	mov	r1, r4
 8005f28:	f002 fd4e 	bl	80089c8 <_Bfree>
 8005f2c:	e5f5      	b.n	8005b1a <_strtod_l+0x72>
 8005f2e:	9a09      	ldr	r2, [sp, #36]	@ 0x24
 8005f30:	f1c5 0325 	rsb	r3, r5, #37	@ 0x25
 8005f34:	4293      	cmp	r3, r2
 8005f36:	dbbc      	blt.n	8005eb2 <_strtod_l+0x40a>
 8005f38:	4c3f      	ldr	r4, [pc, #252]	@ (8006038 <_strtod_l+0x590>)
 8005f3a:	f1c5 050f 	rsb	r5, r5, #15
 8005f3e:	eb04 01c5 	add.w	r1, r4, r5, lsl #3
 8005f42:	4652      	mov	r2, sl
 8005f44:	465b      	mov	r3, fp
 8005f46:	e9d1 0100 	ldrd	r0, r1, [r1]
 8005f4a:	f7fa fb5d 	bl	8000608 <__aeabi_dmul>
 8005f4e:	9b09      	ldr	r3, [sp, #36]	@ 0x24
 8005f50:	1b5d      	subs	r5, r3, r5
 8005f52:	eb04 04c5 	add.w	r4, r4, r5, lsl #3
 8005f56:	e9d4 2300 	ldrd	r2, r3, [r4]
 8005f5a:	e78f      	b.n	8005e7c <_strtod_l+0x3d4>
 8005f5c:	3316      	adds	r3, #22
 8005f5e:	dba8      	blt.n	8005eb2 <_strtod_l+0x40a>
 8005f60:	9b0a      	ldr	r3, [sp, #40]	@ 0x28
 8005f62:	eba3 0808 	sub.w	r8, r3, r8
 8005f66:	4b34      	ldr	r3, [pc, #208]	@ (8006038 <_strtod_l+0x590>)
 8005f68:	eb03 08c8 	add.w	r8, r3, r8, lsl #3
 8005f6c:	e9d8 2300 	ldrd	r2, r3, [r8]
 8005f70:	4650      	mov	r0, sl
 8005f72:	4659      	mov	r1, fp
 8005f74:	f7fa fc72 	bl	800085c <__aeabi_ddiv>
 8005f78:	e782      	b.n	8005e80 <_strtod_l+0x3d8>
 8005f7a:	2300      	movs	r3, #0
 8005f7c:	4f2f      	ldr	r7, [pc, #188]	@ (800603c <_strtod_l+0x594>)
 8005f7e:	1124      	asrs	r4, r4, #4
 8005f80:	4650      	mov	r0, sl
 8005f82:	4659      	mov	r1, fp
 8005f84:	461e      	mov	r6, r3
 8005f86:	2c01      	cmp	r4, #1
 8005f88:	dc21      	bgt.n	8005fce <_strtod_l+0x526>
 8005f8a:	b10b      	cbz	r3, 8005f90 <_strtod_l+0x4e8>
 8005f8c:	4682      	mov	sl, r0
 8005f8e:	468b      	mov	fp, r1
 8005f90:	492a      	ldr	r1, [pc, #168]	@ (800603c <_strtod_l+0x594>)
 8005f92:	f1ab 7b54 	sub.w	fp, fp, #55574528	@ 0x3500000
 8005f96:	eb01 01c6 	add.w	r1, r1, r6, lsl #3
 8005f9a:	4652      	mov	r2, sl
 8005f9c:	465b      	mov	r3, fp
 8005f9e:	e9d1 0100 	ldrd	r0, r1, [r1]
 8005fa2:	f7fa fb31 	bl	8000608 <__aeabi_dmul>
 8005fa6:	4b26      	ldr	r3, [pc, #152]	@ (8006040 <_strtod_l+0x598>)
 8005fa8:	460a      	mov	r2, r1
 8005faa:	400b      	ands	r3, r1
 8005fac:	4925      	ldr	r1, [pc, #148]	@ (8006044 <_strtod_l+0x59c>)
 8005fae:	428b      	cmp	r3, r1
 8005fb0:	4682      	mov	sl, r0
 8005fb2:	d898      	bhi.n	8005ee6 <_strtod_l+0x43e>
 8005fb4:	f5a1 1180 	sub.w	r1, r1, #1048576	@ 0x100000
 8005fb8:	428b      	cmp	r3, r1
 8005fba:	bf86      	itte	hi
 8005fbc:	f8df b088 	ldrhi.w	fp, [pc, #136]	@ 8006048 <_strtod_l+0x5a0>
 8005fc0:	f04f 3aff 	movhi.w	sl, #4294967295
 8005fc4:	f102 7b54 	addls.w	fp, r2, #55574528	@ 0x3500000
 8005fc8:	2300      	movs	r3, #0
 8005fca:	9308      	str	r3, [sp, #32]
 8005fcc:	e076      	b.n	80060bc <_strtod_l+0x614>
 8005fce:	07e2      	lsls	r2, r4, #31
 8005fd0:	d504      	bpl.n	8005fdc <_strtod_l+0x534>
 8005fd2:	e9d7 2300 	ldrd	r2, r3, [r7]
 8005fd6:	f7fa fb17 	bl	8000608 <__aeabi_dmul>
 8005fda:	2301      	movs	r3, #1
 8005fdc:	3601      	adds	r6, #1
 8005fde:	1064      	asrs	r4, r4, #1
 8005fe0:	3708      	adds	r7, #8
 8005fe2:	e7d0      	b.n	8005f86 <_strtod_l+0x4de>
 8005fe4:	d0f0      	beq.n	8005fc8 <_strtod_l+0x520>
 8005fe6:	4264      	negs	r4, r4
 8005fe8:	f014 020f 	ands.w	r2, r4, #15
 8005fec:	d00a      	beq.n	8006004 <_strtod_l+0x55c>
 8005fee:	4b12      	ldr	r3, [pc, #72]	@ (8006038 <_strtod_l+0x590>)
 8005ff0:	eb03 03c2 	add.w	r3, r3, r2, lsl #3
 8005ff4:	4650      	mov	r0, sl
 8005ff6:	4659      	mov	r1, fp
 8005ff8:	e9d3 2300 	ldrd	r2, r3, [r3]
 8005ffc:	f7fa fc2e 	bl	800085c <__aeabi_ddiv>
 8006000:	4682      	mov	sl, r0
 8006002:	468b      	mov	fp, r1
 8006004:	1124      	asrs	r4, r4, #4
 8006006:	d0df      	beq.n	8005fc8 <_strtod_l+0x520>
 8006008:	2c1f      	cmp	r4, #31
 800600a:	dd1f      	ble.n	800604c <_strtod_l+0x5a4>
 800600c:	2400      	movs	r4, #0
 800600e:	46a0      	mov	r8, r4
 8006010:	940b      	str	r4, [sp, #44]	@ 0x2c
 8006012:	46a1      	mov	r9, r4
 8006014:	9a05      	ldr	r2, [sp, #20]
 8006016:	2322      	movs	r3, #34	@ 0x22
 8006018:	f04f 0a00 	mov.w	sl, #0
 800601c:	f04f 0b00 	mov.w	fp, #0
 8006020:	6013      	str	r3, [r2, #0]
 8006022:	e76b      	b.n	8005efc <_strtod_l+0x454>
 8006024:	08009a53 	.word	0x08009a53
 8006028:	08009c18 	.word	0x08009c18
 800602c:	08009a4b 	.word	0x08009a4b
 8006030:	08009a85 	.word	0x08009a85
 8006034:	08009c14 	.word	0x08009c14
 8006038:	08009da0 	.word	0x08009da0
 800603c:	08009d78 	.word	0x08009d78
 8006040:	7ff00000 	.word	0x7ff00000
 8006044:	7ca00000 	.word	0x7ca00000
 8006048:	7fefffff 	.word	0x7fefffff
 800604c:	f014 0310 	ands.w	r3, r4, #16
 8006050:	bf18      	it	ne
 8006052:	236a      	movne	r3, #106	@ 0x6a
 8006054:	4ea9      	ldr	r6, [pc, #676]	@ (80062fc <_strtod_l+0x854>)
 8006056:	9308      	str	r3, [sp, #32]
 8006058:	4650      	mov	r0, sl
 800605a:	4659      	mov	r1, fp
 800605c:	2300      	movs	r3, #0
 800605e:	07e7      	lsls	r7, r4, #31
 8006060:	d504      	bpl.n	800606c <_strtod_l+0x5c4>
 8006062:	e9d6 2300 	ldrd	r2, r3, [r6]
 8006066:	f7fa facf 	bl	8000608 <__aeabi_dmul>
 800606a:	2301      	movs	r3, #1
 800606c:	1064      	asrs	r4, r4, #1
 800606e:	f106 0608 	add.w	r6, r6, #8
 8006072:	d1f4      	bne.n	800605e <_strtod_l+0x5b6>
 8006074:	b10b      	cbz	r3, 800607a <_strtod_l+0x5d2>
 8006076:	4682      	mov	sl, r0
 8006078:	468b      	mov	fp, r1
 800607a:	9b08      	ldr	r3, [sp, #32]
 800607c:	b1b3      	cbz	r3, 80060ac <_strtod_l+0x604>
 800607e:	f3cb 520a 	ubfx	r2, fp, #20, #11
 8006082:	f1c2 036b 	rsb	r3, r2, #107	@ 0x6b
 8006086:	2b00      	cmp	r3, #0
 8006088:	4659      	mov	r1, fp
 800608a:	dd0f      	ble.n	80060ac <_strtod_l+0x604>
 800608c:	2b1f      	cmp	r3, #31
 800608e:	dd56      	ble.n	800613e <_strtod_l+0x696>
 8006090:	2b34      	cmp	r3, #52	@ 0x34
 8006092:	bfde      	ittt	le
 8006094:	f04f 33ff 	movle.w	r3, #4294967295
 8006098:	f1c2 024b 	rsble	r2, r2, #75	@ 0x4b
 800609c:	4093      	lslle	r3, r2
 800609e:	f04f 0a00 	mov.w	sl, #0
 80060a2:	bfcc      	ite	gt
 80060a4:	f04f 7b5c 	movgt.w	fp, #57671680	@ 0x3700000
 80060a8:	ea03 0b01 	andle.w	fp, r3, r1
 80060ac:	2200      	movs	r2, #0
 80060ae:	2300      	movs	r3, #0
 80060b0:	4650      	mov	r0, sl
 80060b2:	4659      	mov	r1, fp
 80060b4:	f7fa fd10 	bl	8000ad8 <__aeabi_dcmpeq>
 80060b8:	2800      	cmp	r0, #0
 80060ba:	d1a7      	bne.n	800600c <_strtod_l+0x564>
 80060bc:	9b0b      	ldr	r3, [sp, #44]	@ 0x2c
 80060be:	9300      	str	r3, [sp, #0]
 80060c0:	990c      	ldr	r1, [sp, #48]	@ 0x30
 80060c2:	9805      	ldr	r0, [sp, #20]
 80060c4:	462b      	mov	r3, r5
 80060c6:	464a      	mov	r2, r9
 80060c8:	f002 fce6 	bl	8008a98 <__s2b>
 80060cc:	900b      	str	r0, [sp, #44]	@ 0x2c
 80060ce:	2800      	cmp	r0, #0
 80060d0:	f43f af09 	beq.w	8005ee6 <_strtod_l+0x43e>
 80060d4:	9a09      	ldr	r2, [sp, #36]	@ 0x24
 80060d6:	9b0a      	ldr	r3, [sp, #40]	@ 0x28
 80060d8:	2a00      	cmp	r2, #0
 80060da:	eba3 0308 	sub.w	r3, r3, r8
 80060de:	bfa8      	it	ge
 80060e0:	2300      	movge	r3, #0
 80060e2:	9312      	str	r3, [sp, #72]	@ 0x48
 80060e4:	2400      	movs	r4, #0
 80060e6:	ea22 73e2 	bic.w	r3, r2, r2, asr #31
 80060ea:	9316      	str	r3, [sp, #88]	@ 0x58
 80060ec:	46a0      	mov	r8, r4
 80060ee:	9b0b      	ldr	r3, [sp, #44]	@ 0x2c
 80060f0:	9805      	ldr	r0, [sp, #20]
 80060f2:	6859      	ldr	r1, [r3, #4]
 80060f4:	f002 fc28 	bl	8008948 <_Balloc>
 80060f8:	4681      	mov	r9, r0
 80060fa:	2800      	cmp	r0, #0
 80060fc:	f43f aef7 	beq.w	8005eee <_strtod_l+0x446>
 8006100:	9b0b      	ldr	r3, [sp, #44]	@ 0x2c
 8006102:	691a      	ldr	r2, [r3, #16]
 8006104:	3202      	adds	r2, #2
 8006106:	f103 010c 	add.w	r1, r3, #12
 800610a:	0092      	lsls	r2, r2, #2
 800610c:	300c      	adds	r0, #12
 800610e:	f001 f960 	bl	80073d2 <memcpy>
 8006112:	ec4b ab10 	vmov	d0, sl, fp
 8006116:	9805      	ldr	r0, [sp, #20]
 8006118:	aa1c      	add	r2, sp, #112	@ 0x70
 800611a:	a91b      	add	r1, sp, #108	@ 0x6c
 800611c:	e9cd ab0c 	strd	sl, fp, [sp, #48]	@ 0x30
 8006120:	f002 ffee 	bl	8009100 <__d2b>
 8006124:	901a      	str	r0, [sp, #104]	@ 0x68
 8006126:	2800      	cmp	r0, #0
 8006128:	f43f aee1 	beq.w	8005eee <_strtod_l+0x446>
 800612c:	9805      	ldr	r0, [sp, #20]
 800612e:	2101      	movs	r1, #1
 8006130:	f002 fd48 	bl	8008bc4 <__i2b>
 8006134:	4680      	mov	r8, r0
 8006136:	b948      	cbnz	r0, 800614c <_strtod_l+0x6a4>
 8006138:	f04f 0800 	mov.w	r8, #0
 800613c:	e6d7      	b.n	8005eee <_strtod_l+0x446>
 800613e:	f04f 32ff 	mov.w	r2, #4294967295
 8006142:	fa02 f303 	lsl.w	r3, r2, r3
 8006146:	ea03 0a0a 	and.w	sl, r3, sl
 800614a:	e7af      	b.n	80060ac <_strtod_l+0x604>
 800614c:	9d1b      	ldr	r5, [sp, #108]	@ 0x6c
 800614e:	9a1c      	ldr	r2, [sp, #112]	@ 0x70
 8006150:	2d00      	cmp	r5, #0
 8006152:	bfab      	itete	ge
 8006154:	9b12      	ldrge	r3, [sp, #72]	@ 0x48
 8006156:	9b16      	ldrlt	r3, [sp, #88]	@ 0x58
 8006158:	9e16      	ldrge	r6, [sp, #88]	@ 0x58
 800615a:	9f12      	ldrlt	r7, [sp, #72]	@ 0x48
 800615c:	bfac      	ite	ge
 800615e:	18ef      	addge	r7, r5, r3
 8006160:	1b5e      	sublt	r6, r3, r5
 8006162:	9b08      	ldr	r3, [sp, #32]
 8006164:	1aed      	subs	r5, r5, r3
 8006166:	4415      	add	r5, r2
 8006168:	4b65      	ldr	r3, [pc, #404]	@ (8006300 <_strtod_l+0x858>)
 800616a:	3d01      	subs	r5, #1
 800616c:	429d      	cmp	r5, r3
 800616e:	f1c2 0236 	rsb	r2, r2, #54	@ 0x36
 8006172:	da50      	bge.n	8006216 <_strtod_l+0x76e>
 8006174:	1b5b      	subs	r3, r3, r5
 8006176:	2b1f      	cmp	r3, #31
 8006178:	eba2 0203 	sub.w	r2, r2, r3
 800617c:	f04f 0101 	mov.w	r1, #1
 8006180:	dc3d      	bgt.n	80061fe <_strtod_l+0x756>
 8006182:	fa01 f303 	lsl.w	r3, r1, r3
 8006186:	9313      	str	r3, [sp, #76]	@ 0x4c
 8006188:	2300      	movs	r3, #0
 800618a:	9310      	str	r3, [sp, #64]	@ 0x40
 800618c:	18bd      	adds	r5, r7, r2
 800618e:	9b08      	ldr	r3, [sp, #32]
 8006190:	42af      	cmp	r7, r5
 8006192:	4416      	add	r6, r2
 8006194:	441e      	add	r6, r3
 8006196:	463b      	mov	r3, r7
 8006198:	bfa8      	it	ge
 800619a:	462b      	movge	r3, r5
 800619c:	42b3      	cmp	r3, r6
 800619e:	bfa8      	it	ge
 80061a0:	4633      	movge	r3, r6
 80061a2:	2b00      	cmp	r3, #0
 80061a4:	bfc2      	ittt	gt
 80061a6:	1aed      	subgt	r5, r5, r3
 80061a8:	1af6      	subgt	r6, r6, r3
 80061aa:	1aff      	subgt	r7, r7, r3
 80061ac:	9b12      	ldr	r3, [sp, #72]	@ 0x48
 80061ae:	2b00      	cmp	r3, #0
 80061b0:	dd16      	ble.n	80061e0 <_strtod_l+0x738>
 80061b2:	4641      	mov	r1, r8
 80061b4:	9805      	ldr	r0, [sp, #20]
 80061b6:	461a      	mov	r2, r3
 80061b8:	f002 fdbc 	bl	8008d34 <__pow5mult>
 80061bc:	4680      	mov	r8, r0
 80061be:	2800      	cmp	r0, #0
 80061c0:	d0ba      	beq.n	8006138 <_strtod_l+0x690>
 80061c2:	4601      	mov	r1, r0
 80061c4:	9a1a      	ldr	r2, [sp, #104]	@ 0x68
 80061c6:	9805      	ldr	r0, [sp, #20]
 80061c8:	f002 fd12 	bl	8008bf0 <__multiply>
 80061cc:	900a      	str	r0, [sp, #40]	@ 0x28
 80061ce:	2800      	cmp	r0, #0
 80061d0:	f43f ae8d 	beq.w	8005eee <_strtod_l+0x446>
 80061d4:	991a      	ldr	r1, [sp, #104]	@ 0x68
 80061d6:	9805      	ldr	r0, [sp, #20]
 80061d8:	f002 fbf6 	bl	80089c8 <_Bfree>
 80061dc:	9b0a      	ldr	r3, [sp, #40]	@ 0x28
 80061de:	931a      	str	r3, [sp, #104]	@ 0x68
 80061e0:	2d00      	cmp	r5, #0
 80061e2:	dc1d      	bgt.n	8006220 <_strtod_l+0x778>
 80061e4:	9b09      	ldr	r3, [sp, #36]	@ 0x24
 80061e6:	2b00      	cmp	r3, #0
 80061e8:	dd23      	ble.n	8006232 <_strtod_l+0x78a>
 80061ea:	4649      	mov	r1, r9
 80061ec:	9a16      	ldr	r2, [sp, #88]	@ 0x58
 80061ee:	9805      	ldr	r0, [sp, #20]
 80061f0:	f002 fda0 	bl	8008d34 <__pow5mult>
 80061f4:	4681      	mov	r9, r0
 80061f6:	b9e0      	cbnz	r0, 8006232 <_strtod_l+0x78a>
 80061f8:	f04f 0900 	mov.w	r9, #0
 80061fc:	e677      	b.n	8005eee <_strtod_l+0x446>
 80061fe:	f1c5 457f 	rsb	r5, r5, #4278190080	@ 0xff000000
 8006202:	f505 057f 	add.w	r5, r5, #16711680	@ 0xff0000
 8006206:	f505 457b 	add.w	r5, r5, #64256	@ 0xfb00
 800620a:	35e2      	adds	r5, #226	@ 0xe2
 800620c:	fa01 f305 	lsl.w	r3, r1, r5
 8006210:	9310      	str	r3, [sp, #64]	@ 0x40
 8006212:	9113      	str	r1, [sp, #76]	@ 0x4c
 8006214:	e7ba      	b.n	800618c <_strtod_l+0x6e4>
 8006216:	2300      	movs	r3, #0
 8006218:	9310      	str	r3, [sp, #64]	@ 0x40
 800621a:	2301      	movs	r3, #1
 800621c:	9313      	str	r3, [sp, #76]	@ 0x4c
 800621e:	e7b5      	b.n	800618c <_strtod_l+0x6e4>
 8006220:	991a      	ldr	r1, [sp, #104]	@ 0x68
 8006222:	9805      	ldr	r0, [sp, #20]
 8006224:	462a      	mov	r2, r5
 8006226:	f002 fddf 	bl	8008de8 <__lshift>
 800622a:	901a      	str	r0, [sp, #104]	@ 0x68
 800622c:	2800      	cmp	r0, #0
 800622e:	d1d9      	bne.n	80061e4 <_strtod_l+0x73c>
 8006230:	e65d      	b.n	8005eee <_strtod_l+0x446>
 8006232:	2e00      	cmp	r6, #0
 8006234:	dd07      	ble.n	8006246 <_strtod_l+0x79e>
 8006236:	4649      	mov	r1, r9
 8006238:	9805      	ldr	r0, [sp, #20]
 800623a:	4632      	mov	r2, r6
 800623c:	f002 fdd4 	bl	8008de8 <__lshift>
 8006240:	4681      	mov	r9, r0
 8006242:	2800      	cmp	r0, #0
 8006244:	d0d8      	beq.n	80061f8 <_strtod_l+0x750>
 8006246:	2f00      	cmp	r7, #0
 8006248:	dd08      	ble.n	800625c <_strtod_l+0x7b4>
 800624a:	4641      	mov	r1, r8
 800624c:	9805      	ldr	r0, [sp, #20]
 800624e:	463a      	mov	r2, r7
 8006250:	f002 fdca 	bl	8008de8 <__lshift>
 8006254:	4680      	mov	r8, r0
 8006256:	2800      	cmp	r0, #0
 8006258:	f43f ae49 	beq.w	8005eee <_strtod_l+0x446>
 800625c:	991a      	ldr	r1, [sp, #104]	@ 0x68
 800625e:	9805      	ldr	r0, [sp, #20]
 8006260:	464a      	mov	r2, r9
 8006262:	f002 fe49 	bl	8008ef8 <__mdiff>
 8006266:	4604      	mov	r4, r0
 8006268:	2800      	cmp	r0, #0
 800626a:	f43f ae40 	beq.w	8005eee <_strtod_l+0x446>
 800626e:	68c3      	ldr	r3, [r0, #12]
 8006270:	930f      	str	r3, [sp, #60]	@ 0x3c
 8006272:	2300      	movs	r3, #0
 8006274:	60c3      	str	r3, [r0, #12]
 8006276:	4641      	mov	r1, r8
 8006278:	f002 fe22 	bl	8008ec0 <__mcmp>
 800627c:	2800      	cmp	r0, #0
 800627e:	da45      	bge.n	800630c <_strtod_l+0x864>
 8006280:	9b0f      	ldr	r3, [sp, #60]	@ 0x3c
 8006282:	ea53 030a 	orrs.w	r3, r3, sl
 8006286:	d16b      	bne.n	8006360 <_strtod_l+0x8b8>
 8006288:	f3cb 0313 	ubfx	r3, fp, #0, #20
 800628c:	2b00      	cmp	r3, #0
 800628e:	d167      	bne.n	8006360 <_strtod_l+0x8b8>
 8006290:	f02b 4300 	bic.w	r3, fp, #2147483648	@ 0x80000000
 8006294:	0d1b      	lsrs	r3, r3, #20
 8006296:	051b      	lsls	r3, r3, #20
 8006298:	f1b3 6fd6 	cmp.w	r3, #112197632	@ 0x6b00000
 800629c:	d960      	bls.n	8006360 <_strtod_l+0x8b8>
 800629e:	6963      	ldr	r3, [r4, #20]
 80062a0:	b913      	cbnz	r3, 80062a8 <_strtod_l+0x800>
 80062a2:	6923      	ldr	r3, [r4, #16]
 80062a4:	2b01      	cmp	r3, #1
 80062a6:	dd5b      	ble.n	8006360 <_strtod_l+0x8b8>
 80062a8:	4621      	mov	r1, r4
 80062aa:	2201      	movs	r2, #1
 80062ac:	9805      	ldr	r0, [sp, #20]
 80062ae:	f002 fd9b 	bl	8008de8 <__lshift>
 80062b2:	4641      	mov	r1, r8
 80062b4:	4604      	mov	r4, r0
 80062b6:	f002 fe03 	bl	8008ec0 <__mcmp>
 80062ba:	2800      	cmp	r0, #0
 80062bc:	dd50      	ble.n	8006360 <_strtod_l+0x8b8>
 80062be:	f02b 4300 	bic.w	r3, fp, #2147483648	@ 0x80000000
 80062c2:	9a08      	ldr	r2, [sp, #32]
 80062c4:	0d1b      	lsrs	r3, r3, #20
 80062c6:	051b      	lsls	r3, r3, #20
 80062c8:	2a00      	cmp	r2, #0
 80062ca:	d06a      	beq.n	80063a2 <_strtod_l+0x8fa>
 80062cc:	f1b3 6fd6 	cmp.w	r3, #112197632	@ 0x6b00000
 80062d0:	d867      	bhi.n	80063a2 <_strtod_l+0x8fa>
 80062d2:	f1b3 7f5c 	cmp.w	r3, #57671680	@ 0x3700000
 80062d6:	f67f ae9d 	bls.w	8006014 <_strtod_l+0x56c>
 80062da:	4b0a      	ldr	r3, [pc, #40]	@ (8006304 <_strtod_l+0x85c>)
 80062dc:	4650      	mov	r0, sl
 80062de:	4659      	mov	r1, fp
 80062e0:	2200      	movs	r2, #0
 80062e2:	f7fa f991 	bl	8000608 <__aeabi_dmul>
 80062e6:	4b08      	ldr	r3, [pc, #32]	@ (8006308 <_strtod_l+0x860>)
 80062e8:	400b      	ands	r3, r1
 80062ea:	4682      	mov	sl, r0
 80062ec:	468b      	mov	fp, r1
 80062ee:	2b00      	cmp	r3, #0
 80062f0:	f47f ae08 	bne.w	8005f04 <_strtod_l+0x45c>
 80062f4:	9a05      	ldr	r2, [sp, #20]
 80062f6:	2322      	movs	r3, #34	@ 0x22
 80062f8:	6013      	str	r3, [r2, #0]
 80062fa:	e603      	b.n	8005f04 <_strtod_l+0x45c>
 80062fc:	08009c40 	.word	0x08009c40
 8006300:	fffffc02 	.word	0xfffffc02
 8006304:	39500000 	.word	0x39500000
 8006308:	7ff00000 	.word	0x7ff00000
 800630c:	f8cd b028 	str.w	fp, [sp, #40]	@ 0x28
 8006310:	d165      	bne.n	80063de <_strtod_l+0x936>
 8006312:	9a0f      	ldr	r2, [sp, #60]	@ 0x3c
 8006314:	f3cb 0313 	ubfx	r3, fp, #0, #20
 8006318:	b35a      	cbz	r2, 8006372 <_strtod_l+0x8ca>
 800631a:	4a9f      	ldr	r2, [pc, #636]	@ (8006598 <_strtod_l+0xaf0>)
 800631c:	4293      	cmp	r3, r2
 800631e:	d12b      	bne.n	8006378 <_strtod_l+0x8d0>
 8006320:	9b08      	ldr	r3, [sp, #32]
 8006322:	4651      	mov	r1, sl
 8006324:	b303      	cbz	r3, 8006368 <_strtod_l+0x8c0>
 8006326:	4b9d      	ldr	r3, [pc, #628]	@ (800659c <_strtod_l+0xaf4>)
 8006328:	465a      	mov	r2, fp
 800632a:	4013      	ands	r3, r2
 800632c:	f1b3 6fd4 	cmp.w	r3, #111149056	@ 0x6a00000
 8006330:	f04f 32ff 	mov.w	r2, #4294967295
 8006334:	d81b      	bhi.n	800636e <_strtod_l+0x8c6>
 8006336:	0d1b      	lsrs	r3, r3, #20
 8006338:	f1c3 036b 	rsb	r3, r3, #107	@ 0x6b
 800633c:	fa02 f303 	lsl.w	r3, r2, r3
 8006340:	4299      	cmp	r1, r3
 8006342:	d119      	bne.n	8006378 <_strtod_l+0x8d0>
 8006344:	4b96      	ldr	r3, [pc, #600]	@ (80065a0 <_strtod_l+0xaf8>)
 8006346:	9a0a      	ldr	r2, [sp, #40]	@ 0x28
 8006348:	429a      	cmp	r2, r3
 800634a:	d102      	bne.n	8006352 <_strtod_l+0x8aa>
 800634c:	3101      	adds	r1, #1
 800634e:	f43f adce 	beq.w	8005eee <_strtod_l+0x446>
 8006352:	4b92      	ldr	r3, [pc, #584]	@ (800659c <_strtod_l+0xaf4>)
 8006354:	9a0a      	ldr	r2, [sp, #40]	@ 0x28
 8006356:	401a      	ands	r2, r3
 8006358:	f502 1b80 	add.w	fp, r2, #1048576	@ 0x100000
 800635c:	f04f 0a00 	mov.w	sl, #0
 8006360:	9b08      	ldr	r3, [sp, #32]
 8006362:	2b00      	cmp	r3, #0
 8006364:	d1b9      	bne.n	80062da <_strtod_l+0x832>
 8006366:	e5cd      	b.n	8005f04 <_strtod_l+0x45c>
 8006368:	f04f 33ff 	mov.w	r3, #4294967295
 800636c:	e7e8      	b.n	8006340 <_strtod_l+0x898>
 800636e:	4613      	mov	r3, r2
 8006370:	e7e6      	b.n	8006340 <_strtod_l+0x898>
 8006372:	ea53 030a 	orrs.w	r3, r3, sl
 8006376:	d0a2      	beq.n	80062be <_strtod_l+0x816>
 8006378:	9b10      	ldr	r3, [sp, #64]	@ 0x40
 800637a:	b1db      	cbz	r3, 80063b4 <_strtod_l+0x90c>
 800637c:	9a0a      	ldr	r2, [sp, #40]	@ 0x28
 800637e:	4213      	tst	r3, r2
 8006380:	d0ee      	beq.n	8006360 <_strtod_l+0x8b8>
 8006382:	9b0f      	ldr	r3, [sp, #60]	@ 0x3c
 8006384:	9a08      	ldr	r2, [sp, #32]
 8006386:	4650      	mov	r0, sl
 8006388:	4659      	mov	r1, fp
 800638a:	b1bb      	cbz	r3, 80063bc <_strtod_l+0x914>
 800638c:	f7ff fb6e 	bl	8005a6c <sulp>
 8006390:	e9dd 010c 	ldrd	r0, r1, [sp, #48]	@ 0x30
 8006394:	ec53 2b10 	vmov	r2, r3, d0
 8006398:	f7f9 ff80 	bl	800029c <__adddf3>
 800639c:	4682      	mov	sl, r0
 800639e:	468b      	mov	fp, r1
 80063a0:	e7de      	b.n	8006360 <_strtod_l+0x8b8>
 80063a2:	f5a3 1380 	sub.w	r3, r3, #1048576	@ 0x100000
 80063a6:	ea6f 5b13 	mvn.w	fp, r3, lsr #20
 80063aa:	ea6f 5b0b 	mvn.w	fp, fp, lsl #20
 80063ae:	f04f 3aff 	mov.w	sl, #4294967295
 80063b2:	e7d5      	b.n	8006360 <_strtod_l+0x8b8>
 80063b4:	9b13      	ldr	r3, [sp, #76]	@ 0x4c
 80063b6:	ea13 0f0a 	tst.w	r3, sl
 80063ba:	e7e1      	b.n	8006380 <_strtod_l+0x8d8>
 80063bc:	f7ff fb56 	bl	8005a6c <sulp>
 80063c0:	e9dd 010c 	ldrd	r0, r1, [sp, #48]	@ 0x30
 80063c4:	ec53 2b10 	vmov	r2, r3, d0
 80063c8:	f7f9 ff66 	bl	8000298 <__aeabi_dsub>
 80063cc:	2200      	movs	r2, #0
 80063ce:	2300      	movs	r3, #0
 80063d0:	4682      	mov	sl, r0
 80063d2:	468b      	mov	fp, r1
 80063d4:	f7fa fb80 	bl	8000ad8 <__aeabi_dcmpeq>
 80063d8:	2800      	cmp	r0, #0
 80063da:	d0c1      	beq.n	8006360 <_strtod_l+0x8b8>
 80063dc:	e61a      	b.n	8006014 <_strtod_l+0x56c>
 80063de:	4641      	mov	r1, r8
 80063e0:	4620      	mov	r0, r4
 80063e2:	f002 fee5 	bl	80091b0 <__ratio>
 80063e6:	ec57 6b10 	vmov	r6, r7, d0
 80063ea:	2200      	movs	r2, #0
 80063ec:	f04f 4380 	mov.w	r3, #1073741824	@ 0x40000000
 80063f0:	4630      	mov	r0, r6
 80063f2:	4639      	mov	r1, r7
 80063f4:	f7fa fb84 	bl	8000b00 <__aeabi_dcmple>
 80063f8:	2800      	cmp	r0, #0
 80063fa:	d06f      	beq.n	80064dc <_strtod_l+0xa34>
 80063fc:	9b0f      	ldr	r3, [sp, #60]	@ 0x3c
 80063fe:	2b00      	cmp	r3, #0
 8006400:	d17a      	bne.n	80064f8 <_strtod_l+0xa50>
 8006402:	f1ba 0f00 	cmp.w	sl, #0
 8006406:	d158      	bne.n	80064ba <_strtod_l+0xa12>
 8006408:	9b0a      	ldr	r3, [sp, #40]	@ 0x28
 800640a:	f3c3 0313 	ubfx	r3, r3, #0, #20
 800640e:	2b00      	cmp	r3, #0
 8006410:	d15a      	bne.n	80064c8 <_strtod_l+0xa20>
 8006412:	4b64      	ldr	r3, [pc, #400]	@ (80065a4 <_strtod_l+0xafc>)
 8006414:	2200      	movs	r2, #0
 8006416:	4630      	mov	r0, r6
 8006418:	4639      	mov	r1, r7
 800641a:	f7fa fb67 	bl	8000aec <__aeabi_dcmplt>
 800641e:	2800      	cmp	r0, #0
 8006420:	d159      	bne.n	80064d6 <_strtod_l+0xa2e>
 8006422:	4630      	mov	r0, r6
 8006424:	4639      	mov	r1, r7
 8006426:	4b60      	ldr	r3, [pc, #384]	@ (80065a8 <_strtod_l+0xb00>)
 8006428:	2200      	movs	r2, #0
 800642a:	f7fa f8ed 	bl	8000608 <__aeabi_dmul>
 800642e:	4606      	mov	r6, r0
 8006430:	460f      	mov	r7, r1
 8006432:	f107 4300 	add.w	r3, r7, #2147483648	@ 0x80000000
 8006436:	9606      	str	r6, [sp, #24]
 8006438:	9307      	str	r3, [sp, #28]
 800643a:	e9dd 2306 	ldrd	r2, r3, [sp, #24]
 800643e:	4d57      	ldr	r5, [pc, #348]	@ (800659c <_strtod_l+0xaf4>)
 8006440:	e9cd 2310 	strd	r2, r3, [sp, #64]	@ 0x40
 8006444:	9b0a      	ldr	r3, [sp, #40]	@ 0x28
 8006446:	401d      	ands	r5, r3
 8006448:	4b58      	ldr	r3, [pc, #352]	@ (80065ac <_strtod_l+0xb04>)
 800644a:	429d      	cmp	r5, r3
 800644c:	f040 80b2 	bne.w	80065b4 <_strtod_l+0xb0c>
 8006450:	9b0a      	ldr	r3, [sp, #40]	@ 0x28
 8006452:	f1a3 7b54 	sub.w	fp, r3, #55574528	@ 0x3500000
 8006456:	ec4b ab10 	vmov	d0, sl, fp
 800645a:	f002 fde1 	bl	8009020 <__ulp>
 800645e:	e9dd 2306 	ldrd	r2, r3, [sp, #24]
 8006462:	ec51 0b10 	vmov	r0, r1, d0
 8006466:	f7fa f8cf 	bl	8000608 <__aeabi_dmul>
 800646a:	4652      	mov	r2, sl
 800646c:	465b      	mov	r3, fp
 800646e:	f7f9 ff15 	bl	800029c <__adddf3>
 8006472:	460b      	mov	r3, r1
 8006474:	4949      	ldr	r1, [pc, #292]	@ (800659c <_strtod_l+0xaf4>)
 8006476:	4a4e      	ldr	r2, [pc, #312]	@ (80065b0 <_strtod_l+0xb08>)
 8006478:	4019      	ands	r1, r3
 800647a:	4291      	cmp	r1, r2
 800647c:	4682      	mov	sl, r0
 800647e:	d942      	bls.n	8006506 <_strtod_l+0xa5e>
 8006480:	9a0d      	ldr	r2, [sp, #52]	@ 0x34
 8006482:	4b47      	ldr	r3, [pc, #284]	@ (80065a0 <_strtod_l+0xaf8>)
 8006484:	429a      	cmp	r2, r3
 8006486:	d103      	bne.n	8006490 <_strtod_l+0x9e8>
 8006488:	9b0c      	ldr	r3, [sp, #48]	@ 0x30
 800648a:	3301      	adds	r3, #1
 800648c:	f43f ad2f 	beq.w	8005eee <_strtod_l+0x446>
 8006490:	f8df b10c 	ldr.w	fp, [pc, #268]	@ 80065a0 <_strtod_l+0xaf8>
 8006494:	f04f 3aff 	mov.w	sl, #4294967295
 8006498:	991a      	ldr	r1, [sp, #104]	@ 0x68
 800649a:	9805      	ldr	r0, [sp, #20]
 800649c:	f002 fa94 	bl	80089c8 <_Bfree>
 80064a0:	9805      	ldr	r0, [sp, #20]
 80064a2:	4649      	mov	r1, r9
 80064a4:	f002 fa90 	bl	80089c8 <_Bfree>
 80064a8:	9805      	ldr	r0, [sp, #20]
 80064aa:	4641      	mov	r1, r8
 80064ac:	f002 fa8c 	bl	80089c8 <_Bfree>
 80064b0:	9805      	ldr	r0, [sp, #20]
 80064b2:	4621      	mov	r1, r4
 80064b4:	f002 fa88 	bl	80089c8 <_Bfree>
 80064b8:	e619      	b.n	80060ee <_strtod_l+0x646>
 80064ba:	f1ba 0f01 	cmp.w	sl, #1
 80064be:	d103      	bne.n	80064c8 <_strtod_l+0xa20>
 80064c0:	9b0a      	ldr	r3, [sp, #40]	@ 0x28
 80064c2:	2b00      	cmp	r3, #0
 80064c4:	f43f ada6 	beq.w	8006014 <_strtod_l+0x56c>
 80064c8:	ed9f 7b2b 	vldr	d7, [pc, #172]	@ 8006578 <_strtod_l+0xad0>
 80064cc:	4f35      	ldr	r7, [pc, #212]	@ (80065a4 <_strtod_l+0xafc>)
 80064ce:	ed8d 7b06 	vstr	d7, [sp, #24]
 80064d2:	2600      	movs	r6, #0
 80064d4:	e7b1      	b.n	800643a <_strtod_l+0x992>
 80064d6:	4f34      	ldr	r7, [pc, #208]	@ (80065a8 <_strtod_l+0xb00>)
 80064d8:	2600      	movs	r6, #0
 80064da:	e7aa      	b.n	8006432 <_strtod_l+0x98a>
 80064dc:	4b32      	ldr	r3, [pc, #200]	@ (80065a8 <_strtod_l+0xb00>)
 80064de:	4630      	mov	r0, r6
 80064e0:	4639      	mov	r1, r7
 80064e2:	2200      	movs	r2, #0
 80064e4:	f7fa f890 	bl	8000608 <__aeabi_dmul>
 80064e8:	9b0f      	ldr	r3, [sp, #60]	@ 0x3c
 80064ea:	4606      	mov	r6, r0
 80064ec:	460f      	mov	r7, r1
 80064ee:	2b00      	cmp	r3, #0
 80064f0:	d09f      	beq.n	8006432 <_strtod_l+0x98a>
 80064f2:	e9cd 6706 	strd	r6, r7, [sp, #24]
 80064f6:	e7a0      	b.n	800643a <_strtod_l+0x992>
 80064f8:	ed9f 7b21 	vldr	d7, [pc, #132]	@ 8006580 <_strtod_l+0xad8>
 80064fc:	ed8d 7b06 	vstr	d7, [sp, #24]
 8006500:	ec57 6b17 	vmov	r6, r7, d7
 8006504:	e799      	b.n	800643a <_strtod_l+0x992>
 8006506:	f103 7b54 	add.w	fp, r3, #55574528	@ 0x3500000
 800650a:	9b08      	ldr	r3, [sp, #32]
 800650c:	f8cd b028 	str.w	fp, [sp, #40]	@ 0x28
 8006510:	2b00      	cmp	r3, #0
 8006512:	d1c1      	bne.n	8006498 <_strtod_l+0x9f0>
 8006514:	f02b 4300 	bic.w	r3, fp, #2147483648	@ 0x80000000
 8006518:	0d1b      	lsrs	r3, r3, #20
 800651a:	051b      	lsls	r3, r3, #20
 800651c:	429d      	cmp	r5, r3
 800651e:	d1bb      	bne.n	8006498 <_strtod_l+0x9f0>
 8006520:	4630      	mov	r0, r6
 8006522:	4639      	mov	r1, r7
 8006524:	f7fa fbd0 	bl	8000cc8 <__aeabi_d2lz>
 8006528:	f7fa f840 	bl	80005ac <__aeabi_l2d>
 800652c:	4602      	mov	r2, r0
 800652e:	460b      	mov	r3, r1
 8006530:	4630      	mov	r0, r6
 8006532:	4639      	mov	r1, r7
 8006534:	f7f9 feb0 	bl	8000298 <__aeabi_dsub>
 8006538:	460b      	mov	r3, r1
 800653a:	4602      	mov	r2, r0
 800653c:	e9cd 230c 	strd	r2, r3, [sp, #48]	@ 0x30
 8006540:	f3cb 0613 	ubfx	r6, fp, #0, #20
 8006544:	9b0f      	ldr	r3, [sp, #60]	@ 0x3c
 8006546:	ea46 060a 	orr.w	r6, r6, sl
 800654a:	431e      	orrs	r6, r3
 800654c:	d06f      	beq.n	800662e <_strtod_l+0xb86>
 800654e:	a30e      	add	r3, pc, #56	@ (adr r3, 8006588 <_strtod_l+0xae0>)
 8006550:	e9d3 2300 	ldrd	r2, r3, [r3]
 8006554:	f7fa faca 	bl	8000aec <__aeabi_dcmplt>
 8006558:	2800      	cmp	r0, #0
 800655a:	f47f acd3 	bne.w	8005f04 <_strtod_l+0x45c>
 800655e:	a30c      	add	r3, pc, #48	@ (adr r3, 8006590 <_strtod_l+0xae8>)
 8006560:	e9d3 2300 	ldrd	r2, r3, [r3]
 8006564:	e9dd 010c 	ldrd	r0, r1, [sp, #48]	@ 0x30
 8006568:	f7fa fade 	bl	8000b28 <__aeabi_dcmpgt>
 800656c:	2800      	cmp	r0, #0
 800656e:	d093      	beq.n	8006498 <_strtod_l+0x9f0>
 8006570:	e4c8      	b.n	8005f04 <_strtod_l+0x45c>
 8006572:	bf00      	nop
 8006574:	f3af 8000 	nop.w
 8006578:	00000000 	.word	0x00000000
 800657c:	bff00000 	.word	0xbff00000
 8006580:	00000000 	.word	0x00000000
 8006584:	3ff00000 	.word	0x3ff00000
 8006588:	94a03595 	.word	0x94a03595
 800658c:	3fdfffff 	.word	0x3fdfffff
 8006590:	35afe535 	.word	0x35afe535
 8006594:	3fe00000 	.word	0x3fe00000
 8006598:	000fffff 	.word	0x000fffff
 800659c:	7ff00000 	.word	0x7ff00000
 80065a0:	7fefffff 	.word	0x7fefffff
 80065a4:	3ff00000 	.word	0x3ff00000
 80065a8:	3fe00000 	.word	0x3fe00000
 80065ac:	7fe00000 	.word	0x7fe00000
 80065b0:	7c9fffff 	.word	0x7c9fffff
 80065b4:	9b08      	ldr	r3, [sp, #32]
 80065b6:	b323      	cbz	r3, 8006602 <_strtod_l+0xb5a>
 80065b8:	f1b5 6fd4 	cmp.w	r5, #111149056	@ 0x6a00000
 80065bc:	d821      	bhi.n	8006602 <_strtod_l+0xb5a>
 80065be:	a328      	add	r3, pc, #160	@ (adr r3, 8006660 <_strtod_l+0xbb8>)
 80065c0:	e9d3 2300 	ldrd	r2, r3, [r3]
 80065c4:	4630      	mov	r0, r6
 80065c6:	4639      	mov	r1, r7
 80065c8:	f7fa fa9a 	bl	8000b00 <__aeabi_dcmple>
 80065cc:	b1a0      	cbz	r0, 80065f8 <_strtod_l+0xb50>
 80065ce:	4639      	mov	r1, r7
 80065d0:	4630      	mov	r0, r6
 80065d2:	f7fa faf1 	bl	8000bb8 <__aeabi_d2uiz>
 80065d6:	2801      	cmp	r0, #1
 80065d8:	bf38      	it	cc
 80065da:	2001      	movcc	r0, #1
 80065dc:	f7f9 ff9a 	bl	8000514 <__aeabi_ui2d>
 80065e0:	9b0f      	ldr	r3, [sp, #60]	@ 0x3c
 80065e2:	4606      	mov	r6, r0
 80065e4:	460f      	mov	r7, r1
 80065e6:	b9fb      	cbnz	r3, 8006628 <_strtod_l+0xb80>
 80065e8:	f101 4300 	add.w	r3, r1, #2147483648	@ 0x80000000
 80065ec:	9014      	str	r0, [sp, #80]	@ 0x50
 80065ee:	9315      	str	r3, [sp, #84]	@ 0x54
 80065f0:	e9dd 2314 	ldrd	r2, r3, [sp, #80]	@ 0x50
 80065f4:	e9cd 2310 	strd	r2, r3, [sp, #64]	@ 0x40
 80065f8:	9b11      	ldr	r3, [sp, #68]	@ 0x44
 80065fa:	f103 63d6 	add.w	r3, r3, #112197632	@ 0x6b00000
 80065fe:	1b5b      	subs	r3, r3, r5
 8006600:	9311      	str	r3, [sp, #68]	@ 0x44
 8006602:	ed9d 0b0c 	vldr	d0, [sp, #48]	@ 0x30
 8006606:	e9dd ab10 	ldrd	sl, fp, [sp, #64]	@ 0x40
 800660a:	f002 fd09 	bl	8009020 <__ulp>
 800660e:	4650      	mov	r0, sl
 8006610:	ec53 2b10 	vmov	r2, r3, d0
 8006614:	4659      	mov	r1, fp
 8006616:	f7f9 fff7 	bl	8000608 <__aeabi_dmul>
 800661a:	e9dd 230c 	ldrd	r2, r3, [sp, #48]	@ 0x30
 800661e:	f7f9 fe3d 	bl	800029c <__adddf3>
 8006622:	4682      	mov	sl, r0
 8006624:	468b      	mov	fp, r1
 8006626:	e770      	b.n	800650a <_strtod_l+0xa62>
 8006628:	e9cd 6714 	strd	r6, r7, [sp, #80]	@ 0x50
 800662c:	e7e0      	b.n	80065f0 <_strtod_l+0xb48>
 800662e:	a30e      	add	r3, pc, #56	@ (adr r3, 8006668 <_strtod_l+0xbc0>)
 8006630:	e9d3 2300 	ldrd	r2, r3, [r3]
 8006634:	f7fa fa5a 	bl	8000aec <__aeabi_dcmplt>
 8006638:	e798      	b.n	800656c <_strtod_l+0xac4>
 800663a:	2300      	movs	r3, #0
 800663c:	930e      	str	r3, [sp, #56]	@ 0x38
 800663e:	9a17      	ldr	r2, [sp, #92]	@ 0x5c
 8006640:	9b19      	ldr	r3, [sp, #100]	@ 0x64
 8006642:	6013      	str	r3, [r2, #0]
 8006644:	f7ff ba6d 	b.w	8005b22 <_strtod_l+0x7a>
 8006648:	2a65      	cmp	r2, #101	@ 0x65
 800664a:	f43f ab68 	beq.w	8005d1e <_strtod_l+0x276>
 800664e:	2a45      	cmp	r2, #69	@ 0x45
 8006650:	f43f ab65 	beq.w	8005d1e <_strtod_l+0x276>
 8006654:	2301      	movs	r3, #1
 8006656:	f7ff bba0 	b.w	8005d9a <_strtod_l+0x2f2>
 800665a:	bf00      	nop
 800665c:	f3af 8000 	nop.w
 8006660:	ffc00000 	.word	0xffc00000
 8006664:	41dfffff 	.word	0x41dfffff
 8006668:	94a03595 	.word	0x94a03595
 800666c:	3fcfffff 	.word	0x3fcfffff

08006670 <strtod>:
 8006670:	460a      	mov	r2, r1
 8006672:	4601      	mov	r1, r0
 8006674:	4802      	ldr	r0, [pc, #8]	@ (8006680 <strtod+0x10>)
 8006676:	4b03      	ldr	r3, [pc, #12]	@ (8006684 <strtod+0x14>)
 8006678:	6800      	ldr	r0, [r0, #0]
 800667a:	f7ff ba15 	b.w	8005aa8 <_strtod_l>
 800667e:	bf00      	nop
 8006680:	20000188 	.word	0x20000188
 8006684:	2000001c 	.word	0x2000001c

08006688 <_strtol_l.isra.0>:
 8006688:	2b24      	cmp	r3, #36	@ 0x24
 800668a:	e92d 47f0 	stmdb	sp!, {r4, r5, r6, r7, r8, r9, sl, lr}
 800668e:	4686      	mov	lr, r0
 8006690:	4690      	mov	r8, r2
 8006692:	d801      	bhi.n	8006698 <_strtol_l.isra.0+0x10>
 8006694:	2b01      	cmp	r3, #1
 8006696:	d106      	bne.n	80066a6 <_strtol_l.isra.0+0x1e>
 8006698:	f000 fe6e 	bl	8007378 <__errno>
 800669c:	2316      	movs	r3, #22
 800669e:	6003      	str	r3, [r0, #0]
 80066a0:	2000      	movs	r0, #0
 80066a2:	e8bd 87f0 	ldmia.w	sp!, {r4, r5, r6, r7, r8, r9, sl, pc}
 80066a6:	4834      	ldr	r0, [pc, #208]	@ (8006778 <_strtol_l.isra.0+0xf0>)
 80066a8:	460d      	mov	r5, r1
 80066aa:	462a      	mov	r2, r5
 80066ac:	f815 4b01 	ldrb.w	r4, [r5], #1
 80066b0:	5d06      	ldrb	r6, [r0, r4]
 80066b2:	f016 0608 	ands.w	r6, r6, #8
 80066b6:	d1f8      	bne.n	80066aa <_strtol_l.isra.0+0x22>
 80066b8:	2c2d      	cmp	r4, #45	@ 0x2d
 80066ba:	d110      	bne.n	80066de <_strtol_l.isra.0+0x56>
 80066bc:	782c      	ldrb	r4, [r5, #0]
 80066be:	2601      	movs	r6, #1
 80066c0:	1c95      	adds	r5, r2, #2
 80066c2:	f033 0210 	bics.w	r2, r3, #16
 80066c6:	d115      	bne.n	80066f4 <_strtol_l.isra.0+0x6c>
 80066c8:	2c30      	cmp	r4, #48	@ 0x30
 80066ca:	d10d      	bne.n	80066e8 <_strtol_l.isra.0+0x60>
 80066cc:	782a      	ldrb	r2, [r5, #0]
 80066ce:	f002 02df 	and.w	r2, r2, #223	@ 0xdf
 80066d2:	2a58      	cmp	r2, #88	@ 0x58
 80066d4:	d108      	bne.n	80066e8 <_strtol_l.isra.0+0x60>
 80066d6:	786c      	ldrb	r4, [r5, #1]
 80066d8:	3502      	adds	r5, #2
 80066da:	2310      	movs	r3, #16
 80066dc:	e00a      	b.n	80066f4 <_strtol_l.isra.0+0x6c>
 80066de:	2c2b      	cmp	r4, #43	@ 0x2b
 80066e0:	bf04      	itt	eq
 80066e2:	782c      	ldrbeq	r4, [r5, #0]
 80066e4:	1c95      	addeq	r5, r2, #2
 80066e6:	e7ec      	b.n	80066c2 <_strtol_l.isra.0+0x3a>
 80066e8:	2b00      	cmp	r3, #0
 80066ea:	d1f6      	bne.n	80066da <_strtol_l.isra.0+0x52>
 80066ec:	2c30      	cmp	r4, #48	@ 0x30
 80066ee:	bf14      	ite	ne
 80066f0:	230a      	movne	r3, #10
 80066f2:	2308      	moveq	r3, #8
 80066f4:	f106 4c00 	add.w	ip, r6, #2147483648	@ 0x80000000
 80066f8:	f10c 3cff 	add.w	ip, ip, #4294967295
 80066fc:	2200      	movs	r2, #0
 80066fe:	fbbc f9f3 	udiv	r9, ip, r3
 8006702:	4610      	mov	r0, r2
 8006704:	fb03 ca19 	mls	sl, r3, r9, ip
 8006708:	f1a4 0730 	sub.w	r7, r4, #48	@ 0x30
 800670c:	2f09      	cmp	r7, #9
 800670e:	d80f      	bhi.n	8006730 <_strtol_l.isra.0+0xa8>
 8006710:	463c      	mov	r4, r7
 8006712:	42a3      	cmp	r3, r4
 8006714:	dd1b      	ble.n	800674e <_strtol_l.isra.0+0xc6>
 8006716:	1c57      	adds	r7, r2, #1
 8006718:	d007      	beq.n	800672a <_strtol_l.isra.0+0xa2>
 800671a:	4581      	cmp	r9, r0
 800671c:	d314      	bcc.n	8006748 <_strtol_l.isra.0+0xc0>
 800671e:	d101      	bne.n	8006724 <_strtol_l.isra.0+0x9c>
 8006720:	45a2      	cmp	sl, r4
 8006722:	db11      	blt.n	8006748 <_strtol_l.isra.0+0xc0>
 8006724:	fb00 4003 	mla	r0, r0, r3, r4
 8006728:	2201      	movs	r2, #1
 800672a:	f815 4b01 	ldrb.w	r4, [r5], #1
 800672e:	e7eb      	b.n	8006708 <_strtol_l.isra.0+0x80>
 8006730:	f1a4 0741 	sub.w	r7, r4, #65	@ 0x41
 8006734:	2f19      	cmp	r7, #25
 8006736:	d801      	bhi.n	800673c <_strtol_l.isra.0+0xb4>
 8006738:	3c37      	subs	r4, #55	@ 0x37
 800673a:	e7ea      	b.n	8006712 <_strtol_l.isra.0+0x8a>
 800673c:	f1a4 0761 	sub.w	r7, r4, #97	@ 0x61
 8006740:	2f19      	cmp	r7, #25
 8006742:	d804      	bhi.n	800674e <_strtol_l.isra.0+0xc6>
 8006744:	3c57      	subs	r4, #87	@ 0x57
 8006746:	e7e4      	b.n	8006712 <_strtol_l.isra.0+0x8a>
 8006748:	f04f 32ff 	mov.w	r2, #4294967295
 800674c:	e7ed      	b.n	800672a <_strtol_l.isra.0+0xa2>
 800674e:	1c53      	adds	r3, r2, #1
 8006750:	d108      	bne.n	8006764 <_strtol_l.isra.0+0xdc>
 8006752:	2322      	movs	r3, #34	@ 0x22
 8006754:	f8ce 3000 	str.w	r3, [lr]
 8006758:	4660      	mov	r0, ip
 800675a:	f1b8 0f00 	cmp.w	r8, #0
 800675e:	d0a0      	beq.n	80066a2 <_strtol_l.isra.0+0x1a>
 8006760:	1e69      	subs	r1, r5, #1
 8006762:	e006      	b.n	8006772 <_strtol_l.isra.0+0xea>
 8006764:	b106      	cbz	r6, 8006768 <_strtol_l.isra.0+0xe0>
 8006766:	4240      	negs	r0, r0
 8006768:	f1b8 0f00 	cmp.w	r8, #0
 800676c:	d099      	beq.n	80066a2 <_strtol_l.isra.0+0x1a>
 800676e:	2a00      	cmp	r2, #0
 8006770:	d1f6      	bne.n	8006760 <_strtol_l.isra.0+0xd8>
 8006772:	f8c8 1000 	str.w	r1, [r8]
 8006776:	e794      	b.n	80066a2 <_strtol_l.isra.0+0x1a>
 8006778:	08009c69 	.word	0x08009c69

0800677c <strtol>:
 800677c:	4613      	mov	r3, r2
 800677e:	460a      	mov	r2, r1
 8006780:	4601      	mov	r1, r0
 8006782:	4802      	ldr	r0, [pc, #8]	@ (800678c <strtol+0x10>)
 8006784:	6800      	ldr	r0, [r0, #0]
 8006786:	f7ff bf7f 	b.w	8006688 <_strtol_l.isra.0>
 800678a:	bf00      	nop
 800678c:	20000188 	.word	0x20000188

08006790 <__cvt>:
 8006790:	e92d 47ff 	stmdb	sp!, {r0, r1, r2, r3, r4, r5, r6, r7, r8, r9, sl, lr}
 8006794:	ec57 6b10 	vmov	r6, r7, d0
 8006798:	2f00      	cmp	r7, #0
 800679a:	460c      	mov	r4, r1
 800679c:	4619      	mov	r1, r3
 800679e:	463b      	mov	r3, r7
 80067a0:	bfbb      	ittet	lt
 80067a2:	f107 4300 	addlt.w	r3, r7, #2147483648	@ 0x80000000
 80067a6:	461f      	movlt	r7, r3
 80067a8:	2300      	movge	r3, #0
 80067aa:	232d      	movlt	r3, #45	@ 0x2d
 80067ac:	700b      	strb	r3, [r1, #0]
 80067ae:	9b0d      	ldr	r3, [sp, #52]	@ 0x34
 80067b0:	f8dd a030 	ldr.w	sl, [sp, #48]	@ 0x30
 80067b4:	4691      	mov	r9, r2
 80067b6:	f023 0820 	bic.w	r8, r3, #32
 80067ba:	bfbc      	itt	lt
 80067bc:	4632      	movlt	r2, r6
 80067be:	4616      	movlt	r6, r2
 80067c0:	f1b8 0f46 	cmp.w	r8, #70	@ 0x46
 80067c4:	d005      	beq.n	80067d2 <__cvt+0x42>
 80067c6:	f1b8 0f45 	cmp.w	r8, #69	@ 0x45
 80067ca:	d100      	bne.n	80067ce <__cvt+0x3e>
 80067cc:	3401      	adds	r4, #1
 80067ce:	2102      	movs	r1, #2
 80067d0:	e000      	b.n	80067d4 <__cvt+0x44>
 80067d2:	2103      	movs	r1, #3
 80067d4:	ab03      	add	r3, sp, #12
 80067d6:	9301      	str	r3, [sp, #4]
 80067d8:	ab02      	add	r3, sp, #8
 80067da:	9300      	str	r3, [sp, #0]
 80067dc:	ec47 6b10 	vmov	d0, r6, r7
 80067e0:	4653      	mov	r3, sl
 80067e2:	4622      	mov	r2, r4
 80067e4:	f000 fe94 	bl	8007510 <_dtoa_r>
 80067e8:	f1b8 0f47 	cmp.w	r8, #71	@ 0x47
 80067ec:	4605      	mov	r5, r0
 80067ee:	d119      	bne.n	8006824 <__cvt+0x94>
 80067f0:	f019 0f01 	tst.w	r9, #1
 80067f4:	d00e      	beq.n	8006814 <__cvt+0x84>
 80067f6:	eb00 0904 	add.w	r9, r0, r4
 80067fa:	2200      	movs	r2, #0
 80067fc:	2300      	movs	r3, #0
 80067fe:	4630      	mov	r0, r6
 8006800:	4639      	mov	r1, r7
 8006802:	f7fa f969 	bl	8000ad8 <__aeabi_dcmpeq>
 8006806:	b108      	cbz	r0, 800680c <__cvt+0x7c>
 8006808:	f8cd 900c 	str.w	r9, [sp, #12]
 800680c:	2230      	movs	r2, #48	@ 0x30
 800680e:	9b03      	ldr	r3, [sp, #12]
 8006810:	454b      	cmp	r3, r9
 8006812:	d31e      	bcc.n	8006852 <__cvt+0xc2>
 8006814:	9b03      	ldr	r3, [sp, #12]
 8006816:	9a0e      	ldr	r2, [sp, #56]	@ 0x38
 8006818:	1b5b      	subs	r3, r3, r5
 800681a:	4628      	mov	r0, r5
 800681c:	6013      	str	r3, [r2, #0]
 800681e:	b004      	add	sp, #16
 8006820:	e8bd 87f0 	ldmia.w	sp!, {r4, r5, r6, r7, r8, r9, sl, pc}
 8006824:	f1b8 0f46 	cmp.w	r8, #70	@ 0x46
 8006828:	eb00 0904 	add.w	r9, r0, r4
 800682c:	d1e5      	bne.n	80067fa <__cvt+0x6a>
 800682e:	7803      	ldrb	r3, [r0, #0]
 8006830:	2b30      	cmp	r3, #48	@ 0x30
 8006832:	d10a      	bne.n	800684a <__cvt+0xba>
 8006834:	2200      	movs	r2, #0
 8006836:	2300      	movs	r3, #0
 8006838:	4630      	mov	r0, r6
 800683a:	4639      	mov	r1, r7
 800683c:	f7fa f94c 	bl	8000ad8 <__aeabi_dcmpeq>
 8006840:	b918      	cbnz	r0, 800684a <__cvt+0xba>
 8006842:	f1c4 0401 	rsb	r4, r4, #1
 8006846:	f8ca 4000 	str.w	r4, [sl]
 800684a:	f8da 3000 	ldr.w	r3, [sl]
 800684e:	4499      	add	r9, r3
 8006850:	e7d3      	b.n	80067fa <__cvt+0x6a>
 8006852:	1c59      	adds	r1, r3, #1
 8006854:	9103      	str	r1, [sp, #12]
 8006856:	701a      	strb	r2, [r3, #0]
 8006858:	e7d9      	b.n	800680e <__cvt+0x7e>

0800685a <__exponent>:
 800685a:	b5f7      	push	{r0, r1, r2, r4, r5, r6, r7, lr}
 800685c:	2900      	cmp	r1, #0
 800685e:	bfba      	itte	lt
 8006860:	4249      	neglt	r1, r1
 8006862:	232d      	movlt	r3, #45	@ 0x2d
 8006864:	232b      	movge	r3, #43	@ 0x2b
 8006866:	2909      	cmp	r1, #9
 8006868:	7002      	strb	r2, [r0, #0]
 800686a:	7043      	strb	r3, [r0, #1]
 800686c:	dd29      	ble.n	80068c2 <__exponent+0x68>
 800686e:	f10d 0307 	add.w	r3, sp, #7
 8006872:	461d      	mov	r5, r3
 8006874:	270a      	movs	r7, #10
 8006876:	461a      	mov	r2, r3
 8006878:	fbb1 f6f7 	udiv	r6, r1, r7
 800687c:	fb07 1416 	mls	r4, r7, r6, r1
 8006880:	3430      	adds	r4, #48	@ 0x30
 8006882:	f802 4c01 	strb.w	r4, [r2, #-1]
 8006886:	460c      	mov	r4, r1
 8006888:	2c63      	cmp	r4, #99	@ 0x63
 800688a:	f103 33ff 	add.w	r3, r3, #4294967295
 800688e:	4631      	mov	r1, r6
 8006890:	dcf1      	bgt.n	8006876 <__exponent+0x1c>
 8006892:	3130      	adds	r1, #48	@ 0x30
 8006894:	1e94      	subs	r4, r2, #2
 8006896:	f803 1c01 	strb.w	r1, [r3, #-1]
 800689a:	1c41      	adds	r1, r0, #1
 800689c:	4623      	mov	r3, r4
 800689e:	42ab      	cmp	r3, r5
 80068a0:	d30a      	bcc.n	80068b8 <__exponent+0x5e>
 80068a2:	f10d 0309 	add.w	r3, sp, #9
 80068a6:	1a9b      	subs	r3, r3, r2
 80068a8:	42ac      	cmp	r4, r5
 80068aa:	bf88      	it	hi
 80068ac:	2300      	movhi	r3, #0
 80068ae:	3302      	adds	r3, #2
 80068b0:	4403      	add	r3, r0
 80068b2:	1a18      	subs	r0, r3, r0
 80068b4:	b003      	add	sp, #12
 80068b6:	bdf0      	pop	{r4, r5, r6, r7, pc}
 80068b8:	f813 6b01 	ldrb.w	r6, [r3], #1
 80068bc:	f801 6f01 	strb.w	r6, [r1, #1]!
 80068c0:	e7ed      	b.n	800689e <__exponent+0x44>
 80068c2:	2330      	movs	r3, #48	@ 0x30
 80068c4:	3130      	adds	r1, #48	@ 0x30
 80068c6:	7083      	strb	r3, [r0, #2]
 80068c8:	70c1      	strb	r1, [r0, #3]
 80068ca:	1d03      	adds	r3, r0, #4
 80068cc:	e7f1      	b.n	80068b2 <__exponent+0x58>
	...

080068d0 <_printf_float>:
 80068d0:	e92d 4ff0 	stmdb	sp!, {r4, r5, r6, r7, r8, r9, sl, fp, lr}
 80068d4:	b08d      	sub	sp, #52	@ 0x34
 80068d6:	460c      	mov	r4, r1
 80068d8:	f8dd 8058 	ldr.w	r8, [sp, #88]	@ 0x58
 80068dc:	4616      	mov	r6, r2
 80068de:	461f      	mov	r7, r3
 80068e0:	4605      	mov	r5, r0
 80068e2:	f000 fcff 	bl	80072e4 <_localeconv_r>
 80068e6:	6803      	ldr	r3, [r0, #0]
 80068e8:	9304      	str	r3, [sp, #16]
 80068ea:	4618      	mov	r0, r3
 80068ec:	f7f9 fcc8 	bl	8000280 <strlen>
 80068f0:	2300      	movs	r3, #0
 80068f2:	930a      	str	r3, [sp, #40]	@ 0x28
 80068f4:	f8d8 3000 	ldr.w	r3, [r8]
 80068f8:	9005      	str	r0, [sp, #20]
 80068fa:	3307      	adds	r3, #7
 80068fc:	f023 0307 	bic.w	r3, r3, #7
 8006900:	f103 0208 	add.w	r2, r3, #8
 8006904:	f894 a018 	ldrb.w	sl, [r4, #24]
 8006908:	f8d4 b000 	ldr.w	fp, [r4]
 800690c:	f8c8 2000 	str.w	r2, [r8]
 8006910:	e9d3 8900 	ldrd	r8, r9, [r3]
 8006914:	f029 4300 	bic.w	r3, r9, #2147483648	@ 0x80000000
 8006918:	9307      	str	r3, [sp, #28]
 800691a:	f8cd 8018 	str.w	r8, [sp, #24]
 800691e:	e9c4 8912 	strd	r8, r9, [r4, #72]	@ 0x48
 8006922:	e9dd 0106 	ldrd	r0, r1, [sp, #24]
 8006926:	4b9c      	ldr	r3, [pc, #624]	@ (8006b98 <_printf_float+0x2c8>)
 8006928:	f04f 32ff 	mov.w	r2, #4294967295
 800692c:	f7fa f906 	bl	8000b3c <__aeabi_dcmpun>
 8006930:	bb70      	cbnz	r0, 8006990 <_printf_float+0xc0>
 8006932:	e9dd 0106 	ldrd	r0, r1, [sp, #24]
 8006936:	4b98      	ldr	r3, [pc, #608]	@ (8006b98 <_printf_float+0x2c8>)
 8006938:	f04f 32ff 	mov.w	r2, #4294967295
 800693c:	f7fa f8e0 	bl	8000b00 <__aeabi_dcmple>
 8006940:	bb30      	cbnz	r0, 8006990 <_printf_float+0xc0>
 8006942:	2200      	movs	r2, #0
 8006944:	2300      	movs	r3, #0
 8006946:	4640      	mov	r0, r8
 8006948:	4649      	mov	r1, r9
 800694a:	f7fa f8cf 	bl	8000aec <__aeabi_dcmplt>
 800694e:	b110      	cbz	r0, 8006956 <_printf_float+0x86>
 8006950:	232d      	movs	r3, #45	@ 0x2d
 8006952:	f884 3043 	strb.w	r3, [r4, #67]	@ 0x43
 8006956:	4a91      	ldr	r2, [pc, #580]	@ (8006b9c <_printf_float+0x2cc>)
 8006958:	4b91      	ldr	r3, [pc, #580]	@ (8006ba0 <_printf_float+0x2d0>)
 800695a:	f1ba 0f47 	cmp.w	sl, #71	@ 0x47
 800695e:	bf8c      	ite	hi
 8006960:	4690      	movhi	r8, r2
 8006962:	4698      	movls	r8, r3
 8006964:	2303      	movs	r3, #3
 8006966:	6123      	str	r3, [r4, #16]
 8006968:	f02b 0304 	bic.w	r3, fp, #4
 800696c:	6023      	str	r3, [r4, #0]
 800696e:	f04f 0900 	mov.w	r9, #0
 8006972:	9700      	str	r7, [sp, #0]
 8006974:	4633      	mov	r3, r6
 8006976:	aa0b      	add	r2, sp, #44	@ 0x2c
 8006978:	4621      	mov	r1, r4
 800697a:	4628      	mov	r0, r5
 800697c:	f000 f9d2 	bl	8006d24 <_printf_common>
 8006980:	3001      	adds	r0, #1
 8006982:	f040 808d 	bne.w	8006aa0 <_printf_float+0x1d0>
 8006986:	f04f 30ff 	mov.w	r0, #4294967295
 800698a:	b00d      	add	sp, #52	@ 0x34
 800698c:	e8bd 8ff0 	ldmia.w	sp!, {r4, r5, r6, r7, r8, r9, sl, fp, pc}
 8006990:	4642      	mov	r2, r8
 8006992:	464b      	mov	r3, r9
 8006994:	4640      	mov	r0, r8
 8006996:	4649      	mov	r1, r9
 8006998:	f7fa f8d0 	bl	8000b3c <__aeabi_dcmpun>
 800699c:	b140      	cbz	r0, 80069b0 <_printf_float+0xe0>
 800699e:	464b      	mov	r3, r9
 80069a0:	2b00      	cmp	r3, #0
 80069a2:	bfbc      	itt	lt
 80069a4:	232d      	movlt	r3, #45	@ 0x2d
 80069a6:	f884 3043 	strblt.w	r3, [r4, #67]	@ 0x43
 80069aa:	4a7e      	ldr	r2, [pc, #504]	@ (8006ba4 <_printf_float+0x2d4>)
 80069ac:	4b7e      	ldr	r3, [pc, #504]	@ (8006ba8 <_printf_float+0x2d8>)
 80069ae:	e7d4      	b.n	800695a <_printf_float+0x8a>
 80069b0:	6863      	ldr	r3, [r4, #4]
 80069b2:	f00a 02df 	and.w	r2, sl, #223	@ 0xdf
 80069b6:	9206      	str	r2, [sp, #24]
 80069b8:	1c5a      	adds	r2, r3, #1
 80069ba:	d13b      	bne.n	8006a34 <_printf_float+0x164>
 80069bc:	2306      	movs	r3, #6
 80069be:	6063      	str	r3, [r4, #4]
 80069c0:	f44b 6280 	orr.w	r2, fp, #1024	@ 0x400
 80069c4:	2300      	movs	r3, #0
 80069c6:	6022      	str	r2, [r4, #0]
 80069c8:	9303      	str	r3, [sp, #12]
 80069ca:	ab0a      	add	r3, sp, #40	@ 0x28
 80069cc:	e9cd a301 	strd	sl, r3, [sp, #4]
 80069d0:	ab09      	add	r3, sp, #36	@ 0x24
 80069d2:	9300      	str	r3, [sp, #0]
 80069d4:	6861      	ldr	r1, [r4, #4]
 80069d6:	ec49 8b10 	vmov	d0, r8, r9
 80069da:	f10d 0323 	add.w	r3, sp, #35	@ 0x23
 80069de:	4628      	mov	r0, r5
 80069e0:	f7ff fed6 	bl	8006790 <__cvt>
 80069e4:	9b06      	ldr	r3, [sp, #24]
 80069e6:	9909      	ldr	r1, [sp, #36]	@ 0x24
 80069e8:	2b47      	cmp	r3, #71	@ 0x47
 80069ea:	4680      	mov	r8, r0
 80069ec:	d129      	bne.n	8006a42 <_printf_float+0x172>
 80069ee:	1cc8      	adds	r0, r1, #3
 80069f0:	db02      	blt.n	80069f8 <_printf_float+0x128>
 80069f2:	6863      	ldr	r3, [r4, #4]
 80069f4:	4299      	cmp	r1, r3
 80069f6:	dd41      	ble.n	8006a7c <_printf_float+0x1ac>
 80069f8:	f1aa 0a02 	sub.w	sl, sl, #2
 80069fc:	fa5f fa8a 	uxtb.w	sl, sl
 8006a00:	3901      	subs	r1, #1
 8006a02:	4652      	mov	r2, sl
 8006a04:	f104 0050 	add.w	r0, r4, #80	@ 0x50
 8006a08:	9109      	str	r1, [sp, #36]	@ 0x24
 8006a0a:	f7ff ff26 	bl	800685a <__exponent>
 8006a0e:	9a0a      	ldr	r2, [sp, #40]	@ 0x28
 8006a10:	1813      	adds	r3, r2, r0
 8006a12:	2a01      	cmp	r2, #1
 8006a14:	4681      	mov	r9, r0
 8006a16:	6123      	str	r3, [r4, #16]
 8006a18:	dc02      	bgt.n	8006a20 <_printf_float+0x150>
 8006a1a:	6822      	ldr	r2, [r4, #0]
 8006a1c:	07d2      	lsls	r2, r2, #31
 8006a1e:	d501      	bpl.n	8006a24 <_printf_float+0x154>
 8006a20:	3301      	adds	r3, #1
 8006a22:	6123      	str	r3, [r4, #16]
 8006a24:	f89d 3023 	ldrb.w	r3, [sp, #35]	@ 0x23
 8006a28:	2b00      	cmp	r3, #0
 8006a2a:	d0a2      	beq.n	8006972 <_printf_float+0xa2>
 8006a2c:	232d      	movs	r3, #45	@ 0x2d
 8006a2e:	f884 3043 	strb.w	r3, [r4, #67]	@ 0x43
 8006a32:	e79e      	b.n	8006972 <_printf_float+0xa2>
 8006a34:	9a06      	ldr	r2, [sp, #24]
 8006a36:	2a47      	cmp	r2, #71	@ 0x47
 8006a38:	d1c2      	bne.n	80069c0 <_printf_float+0xf0>
 8006a3a:	2b00      	cmp	r3, #0
 8006a3c:	d1c0      	bne.n	80069c0 <_printf_float+0xf0>
 8006a3e:	2301      	movs	r3, #1
 8006a40:	e7bd      	b.n	80069be <_printf_float+0xee>
 8006a42:	f1ba 0f65 	cmp.w	sl, #101	@ 0x65
 8006a46:	d9db      	bls.n	8006a00 <_printf_float+0x130>
 8006a48:	f1ba 0f66 	cmp.w	sl, #102	@ 0x66
 8006a4c:	d118      	bne.n	8006a80 <_printf_float+0x1b0>
 8006a4e:	2900      	cmp	r1, #0
 8006a50:	6863      	ldr	r3, [r4, #4]
 8006a52:	dd0b      	ble.n	8006a6c <_printf_float+0x19c>
 8006a54:	6121      	str	r1, [r4, #16]
 8006a56:	b913      	cbnz	r3, 8006a5e <_printf_float+0x18e>
 8006a58:	6822      	ldr	r2, [r4, #0]
 8006a5a:	07d0      	lsls	r0, r2, #31
 8006a5c:	d502      	bpl.n	8006a64 <_printf_float+0x194>
 8006a5e:	3301      	adds	r3, #1
 8006a60:	440b      	add	r3, r1
 8006a62:	6123      	str	r3, [r4, #16]
 8006a64:	65a1      	str	r1, [r4, #88]	@ 0x58
 8006a66:	f04f 0900 	mov.w	r9, #0
 8006a6a:	e7db      	b.n	8006a24 <_printf_float+0x154>
 8006a6c:	b913      	cbnz	r3, 8006a74 <_printf_float+0x1a4>
 8006a6e:	6822      	ldr	r2, [r4, #0]
 8006a70:	07d2      	lsls	r2, r2, #31
 8006a72:	d501      	bpl.n	8006a78 <_printf_float+0x1a8>
 8006a74:	3302      	adds	r3, #2
 8006a76:	e7f4      	b.n	8006a62 <_printf_float+0x192>
 8006a78:	2301      	movs	r3, #1
 8006a7a:	e7f2      	b.n	8006a62 <_printf_float+0x192>
 8006a7c:	f04f 0a67 	mov.w	sl, #103	@ 0x67
 8006a80:	9b0a      	ldr	r3, [sp, #40]	@ 0x28
 8006a82:	4299      	cmp	r1, r3
 8006a84:	db05      	blt.n	8006a92 <_printf_float+0x1c2>
 8006a86:	6823      	ldr	r3, [r4, #0]
 8006a88:	6121      	str	r1, [r4, #16]
 8006a8a:	07d8      	lsls	r0, r3, #31
 8006a8c:	d5ea      	bpl.n	8006a64 <_printf_float+0x194>
 8006a8e:	1c4b      	adds	r3, r1, #1
 8006a90:	e7e7      	b.n	8006a62 <_printf_float+0x192>
 8006a92:	2900      	cmp	r1, #0
 8006a94:	bfd4      	ite	le
 8006a96:	f1c1 0202 	rsble	r2, r1, #2
 8006a9a:	2201      	movgt	r2, #1
 8006a9c:	4413      	add	r3, r2
 8006a9e:	e7e0      	b.n	8006a62 <_printf_float+0x192>
 8006aa0:	6823      	ldr	r3, [r4, #0]
 8006aa2:	055a      	lsls	r2, r3, #21
 8006aa4:	d407      	bmi.n	8006ab6 <_printf_float+0x1e6>
 8006aa6:	6923      	ldr	r3, [r4, #16]
 8006aa8:	4642      	mov	r2, r8
 8006aaa:	4631      	mov	r1, r6
 8006aac:	4628      	mov	r0, r5
 8006aae:	47b8      	blx	r7
 8006ab0:	3001      	adds	r0, #1
 8006ab2:	d12b      	bne.n	8006b0c <_printf_float+0x23c>
 8006ab4:	e767      	b.n	8006986 <_printf_float+0xb6>
 8006ab6:	f1ba 0f65 	cmp.w	sl, #101	@ 0x65
 8006aba:	f240 80dd 	bls.w	8006c78 <_printf_float+0x3a8>
 8006abe:	e9d4 0112 	ldrd	r0, r1, [r4, #72]	@ 0x48
 8006ac2:	2200      	movs	r2, #0
 8006ac4:	2300      	movs	r3, #0
 8006ac6:	f7fa f807 	bl	8000ad8 <__aeabi_dcmpeq>
 8006aca:	2800      	cmp	r0, #0
 8006acc:	d033      	beq.n	8006b36 <_printf_float+0x266>
 8006ace:	4a37      	ldr	r2, [pc, #220]	@ (8006bac <_printf_float+0x2dc>)
 8006ad0:	2301      	movs	r3, #1
 8006ad2:	4631      	mov	r1, r6
 8006ad4:	4628      	mov	r0, r5
 8006ad6:	47b8      	blx	r7
 8006ad8:	3001      	adds	r0, #1
 8006ada:	f43f af54 	beq.w	8006986 <_printf_float+0xb6>
 8006ade:	e9dd 3809 	ldrd	r3, r8, [sp, #36]	@ 0x24
 8006ae2:	4543      	cmp	r3, r8
 8006ae4:	db02      	blt.n	8006aec <_printf_float+0x21c>
 8006ae6:	6823      	ldr	r3, [r4, #0]
 8006ae8:	07d8      	lsls	r0, r3, #31
 8006aea:	d50f      	bpl.n	8006b0c <_printf_float+0x23c>
 8006aec:	e9dd 2304 	ldrd	r2, r3, [sp, #16]
 8006af0:	4631      	mov	r1, r6
 8006af2:	4628      	mov	r0, r5
 8006af4:	47b8      	blx	r7
 8006af6:	3001      	adds	r0, #1
 8006af8:	f43f af45 	beq.w	8006986 <_printf_float+0xb6>
 8006afc:	f04f 0900 	mov.w	r9, #0
 8006b00:	f108 38ff 	add.w	r8, r8, #4294967295
 8006b04:	f104 0a1a 	add.w	sl, r4, #26
 8006b08:	45c8      	cmp	r8, r9
 8006b0a:	dc09      	bgt.n	8006b20 <_printf_float+0x250>
 8006b0c:	6823      	ldr	r3, [r4, #0]
 8006b0e:	079b      	lsls	r3, r3, #30
 8006b10:	f100 8103 	bmi.w	8006d1a <_printf_float+0x44a>
 8006b14:	68e0      	ldr	r0, [r4, #12]
 8006b16:	9b0b      	ldr	r3, [sp, #44]	@ 0x2c
 8006b18:	4298      	cmp	r0, r3
 8006b1a:	bfb8      	it	lt
 8006b1c:	4618      	movlt	r0, r3
 8006b1e:	e734      	b.n	800698a <_printf_float+0xba>
 8006b20:	2301      	movs	r3, #1
 8006b22:	4652      	mov	r2, sl
 8006b24:	4631      	mov	r1, r6
 8006b26:	4628      	mov	r0, r5
 8006b28:	47b8      	blx	r7
 8006b2a:	3001      	adds	r0, #1
 8006b2c:	f43f af2b 	beq.w	8006986 <_printf_float+0xb6>
 8006b30:	f109 0901 	add.w	r9, r9, #1
 8006b34:	e7e8      	b.n	8006b08 <_printf_float+0x238>
 8006b36:	9b09      	ldr	r3, [sp, #36]	@ 0x24
 8006b38:	2b00      	cmp	r3, #0
 8006b3a:	dc39      	bgt.n	8006bb0 <_printf_float+0x2e0>
 8006b3c:	4a1b      	ldr	r2, [pc, #108]	@ (8006bac <_printf_float+0x2dc>)
 8006b3e:	2301      	movs	r3, #1
 8006b40:	4631      	mov	r1, r6
 8006b42:	4628      	mov	r0, r5
 8006b44:	47b8      	blx	r7
 8006b46:	3001      	adds	r0, #1
 8006b48:	f43f af1d 	beq.w	8006986 <_printf_float+0xb6>
 8006b4c:	e9dd 3909 	ldrd	r3, r9, [sp, #36]	@ 0x24
 8006b50:	ea59 0303 	orrs.w	r3, r9, r3
 8006b54:	d102      	bne.n	8006b5c <_printf_float+0x28c>
 8006b56:	6823      	ldr	r3, [r4, #0]
 8006b58:	07d9      	lsls	r1, r3, #31
 8006b5a:	d5d7      	bpl.n	8006b0c <_printf_float+0x23c>
 8006b5c:	e9dd 2304 	ldrd	r2, r3, [sp, #16]
 8006b60:	4631      	mov	r1, r6
 8006b62:	4628      	mov	r0, r5
 8006b64:	47b8      	blx	r7
 8006b66:	3001      	adds	r0, #1
 8006b68:	f43f af0d 	beq.w	8006986 <_printf_float+0xb6>
 8006b6c:	f04f 0a00 	mov.w	sl, #0
 8006b70:	f104 0b1a 	add.w	fp, r4, #26
 8006b74:	9b09      	ldr	r3, [sp, #36]	@ 0x24
 8006b76:	425b      	negs	r3, r3
 8006b78:	4553      	cmp	r3, sl
 8006b7a:	dc01      	bgt.n	8006b80 <_printf_float+0x2b0>
 8006b7c:	464b      	mov	r3, r9
 8006b7e:	e793      	b.n	8006aa8 <_printf_float+0x1d8>
 8006b80:	2301      	movs	r3, #1
 8006b82:	465a      	mov	r2, fp
 8006b84:	4631      	mov	r1, r6
 8006b86:	4628      	mov	r0, r5
 8006b88:	47b8      	blx	r7
 8006b8a:	3001      	adds	r0, #1
 8006b8c:	f43f aefb 	beq.w	8006986 <_printf_float+0xb6>
 8006b90:	f10a 0a01 	add.w	sl, sl, #1
 8006b94:	e7ee      	b.n	8006b74 <_printf_float+0x2a4>
 8006b96:	bf00      	nop
 8006b98:	7fefffff 	.word	0x7fefffff
 8006b9c:	08009a4a 	.word	0x08009a4a
 8006ba0:	08009a46 	.word	0x08009a46
 8006ba4:	08009a52 	.word	0x08009a52
 8006ba8:	08009a4e 	.word	0x08009a4e
 8006bac:	08009a56 	.word	0x08009a56
 8006bb0:	6da3      	ldr	r3, [r4, #88]	@ 0x58
 8006bb2:	f8dd a028 	ldr.w	sl, [sp, #40]	@ 0x28
 8006bb6:	4553      	cmp	r3, sl
 8006bb8:	bfa8      	it	ge
 8006bba:	4653      	movge	r3, sl
 8006bbc:	2b00      	cmp	r3, #0
 8006bbe:	4699      	mov	r9, r3
 8006bc0:	dc36      	bgt.n	8006c30 <_printf_float+0x360>
 8006bc2:	f04f 0b00 	mov.w	fp, #0
 8006bc6:	ea29 79e9 	bic.w	r9, r9, r9, asr #31
 8006bca:	f104 021a 	add.w	r2, r4, #26
 8006bce:	6da3      	ldr	r3, [r4, #88]	@ 0x58
 8006bd0:	9306      	str	r3, [sp, #24]
 8006bd2:	eba3 0309 	sub.w	r3, r3, r9
 8006bd6:	455b      	cmp	r3, fp
 8006bd8:	dc31      	bgt.n	8006c3e <_printf_float+0x36e>
 8006bda:	9b09      	ldr	r3, [sp, #36]	@ 0x24
 8006bdc:	459a      	cmp	sl, r3
 8006bde:	dc3a      	bgt.n	8006c56 <_printf_float+0x386>
 8006be0:	6823      	ldr	r3, [r4, #0]
 8006be2:	07da      	lsls	r2, r3, #31
 8006be4:	d437      	bmi.n	8006c56 <_printf_float+0x386>
 8006be6:	9b09      	ldr	r3, [sp, #36]	@ 0x24
 8006be8:	ebaa 0903 	sub.w	r9, sl, r3
 8006bec:	9b06      	ldr	r3, [sp, #24]
 8006bee:	ebaa 0303 	sub.w	r3, sl, r3
 8006bf2:	4599      	cmp	r9, r3
 8006bf4:	bfa8      	it	ge
 8006bf6:	4699      	movge	r9, r3
 8006bf8:	f1b9 0f00 	cmp.w	r9, #0
 8006bfc:	dc33      	bgt.n	8006c66 <_printf_float+0x396>
 8006bfe:	f04f 0800 	mov.w	r8, #0
 8006c02:	ea29 79e9 	bic.w	r9, r9, r9, asr #31
 8006c06:	f104 0b1a 	add.w	fp, r4, #26
 8006c0a:	9b09      	ldr	r3, [sp, #36]	@ 0x24
 8006c0c:	ebaa 0303 	sub.w	r3, sl, r3
 8006c10:	eba3 0309 	sub.w	r3, r3, r9
 8006c14:	4543      	cmp	r3, r8
 8006c16:	f77f af79 	ble.w	8006b0c <_printf_float+0x23c>
 8006c1a:	2301      	movs	r3, #1
 8006c1c:	465a      	mov	r2, fp
 8006c1e:	4631      	mov	r1, r6
 8006c20:	4628      	mov	r0, r5
 8006c22:	47b8      	blx	r7
 8006c24:	3001      	adds	r0, #1
 8006c26:	f43f aeae 	beq.w	8006986 <_printf_float+0xb6>
 8006c2a:	f108 0801 	add.w	r8, r8, #1
 8006c2e:	e7ec      	b.n	8006c0a <_printf_float+0x33a>
 8006c30:	4642      	mov	r2, r8
 8006c32:	4631      	mov	r1, r6
 8006c34:	4628      	mov	r0, r5
 8006c36:	47b8      	blx	r7
 8006c38:	3001      	adds	r0, #1
 8006c3a:	d1c2      	bne.n	8006bc2 <_printf_float+0x2f2>
 8006c3c:	e6a3      	b.n	8006986 <_printf_float+0xb6>
 8006c3e:	2301      	movs	r3, #1
 8006c40:	4631      	mov	r1, r6
 8006c42:	4628      	mov	r0, r5
 8006c44:	9206      	str	r2, [sp, #24]
 8006c46:	47b8      	blx	r7
 8006c48:	3001      	adds	r0, #1
 8006c4a:	f43f ae9c 	beq.w	8006986 <_printf_float+0xb6>
 8006c4e:	9a06      	ldr	r2, [sp, #24]
 8006c50:	f10b 0b01 	add.w	fp, fp, #1
 8006c54:	e7bb      	b.n	8006bce <_printf_float+0x2fe>
 8006c56:	e9dd 2304 	ldrd	r2, r3, [sp, #16]
 8006c5a:	4631      	mov	r1, r6
 8006c5c:	4628      	mov	r0, r5
 8006c5e:	47b8      	blx	r7
 8006c60:	3001      	adds	r0, #1
 8006c62:	d1c0      	bne.n	8006be6 <_printf_float+0x316>
 8006c64:	e68f      	b.n	8006986 <_printf_float+0xb6>
 8006c66:	9a06      	ldr	r2, [sp, #24]
 8006c68:	464b      	mov	r3, r9
 8006c6a:	4442      	add	r2, r8
 8006c6c:	4631      	mov	r1, r6
 8006c6e:	4628      	mov	r0, r5
 8006c70:	47b8      	blx	r7
 8006c72:	3001      	adds	r0, #1
 8006c74:	d1c3      	bne.n	8006bfe <_printf_float+0x32e>
 8006c76:	e686      	b.n	8006986 <_printf_float+0xb6>
 8006c78:	f8dd a028 	ldr.w	sl, [sp, #40]	@ 0x28
 8006c7c:	f1ba 0f01 	cmp.w	sl, #1
 8006c80:	dc01      	bgt.n	8006c86 <_printf_float+0x3b6>
 8006c82:	07db      	lsls	r3, r3, #31
 8006c84:	d536      	bpl.n	8006cf4 <_printf_float+0x424>
 8006c86:	2301      	movs	r3, #1
 8006c88:	4642      	mov	r2, r8
 8006c8a:	4631      	mov	r1, r6
 8006c8c:	4628      	mov	r0, r5
 8006c8e:	47b8      	blx	r7
 8006c90:	3001      	adds	r0, #1
 8006c92:	f43f ae78 	beq.w	8006986 <_printf_float+0xb6>
 8006c96:	e9dd 2304 	ldrd	r2, r3, [sp, #16]
 8006c9a:	4631      	mov	r1, r6
 8006c9c:	4628      	mov	r0, r5
 8006c9e:	47b8      	blx	r7
 8006ca0:	3001      	adds	r0, #1
 8006ca2:	f43f ae70 	beq.w	8006986 <_printf_float+0xb6>
 8006ca6:	e9d4 0112 	ldrd	r0, r1, [r4, #72]	@ 0x48
 8006caa:	2200      	movs	r2, #0
 8006cac:	2300      	movs	r3, #0
 8006cae:	f10a 3aff 	add.w	sl, sl, #4294967295
 8006cb2:	f7f9 ff11 	bl	8000ad8 <__aeabi_dcmpeq>
 8006cb6:	b9c0      	cbnz	r0, 8006cea <_printf_float+0x41a>
 8006cb8:	4653      	mov	r3, sl
 8006cba:	f108 0201 	add.w	r2, r8, #1
 8006cbe:	4631      	mov	r1, r6
 8006cc0:	4628      	mov	r0, r5
 8006cc2:	47b8      	blx	r7
 8006cc4:	3001      	adds	r0, #1
 8006cc6:	d10c      	bne.n	8006ce2 <_printf_float+0x412>
 8006cc8:	e65d      	b.n	8006986 <_printf_float+0xb6>
 8006cca:	2301      	movs	r3, #1
 8006ccc:	465a      	mov	r2, fp
 8006cce:	4631      	mov	r1, r6
 8006cd0:	4628      	mov	r0, r5
 8006cd2:	47b8      	blx	r7
 8006cd4:	3001      	adds	r0, #1
 8006cd6:	f43f ae56 	beq.w	8006986 <_printf_float+0xb6>
 8006cda:	f108 0801 	add.w	r8, r8, #1
 8006cde:	45d0      	cmp	r8, sl
 8006ce0:	dbf3      	blt.n	8006cca <_printf_float+0x3fa>
 8006ce2:	464b      	mov	r3, r9
 8006ce4:	f104 0250 	add.w	r2, r4, #80	@ 0x50
 8006ce8:	e6df      	b.n	8006aaa <_printf_float+0x1da>
 8006cea:	f04f 0800 	mov.w	r8, #0
 8006cee:	f104 0b1a 	add.w	fp, r4, #26
 8006cf2:	e7f4      	b.n	8006cde <_printf_float+0x40e>
 8006cf4:	2301      	movs	r3, #1
 8006cf6:	4642      	mov	r2, r8
 8006cf8:	e7e1      	b.n	8006cbe <_printf_float+0x3ee>
 8006cfa:	2301      	movs	r3, #1
 8006cfc:	464a      	mov	r2, r9
 8006cfe:	4631      	mov	r1, r6
 8006d00:	4628      	mov	r0, r5
 8006d02:	47b8      	blx	r7
 8006d04:	3001      	adds	r0, #1
 8006d06:	f43f ae3e 	beq.w	8006986 <_printf_float+0xb6>
 8006d0a:	f108 0801 	add.w	r8, r8, #1
 8006d0e:	68e3      	ldr	r3, [r4, #12]
 8006d10:	990b      	ldr	r1, [sp, #44]	@ 0x2c
 8006d12:	1a5b      	subs	r3, r3, r1
 8006d14:	4543      	cmp	r3, r8
 8006d16:	dcf0      	bgt.n	8006cfa <_printf_float+0x42a>
 8006d18:	e6fc      	b.n	8006b14 <_printf_float+0x244>
 8006d1a:	f04f 0800 	mov.w	r8, #0
 8006d1e:	f104 0919 	add.w	r9, r4, #25
 8006d22:	e7f4      	b.n	8006d0e <_printf_float+0x43e>

08006d24 <_printf_common>:
 8006d24:	e92d 47f0 	stmdb	sp!, {r4, r5, r6, r7, r8, r9, sl, lr}
 8006d28:	4616      	mov	r6, r2
 8006d2a:	4698      	mov	r8, r3
 8006d2c:	688a      	ldr	r2, [r1, #8]
 8006d2e:	690b      	ldr	r3, [r1, #16]
 8006d30:	f8dd 9020 	ldr.w	r9, [sp, #32]
 8006d34:	4293      	cmp	r3, r2
 8006d36:	bfb8      	it	lt
 8006d38:	4613      	movlt	r3, r2
 8006d3a:	6033      	str	r3, [r6, #0]
 8006d3c:	f891 2043 	ldrb.w	r2, [r1, #67]	@ 0x43
 8006d40:	4607      	mov	r7, r0
 8006d42:	460c      	mov	r4, r1
 8006d44:	b10a      	cbz	r2, 8006d4a <_printf_common+0x26>
 8006d46:	3301      	adds	r3, #1
 8006d48:	6033      	str	r3, [r6, #0]
 8006d4a:	6823      	ldr	r3, [r4, #0]
 8006d4c:	0699      	lsls	r1, r3, #26
 8006d4e:	bf42      	ittt	mi
 8006d50:	6833      	ldrmi	r3, [r6, #0]
 8006d52:	3302      	addmi	r3, #2
 8006d54:	6033      	strmi	r3, [r6, #0]
 8006d56:	6825      	ldr	r5, [r4, #0]
 8006d58:	f015 0506 	ands.w	r5, r5, #6
 8006d5c:	d106      	bne.n	8006d6c <_printf_common+0x48>
 8006d5e:	f104 0a19 	add.w	sl, r4, #25
 8006d62:	68e3      	ldr	r3, [r4, #12]
 8006d64:	6832      	ldr	r2, [r6, #0]
 8006d66:	1a9b      	subs	r3, r3, r2
 8006d68:	42ab      	cmp	r3, r5
 8006d6a:	dc26      	bgt.n	8006dba <_printf_common+0x96>
 8006d6c:	f894 3043 	ldrb.w	r3, [r4, #67]	@ 0x43
 8006d70:	6822      	ldr	r2, [r4, #0]
 8006d72:	3b00      	subs	r3, #0
 8006d74:	bf18      	it	ne
 8006d76:	2301      	movne	r3, #1
 8006d78:	0692      	lsls	r2, r2, #26
 8006d7a:	d42b      	bmi.n	8006dd4 <_printf_common+0xb0>
 8006d7c:	f104 0243 	add.w	r2, r4, #67	@ 0x43
 8006d80:	4641      	mov	r1, r8
 8006d82:	4638      	mov	r0, r7
 8006d84:	47c8      	blx	r9
 8006d86:	3001      	adds	r0, #1
 8006d88:	d01e      	beq.n	8006dc8 <_printf_common+0xa4>
 8006d8a:	6823      	ldr	r3, [r4, #0]
 8006d8c:	6922      	ldr	r2, [r4, #16]
 8006d8e:	f003 0306 	and.w	r3, r3, #6
 8006d92:	2b04      	cmp	r3, #4
 8006d94:	bf02      	ittt	eq
 8006d96:	68e5      	ldreq	r5, [r4, #12]
 8006d98:	6833      	ldreq	r3, [r6, #0]
 8006d9a:	1aed      	subeq	r5, r5, r3
 8006d9c:	68a3      	ldr	r3, [r4, #8]
 8006d9e:	bf0c      	ite	eq
 8006da0:	ea25 75e5 	biceq.w	r5, r5, r5, asr #31
 8006da4:	2500      	movne	r5, #0
 8006da6:	4293      	cmp	r3, r2
 8006da8:	bfc4      	itt	gt
 8006daa:	1a9b      	subgt	r3, r3, r2
 8006dac:	18ed      	addgt	r5, r5, r3
 8006dae:	2600      	movs	r6, #0
 8006db0:	341a      	adds	r4, #26
 8006db2:	42b5      	cmp	r5, r6
 8006db4:	d11a      	bne.n	8006dec <_printf_common+0xc8>
 8006db6:	2000      	movs	r0, #0
 8006db8:	e008      	b.n	8006dcc <_printf_common+0xa8>
 8006dba:	2301      	movs	r3, #1
 8006dbc:	4652      	mov	r2, sl
 8006dbe:	4641      	mov	r1, r8
 8006dc0:	4638      	mov	r0, r7
 8006dc2:	47c8      	blx	r9
 8006dc4:	3001      	adds	r0, #1
 8006dc6:	d103      	bne.n	8006dd0 <_printf_common+0xac>
 8006dc8:	f04f 30ff 	mov.w	r0, #4294967295
 8006dcc:	e8bd 87f0 	ldmia.w	sp!, {r4, r5, r6, r7, r8, r9, sl, pc}
 8006dd0:	3501      	adds	r5, #1
 8006dd2:	e7c6      	b.n	8006d62 <_printf_common+0x3e>
 8006dd4:	18e1      	adds	r1, r4, r3
 8006dd6:	1c5a      	adds	r2, r3, #1
 8006dd8:	2030      	movs	r0, #48	@ 0x30
 8006dda:	f881 0043 	strb.w	r0, [r1, #67]	@ 0x43
 8006dde:	4422      	add	r2, r4
 8006de0:	f894 1045 	ldrb.w	r1, [r4, #69]	@ 0x45
 8006de4:	f882 1043 	strb.w	r1, [r2, #67]	@ 0x43
 8006de8:	3302      	adds	r3, #2
 8006dea:	e7c7      	b.n	8006d7c <_printf_common+0x58>
 8006dec:	2301      	movs	r3, #1
 8006dee:	4622      	mov	r2, r4
 8006df0:	4641      	mov	r1, r8
 8006df2:	4638      	mov	r0, r7
 8006df4:	47c8      	blx	r9
 8006df6:	3001      	adds	r0, #1
 8006df8:	d0e6      	beq.n	8006dc8 <_printf_common+0xa4>
 8006dfa:	3601      	adds	r6, #1
 8006dfc:	e7d9      	b.n	8006db2 <_printf_common+0x8e>
	...

08006e00 <_printf_i>:
 8006e00:	e92d 47ff 	stmdb	sp!, {r0, r1, r2, r3, r4, r5, r6, r7, r8, r9, sl, lr}
 8006e04:	7e0f      	ldrb	r7, [r1, #24]
 8006e06:	9e0c      	ldr	r6, [sp, #48]	@ 0x30
 8006e08:	2f78      	cmp	r7, #120	@ 0x78
 8006e0a:	4691      	mov	r9, r2
 8006e0c:	4680      	mov	r8, r0
 8006e0e:	460c      	mov	r4, r1
 8006e10:	469a      	mov	sl, r3
 8006e12:	f101 0243 	add.w	r2, r1, #67	@ 0x43
 8006e16:	d807      	bhi.n	8006e28 <_printf_i+0x28>
 8006e18:	2f62      	cmp	r7, #98	@ 0x62
 8006e1a:	d80a      	bhi.n	8006e32 <_printf_i+0x32>
 8006e1c:	2f00      	cmp	r7, #0
 8006e1e:	f000 80d1 	beq.w	8006fc4 <_printf_i+0x1c4>
 8006e22:	2f58      	cmp	r7, #88	@ 0x58
 8006e24:	f000 80b8 	beq.w	8006f98 <_printf_i+0x198>
 8006e28:	f104 0642 	add.w	r6, r4, #66	@ 0x42
 8006e2c:	f884 7042 	strb.w	r7, [r4, #66]	@ 0x42
 8006e30:	e03a      	b.n	8006ea8 <_printf_i+0xa8>
 8006e32:	f1a7 0363 	sub.w	r3, r7, #99	@ 0x63
 8006e36:	2b15      	cmp	r3, #21
 8006e38:	d8f6      	bhi.n	8006e28 <_printf_i+0x28>
 8006e3a:	a101      	add	r1, pc, #4	@ (adr r1, 8006e40 <_printf_i+0x40>)
 8006e3c:	f851 f023 	ldr.w	pc, [r1, r3, lsl #2]
 8006e40:	08006e99 	.word	0x08006e99
 8006e44:	08006ead 	.word	0x08006ead
 8006e48:	08006e29 	.word	0x08006e29
 8006e4c:	08006e29 	.word	0x08006e29
 8006e50:	08006e29 	.word	0x08006e29
 8006e54:	08006e29 	.word	0x08006e29
 8006e58:	08006ead 	.word	0x08006ead
 8006e5c:	08006e29 	.word	0x08006e29
 8006e60:	08006e29 	.word	0x08006e29
 8006e64:	08006e29 	.word	0x08006e29
 8006e68:	08006e29 	.word	0x08006e29
 8006e6c:	08006fab 	.word	0x08006fab
 8006e70:	08006ed7 	.word	0x08006ed7
 8006e74:	08006f65 	.word	0x08006f65
 8006e78:	08006e29 	.word	0x08006e29
 8006e7c:	08006e29 	.word	0x08006e29
 8006e80:	08006fcd 	.word	0x08006fcd
 8006e84:	08006e29 	.word	0x08006e29
 8006e88:	08006ed7 	.word	0x08006ed7
 8006e8c:	08006e29 	.word	0x08006e29
 8006e90:	08006e29 	.word	0x08006e29
 8006e94:	08006f6d 	.word	0x08006f6d
 8006e98:	6833      	ldr	r3, [r6, #0]
 8006e9a:	1d1a      	adds	r2, r3, #4
 8006e9c:	681b      	ldr	r3, [r3, #0]
 8006e9e:	6032      	str	r2, [r6, #0]
 8006ea0:	f104 0642 	add.w	r6, r4, #66	@ 0x42
 8006ea4:	f884 3042 	strb.w	r3, [r4, #66]	@ 0x42
 8006ea8:	2301      	movs	r3, #1
 8006eaa:	e09c      	b.n	8006fe6 <_printf_i+0x1e6>
 8006eac:	6833      	ldr	r3, [r6, #0]
 8006eae:	6820      	ldr	r0, [r4, #0]
 8006eb0:	1d19      	adds	r1, r3, #4
 8006eb2:	6031      	str	r1, [r6, #0]
 8006eb4:	0606      	lsls	r6, r0, #24
 8006eb6:	d501      	bpl.n	8006ebc <_printf_i+0xbc>
 8006eb8:	681d      	ldr	r5, [r3, #0]
 8006eba:	e003      	b.n	8006ec4 <_printf_i+0xc4>
 8006ebc:	0645      	lsls	r5, r0, #25
 8006ebe:	d5fb      	bpl.n	8006eb8 <_printf_i+0xb8>
 8006ec0:	f9b3 5000 	ldrsh.w	r5, [r3]
 8006ec4:	2d00      	cmp	r5, #0
 8006ec6:	da03      	bge.n	8006ed0 <_printf_i+0xd0>
 8006ec8:	232d      	movs	r3, #45	@ 0x2d
 8006eca:	426d      	negs	r5, r5
 8006ecc:	f884 3043 	strb.w	r3, [r4, #67]	@ 0x43
 8006ed0:	4858      	ldr	r0, [pc, #352]	@ (8007034 <_printf_i+0x234>)
 8006ed2:	230a      	movs	r3, #10
 8006ed4:	e011      	b.n	8006efa <_printf_i+0xfa>
 8006ed6:	6821      	ldr	r1, [r4, #0]
 8006ed8:	6833      	ldr	r3, [r6, #0]
 8006eda:	0608      	lsls	r0, r1, #24
 8006edc:	f853 5b04 	ldr.w	r5, [r3], #4
 8006ee0:	d402      	bmi.n	8006ee8 <_printf_i+0xe8>
 8006ee2:	0649      	lsls	r1, r1, #25
 8006ee4:	bf48      	it	mi
 8006ee6:	b2ad      	uxthmi	r5, r5
 8006ee8:	2f6f      	cmp	r7, #111	@ 0x6f
 8006eea:	4852      	ldr	r0, [pc, #328]	@ (8007034 <_printf_i+0x234>)
 8006eec:	6033      	str	r3, [r6, #0]
 8006eee:	bf14      	ite	ne
 8006ef0:	230a      	movne	r3, #10
 8006ef2:	2308      	moveq	r3, #8
 8006ef4:	2100      	movs	r1, #0
 8006ef6:	f884 1043 	strb.w	r1, [r4, #67]	@ 0x43
 8006efa:	6866      	ldr	r6, [r4, #4]
 8006efc:	60a6      	str	r6, [r4, #8]
 8006efe:	2e00      	cmp	r6, #0
 8006f00:	db05      	blt.n	8006f0e <_printf_i+0x10e>
 8006f02:	6821      	ldr	r1, [r4, #0]
 8006f04:	432e      	orrs	r6, r5
 8006f06:	f021 0104 	bic.w	r1, r1, #4
 8006f0a:	6021      	str	r1, [r4, #0]
 8006f0c:	d04b      	beq.n	8006fa6 <_printf_i+0x1a6>
 8006f0e:	4616      	mov	r6, r2
 8006f10:	fbb5 f1f3 	udiv	r1, r5, r3
 8006f14:	fb03 5711 	mls	r7, r3, r1, r5
 8006f18:	5dc7      	ldrb	r7, [r0, r7]
 8006f1a:	f806 7d01 	strb.w	r7, [r6, #-1]!
 8006f1e:	462f      	mov	r7, r5
 8006f20:	42bb      	cmp	r3, r7
 8006f22:	460d      	mov	r5, r1
 8006f24:	d9f4      	bls.n	8006f10 <_printf_i+0x110>
 8006f26:	2b08      	cmp	r3, #8
 8006f28:	d10b      	bne.n	8006f42 <_printf_i+0x142>
 8006f2a:	6823      	ldr	r3, [r4, #0]
 8006f2c:	07df      	lsls	r7, r3, #31
 8006f2e:	d508      	bpl.n	8006f42 <_printf_i+0x142>
 8006f30:	6923      	ldr	r3, [r4, #16]
 8006f32:	6861      	ldr	r1, [r4, #4]
 8006f34:	4299      	cmp	r1, r3
 8006f36:	bfde      	ittt	le
 8006f38:	2330      	movle	r3, #48	@ 0x30
 8006f3a:	f806 3c01 	strble.w	r3, [r6, #-1]
 8006f3e:	f106 36ff 	addle.w	r6, r6, #4294967295
 8006f42:	1b92      	subs	r2, r2, r6
 8006f44:	6122      	str	r2, [r4, #16]
 8006f46:	f8cd a000 	str.w	sl, [sp]
 8006f4a:	464b      	mov	r3, r9
 8006f4c:	aa03      	add	r2, sp, #12
 8006f4e:	4621      	mov	r1, r4
 8006f50:	4640      	mov	r0, r8
 8006f52:	f7ff fee7 	bl	8006d24 <_printf_common>
 8006f56:	3001      	adds	r0, #1
 8006f58:	d14a      	bne.n	8006ff0 <_printf_i+0x1f0>
 8006f5a:	f04f 30ff 	mov.w	r0, #4294967295
 8006f5e:	b004      	add	sp, #16
 8006f60:	e8bd 87f0 	ldmia.w	sp!, {r4, r5, r6, r7, r8, r9, sl, pc}
 8006f64:	6823      	ldr	r3, [r4, #0]
 8006f66:	f043 0320 	orr.w	r3, r3, #32
 8006f6a:	6023      	str	r3, [r4, #0]
 8006f6c:	4832      	ldr	r0, [pc, #200]	@ (8007038 <_printf_i+0x238>)
 8006f6e:	2778      	movs	r7, #120	@ 0x78
 8006f70:	f884 7045 	strb.w	r7, [r4, #69]	@ 0x45
 8006f74:	6823      	ldr	r3, [r4, #0]
 8006f76:	6831      	ldr	r1, [r6, #0]
 8006f78:	061f      	lsls	r7, r3, #24
 8006f7a:	f851 5b04 	ldr.w	r5, [r1], #4
 8006f7e:	d402      	bmi.n	8006f86 <_printf_i+0x186>
 8006f80:	065f      	lsls	r7, r3, #25
 8006f82:	bf48      	it	mi
 8006f84:	b2ad      	uxthmi	r5, r5
 8006f86:	6031      	str	r1, [r6, #0]
 8006f88:	07d9      	lsls	r1, r3, #31
 8006f8a:	bf44      	itt	mi
 8006f8c:	f043 0320 	orrmi.w	r3, r3, #32
 8006f90:	6023      	strmi	r3, [r4, #0]
 8006f92:	b11d      	cbz	r5, 8006f9c <_printf_i+0x19c>
 8006f94:	2310      	movs	r3, #16
 8006f96:	e7ad      	b.n	8006ef4 <_printf_i+0xf4>
 8006f98:	4826      	ldr	r0, [pc, #152]	@ (8007034 <_printf_i+0x234>)
 8006f9a:	e7e9      	b.n	8006f70 <_printf_i+0x170>
 8006f9c:	6823      	ldr	r3, [r4, #0]
 8006f9e:	f023 0320 	bic.w	r3, r3, #32
 8006fa2:	6023      	str	r3, [r4, #0]
 8006fa4:	e7f6      	b.n	8006f94 <_printf_i+0x194>
 8006fa6:	4616      	mov	r6, r2
 8006fa8:	e7bd      	b.n	8006f26 <_printf_i+0x126>
 8006faa:	6833      	ldr	r3, [r6, #0]
 8006fac:	6825      	ldr	r5, [r4, #0]
 8006fae:	6961      	ldr	r1, [r4, #20]
 8006fb0:	1d18      	adds	r0, r3, #4
 8006fb2:	6030      	str	r0, [r6, #0]
 8006fb4:	062e      	lsls	r6, r5, #24
 8006fb6:	681b      	ldr	r3, [r3, #0]
 8006fb8:	d501      	bpl.n	8006fbe <_printf_i+0x1be>
 8006fba:	6019      	str	r1, [r3, #0]
 8006fbc:	e002      	b.n	8006fc4 <_printf_i+0x1c4>
 8006fbe:	0668      	lsls	r0, r5, #25
 8006fc0:	d5fb      	bpl.n	8006fba <_printf_i+0x1ba>
 8006fc2:	8019      	strh	r1, [r3, #0]
 8006fc4:	2300      	movs	r3, #0
 8006fc6:	6123      	str	r3, [r4, #16]
 8006fc8:	4616      	mov	r6, r2
 8006fca:	e7bc      	b.n	8006f46 <_printf_i+0x146>
 8006fcc:	6833      	ldr	r3, [r6, #0]
 8006fce:	1d1a      	adds	r2, r3, #4
 8006fd0:	6032      	str	r2, [r6, #0]
 8006fd2:	681e      	ldr	r6, [r3, #0]
 8006fd4:	6862      	ldr	r2, [r4, #4]
 8006fd6:	2100      	movs	r1, #0
 8006fd8:	4630      	mov	r0, r6
 8006fda:	f7f9 f901 	bl	80001e0 <memchr>
 8006fde:	b108      	cbz	r0, 8006fe4 <_printf_i+0x1e4>
 8006fe0:	1b80      	subs	r0, r0, r6
 8006fe2:	6060      	str	r0, [r4, #4]
 8006fe4:	6863      	ldr	r3, [r4, #4]
 8006fe6:	6123      	str	r3, [r4, #16]
 8006fe8:	2300      	movs	r3, #0
 8006fea:	f884 3043 	strb.w	r3, [r4, #67]	@ 0x43
 8006fee:	e7aa      	b.n	8006f46 <_printf_i+0x146>
 8006ff0:	6923      	ldr	r3, [r4, #16]
 8006ff2:	4632      	mov	r2, r6
 8006ff4:	4649      	mov	r1, r9
 8006ff6:	4640      	mov	r0, r8
 8006ff8:	47d0      	blx	sl
 8006ffa:	3001      	adds	r0, #1
 8006ffc:	d0ad      	beq.n	8006f5a <_printf_i+0x15a>
 8006ffe:	6823      	ldr	r3, [r4, #0]
 8007000:	079b      	lsls	r3, r3, #30
 8007002:	d413      	bmi.n	800702c <_printf_i+0x22c>
 8007004:	68e0      	ldr	r0, [r4, #12]
 8007006:	9b03      	ldr	r3, [sp, #12]
 8007008:	4298      	cmp	r0, r3
 800700a:	bfb8      	it	lt
 800700c:	4618      	movlt	r0, r3
 800700e:	e7a6      	b.n	8006f5e <_printf_i+0x15e>
 8007010:	2301      	movs	r3, #1
 8007012:	4632      	mov	r2, r6
 8007014:	4649      	mov	r1, r9
 8007016:	4640      	mov	r0, r8
 8007018:	47d0      	blx	sl
 800701a:	3001      	adds	r0, #1
 800701c:	d09d      	beq.n	8006f5a <_printf_i+0x15a>
 800701e:	3501      	adds	r5, #1
 8007020:	68e3      	ldr	r3, [r4, #12]
 8007022:	9903      	ldr	r1, [sp, #12]
 8007024:	1a5b      	subs	r3, r3, r1
 8007026:	42ab      	cmp	r3, r5
 8007028:	dcf2      	bgt.n	8007010 <_printf_i+0x210>
 800702a:	e7eb      	b.n	8007004 <_printf_i+0x204>
 800702c:	2500      	movs	r5, #0
 800702e:	f104 0619 	add.w	r6, r4, #25
 8007032:	e7f5      	b.n	8007020 <_printf_i+0x220>
 8007034:	08009a58 	.word	0x08009a58
 8007038:	08009a69 	.word	0x08009a69

0800703c <std>:
 800703c:	2300      	movs	r3, #0
 800703e:	b510      	push	{r4, lr}
 8007040:	4604      	mov	r4, r0
 8007042:	e9c0 3300 	strd	r3, r3, [r0]
 8007046:	e9c0 3304 	strd	r3, r3, [r0, #16]
 800704a:	6083      	str	r3, [r0, #8]
 800704c:	8181      	strh	r1, [r0, #12]
 800704e:	6643      	str	r3, [r0, #100]	@ 0x64
 8007050:	81c2      	strh	r2, [r0, #14]
 8007052:	6183      	str	r3, [r0, #24]
 8007054:	4619      	mov	r1, r3
 8007056:	2208      	movs	r2, #8
 8007058:	305c      	adds	r0, #92	@ 0x5c
 800705a:	f000 f906 	bl	800726a <memset>
 800705e:	4b0d      	ldr	r3, [pc, #52]	@ (8007094 <std+0x58>)
 8007060:	6263      	str	r3, [r4, #36]	@ 0x24
 8007062:	4b0d      	ldr	r3, [pc, #52]	@ (8007098 <std+0x5c>)
 8007064:	62a3      	str	r3, [r4, #40]	@ 0x28
 8007066:	4b0d      	ldr	r3, [pc, #52]	@ (800709c <std+0x60>)
 8007068:	62e3      	str	r3, [r4, #44]	@ 0x2c
 800706a:	4b0d      	ldr	r3, [pc, #52]	@ (80070a0 <std+0x64>)
 800706c:	6323      	str	r3, [r4, #48]	@ 0x30
 800706e:	4b0d      	ldr	r3, [pc, #52]	@ (80070a4 <std+0x68>)
 8007070:	6224      	str	r4, [r4, #32]
 8007072:	429c      	cmp	r4, r3
 8007074:	d006      	beq.n	8007084 <std+0x48>
 8007076:	f103 0268 	add.w	r2, r3, #104	@ 0x68
 800707a:	4294      	cmp	r4, r2
 800707c:	d002      	beq.n	8007084 <std+0x48>
 800707e:	33d0      	adds	r3, #208	@ 0xd0
 8007080:	429c      	cmp	r4, r3
 8007082:	d105      	bne.n	8007090 <std+0x54>
 8007084:	f104 0058 	add.w	r0, r4, #88	@ 0x58
 8007088:	e8bd 4010 	ldmia.w	sp!, {r4, lr}
 800708c:	f000 b99e 	b.w	80073cc <__retarget_lock_init_recursive>
 8007090:	bd10      	pop	{r4, pc}
 8007092:	bf00      	nop
 8007094:	080071e5 	.word	0x080071e5
 8007098:	08007207 	.word	0x08007207
 800709c:	0800723f 	.word	0x0800723f
 80070a0:	08007263 	.word	0x08007263
 80070a4:	2000039c 	.word	0x2000039c

080070a8 <stdio_exit_handler>:
 80070a8:	4a02      	ldr	r2, [pc, #8]	@ (80070b4 <stdio_exit_handler+0xc>)
 80070aa:	4903      	ldr	r1, [pc, #12]	@ (80070b8 <stdio_exit_handler+0x10>)
 80070ac:	4803      	ldr	r0, [pc, #12]	@ (80070bc <stdio_exit_handler+0x14>)
 80070ae:	f000 b869 	b.w	8007184 <_fwalk_sglue>
 80070b2:	bf00      	nop
 80070b4:	20000010 	.word	0x20000010
 80070b8:	08009641 	.word	0x08009641
 80070bc:	2000018c 	.word	0x2000018c

080070c0 <cleanup_stdio>:
 80070c0:	6841      	ldr	r1, [r0, #4]
 80070c2:	4b0c      	ldr	r3, [pc, #48]	@ (80070f4 <cleanup_stdio+0x34>)
 80070c4:	4299      	cmp	r1, r3
 80070c6:	b510      	push	{r4, lr}
 80070c8:	4604      	mov	r4, r0
 80070ca:	d001      	beq.n	80070d0 <cleanup_stdio+0x10>
 80070cc:	f002 fab8 	bl	8009640 <_fflush_r>
 80070d0:	68a1      	ldr	r1, [r4, #8]
 80070d2:	4b09      	ldr	r3, [pc, #36]	@ (80070f8 <cleanup_stdio+0x38>)
 80070d4:	4299      	cmp	r1, r3
 80070d6:	d002      	beq.n	80070de <cleanup_stdio+0x1e>
 80070d8:	4620      	mov	r0, r4
 80070da:	f002 fab1 	bl	8009640 <_fflush_r>
 80070de:	68e1      	ldr	r1, [r4, #12]
 80070e0:	4b06      	ldr	r3, [pc, #24]	@ (80070fc <cleanup_stdio+0x3c>)
 80070e2:	4299      	cmp	r1, r3
 80070e4:	d004      	beq.n	80070f0 <cleanup_stdio+0x30>
 80070e6:	4620      	mov	r0, r4
 80070e8:	e8bd 4010 	ldmia.w	sp!, {r4, lr}
 80070ec:	f002 baa8 	b.w	8009640 <_fflush_r>
 80070f0:	bd10      	pop	{r4, pc}
 80070f2:	bf00      	nop
 80070f4:	2000039c 	.word	0x2000039c
 80070f8:	20000404 	.word	0x20000404
 80070fc:	2000046c 	.word	0x2000046c

08007100 <global_stdio_init.part.0>:
 8007100:	b510      	push	{r4, lr}
 8007102:	4b0b      	ldr	r3, [pc, #44]	@ (8007130 <global_stdio_init.part.0+0x30>)
 8007104:	4c0b      	ldr	r4, [pc, #44]	@ (8007134 <global_stdio_init.part.0+0x34>)
 8007106:	4a0c      	ldr	r2, [pc, #48]	@ (8007138 <global_stdio_init.part.0+0x38>)
 8007108:	601a      	str	r2, [r3, #0]
 800710a:	4620      	mov	r0, r4
 800710c:	2200      	movs	r2, #0
 800710e:	2104      	movs	r1, #4
 8007110:	f7ff ff94 	bl	800703c <std>
 8007114:	f104 0068 	add.w	r0, r4, #104	@ 0x68
 8007118:	2201      	movs	r2, #1
 800711a:	2109      	movs	r1, #9
 800711c:	f7ff ff8e 	bl	800703c <std>
 8007120:	f104 00d0 	add.w	r0, r4, #208	@ 0xd0
 8007124:	2202      	movs	r2, #2
 8007126:	e8bd 4010 	ldmia.w	sp!, {r4, lr}
 800712a:	2112      	movs	r1, #18
 800712c:	f7ff bf86 	b.w	800703c <std>
 8007130:	200004d4 	.word	0x200004d4
 8007134:	2000039c 	.word	0x2000039c
 8007138:	080070a9 	.word	0x080070a9

0800713c <__sfp_lock_acquire>:
 800713c:	4801      	ldr	r0, [pc, #4]	@ (8007144 <__sfp_lock_acquire+0x8>)
 800713e:	f000 b946 	b.w	80073ce <__retarget_lock_acquire_recursive>
 8007142:	bf00      	nop
 8007144:	200004dd 	.word	0x200004dd

08007148 <__sfp_lock_release>:
 8007148:	4801      	ldr	r0, [pc, #4]	@ (8007150 <__sfp_lock_release+0x8>)
 800714a:	f000 b941 	b.w	80073d0 <__retarget_lock_release_recursive>
 800714e:	bf00      	nop
 8007150:	200004dd 	.word	0x200004dd

08007154 <__sinit>:
 8007154:	b510      	push	{r4, lr}
 8007156:	4604      	mov	r4, r0
 8007158:	f7ff fff0 	bl	800713c <__sfp_lock_acquire>
 800715c:	6a23      	ldr	r3, [r4, #32]
 800715e:	b11b      	cbz	r3, 8007168 <__sinit+0x14>
 8007160:	e8bd 4010 	ldmia.w	sp!, {r4, lr}
 8007164:	f7ff bff0 	b.w	8007148 <__sfp_lock_release>
 8007168:	4b04      	ldr	r3, [pc, #16]	@ (800717c <__sinit+0x28>)
 800716a:	6223      	str	r3, [r4, #32]
 800716c:	4b04      	ldr	r3, [pc, #16]	@ (8007180 <__sinit+0x2c>)
 800716e:	681b      	ldr	r3, [r3, #0]
 8007170:	2b00      	cmp	r3, #0
 8007172:	d1f5      	bne.n	8007160 <__sinit+0xc>
 8007174:	f7ff ffc4 	bl	8007100 <global_stdio_init.part.0>
 8007178:	e7f2      	b.n	8007160 <__sinit+0xc>
 800717a:	bf00      	nop
 800717c:	080070c1 	.word	0x080070c1
 8007180:	200004d4 	.word	0x200004d4

08007184 <_fwalk_sglue>:
 8007184:	e92d 43f8 	stmdb	sp!, {r3, r4, r5, r6, r7, r8, r9, lr}
 8007188:	4607      	mov	r7, r0
 800718a:	4688      	mov	r8, r1
 800718c:	4614      	mov	r4, r2
 800718e:	2600      	movs	r6, #0
 8007190:	e9d4 9501 	ldrd	r9, r5, [r4, #4]
 8007194:	f1b9 0901 	subs.w	r9, r9, #1
 8007198:	d505      	bpl.n	80071a6 <_fwalk_sglue+0x22>
 800719a:	6824      	ldr	r4, [r4, #0]
 800719c:	2c00      	cmp	r4, #0
 800719e:	d1f7      	bne.n	8007190 <_fwalk_sglue+0xc>
 80071a0:	4630      	mov	r0, r6
 80071a2:	e8bd 83f8 	ldmia.w	sp!, {r3, r4, r5, r6, r7, r8, r9, pc}
 80071a6:	89ab      	ldrh	r3, [r5, #12]
 80071a8:	2b01      	cmp	r3, #1
 80071aa:	d907      	bls.n	80071bc <_fwalk_sglue+0x38>
 80071ac:	f9b5 300e 	ldrsh.w	r3, [r5, #14]
 80071b0:	3301      	adds	r3, #1
 80071b2:	d003      	beq.n	80071bc <_fwalk_sglue+0x38>
 80071b4:	4629      	mov	r1, r5
 80071b6:	4638      	mov	r0, r7
 80071b8:	47c0      	blx	r8
 80071ba:	4306      	orrs	r6, r0
 80071bc:	3568      	adds	r5, #104	@ 0x68
 80071be:	e7e9      	b.n	8007194 <_fwalk_sglue+0x10>

080071c0 <iprintf>:
 80071c0:	b40f      	push	{r0, r1, r2, r3}
 80071c2:	b507      	push	{r0, r1, r2, lr}
 80071c4:	4906      	ldr	r1, [pc, #24]	@ (80071e0 <iprintf+0x20>)
 80071c6:	ab04      	add	r3, sp, #16
 80071c8:	6808      	ldr	r0, [r1, #0]
 80071ca:	f853 2b04 	ldr.w	r2, [r3], #4
 80071ce:	6881      	ldr	r1, [r0, #8]
 80071d0:	9301      	str	r3, [sp, #4]
 80071d2:	f002 f899 	bl	8009308 <_vfiprintf_r>
 80071d6:	b003      	add	sp, #12
 80071d8:	f85d eb04 	ldr.w	lr, [sp], #4
 80071dc:	b004      	add	sp, #16
 80071de:	4770      	bx	lr
 80071e0:	20000188 	.word	0x20000188

080071e4 <__sread>:
 80071e4:	b510      	push	{r4, lr}
 80071e6:	460c      	mov	r4, r1
 80071e8:	f9b1 100e 	ldrsh.w	r1, [r1, #14]
 80071ec:	f000 f8a0 	bl	8007330 <_read_r>
 80071f0:	2800      	cmp	r0, #0
 80071f2:	bfab      	itete	ge
 80071f4:	6d63      	ldrge	r3, [r4, #84]	@ 0x54
 80071f6:	89a3      	ldrhlt	r3, [r4, #12]
 80071f8:	181b      	addge	r3, r3, r0
 80071fa:	f423 5380 	biclt.w	r3, r3, #4096	@ 0x1000
 80071fe:	bfac      	ite	ge
 8007200:	6563      	strge	r3, [r4, #84]	@ 0x54
 8007202:	81a3      	strhlt	r3, [r4, #12]
 8007204:	bd10      	pop	{r4, pc}

08007206 <__swrite>:
 8007206:	e92d 41f0 	stmdb	sp!, {r4, r5, r6, r7, r8, lr}
 800720a:	461f      	mov	r7, r3
 800720c:	898b      	ldrh	r3, [r1, #12]
 800720e:	05db      	lsls	r3, r3, #23
 8007210:	4605      	mov	r5, r0
 8007212:	460c      	mov	r4, r1
 8007214:	4616      	mov	r6, r2
 8007216:	d505      	bpl.n	8007224 <__swrite+0x1e>
 8007218:	f9b1 100e 	ldrsh.w	r1, [r1, #14]
 800721c:	2302      	movs	r3, #2
 800721e:	2200      	movs	r2, #0
 8007220:	f000 f874 	bl	800730c <_lseek_r>
 8007224:	89a3      	ldrh	r3, [r4, #12]
 8007226:	f9b4 100e 	ldrsh.w	r1, [r4, #14]
 800722a:	f423 5380 	bic.w	r3, r3, #4096	@ 0x1000
 800722e:	81a3      	strh	r3, [r4, #12]
 8007230:	4632      	mov	r2, r6
 8007232:	463b      	mov	r3, r7
 8007234:	4628      	mov	r0, r5
 8007236:	e8bd 41f0 	ldmia.w	sp!, {r4, r5, r6, r7, r8, lr}
 800723a:	f000 b88b 	b.w	8007354 <_write_r>

0800723e <__sseek>:
 800723e:	b510      	push	{r4, lr}
 8007240:	460c      	mov	r4, r1
 8007242:	f9b1 100e 	ldrsh.w	r1, [r1, #14]
 8007246:	f000 f861 	bl	800730c <_lseek_r>
 800724a:	1c43      	adds	r3, r0, #1
 800724c:	89a3      	ldrh	r3, [r4, #12]
 800724e:	bf15      	itete	ne
 8007250:	6560      	strne	r0, [r4, #84]	@ 0x54
 8007252:	f423 5380 	biceq.w	r3, r3, #4096	@ 0x1000
 8007256:	f443 5380 	orrne.w	r3, r3, #4096	@ 0x1000
 800725a:	81a3      	strheq	r3, [r4, #12]
 800725c:	bf18      	it	ne
 800725e:	81a3      	strhne	r3, [r4, #12]
 8007260:	bd10      	pop	{r4, pc}

08007262 <__sclose>:
 8007262:	f9b1 100e 	ldrsh.w	r1, [r1, #14]
 8007266:	f000 b841 	b.w	80072ec <_close_r>

0800726a <memset>:
 800726a:	4402      	add	r2, r0
 800726c:	4603      	mov	r3, r0
 800726e:	4293      	cmp	r3, r2
 8007270:	d100      	bne.n	8007274 <memset+0xa>
 8007272:	4770      	bx	lr
 8007274:	f803 1b01 	strb.w	r1, [r3], #1
 8007278:	e7f9      	b.n	800726e <memset+0x4>

0800727a <strchr>:
 800727a:	b2c9      	uxtb	r1, r1
 800727c:	4603      	mov	r3, r0
 800727e:	4618      	mov	r0, r3
 8007280:	f813 2b01 	ldrb.w	r2, [r3], #1
 8007284:	b112      	cbz	r2, 800728c <strchr+0x12>
 8007286:	428a      	cmp	r2, r1
 8007288:	d1f9      	bne.n	800727e <strchr+0x4>
 800728a:	4770      	bx	lr
 800728c:	2900      	cmp	r1, #0
 800728e:	bf18      	it	ne
 8007290:	2000      	movne	r0, #0
 8007292:	4770      	bx	lr

08007294 <strncmp>:
 8007294:	b510      	push	{r4, lr}
 8007296:	b16a      	cbz	r2, 80072b4 <strncmp+0x20>
 8007298:	3901      	subs	r1, #1
 800729a:	1884      	adds	r4, r0, r2
 800729c:	f810 2b01 	ldrb.w	r2, [r0], #1
 80072a0:	f811 3f01 	ldrb.w	r3, [r1, #1]!
 80072a4:	429a      	cmp	r2, r3
 80072a6:	d103      	bne.n	80072b0 <strncmp+0x1c>
 80072a8:	42a0      	cmp	r0, r4
 80072aa:	d001      	beq.n	80072b0 <strncmp+0x1c>
 80072ac:	2a00      	cmp	r2, #0
 80072ae:	d1f5      	bne.n	800729c <strncmp+0x8>
 80072b0:	1ad0      	subs	r0, r2, r3
 80072b2:	bd10      	pop	{r4, pc}
 80072b4:	4610      	mov	r0, r2
 80072b6:	e7fc      	b.n	80072b2 <strncmp+0x1e>

080072b8 <strstr>:
 80072b8:	780a      	ldrb	r2, [r1, #0]
 80072ba:	b570      	push	{r4, r5, r6, lr}
 80072bc:	b96a      	cbnz	r2, 80072da <strstr+0x22>
 80072be:	bd70      	pop	{r4, r5, r6, pc}
 80072c0:	429a      	cmp	r2, r3
 80072c2:	d109      	bne.n	80072d8 <strstr+0x20>
 80072c4:	460c      	mov	r4, r1
 80072c6:	4605      	mov	r5, r0
 80072c8:	f814 3f01 	ldrb.w	r3, [r4, #1]!
 80072cc:	2b00      	cmp	r3, #0
 80072ce:	d0f6      	beq.n	80072be <strstr+0x6>
 80072d0:	f815 6f01 	ldrb.w	r6, [r5, #1]!
 80072d4:	429e      	cmp	r6, r3
 80072d6:	d0f7      	beq.n	80072c8 <strstr+0x10>
 80072d8:	3001      	adds	r0, #1
 80072da:	7803      	ldrb	r3, [r0, #0]
 80072dc:	2b00      	cmp	r3, #0
 80072de:	d1ef      	bne.n	80072c0 <strstr+0x8>
 80072e0:	4618      	mov	r0, r3
 80072e2:	e7ec      	b.n	80072be <strstr+0x6>

080072e4 <_localeconv_r>:
 80072e4:	4800      	ldr	r0, [pc, #0]	@ (80072e8 <_localeconv_r+0x4>)
 80072e6:	4770      	bx	lr
 80072e8:	2000010c 	.word	0x2000010c

080072ec <_close_r>:
 80072ec:	b538      	push	{r3, r4, r5, lr}
 80072ee:	4d06      	ldr	r5, [pc, #24]	@ (8007308 <_close_r+0x1c>)
 80072f0:	2300      	movs	r3, #0
 80072f2:	4604      	mov	r4, r0
 80072f4:	4608      	mov	r0, r1
 80072f6:	602b      	str	r3, [r5, #0]
 80072f8:	f7fb fa0e 	bl	8002718 <_close>
 80072fc:	1c43      	adds	r3, r0, #1
 80072fe:	d102      	bne.n	8007306 <_close_r+0x1a>
 8007300:	682b      	ldr	r3, [r5, #0]
 8007302:	b103      	cbz	r3, 8007306 <_close_r+0x1a>
 8007304:	6023      	str	r3, [r4, #0]
 8007306:	bd38      	pop	{r3, r4, r5, pc}
 8007308:	200004d8 	.word	0x200004d8

0800730c <_lseek_r>:
 800730c:	b538      	push	{r3, r4, r5, lr}
 800730e:	4d07      	ldr	r5, [pc, #28]	@ (800732c <_lseek_r+0x20>)
 8007310:	4604      	mov	r4, r0
 8007312:	4608      	mov	r0, r1
 8007314:	4611      	mov	r1, r2
 8007316:	2200      	movs	r2, #0
 8007318:	602a      	str	r2, [r5, #0]
 800731a:	461a      	mov	r2, r3
 800731c:	f7fb fa23 	bl	8002766 <_lseek>
 8007320:	1c43      	adds	r3, r0, #1
 8007322:	d102      	bne.n	800732a <_lseek_r+0x1e>
 8007324:	682b      	ldr	r3, [r5, #0]
 8007326:	b103      	cbz	r3, 800732a <_lseek_r+0x1e>
 8007328:	6023      	str	r3, [r4, #0]
 800732a:	bd38      	pop	{r3, r4, r5, pc}
 800732c:	200004d8 	.word	0x200004d8

08007330 <_read_r>:
 8007330:	b538      	push	{r3, r4, r5, lr}
 8007332:	4d07      	ldr	r5, [pc, #28]	@ (8007350 <_read_r+0x20>)
 8007334:	4604      	mov	r4, r0
 8007336:	4608      	mov	r0, r1
 8007338:	4611      	mov	r1, r2
 800733a:	2200      	movs	r2, #0
 800733c:	602a      	str	r2, [r5, #0]
 800733e:	461a      	mov	r2, r3
 8007340:	f7fb f9cd 	bl	80026de <_read>
 8007344:	1c43      	adds	r3, r0, #1
 8007346:	d102      	bne.n	800734e <_read_r+0x1e>
 8007348:	682b      	ldr	r3, [r5, #0]
 800734a:	b103      	cbz	r3, 800734e <_read_r+0x1e>
 800734c:	6023      	str	r3, [r4, #0]
 800734e:	bd38      	pop	{r3, r4, r5, pc}
 8007350:	200004d8 	.word	0x200004d8

08007354 <_write_r>:
 8007354:	b538      	push	{r3, r4, r5, lr}
 8007356:	4d07      	ldr	r5, [pc, #28]	@ (8007374 <_write_r+0x20>)
 8007358:	4604      	mov	r4, r0
 800735a:	4608      	mov	r0, r1
 800735c:	4611      	mov	r1, r2
 800735e:	2200      	movs	r2, #0
 8007360:	602a      	str	r2, [r5, #0]
 8007362:	461a      	mov	r2, r3
 8007364:	f7fa fc0c 	bl	8001b80 <_write>
 8007368:	1c43      	adds	r3, r0, #1
 800736a:	d102      	bne.n	8007372 <_write_r+0x1e>
 800736c:	682b      	ldr	r3, [r5, #0]
 800736e:	b103      	cbz	r3, 8007372 <_write_r+0x1e>
 8007370:	6023      	str	r3, [r4, #0]
 8007372:	bd38      	pop	{r3, r4, r5, pc}
 8007374:	200004d8 	.word	0x200004d8

08007378 <__errno>:
 8007378:	4b01      	ldr	r3, [pc, #4]	@ (8007380 <__errno+0x8>)
 800737a:	6818      	ldr	r0, [r3, #0]
 800737c:	4770      	bx	lr
 800737e:	bf00      	nop
 8007380:	20000188 	.word	0x20000188

08007384 <__libc_init_array>:
 8007384:	b570      	push	{r4, r5, r6, lr}
 8007386:	4d0d      	ldr	r5, [pc, #52]	@ (80073bc <__libc_init_array+0x38>)
 8007388:	4c0d      	ldr	r4, [pc, #52]	@ (80073c0 <__libc_init_array+0x3c>)
 800738a:	1b64      	subs	r4, r4, r5
 800738c:	10a4      	asrs	r4, r4, #2
 800738e:	2600      	movs	r6, #0
 8007390:	42a6      	cmp	r6, r4
 8007392:	d109      	bne.n	80073a8 <__libc_init_array+0x24>
 8007394:	4d0b      	ldr	r5, [pc, #44]	@ (80073c4 <__libc_init_array+0x40>)
 8007396:	4c0c      	ldr	r4, [pc, #48]	@ (80073c8 <__libc_init_array+0x44>)
 8007398:	f002 fb32 	bl	8009a00 <_init>
 800739c:	1b64      	subs	r4, r4, r5
 800739e:	10a4      	asrs	r4, r4, #2
 80073a0:	2600      	movs	r6, #0
 80073a2:	42a6      	cmp	r6, r4
 80073a4:	d105      	bne.n	80073b2 <__libc_init_array+0x2e>
 80073a6:	bd70      	pop	{r4, r5, r6, pc}
 80073a8:	f855 3b04 	ldr.w	r3, [r5], #4
 80073ac:	4798      	blx	r3
 80073ae:	3601      	adds	r6, #1
 80073b0:	e7ee      	b.n	8007390 <__libc_init_array+0xc>
 80073b2:	f855 3b04 	ldr.w	r3, [r5], #4
 80073b6:	4798      	blx	r3
 80073b8:	3601      	adds	r6, #1
 80073ba:	e7f2      	b.n	80073a2 <__libc_init_array+0x1e>
 80073bc:	08009e70 	.word	0x08009e70
 80073c0:	08009e70 	.word	0x08009e70
 80073c4:	08009e70 	.word	0x08009e70
 80073c8:	08009e74 	.word	0x08009e74

080073cc <__retarget_lock_init_recursive>:
 80073cc:	4770      	bx	lr

080073ce <__retarget_lock_acquire_recursive>:
 80073ce:	4770      	bx	lr

080073d0 <__retarget_lock_release_recursive>:
 80073d0:	4770      	bx	lr

080073d2 <memcpy>:
 80073d2:	440a      	add	r2, r1
 80073d4:	4291      	cmp	r1, r2
 80073d6:	f100 33ff 	add.w	r3, r0, #4294967295
 80073da:	d100      	bne.n	80073de <memcpy+0xc>
 80073dc:	4770      	bx	lr
 80073de:	b510      	push	{r4, lr}
 80073e0:	f811 4b01 	ldrb.w	r4, [r1], #1
 80073e4:	f803 4f01 	strb.w	r4, [r3, #1]!
 80073e8:	4291      	cmp	r1, r2
 80073ea:	d1f9      	bne.n	80073e0 <memcpy+0xe>
 80073ec:	bd10      	pop	{r4, pc}
	...

080073f0 <nan>:
 80073f0:	ed9f 0b01 	vldr	d0, [pc, #4]	@ 80073f8 <nan+0x8>
 80073f4:	4770      	bx	lr
 80073f6:	bf00      	nop
 80073f8:	00000000 	.word	0x00000000
 80073fc:	7ff80000 	.word	0x7ff80000

08007400 <quorem>:
 8007400:	e92d 4ff7 	stmdb	sp!, {r0, r1, r2, r4, r5, r6, r7, r8, r9, sl, fp, lr}
 8007404:	6903      	ldr	r3, [r0, #16]
 8007406:	690c      	ldr	r4, [r1, #16]
 8007408:	42a3      	cmp	r3, r4
 800740a:	4607      	mov	r7, r0
 800740c:	db7e      	blt.n	800750c <quorem+0x10c>
 800740e:	3c01      	subs	r4, #1
 8007410:	f101 0814 	add.w	r8, r1, #20
 8007414:	00a3      	lsls	r3, r4, #2
 8007416:	f100 0514 	add.w	r5, r0, #20
 800741a:	9300      	str	r3, [sp, #0]
 800741c:	eb05 0384 	add.w	r3, r5, r4, lsl #2
 8007420:	9301      	str	r3, [sp, #4]
 8007422:	f858 3024 	ldr.w	r3, [r8, r4, lsl #2]
 8007426:	f855 2024 	ldr.w	r2, [r5, r4, lsl #2]
 800742a:	3301      	adds	r3, #1
 800742c:	429a      	cmp	r2, r3
 800742e:	eb08 0984 	add.w	r9, r8, r4, lsl #2
 8007432:	fbb2 f6f3 	udiv	r6, r2, r3
 8007436:	d32e      	bcc.n	8007496 <quorem+0x96>
 8007438:	f04f 0a00 	mov.w	sl, #0
 800743c:	46c4      	mov	ip, r8
 800743e:	46ae      	mov	lr, r5
 8007440:	46d3      	mov	fp, sl
 8007442:	f85c 3b04 	ldr.w	r3, [ip], #4
 8007446:	b298      	uxth	r0, r3
 8007448:	fb06 a000 	mla	r0, r6, r0, sl
 800744c:	0c02      	lsrs	r2, r0, #16
 800744e:	0c1b      	lsrs	r3, r3, #16
 8007450:	fb06 2303 	mla	r3, r6, r3, r2
 8007454:	f8de 2000 	ldr.w	r2, [lr]
 8007458:	b280      	uxth	r0, r0
 800745a:	b292      	uxth	r2, r2
 800745c:	1a12      	subs	r2, r2, r0
 800745e:	445a      	add	r2, fp
 8007460:	f8de 0000 	ldr.w	r0, [lr]
 8007464:	ea4f 4a13 	mov.w	sl, r3, lsr #16
 8007468:	b29b      	uxth	r3, r3
 800746a:	ebc3 4322 	rsb	r3, r3, r2, asr #16
 800746e:	eb03 4310 	add.w	r3, r3, r0, lsr #16
 8007472:	b292      	uxth	r2, r2
 8007474:	ea42 4203 	orr.w	r2, r2, r3, lsl #16
 8007478:	45e1      	cmp	r9, ip
 800747a:	f84e 2b04 	str.w	r2, [lr], #4
 800747e:	ea4f 4b23 	mov.w	fp, r3, asr #16
 8007482:	d2de      	bcs.n	8007442 <quorem+0x42>
 8007484:	9b00      	ldr	r3, [sp, #0]
 8007486:	58eb      	ldr	r3, [r5, r3]
 8007488:	b92b      	cbnz	r3, 8007496 <quorem+0x96>
 800748a:	9b01      	ldr	r3, [sp, #4]
 800748c:	3b04      	subs	r3, #4
 800748e:	429d      	cmp	r5, r3
 8007490:	461a      	mov	r2, r3
 8007492:	d32f      	bcc.n	80074f4 <quorem+0xf4>
 8007494:	613c      	str	r4, [r7, #16]
 8007496:	4638      	mov	r0, r7
 8007498:	f001 fd12 	bl	8008ec0 <__mcmp>
 800749c:	2800      	cmp	r0, #0
 800749e:	db25      	blt.n	80074ec <quorem+0xec>
 80074a0:	4629      	mov	r1, r5
 80074a2:	2000      	movs	r0, #0
 80074a4:	f858 2b04 	ldr.w	r2, [r8], #4
 80074a8:	f8d1 c000 	ldr.w	ip, [r1]
 80074ac:	fa1f fe82 	uxth.w	lr, r2
 80074b0:	fa1f f38c 	uxth.w	r3, ip
 80074b4:	eba3 030e 	sub.w	r3, r3, lr
 80074b8:	4403      	add	r3, r0
 80074ba:	0c12      	lsrs	r2, r2, #16
 80074bc:	ebc2 4223 	rsb	r2, r2, r3, asr #16
 80074c0:	eb02 421c 	add.w	r2, r2, ip, lsr #16
 80074c4:	b29b      	uxth	r3, r3
 80074c6:	ea43 4302 	orr.w	r3, r3, r2, lsl #16
 80074ca:	45c1      	cmp	r9, r8
 80074cc:	f841 3b04 	str.w	r3, [r1], #4
 80074d0:	ea4f 4022 	mov.w	r0, r2, asr #16
 80074d4:	d2e6      	bcs.n	80074a4 <quorem+0xa4>
 80074d6:	f855 2024 	ldr.w	r2, [r5, r4, lsl #2]
 80074da:	eb05 0384 	add.w	r3, r5, r4, lsl #2
 80074de:	b922      	cbnz	r2, 80074ea <quorem+0xea>
 80074e0:	3b04      	subs	r3, #4
 80074e2:	429d      	cmp	r5, r3
 80074e4:	461a      	mov	r2, r3
 80074e6:	d30b      	bcc.n	8007500 <quorem+0x100>
 80074e8:	613c      	str	r4, [r7, #16]
 80074ea:	3601      	adds	r6, #1
 80074ec:	4630      	mov	r0, r6
 80074ee:	b003      	add	sp, #12
 80074f0:	e8bd 8ff0 	ldmia.w	sp!, {r4, r5, r6, r7, r8, r9, sl, fp, pc}
 80074f4:	6812      	ldr	r2, [r2, #0]
 80074f6:	3b04      	subs	r3, #4
 80074f8:	2a00      	cmp	r2, #0
 80074fa:	d1cb      	bne.n	8007494 <quorem+0x94>
 80074fc:	3c01      	subs	r4, #1
 80074fe:	e7c6      	b.n	800748e <quorem+0x8e>
 8007500:	6812      	ldr	r2, [r2, #0]
 8007502:	3b04      	subs	r3, #4
 8007504:	2a00      	cmp	r2, #0
 8007506:	d1ef      	bne.n	80074e8 <quorem+0xe8>
 8007508:	3c01      	subs	r4, #1
 800750a:	e7ea      	b.n	80074e2 <quorem+0xe2>
 800750c:	2000      	movs	r0, #0
 800750e:	e7ee      	b.n	80074ee <quorem+0xee>

08007510 <_dtoa_r>:
 8007510:	e92d 4ff0 	stmdb	sp!, {r4, r5, r6, r7, r8, r9, sl, fp, lr}
 8007514:	69c7      	ldr	r7, [r0, #28]
 8007516:	b097      	sub	sp, #92	@ 0x5c
 8007518:	ed8d 0b04 	vstr	d0, [sp, #16]
 800751c:	ec55 4b10 	vmov	r4, r5, d0
 8007520:	9e20      	ldr	r6, [sp, #128]	@ 0x80
 8007522:	9107      	str	r1, [sp, #28]
 8007524:	4681      	mov	r9, r0
 8007526:	920c      	str	r2, [sp, #48]	@ 0x30
 8007528:	9311      	str	r3, [sp, #68]	@ 0x44
 800752a:	b97f      	cbnz	r7, 800754c <_dtoa_r+0x3c>
 800752c:	2010      	movs	r0, #16
 800752e:	f001 f943 	bl	80087b8 <malloc>
 8007532:	4602      	mov	r2, r0
 8007534:	f8c9 001c 	str.w	r0, [r9, #28]
 8007538:	b920      	cbnz	r0, 8007544 <_dtoa_r+0x34>
 800753a:	4ba9      	ldr	r3, [pc, #676]	@ (80077e0 <_dtoa_r+0x2d0>)
 800753c:	21ef      	movs	r1, #239	@ 0xef
 800753e:	48a9      	ldr	r0, [pc, #676]	@ (80077e4 <_dtoa_r+0x2d4>)
 8007540:	f002 f94a 	bl	80097d8 <__assert_func>
 8007544:	e9c0 7701 	strd	r7, r7, [r0, #4]
 8007548:	6007      	str	r7, [r0, #0]
 800754a:	60c7      	str	r7, [r0, #12]
 800754c:	f8d9 301c 	ldr.w	r3, [r9, #28]
 8007550:	6819      	ldr	r1, [r3, #0]
 8007552:	b159      	cbz	r1, 800756c <_dtoa_r+0x5c>
 8007554:	685a      	ldr	r2, [r3, #4]
 8007556:	604a      	str	r2, [r1, #4]
 8007558:	2301      	movs	r3, #1
 800755a:	4093      	lsls	r3, r2
 800755c:	608b      	str	r3, [r1, #8]
 800755e:	4648      	mov	r0, r9
 8007560:	f001 fa32 	bl	80089c8 <_Bfree>
 8007564:	f8d9 301c 	ldr.w	r3, [r9, #28]
 8007568:	2200      	movs	r2, #0
 800756a:	601a      	str	r2, [r3, #0]
 800756c:	1e2b      	subs	r3, r5, #0
 800756e:	bfb9      	ittee	lt
 8007570:	f023 4300 	biclt.w	r3, r3, #2147483648	@ 0x80000000
 8007574:	9305      	strlt	r3, [sp, #20]
 8007576:	2300      	movge	r3, #0
 8007578:	6033      	strge	r3, [r6, #0]
 800757a:	9f05      	ldr	r7, [sp, #20]
 800757c:	4b9a      	ldr	r3, [pc, #616]	@ (80077e8 <_dtoa_r+0x2d8>)
 800757e:	bfbc      	itt	lt
 8007580:	2201      	movlt	r2, #1
 8007582:	6032      	strlt	r2, [r6, #0]
 8007584:	43bb      	bics	r3, r7
 8007586:	d112      	bne.n	80075ae <_dtoa_r+0x9e>
 8007588:	9a11      	ldr	r2, [sp, #68]	@ 0x44
 800758a:	f242 730f 	movw	r3, #9999	@ 0x270f
 800758e:	6013      	str	r3, [r2, #0]
 8007590:	f3c7 0313 	ubfx	r3, r7, #0, #20
 8007594:	4323      	orrs	r3, r4
 8007596:	f000 855a 	beq.w	800804e <_dtoa_r+0xb3e>
 800759a:	9b21      	ldr	r3, [sp, #132]	@ 0x84
 800759c:	f8df a25c 	ldr.w	sl, [pc, #604]	@ 80077fc <_dtoa_r+0x2ec>
 80075a0:	2b00      	cmp	r3, #0
 80075a2:	f000 855c 	beq.w	800805e <_dtoa_r+0xb4e>
 80075a6:	f10a 0303 	add.w	r3, sl, #3
 80075aa:	f000 bd56 	b.w	800805a <_dtoa_r+0xb4a>
 80075ae:	ed9d 7b04 	vldr	d7, [sp, #16]
 80075b2:	2200      	movs	r2, #0
 80075b4:	ec51 0b17 	vmov	r0, r1, d7
 80075b8:	2300      	movs	r3, #0
 80075ba:	ed8d 7b0a 	vstr	d7, [sp, #40]	@ 0x28
 80075be:	f7f9 fa8b 	bl	8000ad8 <__aeabi_dcmpeq>
 80075c2:	4680      	mov	r8, r0
 80075c4:	b158      	cbz	r0, 80075de <_dtoa_r+0xce>
 80075c6:	9a11      	ldr	r2, [sp, #68]	@ 0x44
 80075c8:	2301      	movs	r3, #1
 80075ca:	6013      	str	r3, [r2, #0]
 80075cc:	9b21      	ldr	r3, [sp, #132]	@ 0x84
 80075ce:	b113      	cbz	r3, 80075d6 <_dtoa_r+0xc6>
 80075d0:	9a21      	ldr	r2, [sp, #132]	@ 0x84
 80075d2:	4b86      	ldr	r3, [pc, #536]	@ (80077ec <_dtoa_r+0x2dc>)
 80075d4:	6013      	str	r3, [r2, #0]
 80075d6:	f8df a228 	ldr.w	sl, [pc, #552]	@ 8007800 <_dtoa_r+0x2f0>
 80075da:	f000 bd40 	b.w	800805e <_dtoa_r+0xb4e>
 80075de:	ed9d 0b0a 	vldr	d0, [sp, #40]	@ 0x28
 80075e2:	aa14      	add	r2, sp, #80	@ 0x50
 80075e4:	a915      	add	r1, sp, #84	@ 0x54
 80075e6:	4648      	mov	r0, r9
 80075e8:	f001 fd8a 	bl	8009100 <__d2b>
 80075ec:	f3c7 560a 	ubfx	r6, r7, #20, #11
 80075f0:	9002      	str	r0, [sp, #8]
 80075f2:	2e00      	cmp	r6, #0
 80075f4:	d078      	beq.n	80076e8 <_dtoa_r+0x1d8>
 80075f6:	9b0b      	ldr	r3, [sp, #44]	@ 0x2c
 80075f8:	f8cd 8048 	str.w	r8, [sp, #72]	@ 0x48
 80075fc:	f3c3 0313 	ubfx	r3, r3, #0, #20
 8007600:	e9dd 010a 	ldrd	r0, r1, [sp, #40]	@ 0x28
 8007604:	f043 537f 	orr.w	r3, r3, #1069547520	@ 0x3fc00000
 8007608:	f443 1340 	orr.w	r3, r3, #3145728	@ 0x300000
 800760c:	f2a6 36ff 	subw	r6, r6, #1023	@ 0x3ff
 8007610:	4619      	mov	r1, r3
 8007612:	2200      	movs	r2, #0
 8007614:	4b76      	ldr	r3, [pc, #472]	@ (80077f0 <_dtoa_r+0x2e0>)
 8007616:	f7f8 fe3f 	bl	8000298 <__aeabi_dsub>
 800761a:	a36b      	add	r3, pc, #428	@ (adr r3, 80077c8 <_dtoa_r+0x2b8>)
 800761c:	e9d3 2300 	ldrd	r2, r3, [r3]
 8007620:	f7f8 fff2 	bl	8000608 <__aeabi_dmul>
 8007624:	a36a      	add	r3, pc, #424	@ (adr r3, 80077d0 <_dtoa_r+0x2c0>)
 8007626:	e9d3 2300 	ldrd	r2, r3, [r3]
 800762a:	f7f8 fe37 	bl	800029c <__adddf3>
 800762e:	4604      	mov	r4, r0
 8007630:	4630      	mov	r0, r6
 8007632:	460d      	mov	r5, r1
 8007634:	f7f8 ff7e 	bl	8000534 <__aeabi_i2d>
 8007638:	a367      	add	r3, pc, #412	@ (adr r3, 80077d8 <_dtoa_r+0x2c8>)
 800763a:	e9d3 2300 	ldrd	r2, r3, [r3]
 800763e:	f7f8 ffe3 	bl	8000608 <__aeabi_dmul>
 8007642:	4602      	mov	r2, r0
 8007644:	460b      	mov	r3, r1
 8007646:	4620      	mov	r0, r4
 8007648:	4629      	mov	r1, r5
 800764a:	f7f8 fe27 	bl	800029c <__adddf3>
 800764e:	4604      	mov	r4, r0
 8007650:	460d      	mov	r5, r1
 8007652:	f7f9 fa89 	bl	8000b68 <__aeabi_d2iz>
 8007656:	2200      	movs	r2, #0
 8007658:	4607      	mov	r7, r0
 800765a:	2300      	movs	r3, #0
 800765c:	4620      	mov	r0, r4
 800765e:	4629      	mov	r1, r5
 8007660:	f7f9 fa44 	bl	8000aec <__aeabi_dcmplt>
 8007664:	b140      	cbz	r0, 8007678 <_dtoa_r+0x168>
 8007666:	4638      	mov	r0, r7
 8007668:	f7f8 ff64 	bl	8000534 <__aeabi_i2d>
 800766c:	4622      	mov	r2, r4
 800766e:	462b      	mov	r3, r5
 8007670:	f7f9 fa32 	bl	8000ad8 <__aeabi_dcmpeq>
 8007674:	b900      	cbnz	r0, 8007678 <_dtoa_r+0x168>
 8007676:	3f01      	subs	r7, #1
 8007678:	2f16      	cmp	r7, #22
 800767a:	d852      	bhi.n	8007722 <_dtoa_r+0x212>
 800767c:	4b5d      	ldr	r3, [pc, #372]	@ (80077f4 <_dtoa_r+0x2e4>)
 800767e:	eb03 03c7 	add.w	r3, r3, r7, lsl #3
 8007682:	e9d3 2300 	ldrd	r2, r3, [r3]
 8007686:	e9dd 010a 	ldrd	r0, r1, [sp, #40]	@ 0x28
 800768a:	f7f9 fa2f 	bl	8000aec <__aeabi_dcmplt>
 800768e:	2800      	cmp	r0, #0
 8007690:	d049      	beq.n	8007726 <_dtoa_r+0x216>
 8007692:	3f01      	subs	r7, #1
 8007694:	2300      	movs	r3, #0
 8007696:	9310      	str	r3, [sp, #64]	@ 0x40
 8007698:	9b14      	ldr	r3, [sp, #80]	@ 0x50
 800769a:	1b9b      	subs	r3, r3, r6
 800769c:	1e5a      	subs	r2, r3, #1
 800769e:	bf45      	ittet	mi
 80076a0:	f1c3 0301 	rsbmi	r3, r3, #1
 80076a4:	9300      	strmi	r3, [sp, #0]
 80076a6:	2300      	movpl	r3, #0
 80076a8:	2300      	movmi	r3, #0
 80076aa:	9206      	str	r2, [sp, #24]
 80076ac:	bf54      	ite	pl
 80076ae:	9300      	strpl	r3, [sp, #0]
 80076b0:	9306      	strmi	r3, [sp, #24]
 80076b2:	2f00      	cmp	r7, #0
 80076b4:	db39      	blt.n	800772a <_dtoa_r+0x21a>
 80076b6:	9b06      	ldr	r3, [sp, #24]
 80076b8:	970d      	str	r7, [sp, #52]	@ 0x34
 80076ba:	443b      	add	r3, r7
 80076bc:	9306      	str	r3, [sp, #24]
 80076be:	2300      	movs	r3, #0
 80076c0:	9308      	str	r3, [sp, #32]
 80076c2:	9b07      	ldr	r3, [sp, #28]
 80076c4:	2b09      	cmp	r3, #9
 80076c6:	d863      	bhi.n	8007790 <_dtoa_r+0x280>
 80076c8:	2b05      	cmp	r3, #5
 80076ca:	bfc4      	itt	gt
 80076cc:	3b04      	subgt	r3, #4
 80076ce:	9307      	strgt	r3, [sp, #28]
 80076d0:	9b07      	ldr	r3, [sp, #28]
 80076d2:	f1a3 0302 	sub.w	r3, r3, #2
 80076d6:	bfcc      	ite	gt
 80076d8:	2400      	movgt	r4, #0
 80076da:	2401      	movle	r4, #1
 80076dc:	2b03      	cmp	r3, #3
 80076de:	d863      	bhi.n	80077a8 <_dtoa_r+0x298>
 80076e0:	e8df f003 	tbb	[pc, r3]
 80076e4:	2b375452 	.word	0x2b375452
 80076e8:	e9dd 6314 	ldrd	r6, r3, [sp, #80]	@ 0x50
 80076ec:	441e      	add	r6, r3
 80076ee:	f206 4332 	addw	r3, r6, #1074	@ 0x432
 80076f2:	2b20      	cmp	r3, #32
 80076f4:	bfc1      	itttt	gt
 80076f6:	f1c3 0340 	rsbgt	r3, r3, #64	@ 0x40
 80076fa:	409f      	lslgt	r7, r3
 80076fc:	f206 4312 	addwgt	r3, r6, #1042	@ 0x412
 8007700:	fa24 f303 	lsrgt.w	r3, r4, r3
 8007704:	bfd6      	itet	le
 8007706:	f1c3 0320 	rsble	r3, r3, #32
 800770a:	ea47 0003 	orrgt.w	r0, r7, r3
 800770e:	fa04 f003 	lslle.w	r0, r4, r3
 8007712:	f7f8 feff 	bl	8000514 <__aeabi_ui2d>
 8007716:	2201      	movs	r2, #1
 8007718:	f1a1 73f8 	sub.w	r3, r1, #32505856	@ 0x1f00000
 800771c:	3e01      	subs	r6, #1
 800771e:	9212      	str	r2, [sp, #72]	@ 0x48
 8007720:	e776      	b.n	8007610 <_dtoa_r+0x100>
 8007722:	2301      	movs	r3, #1
 8007724:	e7b7      	b.n	8007696 <_dtoa_r+0x186>
 8007726:	9010      	str	r0, [sp, #64]	@ 0x40
 8007728:	e7b6      	b.n	8007698 <_dtoa_r+0x188>
 800772a:	9b00      	ldr	r3, [sp, #0]
 800772c:	1bdb      	subs	r3, r3, r7
 800772e:	9300      	str	r3, [sp, #0]
 8007730:	427b      	negs	r3, r7
 8007732:	9308      	str	r3, [sp, #32]
 8007734:	2300      	movs	r3, #0
 8007736:	930d      	str	r3, [sp, #52]	@ 0x34
 8007738:	e7c3      	b.n	80076c2 <_dtoa_r+0x1b2>
 800773a:	2301      	movs	r3, #1
 800773c:	9309      	str	r3, [sp, #36]	@ 0x24
 800773e:	9b0c      	ldr	r3, [sp, #48]	@ 0x30
 8007740:	eb07 0b03 	add.w	fp, r7, r3
 8007744:	f10b 0301 	add.w	r3, fp, #1
 8007748:	2b01      	cmp	r3, #1
 800774a:	9303      	str	r3, [sp, #12]
 800774c:	bfb8      	it	lt
 800774e:	2301      	movlt	r3, #1
 8007750:	e006      	b.n	8007760 <_dtoa_r+0x250>
 8007752:	2301      	movs	r3, #1
 8007754:	9309      	str	r3, [sp, #36]	@ 0x24
 8007756:	9b0c      	ldr	r3, [sp, #48]	@ 0x30
 8007758:	2b00      	cmp	r3, #0
 800775a:	dd28      	ble.n	80077ae <_dtoa_r+0x29e>
 800775c:	469b      	mov	fp, r3
 800775e:	9303      	str	r3, [sp, #12]
 8007760:	f8d9 001c 	ldr.w	r0, [r9, #28]
 8007764:	2100      	movs	r1, #0
 8007766:	2204      	movs	r2, #4
 8007768:	f102 0514 	add.w	r5, r2, #20
 800776c:	429d      	cmp	r5, r3
 800776e:	d926      	bls.n	80077be <_dtoa_r+0x2ae>
 8007770:	6041      	str	r1, [r0, #4]
 8007772:	4648      	mov	r0, r9
 8007774:	f001 f8e8 	bl	8008948 <_Balloc>
 8007778:	4682      	mov	sl, r0
 800777a:	2800      	cmp	r0, #0
 800777c:	d142      	bne.n	8007804 <_dtoa_r+0x2f4>
 800777e:	4b1e      	ldr	r3, [pc, #120]	@ (80077f8 <_dtoa_r+0x2e8>)
 8007780:	4602      	mov	r2, r0
 8007782:	f240 11af 	movw	r1, #431	@ 0x1af
 8007786:	e6da      	b.n	800753e <_dtoa_r+0x2e>
 8007788:	2300      	movs	r3, #0
 800778a:	e7e3      	b.n	8007754 <_dtoa_r+0x244>
 800778c:	2300      	movs	r3, #0
 800778e:	e7d5      	b.n	800773c <_dtoa_r+0x22c>
 8007790:	2401      	movs	r4, #1
 8007792:	2300      	movs	r3, #0
 8007794:	9307      	str	r3, [sp, #28]
 8007796:	9409      	str	r4, [sp, #36]	@ 0x24
 8007798:	f04f 3bff 	mov.w	fp, #4294967295
 800779c:	2200      	movs	r2, #0
 800779e:	f8cd b00c 	str.w	fp, [sp, #12]
 80077a2:	2312      	movs	r3, #18
 80077a4:	920c      	str	r2, [sp, #48]	@ 0x30
 80077a6:	e7db      	b.n	8007760 <_dtoa_r+0x250>
 80077a8:	2301      	movs	r3, #1
 80077aa:	9309      	str	r3, [sp, #36]	@ 0x24
 80077ac:	e7f4      	b.n	8007798 <_dtoa_r+0x288>
 80077ae:	f04f 0b01 	mov.w	fp, #1
 80077b2:	f8cd b00c 	str.w	fp, [sp, #12]
 80077b6:	465b      	mov	r3, fp
 80077b8:	f8cd b030 	str.w	fp, [sp, #48]	@ 0x30
 80077bc:	e7d0      	b.n	8007760 <_dtoa_r+0x250>
 80077be:	3101      	adds	r1, #1
 80077c0:	0052      	lsls	r2, r2, #1
 80077c2:	e7d1      	b.n	8007768 <_dtoa_r+0x258>
 80077c4:	f3af 8000 	nop.w
 80077c8:	636f4361 	.word	0x636f4361
 80077cc:	3fd287a7 	.word	0x3fd287a7
 80077d0:	8b60c8b3 	.word	0x8b60c8b3
 80077d4:	3fc68a28 	.word	0x3fc68a28
 80077d8:	509f79fb 	.word	0x509f79fb
 80077dc:	3fd34413 	.word	0x3fd34413
 80077e0:	08009a8f 	.word	0x08009a8f
 80077e4:	08009aa6 	.word	0x08009aa6
 80077e8:	7ff00000 	.word	0x7ff00000
 80077ec:	08009a57 	.word	0x08009a57
 80077f0:	3ff80000 	.word	0x3ff80000
 80077f4:	08009da0 	.word	0x08009da0
 80077f8:	08009afe 	.word	0x08009afe
 80077fc:	08009a8b 	.word	0x08009a8b
 8007800:	08009a56 	.word	0x08009a56
 8007804:	f8d9 301c 	ldr.w	r3, [r9, #28]
 8007808:	6018      	str	r0, [r3, #0]
 800780a:	9b03      	ldr	r3, [sp, #12]
 800780c:	2b0e      	cmp	r3, #14
 800780e:	f200 80a1 	bhi.w	8007954 <_dtoa_r+0x444>
 8007812:	2c00      	cmp	r4, #0
 8007814:	f000 809e 	beq.w	8007954 <_dtoa_r+0x444>
 8007818:	2f00      	cmp	r7, #0
 800781a:	dd33      	ble.n	8007884 <_dtoa_r+0x374>
 800781c:	4b9c      	ldr	r3, [pc, #624]	@ (8007a90 <_dtoa_r+0x580>)
 800781e:	f007 020f 	and.w	r2, r7, #15
 8007822:	eb03 03c2 	add.w	r3, r3, r2, lsl #3
 8007826:	ed93 7b00 	vldr	d7, [r3]
 800782a:	05f8      	lsls	r0, r7, #23
 800782c:	ed8d 7b0e 	vstr	d7, [sp, #56]	@ 0x38
 8007830:	ea4f 1427 	mov.w	r4, r7, asr #4
 8007834:	d516      	bpl.n	8007864 <_dtoa_r+0x354>
 8007836:	4b97      	ldr	r3, [pc, #604]	@ (8007a94 <_dtoa_r+0x584>)
 8007838:	e9dd 010a 	ldrd	r0, r1, [sp, #40]	@ 0x28
 800783c:	e9d3 2308 	ldrd	r2, r3, [r3, #32]
 8007840:	f7f9 f80c 	bl	800085c <__aeabi_ddiv>
 8007844:	e9cd 0104 	strd	r0, r1, [sp, #16]
 8007848:	f004 040f 	and.w	r4, r4, #15
 800784c:	2603      	movs	r6, #3
 800784e:	4d91      	ldr	r5, [pc, #580]	@ (8007a94 <_dtoa_r+0x584>)
 8007850:	b954      	cbnz	r4, 8007868 <_dtoa_r+0x358>
 8007852:	e9dd 230e 	ldrd	r2, r3, [sp, #56]	@ 0x38
 8007856:	e9dd 0104 	ldrd	r0, r1, [sp, #16]
 800785a:	f7f8 ffff 	bl	800085c <__aeabi_ddiv>
 800785e:	e9cd 0104 	strd	r0, r1, [sp, #16]
 8007862:	e028      	b.n	80078b6 <_dtoa_r+0x3a6>
 8007864:	2602      	movs	r6, #2
 8007866:	e7f2      	b.n	800784e <_dtoa_r+0x33e>
 8007868:	07e1      	lsls	r1, r4, #31
 800786a:	d508      	bpl.n	800787e <_dtoa_r+0x36e>
 800786c:	e9dd 010e 	ldrd	r0, r1, [sp, #56]	@ 0x38
 8007870:	e9d5 2300 	ldrd	r2, r3, [r5]
 8007874:	f7f8 fec8 	bl	8000608 <__aeabi_dmul>
 8007878:	e9cd 010e 	strd	r0, r1, [sp, #56]	@ 0x38
 800787c:	3601      	adds	r6, #1
 800787e:	1064      	asrs	r4, r4, #1
 8007880:	3508      	adds	r5, #8
 8007882:	e7e5      	b.n	8007850 <_dtoa_r+0x340>
 8007884:	f000 80af 	beq.w	80079e6 <_dtoa_r+0x4d6>
 8007888:	427c      	negs	r4, r7
 800788a:	4b81      	ldr	r3, [pc, #516]	@ (8007a90 <_dtoa_r+0x580>)
 800788c:	4d81      	ldr	r5, [pc, #516]	@ (8007a94 <_dtoa_r+0x584>)
 800788e:	f004 020f 	and.w	r2, r4, #15
 8007892:	eb03 03c2 	add.w	r3, r3, r2, lsl #3
 8007896:	e9d3 2300 	ldrd	r2, r3, [r3]
 800789a:	e9dd 010a 	ldrd	r0, r1, [sp, #40]	@ 0x28
 800789e:	f7f8 feb3 	bl	8000608 <__aeabi_dmul>
 80078a2:	e9cd 0104 	strd	r0, r1, [sp, #16]
 80078a6:	1124      	asrs	r4, r4, #4
 80078a8:	2300      	movs	r3, #0
 80078aa:	2602      	movs	r6, #2
 80078ac:	2c00      	cmp	r4, #0
 80078ae:	f040 808f 	bne.w	80079d0 <_dtoa_r+0x4c0>
 80078b2:	2b00      	cmp	r3, #0
 80078b4:	d1d3      	bne.n	800785e <_dtoa_r+0x34e>
 80078b6:	9b10      	ldr	r3, [sp, #64]	@ 0x40
 80078b8:	e9dd 4504 	ldrd	r4, r5, [sp, #16]
 80078bc:	2b00      	cmp	r3, #0
 80078be:	f000 8094 	beq.w	80079ea <_dtoa_r+0x4da>
 80078c2:	4b75      	ldr	r3, [pc, #468]	@ (8007a98 <_dtoa_r+0x588>)
 80078c4:	2200      	movs	r2, #0
 80078c6:	4620      	mov	r0, r4
 80078c8:	4629      	mov	r1, r5
 80078ca:	f7f9 f90f 	bl	8000aec <__aeabi_dcmplt>
 80078ce:	2800      	cmp	r0, #0
 80078d0:	f000 808b 	beq.w	80079ea <_dtoa_r+0x4da>
 80078d4:	9b03      	ldr	r3, [sp, #12]
 80078d6:	2b00      	cmp	r3, #0
 80078d8:	f000 8087 	beq.w	80079ea <_dtoa_r+0x4da>
 80078dc:	f1bb 0f00 	cmp.w	fp, #0
 80078e0:	dd34      	ble.n	800794c <_dtoa_r+0x43c>
 80078e2:	4620      	mov	r0, r4
 80078e4:	4b6d      	ldr	r3, [pc, #436]	@ (8007a9c <_dtoa_r+0x58c>)
 80078e6:	2200      	movs	r2, #0
 80078e8:	4629      	mov	r1, r5
 80078ea:	f7f8 fe8d 	bl	8000608 <__aeabi_dmul>
 80078ee:	e9cd 0104 	strd	r0, r1, [sp, #16]
 80078f2:	f107 38ff 	add.w	r8, r7, #4294967295
 80078f6:	3601      	adds	r6, #1
 80078f8:	465c      	mov	r4, fp
 80078fa:	4630      	mov	r0, r6
 80078fc:	f7f8 fe1a 	bl	8000534 <__aeabi_i2d>
 8007900:	e9dd 2304 	ldrd	r2, r3, [sp, #16]
 8007904:	f7f8 fe80 	bl	8000608 <__aeabi_dmul>
 8007908:	4b65      	ldr	r3, [pc, #404]	@ (8007aa0 <_dtoa_r+0x590>)
 800790a:	2200      	movs	r2, #0
 800790c:	f7f8 fcc6 	bl	800029c <__adddf3>
 8007910:	4605      	mov	r5, r0
 8007912:	f1a1 7650 	sub.w	r6, r1, #54525952	@ 0x3400000
 8007916:	2c00      	cmp	r4, #0
 8007918:	d16a      	bne.n	80079f0 <_dtoa_r+0x4e0>
 800791a:	e9dd 0104 	ldrd	r0, r1, [sp, #16]
 800791e:	4b61      	ldr	r3, [pc, #388]	@ (8007aa4 <_dtoa_r+0x594>)
 8007920:	2200      	movs	r2, #0
 8007922:	f7f8 fcb9 	bl	8000298 <__aeabi_dsub>
 8007926:	4602      	mov	r2, r0
 8007928:	460b      	mov	r3, r1
 800792a:	e9cd 2304 	strd	r2, r3, [sp, #16]
 800792e:	462a      	mov	r2, r5
 8007930:	4633      	mov	r3, r6
 8007932:	f7f9 f8f9 	bl	8000b28 <__aeabi_dcmpgt>
 8007936:	2800      	cmp	r0, #0
 8007938:	f040 8298 	bne.w	8007e6c <_dtoa_r+0x95c>
 800793c:	e9dd 0104 	ldrd	r0, r1, [sp, #16]
 8007940:	462a      	mov	r2, r5
 8007942:	f106 4300 	add.w	r3, r6, #2147483648	@ 0x80000000
 8007946:	f7f9 f8d1 	bl	8000aec <__aeabi_dcmplt>
 800794a:	bb38      	cbnz	r0, 800799c <_dtoa_r+0x48c>
 800794c:	e9dd 340a 	ldrd	r3, r4, [sp, #40]	@ 0x28
 8007950:	e9cd 3404 	strd	r3, r4, [sp, #16]
 8007954:	9b15      	ldr	r3, [sp, #84]	@ 0x54
 8007956:	2b00      	cmp	r3, #0
 8007958:	f2c0 8157 	blt.w	8007c0a <_dtoa_r+0x6fa>
 800795c:	2f0e      	cmp	r7, #14
 800795e:	f300 8154 	bgt.w	8007c0a <_dtoa_r+0x6fa>
 8007962:	4b4b      	ldr	r3, [pc, #300]	@ (8007a90 <_dtoa_r+0x580>)
 8007964:	eb03 03c7 	add.w	r3, r3, r7, lsl #3
 8007968:	ed93 7b00 	vldr	d7, [r3]
 800796c:	9b0c      	ldr	r3, [sp, #48]	@ 0x30
 800796e:	2b00      	cmp	r3, #0
 8007970:	ed8d 7b00 	vstr	d7, [sp]
 8007974:	f280 80e5 	bge.w	8007b42 <_dtoa_r+0x632>
 8007978:	9b03      	ldr	r3, [sp, #12]
 800797a:	2b00      	cmp	r3, #0
 800797c:	f300 80e1 	bgt.w	8007b42 <_dtoa_r+0x632>
 8007980:	d10c      	bne.n	800799c <_dtoa_r+0x48c>
 8007982:	4b48      	ldr	r3, [pc, #288]	@ (8007aa4 <_dtoa_r+0x594>)
 8007984:	2200      	movs	r2, #0
 8007986:	ec51 0b17 	vmov	r0, r1, d7
 800798a:	f7f8 fe3d 	bl	8000608 <__aeabi_dmul>
 800798e:	e9dd 2304 	ldrd	r2, r3, [sp, #16]
 8007992:	f7f9 f8bf 	bl	8000b14 <__aeabi_dcmpge>
 8007996:	2800      	cmp	r0, #0
 8007998:	f000 8266 	beq.w	8007e68 <_dtoa_r+0x958>
 800799c:	2400      	movs	r4, #0
 800799e:	4625      	mov	r5, r4
 80079a0:	9b0c      	ldr	r3, [sp, #48]	@ 0x30
 80079a2:	4656      	mov	r6, sl
 80079a4:	ea6f 0803 	mvn.w	r8, r3
 80079a8:	2700      	movs	r7, #0
 80079aa:	4621      	mov	r1, r4
 80079ac:	4648      	mov	r0, r9
 80079ae:	f001 f80b 	bl	80089c8 <_Bfree>
 80079b2:	2d00      	cmp	r5, #0
 80079b4:	f000 80bd 	beq.w	8007b32 <_dtoa_r+0x622>
 80079b8:	b12f      	cbz	r7, 80079c6 <_dtoa_r+0x4b6>
 80079ba:	42af      	cmp	r7, r5
 80079bc:	d003      	beq.n	80079c6 <_dtoa_r+0x4b6>
 80079be:	4639      	mov	r1, r7
 80079c0:	4648      	mov	r0, r9
 80079c2:	f001 f801 	bl	80089c8 <_Bfree>
 80079c6:	4629      	mov	r1, r5
 80079c8:	4648      	mov	r0, r9
 80079ca:	f000 fffd 	bl	80089c8 <_Bfree>
 80079ce:	e0b0      	b.n	8007b32 <_dtoa_r+0x622>
 80079d0:	07e2      	lsls	r2, r4, #31
 80079d2:	d505      	bpl.n	80079e0 <_dtoa_r+0x4d0>
 80079d4:	e9d5 2300 	ldrd	r2, r3, [r5]
 80079d8:	f7f8 fe16 	bl	8000608 <__aeabi_dmul>
 80079dc:	3601      	adds	r6, #1
 80079de:	2301      	movs	r3, #1
 80079e0:	1064      	asrs	r4, r4, #1
 80079e2:	3508      	adds	r5, #8
 80079e4:	e762      	b.n	80078ac <_dtoa_r+0x39c>
 80079e6:	2602      	movs	r6, #2
 80079e8:	e765      	b.n	80078b6 <_dtoa_r+0x3a6>
 80079ea:	9c03      	ldr	r4, [sp, #12]
 80079ec:	46b8      	mov	r8, r7
 80079ee:	e784      	b.n	80078fa <_dtoa_r+0x3ea>
 80079f0:	4b27      	ldr	r3, [pc, #156]	@ (8007a90 <_dtoa_r+0x580>)
 80079f2:	9909      	ldr	r1, [sp, #36]	@ 0x24
 80079f4:	eb03 03c4 	add.w	r3, r3, r4, lsl #3
 80079f8:	e953 2302 	ldrd	r2, r3, [r3, #-8]
 80079fc:	4454      	add	r4, sl
 80079fe:	2900      	cmp	r1, #0
 8007a00:	d054      	beq.n	8007aac <_dtoa_r+0x59c>
 8007a02:	4929      	ldr	r1, [pc, #164]	@ (8007aa8 <_dtoa_r+0x598>)
 8007a04:	2000      	movs	r0, #0
 8007a06:	f7f8 ff29 	bl	800085c <__aeabi_ddiv>
 8007a0a:	4633      	mov	r3, r6
 8007a0c:	462a      	mov	r2, r5
 8007a0e:	f7f8 fc43 	bl	8000298 <__aeabi_dsub>
 8007a12:	e9cd 010e 	strd	r0, r1, [sp, #56]	@ 0x38
 8007a16:	4656      	mov	r6, sl
 8007a18:	e9dd 0104 	ldrd	r0, r1, [sp, #16]
 8007a1c:	f7f9 f8a4 	bl	8000b68 <__aeabi_d2iz>
 8007a20:	4605      	mov	r5, r0
 8007a22:	f7f8 fd87 	bl	8000534 <__aeabi_i2d>
 8007a26:	4602      	mov	r2, r0
 8007a28:	460b      	mov	r3, r1
 8007a2a:	e9dd 0104 	ldrd	r0, r1, [sp, #16]
 8007a2e:	f7f8 fc33 	bl	8000298 <__aeabi_dsub>
 8007a32:	3530      	adds	r5, #48	@ 0x30
 8007a34:	4602      	mov	r2, r0
 8007a36:	460b      	mov	r3, r1
 8007a38:	e9cd 2304 	strd	r2, r3, [sp, #16]
 8007a3c:	f806 5b01 	strb.w	r5, [r6], #1
 8007a40:	e9dd 230e 	ldrd	r2, r3, [sp, #56]	@ 0x38
 8007a44:	f7f9 f852 	bl	8000aec <__aeabi_dcmplt>
 8007a48:	2800      	cmp	r0, #0
 8007a4a:	d172      	bne.n	8007b32 <_dtoa_r+0x622>
 8007a4c:	e9dd 2304 	ldrd	r2, r3, [sp, #16]
 8007a50:	4911      	ldr	r1, [pc, #68]	@ (8007a98 <_dtoa_r+0x588>)
 8007a52:	2000      	movs	r0, #0
 8007a54:	f7f8 fc20 	bl	8000298 <__aeabi_dsub>
 8007a58:	e9dd 230e 	ldrd	r2, r3, [sp, #56]	@ 0x38
 8007a5c:	f7f9 f846 	bl	8000aec <__aeabi_dcmplt>
 8007a60:	2800      	cmp	r0, #0
 8007a62:	f040 80b4 	bne.w	8007bce <_dtoa_r+0x6be>
 8007a66:	42a6      	cmp	r6, r4
 8007a68:	f43f af70 	beq.w	800794c <_dtoa_r+0x43c>
 8007a6c:	e9dd 010e 	ldrd	r0, r1, [sp, #56]	@ 0x38
 8007a70:	4b0a      	ldr	r3, [pc, #40]	@ (8007a9c <_dtoa_r+0x58c>)
 8007a72:	2200      	movs	r2, #0
 8007a74:	f7f8 fdc8 	bl	8000608 <__aeabi_dmul>
 8007a78:	4b08      	ldr	r3, [pc, #32]	@ (8007a9c <_dtoa_r+0x58c>)
 8007a7a:	e9cd 010e 	strd	r0, r1, [sp, #56]	@ 0x38
 8007a7e:	2200      	movs	r2, #0
 8007a80:	e9dd 0104 	ldrd	r0, r1, [sp, #16]
 8007a84:	f7f8 fdc0 	bl	8000608 <__aeabi_dmul>
 8007a88:	e9cd 0104 	strd	r0, r1, [sp, #16]
 8007a8c:	e7c4      	b.n	8007a18 <_dtoa_r+0x508>
 8007a8e:	bf00      	nop
 8007a90:	08009da0 	.word	0x08009da0
 8007a94:	08009d78 	.word	0x08009d78
 8007a98:	3ff00000 	.word	0x3ff00000
 8007a9c:	40240000 	.word	0x40240000
 8007aa0:	401c0000 	.word	0x401c0000
 8007aa4:	40140000 	.word	0x40140000
 8007aa8:	3fe00000 	.word	0x3fe00000
 8007aac:	4631      	mov	r1, r6
 8007aae:	4628      	mov	r0, r5
 8007ab0:	f7f8 fdaa 	bl	8000608 <__aeabi_dmul>
 8007ab4:	e9cd 010e 	strd	r0, r1, [sp, #56]	@ 0x38
 8007ab8:	9413      	str	r4, [sp, #76]	@ 0x4c
 8007aba:	4656      	mov	r6, sl
 8007abc:	e9dd 0104 	ldrd	r0, r1, [sp, #16]
 8007ac0:	f7f9 f852 	bl	8000b68 <__aeabi_d2iz>
 8007ac4:	4605      	mov	r5, r0
 8007ac6:	f7f8 fd35 	bl	8000534 <__aeabi_i2d>
 8007aca:	4602      	mov	r2, r0
 8007acc:	460b      	mov	r3, r1
 8007ace:	e9dd 0104 	ldrd	r0, r1, [sp, #16]
 8007ad2:	f7f8 fbe1 	bl	8000298 <__aeabi_dsub>
 8007ad6:	3530      	adds	r5, #48	@ 0x30
 8007ad8:	f806 5b01 	strb.w	r5, [r6], #1
 8007adc:	4602      	mov	r2, r0
 8007ade:	460b      	mov	r3, r1
 8007ae0:	42a6      	cmp	r6, r4
 8007ae2:	e9cd 2304 	strd	r2, r3, [sp, #16]
 8007ae6:	f04f 0200 	mov.w	r2, #0
 8007aea:	d124      	bne.n	8007b36 <_dtoa_r+0x626>
 8007aec:	4baf      	ldr	r3, [pc, #700]	@ (8007dac <_dtoa_r+0x89c>)
 8007aee:	e9dd 010e 	ldrd	r0, r1, [sp, #56]	@ 0x38
 8007af2:	f7f8 fbd3 	bl	800029c <__adddf3>
 8007af6:	4602      	mov	r2, r0
 8007af8:	460b      	mov	r3, r1
 8007afa:	e9dd 0104 	ldrd	r0, r1, [sp, #16]
 8007afe:	f7f9 f813 	bl	8000b28 <__aeabi_dcmpgt>
 8007b02:	2800      	cmp	r0, #0
 8007b04:	d163      	bne.n	8007bce <_dtoa_r+0x6be>
 8007b06:	e9dd 230e 	ldrd	r2, r3, [sp, #56]	@ 0x38
 8007b0a:	49a8      	ldr	r1, [pc, #672]	@ (8007dac <_dtoa_r+0x89c>)
 8007b0c:	2000      	movs	r0, #0
 8007b0e:	f7f8 fbc3 	bl	8000298 <__aeabi_dsub>
 8007b12:	4602      	mov	r2, r0
 8007b14:	460b      	mov	r3, r1
 8007b16:	e9dd 0104 	ldrd	r0, r1, [sp, #16]
 8007b1a:	f7f8 ffe7 	bl	8000aec <__aeabi_dcmplt>
 8007b1e:	2800      	cmp	r0, #0
 8007b20:	f43f af14 	beq.w	800794c <_dtoa_r+0x43c>
 8007b24:	9e13      	ldr	r6, [sp, #76]	@ 0x4c
 8007b26:	1e73      	subs	r3, r6, #1
 8007b28:	9313      	str	r3, [sp, #76]	@ 0x4c
 8007b2a:	f816 3c01 	ldrb.w	r3, [r6, #-1]
 8007b2e:	2b30      	cmp	r3, #48	@ 0x30
 8007b30:	d0f8      	beq.n	8007b24 <_dtoa_r+0x614>
 8007b32:	4647      	mov	r7, r8
 8007b34:	e03b      	b.n	8007bae <_dtoa_r+0x69e>
 8007b36:	4b9e      	ldr	r3, [pc, #632]	@ (8007db0 <_dtoa_r+0x8a0>)
 8007b38:	f7f8 fd66 	bl	8000608 <__aeabi_dmul>
 8007b3c:	e9cd 0104 	strd	r0, r1, [sp, #16]
 8007b40:	e7bc      	b.n	8007abc <_dtoa_r+0x5ac>
 8007b42:	e9dd 4504 	ldrd	r4, r5, [sp, #16]
 8007b46:	4656      	mov	r6, sl
 8007b48:	e9dd 2300 	ldrd	r2, r3, [sp]
 8007b4c:	4620      	mov	r0, r4
 8007b4e:	4629      	mov	r1, r5
 8007b50:	f7f8 fe84 	bl	800085c <__aeabi_ddiv>
 8007b54:	f7f9 f808 	bl	8000b68 <__aeabi_d2iz>
 8007b58:	4680      	mov	r8, r0
 8007b5a:	f7f8 fceb 	bl	8000534 <__aeabi_i2d>
 8007b5e:	e9dd 2300 	ldrd	r2, r3, [sp]
 8007b62:	f7f8 fd51 	bl	8000608 <__aeabi_dmul>
 8007b66:	4602      	mov	r2, r0
 8007b68:	460b      	mov	r3, r1
 8007b6a:	4620      	mov	r0, r4
 8007b6c:	4629      	mov	r1, r5
 8007b6e:	f108 0430 	add.w	r4, r8, #48	@ 0x30
 8007b72:	f7f8 fb91 	bl	8000298 <__aeabi_dsub>
 8007b76:	f806 4b01 	strb.w	r4, [r6], #1
 8007b7a:	9d03      	ldr	r5, [sp, #12]
 8007b7c:	eba6 040a 	sub.w	r4, r6, sl
 8007b80:	42a5      	cmp	r5, r4
 8007b82:	4602      	mov	r2, r0
 8007b84:	460b      	mov	r3, r1
 8007b86:	d133      	bne.n	8007bf0 <_dtoa_r+0x6e0>
 8007b88:	f7f8 fb88 	bl	800029c <__adddf3>
 8007b8c:	e9dd 2300 	ldrd	r2, r3, [sp]
 8007b90:	4604      	mov	r4, r0
 8007b92:	460d      	mov	r5, r1
 8007b94:	f7f8 ffc8 	bl	8000b28 <__aeabi_dcmpgt>
 8007b98:	b9c0      	cbnz	r0, 8007bcc <_dtoa_r+0x6bc>
 8007b9a:	e9dd 2300 	ldrd	r2, r3, [sp]
 8007b9e:	4620      	mov	r0, r4
 8007ba0:	4629      	mov	r1, r5
 8007ba2:	f7f8 ff99 	bl	8000ad8 <__aeabi_dcmpeq>
 8007ba6:	b110      	cbz	r0, 8007bae <_dtoa_r+0x69e>
 8007ba8:	f018 0f01 	tst.w	r8, #1
 8007bac:	d10e      	bne.n	8007bcc <_dtoa_r+0x6bc>
 8007bae:	9902      	ldr	r1, [sp, #8]
 8007bb0:	4648      	mov	r0, r9
 8007bb2:	f000 ff09 	bl	80089c8 <_Bfree>
 8007bb6:	2300      	movs	r3, #0
 8007bb8:	7033      	strb	r3, [r6, #0]
 8007bba:	9b11      	ldr	r3, [sp, #68]	@ 0x44
 8007bbc:	3701      	adds	r7, #1
 8007bbe:	601f      	str	r7, [r3, #0]
 8007bc0:	9b21      	ldr	r3, [sp, #132]	@ 0x84
 8007bc2:	2b00      	cmp	r3, #0
 8007bc4:	f000 824b 	beq.w	800805e <_dtoa_r+0xb4e>
 8007bc8:	601e      	str	r6, [r3, #0]
 8007bca:	e248      	b.n	800805e <_dtoa_r+0xb4e>
 8007bcc:	46b8      	mov	r8, r7
 8007bce:	4633      	mov	r3, r6
 8007bd0:	461e      	mov	r6, r3
 8007bd2:	f813 2d01 	ldrb.w	r2, [r3, #-1]!
 8007bd6:	2a39      	cmp	r2, #57	@ 0x39
 8007bd8:	d106      	bne.n	8007be8 <_dtoa_r+0x6d8>
 8007bda:	459a      	cmp	sl, r3
 8007bdc:	d1f8      	bne.n	8007bd0 <_dtoa_r+0x6c0>
 8007bde:	2230      	movs	r2, #48	@ 0x30
 8007be0:	f108 0801 	add.w	r8, r8, #1
 8007be4:	f88a 2000 	strb.w	r2, [sl]
 8007be8:	781a      	ldrb	r2, [r3, #0]
 8007bea:	3201      	adds	r2, #1
 8007bec:	701a      	strb	r2, [r3, #0]
 8007bee:	e7a0      	b.n	8007b32 <_dtoa_r+0x622>
 8007bf0:	4b6f      	ldr	r3, [pc, #444]	@ (8007db0 <_dtoa_r+0x8a0>)
 8007bf2:	2200      	movs	r2, #0
 8007bf4:	f7f8 fd08 	bl	8000608 <__aeabi_dmul>
 8007bf8:	2200      	movs	r2, #0
 8007bfa:	2300      	movs	r3, #0
 8007bfc:	4604      	mov	r4, r0
 8007bfe:	460d      	mov	r5, r1
 8007c00:	f7f8 ff6a 	bl	8000ad8 <__aeabi_dcmpeq>
 8007c04:	2800      	cmp	r0, #0
 8007c06:	d09f      	beq.n	8007b48 <_dtoa_r+0x638>
 8007c08:	e7d1      	b.n	8007bae <_dtoa_r+0x69e>
 8007c0a:	9a09      	ldr	r2, [sp, #36]	@ 0x24
 8007c0c:	2a00      	cmp	r2, #0
 8007c0e:	f000 80ea 	beq.w	8007de6 <_dtoa_r+0x8d6>
 8007c12:	9a07      	ldr	r2, [sp, #28]
 8007c14:	2a01      	cmp	r2, #1
 8007c16:	f300 80cd 	bgt.w	8007db4 <_dtoa_r+0x8a4>
 8007c1a:	9a12      	ldr	r2, [sp, #72]	@ 0x48
 8007c1c:	2a00      	cmp	r2, #0
 8007c1e:	f000 80c1 	beq.w	8007da4 <_dtoa_r+0x894>
 8007c22:	f203 4333 	addw	r3, r3, #1075	@ 0x433
 8007c26:	9c08      	ldr	r4, [sp, #32]
 8007c28:	9e00      	ldr	r6, [sp, #0]
 8007c2a:	9a00      	ldr	r2, [sp, #0]
 8007c2c:	441a      	add	r2, r3
 8007c2e:	9200      	str	r2, [sp, #0]
 8007c30:	9a06      	ldr	r2, [sp, #24]
 8007c32:	2101      	movs	r1, #1
 8007c34:	441a      	add	r2, r3
 8007c36:	4648      	mov	r0, r9
 8007c38:	9206      	str	r2, [sp, #24]
 8007c3a:	f000 ffc3 	bl	8008bc4 <__i2b>
 8007c3e:	4605      	mov	r5, r0
 8007c40:	b166      	cbz	r6, 8007c5c <_dtoa_r+0x74c>
 8007c42:	9b06      	ldr	r3, [sp, #24]
 8007c44:	2b00      	cmp	r3, #0
 8007c46:	dd09      	ble.n	8007c5c <_dtoa_r+0x74c>
 8007c48:	42b3      	cmp	r3, r6
 8007c4a:	9a00      	ldr	r2, [sp, #0]
 8007c4c:	bfa8      	it	ge
 8007c4e:	4633      	movge	r3, r6
 8007c50:	1ad2      	subs	r2, r2, r3
 8007c52:	9200      	str	r2, [sp, #0]
 8007c54:	9a06      	ldr	r2, [sp, #24]
 8007c56:	1af6      	subs	r6, r6, r3
 8007c58:	1ad3      	subs	r3, r2, r3
 8007c5a:	9306      	str	r3, [sp, #24]
 8007c5c:	9b08      	ldr	r3, [sp, #32]
 8007c5e:	b30b      	cbz	r3, 8007ca4 <_dtoa_r+0x794>
 8007c60:	9b09      	ldr	r3, [sp, #36]	@ 0x24
 8007c62:	2b00      	cmp	r3, #0
 8007c64:	f000 80c6 	beq.w	8007df4 <_dtoa_r+0x8e4>
 8007c68:	2c00      	cmp	r4, #0
 8007c6a:	f000 80c0 	beq.w	8007dee <_dtoa_r+0x8de>
 8007c6e:	4629      	mov	r1, r5
 8007c70:	4622      	mov	r2, r4
 8007c72:	4648      	mov	r0, r9
 8007c74:	f001 f85e 	bl	8008d34 <__pow5mult>
 8007c78:	9a02      	ldr	r2, [sp, #8]
 8007c7a:	4601      	mov	r1, r0
 8007c7c:	4605      	mov	r5, r0
 8007c7e:	4648      	mov	r0, r9
 8007c80:	f000 ffb6 	bl	8008bf0 <__multiply>
 8007c84:	9902      	ldr	r1, [sp, #8]
 8007c86:	4680      	mov	r8, r0
 8007c88:	4648      	mov	r0, r9
 8007c8a:	f000 fe9d 	bl	80089c8 <_Bfree>
 8007c8e:	9b08      	ldr	r3, [sp, #32]
 8007c90:	1b1b      	subs	r3, r3, r4
 8007c92:	9308      	str	r3, [sp, #32]
 8007c94:	f000 80b1 	beq.w	8007dfa <_dtoa_r+0x8ea>
 8007c98:	9a08      	ldr	r2, [sp, #32]
 8007c9a:	4641      	mov	r1, r8
 8007c9c:	4648      	mov	r0, r9
 8007c9e:	f001 f849 	bl	8008d34 <__pow5mult>
 8007ca2:	9002      	str	r0, [sp, #8]
 8007ca4:	2101      	movs	r1, #1
 8007ca6:	4648      	mov	r0, r9
 8007ca8:	f000 ff8c 	bl	8008bc4 <__i2b>
 8007cac:	9b0d      	ldr	r3, [sp, #52]	@ 0x34
 8007cae:	4604      	mov	r4, r0
 8007cb0:	2b00      	cmp	r3, #0
 8007cb2:	f000 81d8 	beq.w	8008066 <_dtoa_r+0xb56>
 8007cb6:	461a      	mov	r2, r3
 8007cb8:	4601      	mov	r1, r0
 8007cba:	4648      	mov	r0, r9
 8007cbc:	f001 f83a 	bl	8008d34 <__pow5mult>
 8007cc0:	9b07      	ldr	r3, [sp, #28]
 8007cc2:	2b01      	cmp	r3, #1
 8007cc4:	4604      	mov	r4, r0
 8007cc6:	f300 809f 	bgt.w	8007e08 <_dtoa_r+0x8f8>
 8007cca:	9b04      	ldr	r3, [sp, #16]
 8007ccc:	2b00      	cmp	r3, #0
 8007cce:	f040 8097 	bne.w	8007e00 <_dtoa_r+0x8f0>
 8007cd2:	9b05      	ldr	r3, [sp, #20]
 8007cd4:	f3c3 0313 	ubfx	r3, r3, #0, #20
 8007cd8:	2b00      	cmp	r3, #0
 8007cda:	f040 8093 	bne.w	8007e04 <_dtoa_r+0x8f4>
 8007cde:	9b05      	ldr	r3, [sp, #20]
 8007ce0:	f023 4300 	bic.w	r3, r3, #2147483648	@ 0x80000000
 8007ce4:	0d1b      	lsrs	r3, r3, #20
 8007ce6:	051b      	lsls	r3, r3, #20
 8007ce8:	b133      	cbz	r3, 8007cf8 <_dtoa_r+0x7e8>
 8007cea:	9b00      	ldr	r3, [sp, #0]
 8007cec:	3301      	adds	r3, #1
 8007cee:	9300      	str	r3, [sp, #0]
 8007cf0:	9b06      	ldr	r3, [sp, #24]
 8007cf2:	3301      	adds	r3, #1
 8007cf4:	9306      	str	r3, [sp, #24]
 8007cf6:	2301      	movs	r3, #1
 8007cf8:	9308      	str	r3, [sp, #32]
 8007cfa:	9b0d      	ldr	r3, [sp, #52]	@ 0x34
 8007cfc:	2b00      	cmp	r3, #0
 8007cfe:	f000 81b8 	beq.w	8008072 <_dtoa_r+0xb62>
 8007d02:	6923      	ldr	r3, [r4, #16]
 8007d04:	eb04 0383 	add.w	r3, r4, r3, lsl #2
 8007d08:	6918      	ldr	r0, [r3, #16]
 8007d0a:	f000 ff0f 	bl	8008b2c <__hi0bits>
 8007d0e:	f1c0 0020 	rsb	r0, r0, #32
 8007d12:	9b06      	ldr	r3, [sp, #24]
 8007d14:	4418      	add	r0, r3
 8007d16:	f010 001f 	ands.w	r0, r0, #31
 8007d1a:	f000 8082 	beq.w	8007e22 <_dtoa_r+0x912>
 8007d1e:	f1c0 0320 	rsb	r3, r0, #32
 8007d22:	2b04      	cmp	r3, #4
 8007d24:	dd73      	ble.n	8007e0e <_dtoa_r+0x8fe>
 8007d26:	9b00      	ldr	r3, [sp, #0]
 8007d28:	f1c0 001c 	rsb	r0, r0, #28
 8007d2c:	4403      	add	r3, r0
 8007d2e:	9300      	str	r3, [sp, #0]
 8007d30:	9b06      	ldr	r3, [sp, #24]
 8007d32:	4403      	add	r3, r0
 8007d34:	4406      	add	r6, r0
 8007d36:	9306      	str	r3, [sp, #24]
 8007d38:	9b00      	ldr	r3, [sp, #0]
 8007d3a:	2b00      	cmp	r3, #0
 8007d3c:	dd05      	ble.n	8007d4a <_dtoa_r+0x83a>
 8007d3e:	9902      	ldr	r1, [sp, #8]
 8007d40:	461a      	mov	r2, r3
 8007d42:	4648      	mov	r0, r9
 8007d44:	f001 f850 	bl	8008de8 <__lshift>
 8007d48:	9002      	str	r0, [sp, #8]
 8007d4a:	9b06      	ldr	r3, [sp, #24]
 8007d4c:	2b00      	cmp	r3, #0
 8007d4e:	dd05      	ble.n	8007d5c <_dtoa_r+0x84c>
 8007d50:	4621      	mov	r1, r4
 8007d52:	461a      	mov	r2, r3
 8007d54:	4648      	mov	r0, r9
 8007d56:	f001 f847 	bl	8008de8 <__lshift>
 8007d5a:	4604      	mov	r4, r0
 8007d5c:	9b10      	ldr	r3, [sp, #64]	@ 0x40
 8007d5e:	2b00      	cmp	r3, #0
 8007d60:	d061      	beq.n	8007e26 <_dtoa_r+0x916>
 8007d62:	9802      	ldr	r0, [sp, #8]
 8007d64:	4621      	mov	r1, r4
 8007d66:	f001 f8ab 	bl	8008ec0 <__mcmp>
 8007d6a:	2800      	cmp	r0, #0
 8007d6c:	da5b      	bge.n	8007e26 <_dtoa_r+0x916>
 8007d6e:	2300      	movs	r3, #0
 8007d70:	9902      	ldr	r1, [sp, #8]
 8007d72:	220a      	movs	r2, #10
 8007d74:	4648      	mov	r0, r9
 8007d76:	f000 fe49 	bl	8008a0c <__multadd>
 8007d7a:	9b09      	ldr	r3, [sp, #36]	@ 0x24
 8007d7c:	9002      	str	r0, [sp, #8]
 8007d7e:	f107 38ff 	add.w	r8, r7, #4294967295
 8007d82:	2b00      	cmp	r3, #0
 8007d84:	f000 8177 	beq.w	8008076 <_dtoa_r+0xb66>
 8007d88:	4629      	mov	r1, r5
 8007d8a:	2300      	movs	r3, #0
 8007d8c:	220a      	movs	r2, #10
 8007d8e:	4648      	mov	r0, r9
 8007d90:	f000 fe3c 	bl	8008a0c <__multadd>
 8007d94:	f1bb 0f00 	cmp.w	fp, #0
 8007d98:	4605      	mov	r5, r0
 8007d9a:	dc6f      	bgt.n	8007e7c <_dtoa_r+0x96c>
 8007d9c:	9b07      	ldr	r3, [sp, #28]
 8007d9e:	2b02      	cmp	r3, #2
 8007da0:	dc49      	bgt.n	8007e36 <_dtoa_r+0x926>
 8007da2:	e06b      	b.n	8007e7c <_dtoa_r+0x96c>
 8007da4:	9b14      	ldr	r3, [sp, #80]	@ 0x50
 8007da6:	f1c3 0336 	rsb	r3, r3, #54	@ 0x36
 8007daa:	e73c      	b.n	8007c26 <_dtoa_r+0x716>
 8007dac:	3fe00000 	.word	0x3fe00000
 8007db0:	40240000 	.word	0x40240000
 8007db4:	9b03      	ldr	r3, [sp, #12]
 8007db6:	1e5c      	subs	r4, r3, #1
 8007db8:	9b08      	ldr	r3, [sp, #32]
 8007dba:	42a3      	cmp	r3, r4
 8007dbc:	db09      	blt.n	8007dd2 <_dtoa_r+0x8c2>
 8007dbe:	1b1c      	subs	r4, r3, r4
 8007dc0:	9b03      	ldr	r3, [sp, #12]
 8007dc2:	2b00      	cmp	r3, #0
 8007dc4:	f6bf af30 	bge.w	8007c28 <_dtoa_r+0x718>
 8007dc8:	9b00      	ldr	r3, [sp, #0]
 8007dca:	9a03      	ldr	r2, [sp, #12]
 8007dcc:	1a9e      	subs	r6, r3, r2
 8007dce:	2300      	movs	r3, #0
 8007dd0:	e72b      	b.n	8007c2a <_dtoa_r+0x71a>
 8007dd2:	9b08      	ldr	r3, [sp, #32]
 8007dd4:	9a0d      	ldr	r2, [sp, #52]	@ 0x34
 8007dd6:	9408      	str	r4, [sp, #32]
 8007dd8:	1ae3      	subs	r3, r4, r3
 8007dda:	441a      	add	r2, r3
 8007ddc:	9e00      	ldr	r6, [sp, #0]
 8007dde:	9b03      	ldr	r3, [sp, #12]
 8007de0:	920d      	str	r2, [sp, #52]	@ 0x34
 8007de2:	2400      	movs	r4, #0
 8007de4:	e721      	b.n	8007c2a <_dtoa_r+0x71a>
 8007de6:	9c08      	ldr	r4, [sp, #32]
 8007de8:	9e00      	ldr	r6, [sp, #0]
 8007dea:	9d09      	ldr	r5, [sp, #36]	@ 0x24
 8007dec:	e728      	b.n	8007c40 <_dtoa_r+0x730>
 8007dee:	f8dd 8008 	ldr.w	r8, [sp, #8]
 8007df2:	e751      	b.n	8007c98 <_dtoa_r+0x788>
 8007df4:	9a08      	ldr	r2, [sp, #32]
 8007df6:	9902      	ldr	r1, [sp, #8]
 8007df8:	e750      	b.n	8007c9c <_dtoa_r+0x78c>
 8007dfa:	f8cd 8008 	str.w	r8, [sp, #8]
 8007dfe:	e751      	b.n	8007ca4 <_dtoa_r+0x794>
 8007e00:	2300      	movs	r3, #0
 8007e02:	e779      	b.n	8007cf8 <_dtoa_r+0x7e8>
 8007e04:	9b04      	ldr	r3, [sp, #16]
 8007e06:	e777      	b.n	8007cf8 <_dtoa_r+0x7e8>
 8007e08:	2300      	movs	r3, #0
 8007e0a:	9308      	str	r3, [sp, #32]
 8007e0c:	e779      	b.n	8007d02 <_dtoa_r+0x7f2>
 8007e0e:	d093      	beq.n	8007d38 <_dtoa_r+0x828>
 8007e10:	9a00      	ldr	r2, [sp, #0]
 8007e12:	331c      	adds	r3, #28
 8007e14:	441a      	add	r2, r3
 8007e16:	9200      	str	r2, [sp, #0]
 8007e18:	9a06      	ldr	r2, [sp, #24]
 8007e1a:	441a      	add	r2, r3
 8007e1c:	441e      	add	r6, r3
 8007e1e:	9206      	str	r2, [sp, #24]
 8007e20:	e78a      	b.n	8007d38 <_dtoa_r+0x828>
 8007e22:	4603      	mov	r3, r0
 8007e24:	e7f4      	b.n	8007e10 <_dtoa_r+0x900>
 8007e26:	9b03      	ldr	r3, [sp, #12]
 8007e28:	2b00      	cmp	r3, #0
 8007e2a:	46b8      	mov	r8, r7
 8007e2c:	dc20      	bgt.n	8007e70 <_dtoa_r+0x960>
 8007e2e:	469b      	mov	fp, r3
 8007e30:	9b07      	ldr	r3, [sp, #28]
 8007e32:	2b02      	cmp	r3, #2
 8007e34:	dd1e      	ble.n	8007e74 <_dtoa_r+0x964>
 8007e36:	f1bb 0f00 	cmp.w	fp, #0
 8007e3a:	f47f adb1 	bne.w	80079a0 <_dtoa_r+0x490>
 8007e3e:	4621      	mov	r1, r4
 8007e40:	465b      	mov	r3, fp
 8007e42:	2205      	movs	r2, #5
 8007e44:	4648      	mov	r0, r9
 8007e46:	f000 fde1 	bl	8008a0c <__multadd>
 8007e4a:	4601      	mov	r1, r0
 8007e4c:	4604      	mov	r4, r0
 8007e4e:	9802      	ldr	r0, [sp, #8]
 8007e50:	f001 f836 	bl	8008ec0 <__mcmp>
 8007e54:	2800      	cmp	r0, #0
 8007e56:	f77f ada3 	ble.w	80079a0 <_dtoa_r+0x490>
 8007e5a:	4656      	mov	r6, sl
 8007e5c:	2331      	movs	r3, #49	@ 0x31
 8007e5e:	f806 3b01 	strb.w	r3, [r6], #1
 8007e62:	f108 0801 	add.w	r8, r8, #1
 8007e66:	e59f      	b.n	80079a8 <_dtoa_r+0x498>
 8007e68:	9c03      	ldr	r4, [sp, #12]
 8007e6a:	46b8      	mov	r8, r7
 8007e6c:	4625      	mov	r5, r4
 8007e6e:	e7f4      	b.n	8007e5a <_dtoa_r+0x94a>
 8007e70:	f8dd b00c 	ldr.w	fp, [sp, #12]
 8007e74:	9b09      	ldr	r3, [sp, #36]	@ 0x24
 8007e76:	2b00      	cmp	r3, #0
 8007e78:	f000 8101 	beq.w	800807e <_dtoa_r+0xb6e>
 8007e7c:	2e00      	cmp	r6, #0
 8007e7e:	dd05      	ble.n	8007e8c <_dtoa_r+0x97c>
 8007e80:	4629      	mov	r1, r5
 8007e82:	4632      	mov	r2, r6
 8007e84:	4648      	mov	r0, r9
 8007e86:	f000 ffaf 	bl	8008de8 <__lshift>
 8007e8a:	4605      	mov	r5, r0
 8007e8c:	9b08      	ldr	r3, [sp, #32]
 8007e8e:	2b00      	cmp	r3, #0
 8007e90:	d05c      	beq.n	8007f4c <_dtoa_r+0xa3c>
 8007e92:	6869      	ldr	r1, [r5, #4]
 8007e94:	4648      	mov	r0, r9
 8007e96:	f000 fd57 	bl	8008948 <_Balloc>
 8007e9a:	4606      	mov	r6, r0
 8007e9c:	b928      	cbnz	r0, 8007eaa <_dtoa_r+0x99a>
 8007e9e:	4b82      	ldr	r3, [pc, #520]	@ (80080a8 <_dtoa_r+0xb98>)
 8007ea0:	4602      	mov	r2, r0
 8007ea2:	f240 21ef 	movw	r1, #751	@ 0x2ef
 8007ea6:	f7ff bb4a 	b.w	800753e <_dtoa_r+0x2e>
 8007eaa:	692a      	ldr	r2, [r5, #16]
 8007eac:	3202      	adds	r2, #2
 8007eae:	0092      	lsls	r2, r2, #2
 8007eb0:	f105 010c 	add.w	r1, r5, #12
 8007eb4:	300c      	adds	r0, #12
 8007eb6:	f7ff fa8c 	bl	80073d2 <memcpy>
 8007eba:	2201      	movs	r2, #1
 8007ebc:	4631      	mov	r1, r6
 8007ebe:	4648      	mov	r0, r9
 8007ec0:	f000 ff92 	bl	8008de8 <__lshift>
 8007ec4:	f10a 0301 	add.w	r3, sl, #1
 8007ec8:	9300      	str	r3, [sp, #0]
 8007eca:	eb0a 030b 	add.w	r3, sl, fp
 8007ece:	9308      	str	r3, [sp, #32]
 8007ed0:	9b04      	ldr	r3, [sp, #16]
 8007ed2:	f003 0301 	and.w	r3, r3, #1
 8007ed6:	462f      	mov	r7, r5
 8007ed8:	9306      	str	r3, [sp, #24]
 8007eda:	4605      	mov	r5, r0
 8007edc:	9b00      	ldr	r3, [sp, #0]
 8007ede:	9802      	ldr	r0, [sp, #8]
 8007ee0:	4621      	mov	r1, r4
 8007ee2:	f103 3bff 	add.w	fp, r3, #4294967295
 8007ee6:	f7ff fa8b 	bl	8007400 <quorem>
 8007eea:	4603      	mov	r3, r0
 8007eec:	3330      	adds	r3, #48	@ 0x30
 8007eee:	9003      	str	r0, [sp, #12]
 8007ef0:	4639      	mov	r1, r7
 8007ef2:	9802      	ldr	r0, [sp, #8]
 8007ef4:	9309      	str	r3, [sp, #36]	@ 0x24
 8007ef6:	f000 ffe3 	bl	8008ec0 <__mcmp>
 8007efa:	462a      	mov	r2, r5
 8007efc:	9004      	str	r0, [sp, #16]
 8007efe:	4621      	mov	r1, r4
 8007f00:	4648      	mov	r0, r9
 8007f02:	f000 fff9 	bl	8008ef8 <__mdiff>
 8007f06:	68c2      	ldr	r2, [r0, #12]
 8007f08:	9b09      	ldr	r3, [sp, #36]	@ 0x24
 8007f0a:	4606      	mov	r6, r0
 8007f0c:	bb02      	cbnz	r2, 8007f50 <_dtoa_r+0xa40>
 8007f0e:	4601      	mov	r1, r0
 8007f10:	9802      	ldr	r0, [sp, #8]
 8007f12:	f000 ffd5 	bl	8008ec0 <__mcmp>
 8007f16:	9b09      	ldr	r3, [sp, #36]	@ 0x24
 8007f18:	4602      	mov	r2, r0
 8007f1a:	4631      	mov	r1, r6
 8007f1c:	4648      	mov	r0, r9
 8007f1e:	920c      	str	r2, [sp, #48]	@ 0x30
 8007f20:	9309      	str	r3, [sp, #36]	@ 0x24
 8007f22:	f000 fd51 	bl	80089c8 <_Bfree>
 8007f26:	9b07      	ldr	r3, [sp, #28]
 8007f28:	9a0c      	ldr	r2, [sp, #48]	@ 0x30
 8007f2a:	9e00      	ldr	r6, [sp, #0]
 8007f2c:	ea42 0103 	orr.w	r1, r2, r3
 8007f30:	9b06      	ldr	r3, [sp, #24]
 8007f32:	4319      	orrs	r1, r3
 8007f34:	9b09      	ldr	r3, [sp, #36]	@ 0x24
 8007f36:	d10d      	bne.n	8007f54 <_dtoa_r+0xa44>
 8007f38:	2b39      	cmp	r3, #57	@ 0x39
 8007f3a:	d027      	beq.n	8007f8c <_dtoa_r+0xa7c>
 8007f3c:	9a04      	ldr	r2, [sp, #16]
 8007f3e:	2a00      	cmp	r2, #0
 8007f40:	dd01      	ble.n	8007f46 <_dtoa_r+0xa36>
 8007f42:	9b03      	ldr	r3, [sp, #12]
 8007f44:	3331      	adds	r3, #49	@ 0x31
 8007f46:	f88b 3000 	strb.w	r3, [fp]
 8007f4a:	e52e      	b.n	80079aa <_dtoa_r+0x49a>
 8007f4c:	4628      	mov	r0, r5
 8007f4e:	e7b9      	b.n	8007ec4 <_dtoa_r+0x9b4>
 8007f50:	2201      	movs	r2, #1
 8007f52:	e7e2      	b.n	8007f1a <_dtoa_r+0xa0a>
 8007f54:	9904      	ldr	r1, [sp, #16]
 8007f56:	2900      	cmp	r1, #0
 8007f58:	db04      	blt.n	8007f64 <_dtoa_r+0xa54>
 8007f5a:	9807      	ldr	r0, [sp, #28]
 8007f5c:	4301      	orrs	r1, r0
 8007f5e:	9806      	ldr	r0, [sp, #24]
 8007f60:	4301      	orrs	r1, r0
 8007f62:	d120      	bne.n	8007fa6 <_dtoa_r+0xa96>
 8007f64:	2a00      	cmp	r2, #0
 8007f66:	ddee      	ble.n	8007f46 <_dtoa_r+0xa36>
 8007f68:	9902      	ldr	r1, [sp, #8]
 8007f6a:	9300      	str	r3, [sp, #0]
 8007f6c:	2201      	movs	r2, #1
 8007f6e:	4648      	mov	r0, r9
 8007f70:	f000 ff3a 	bl	8008de8 <__lshift>
 8007f74:	4621      	mov	r1, r4
 8007f76:	9002      	str	r0, [sp, #8]
 8007f78:	f000 ffa2 	bl	8008ec0 <__mcmp>
 8007f7c:	2800      	cmp	r0, #0
 8007f7e:	9b00      	ldr	r3, [sp, #0]
 8007f80:	dc02      	bgt.n	8007f88 <_dtoa_r+0xa78>
 8007f82:	d1e0      	bne.n	8007f46 <_dtoa_r+0xa36>
 8007f84:	07da      	lsls	r2, r3, #31
 8007f86:	d5de      	bpl.n	8007f46 <_dtoa_r+0xa36>
 8007f88:	2b39      	cmp	r3, #57	@ 0x39
 8007f8a:	d1da      	bne.n	8007f42 <_dtoa_r+0xa32>
 8007f8c:	2339      	movs	r3, #57	@ 0x39
 8007f8e:	f88b 3000 	strb.w	r3, [fp]
 8007f92:	4633      	mov	r3, r6
 8007f94:	461e      	mov	r6, r3
 8007f96:	3b01      	subs	r3, #1
 8007f98:	f816 2c01 	ldrb.w	r2, [r6, #-1]
 8007f9c:	2a39      	cmp	r2, #57	@ 0x39
 8007f9e:	d04e      	beq.n	800803e <_dtoa_r+0xb2e>
 8007fa0:	3201      	adds	r2, #1
 8007fa2:	701a      	strb	r2, [r3, #0]
 8007fa4:	e501      	b.n	80079aa <_dtoa_r+0x49a>
 8007fa6:	2a00      	cmp	r2, #0
 8007fa8:	dd03      	ble.n	8007fb2 <_dtoa_r+0xaa2>
 8007faa:	2b39      	cmp	r3, #57	@ 0x39
 8007fac:	d0ee      	beq.n	8007f8c <_dtoa_r+0xa7c>
 8007fae:	3301      	adds	r3, #1
 8007fb0:	e7c9      	b.n	8007f46 <_dtoa_r+0xa36>
 8007fb2:	9a00      	ldr	r2, [sp, #0]
 8007fb4:	9908      	ldr	r1, [sp, #32]
 8007fb6:	f802 3c01 	strb.w	r3, [r2, #-1]
 8007fba:	428a      	cmp	r2, r1
 8007fbc:	d028      	beq.n	8008010 <_dtoa_r+0xb00>
 8007fbe:	9902      	ldr	r1, [sp, #8]
 8007fc0:	2300      	movs	r3, #0
 8007fc2:	220a      	movs	r2, #10
 8007fc4:	4648      	mov	r0, r9
 8007fc6:	f000 fd21 	bl	8008a0c <__multadd>
 8007fca:	42af      	cmp	r7, r5
 8007fcc:	9002      	str	r0, [sp, #8]
 8007fce:	f04f 0300 	mov.w	r3, #0
 8007fd2:	f04f 020a 	mov.w	r2, #10
 8007fd6:	4639      	mov	r1, r7
 8007fd8:	4648      	mov	r0, r9
 8007fda:	d107      	bne.n	8007fec <_dtoa_r+0xadc>
 8007fdc:	f000 fd16 	bl	8008a0c <__multadd>
 8007fe0:	4607      	mov	r7, r0
 8007fe2:	4605      	mov	r5, r0
 8007fe4:	9b00      	ldr	r3, [sp, #0]
 8007fe6:	3301      	adds	r3, #1
 8007fe8:	9300      	str	r3, [sp, #0]
 8007fea:	e777      	b.n	8007edc <_dtoa_r+0x9cc>
 8007fec:	f000 fd0e 	bl	8008a0c <__multadd>
 8007ff0:	4629      	mov	r1, r5
 8007ff2:	4607      	mov	r7, r0
 8007ff4:	2300      	movs	r3, #0
 8007ff6:	220a      	movs	r2, #10
 8007ff8:	4648      	mov	r0, r9
 8007ffa:	f000 fd07 	bl	8008a0c <__multadd>
 8007ffe:	4605      	mov	r5, r0
 8008000:	e7f0      	b.n	8007fe4 <_dtoa_r+0xad4>
 8008002:	f1bb 0f00 	cmp.w	fp, #0
 8008006:	bfcc      	ite	gt
 8008008:	465e      	movgt	r6, fp
 800800a:	2601      	movle	r6, #1
 800800c:	4456      	add	r6, sl
 800800e:	2700      	movs	r7, #0
 8008010:	9902      	ldr	r1, [sp, #8]
 8008012:	9300      	str	r3, [sp, #0]
 8008014:	2201      	movs	r2, #1
 8008016:	4648      	mov	r0, r9
 8008018:	f000 fee6 	bl	8008de8 <__lshift>
 800801c:	4621      	mov	r1, r4
 800801e:	9002      	str	r0, [sp, #8]
 8008020:	f000 ff4e 	bl	8008ec0 <__mcmp>
 8008024:	2800      	cmp	r0, #0
 8008026:	dcb4      	bgt.n	8007f92 <_dtoa_r+0xa82>
 8008028:	d102      	bne.n	8008030 <_dtoa_r+0xb20>
 800802a:	9b00      	ldr	r3, [sp, #0]
 800802c:	07db      	lsls	r3, r3, #31
 800802e:	d4b0      	bmi.n	8007f92 <_dtoa_r+0xa82>
 8008030:	4633      	mov	r3, r6
 8008032:	461e      	mov	r6, r3
 8008034:	f813 2d01 	ldrb.w	r2, [r3, #-1]!
 8008038:	2a30      	cmp	r2, #48	@ 0x30
 800803a:	d0fa      	beq.n	8008032 <_dtoa_r+0xb22>
 800803c:	e4b5      	b.n	80079aa <_dtoa_r+0x49a>
 800803e:	459a      	cmp	sl, r3
 8008040:	d1a8      	bne.n	8007f94 <_dtoa_r+0xa84>
 8008042:	2331      	movs	r3, #49	@ 0x31
 8008044:	f108 0801 	add.w	r8, r8, #1
 8008048:	f88a 3000 	strb.w	r3, [sl]
 800804c:	e4ad      	b.n	80079aa <_dtoa_r+0x49a>
 800804e:	9b21      	ldr	r3, [sp, #132]	@ 0x84
 8008050:	f8df a058 	ldr.w	sl, [pc, #88]	@ 80080ac <_dtoa_r+0xb9c>
 8008054:	b11b      	cbz	r3, 800805e <_dtoa_r+0xb4e>
 8008056:	f10a 0308 	add.w	r3, sl, #8
 800805a:	9a21      	ldr	r2, [sp, #132]	@ 0x84
 800805c:	6013      	str	r3, [r2, #0]
 800805e:	4650      	mov	r0, sl
 8008060:	b017      	add	sp, #92	@ 0x5c
 8008062:	e8bd 8ff0 	ldmia.w	sp!, {r4, r5, r6, r7, r8, r9, sl, fp, pc}
 8008066:	9b07      	ldr	r3, [sp, #28]
 8008068:	2b01      	cmp	r3, #1
 800806a:	f77f ae2e 	ble.w	8007cca <_dtoa_r+0x7ba>
 800806e:	9b0d      	ldr	r3, [sp, #52]	@ 0x34
 8008070:	9308      	str	r3, [sp, #32]
 8008072:	2001      	movs	r0, #1
 8008074:	e64d      	b.n	8007d12 <_dtoa_r+0x802>
 8008076:	f1bb 0f00 	cmp.w	fp, #0
 800807a:	f77f aed9 	ble.w	8007e30 <_dtoa_r+0x920>
 800807e:	4656      	mov	r6, sl
 8008080:	9802      	ldr	r0, [sp, #8]
 8008082:	4621      	mov	r1, r4
 8008084:	f7ff f9bc 	bl	8007400 <quorem>
 8008088:	f100 0330 	add.w	r3, r0, #48	@ 0x30
 800808c:	f806 3b01 	strb.w	r3, [r6], #1
 8008090:	eba6 020a 	sub.w	r2, r6, sl
 8008094:	4593      	cmp	fp, r2
 8008096:	ddb4      	ble.n	8008002 <_dtoa_r+0xaf2>
 8008098:	9902      	ldr	r1, [sp, #8]
 800809a:	2300      	movs	r3, #0
 800809c:	220a      	movs	r2, #10
 800809e:	4648      	mov	r0, r9
 80080a0:	f000 fcb4 	bl	8008a0c <__multadd>
 80080a4:	9002      	str	r0, [sp, #8]
 80080a6:	e7eb      	b.n	8008080 <_dtoa_r+0xb70>
 80080a8:	08009afe 	.word	0x08009afe
 80080ac:	08009a82 	.word	0x08009a82

080080b0 <_free_r>:
 80080b0:	b538      	push	{r3, r4, r5, lr}
 80080b2:	4605      	mov	r5, r0
 80080b4:	2900      	cmp	r1, #0
 80080b6:	d041      	beq.n	800813c <_free_r+0x8c>
 80080b8:	f851 3c04 	ldr.w	r3, [r1, #-4]
 80080bc:	1f0c      	subs	r4, r1, #4
 80080be:	2b00      	cmp	r3, #0
 80080c0:	bfb8      	it	lt
 80080c2:	18e4      	addlt	r4, r4, r3
 80080c4:	f000 fc34 	bl	8008930 <__malloc_lock>
 80080c8:	4a1d      	ldr	r2, [pc, #116]	@ (8008140 <_free_r+0x90>)
 80080ca:	6813      	ldr	r3, [r2, #0]
 80080cc:	b933      	cbnz	r3, 80080dc <_free_r+0x2c>
 80080ce:	6063      	str	r3, [r4, #4]
 80080d0:	6014      	str	r4, [r2, #0]
 80080d2:	4628      	mov	r0, r5
 80080d4:	e8bd 4038 	ldmia.w	sp!, {r3, r4, r5, lr}
 80080d8:	f000 bc30 	b.w	800893c <__malloc_unlock>
 80080dc:	42a3      	cmp	r3, r4
 80080de:	d908      	bls.n	80080f2 <_free_r+0x42>
 80080e0:	6820      	ldr	r0, [r4, #0]
 80080e2:	1821      	adds	r1, r4, r0
 80080e4:	428b      	cmp	r3, r1
 80080e6:	bf01      	itttt	eq
 80080e8:	6819      	ldreq	r1, [r3, #0]
 80080ea:	685b      	ldreq	r3, [r3, #4]
 80080ec:	1809      	addeq	r1, r1, r0
 80080ee:	6021      	streq	r1, [r4, #0]
 80080f0:	e7ed      	b.n	80080ce <_free_r+0x1e>
 80080f2:	461a      	mov	r2, r3
 80080f4:	685b      	ldr	r3, [r3, #4]
 80080f6:	b10b      	cbz	r3, 80080fc <_free_r+0x4c>
 80080f8:	42a3      	cmp	r3, r4
 80080fa:	d9fa      	bls.n	80080f2 <_free_r+0x42>
 80080fc:	6811      	ldr	r1, [r2, #0]
 80080fe:	1850      	adds	r0, r2, r1
 8008100:	42a0      	cmp	r0, r4
 8008102:	d10b      	bne.n	800811c <_free_r+0x6c>
 8008104:	6820      	ldr	r0, [r4, #0]
 8008106:	4401      	add	r1, r0
 8008108:	1850      	adds	r0, r2, r1
 800810a:	4283      	cmp	r3, r0
 800810c:	6011      	str	r1, [r2, #0]
 800810e:	d1e0      	bne.n	80080d2 <_free_r+0x22>
 8008110:	6818      	ldr	r0, [r3, #0]
 8008112:	685b      	ldr	r3, [r3, #4]
 8008114:	6053      	str	r3, [r2, #4]
 8008116:	4408      	add	r0, r1
 8008118:	6010      	str	r0, [r2, #0]
 800811a:	e7da      	b.n	80080d2 <_free_r+0x22>
 800811c:	d902      	bls.n	8008124 <_free_r+0x74>
 800811e:	230c      	movs	r3, #12
 8008120:	602b      	str	r3, [r5, #0]
 8008122:	e7d6      	b.n	80080d2 <_free_r+0x22>
 8008124:	6820      	ldr	r0, [r4, #0]
 8008126:	1821      	adds	r1, r4, r0
 8008128:	428b      	cmp	r3, r1
 800812a:	bf04      	itt	eq
 800812c:	6819      	ldreq	r1, [r3, #0]
 800812e:	685b      	ldreq	r3, [r3, #4]
 8008130:	6063      	str	r3, [r4, #4]
 8008132:	bf04      	itt	eq
 8008134:	1809      	addeq	r1, r1, r0
 8008136:	6021      	streq	r1, [r4, #0]
 8008138:	6054      	str	r4, [r2, #4]
 800813a:	e7ca      	b.n	80080d2 <_free_r+0x22>
 800813c:	bd38      	pop	{r3, r4, r5, pc}
 800813e:	bf00      	nop
 8008140:	200004e4 	.word	0x200004e4

08008144 <rshift>:
 8008144:	6903      	ldr	r3, [r0, #16]
 8008146:	ebb3 1f61 	cmp.w	r3, r1, asr #5
 800814a:	e92d 43f0 	stmdb	sp!, {r4, r5, r6, r7, r8, r9, lr}
 800814e:	ea4f 1261 	mov.w	r2, r1, asr #5
 8008152:	f100 0414 	add.w	r4, r0, #20
 8008156:	dd45      	ble.n	80081e4 <rshift+0xa0>
 8008158:	f011 011f 	ands.w	r1, r1, #31
 800815c:	eb04 0683 	add.w	r6, r4, r3, lsl #2
 8008160:	eb04 0582 	add.w	r5, r4, r2, lsl #2
 8008164:	d10c      	bne.n	8008180 <rshift+0x3c>
 8008166:	f100 0710 	add.w	r7, r0, #16
 800816a:	4629      	mov	r1, r5
 800816c:	42b1      	cmp	r1, r6
 800816e:	d334      	bcc.n	80081da <rshift+0x96>
 8008170:	1a9b      	subs	r3, r3, r2
 8008172:	009b      	lsls	r3, r3, #2
 8008174:	1eea      	subs	r2, r5, #3
 8008176:	4296      	cmp	r6, r2
 8008178:	bf38      	it	cc
 800817a:	2300      	movcc	r3, #0
 800817c:	4423      	add	r3, r4
 800817e:	e015      	b.n	80081ac <rshift+0x68>
 8008180:	f854 7022 	ldr.w	r7, [r4, r2, lsl #2]
 8008184:	f1c1 0820 	rsb	r8, r1, #32
 8008188:	40cf      	lsrs	r7, r1
 800818a:	f105 0e04 	add.w	lr, r5, #4
 800818e:	46a1      	mov	r9, r4
 8008190:	4576      	cmp	r6, lr
 8008192:	46f4      	mov	ip, lr
 8008194:	d815      	bhi.n	80081c2 <rshift+0x7e>
 8008196:	1a9a      	subs	r2, r3, r2
 8008198:	0092      	lsls	r2, r2, #2
 800819a:	3a04      	subs	r2, #4
 800819c:	3501      	adds	r5, #1
 800819e:	42ae      	cmp	r6, r5
 80081a0:	bf38      	it	cc
 80081a2:	2200      	movcc	r2, #0
 80081a4:	18a3      	adds	r3, r4, r2
 80081a6:	50a7      	str	r7, [r4, r2]
 80081a8:	b107      	cbz	r7, 80081ac <rshift+0x68>
 80081aa:	3304      	adds	r3, #4
 80081ac:	1b1a      	subs	r2, r3, r4
 80081ae:	42a3      	cmp	r3, r4
 80081b0:	ea4f 02a2 	mov.w	r2, r2, asr #2
 80081b4:	bf08      	it	eq
 80081b6:	2300      	moveq	r3, #0
 80081b8:	6102      	str	r2, [r0, #16]
 80081ba:	bf08      	it	eq
 80081bc:	6143      	streq	r3, [r0, #20]
 80081be:	e8bd 83f0 	ldmia.w	sp!, {r4, r5, r6, r7, r8, r9, pc}
 80081c2:	f8dc c000 	ldr.w	ip, [ip]
 80081c6:	fa0c fc08 	lsl.w	ip, ip, r8
 80081ca:	ea4c 0707 	orr.w	r7, ip, r7
 80081ce:	f849 7b04 	str.w	r7, [r9], #4
 80081d2:	f85e 7b04 	ldr.w	r7, [lr], #4
 80081d6:	40cf      	lsrs	r7, r1
 80081d8:	e7da      	b.n	8008190 <rshift+0x4c>
 80081da:	f851 cb04 	ldr.w	ip, [r1], #4
 80081de:	f847 cf04 	str.w	ip, [r7, #4]!
 80081e2:	e7c3      	b.n	800816c <rshift+0x28>
 80081e4:	4623      	mov	r3, r4
 80081e6:	e7e1      	b.n	80081ac <rshift+0x68>

080081e8 <__hexdig_fun>:
 80081e8:	f1a0 0330 	sub.w	r3, r0, #48	@ 0x30
 80081ec:	2b09      	cmp	r3, #9
 80081ee:	d802      	bhi.n	80081f6 <__hexdig_fun+0xe>
 80081f0:	3820      	subs	r0, #32
 80081f2:	b2c0      	uxtb	r0, r0
 80081f4:	4770      	bx	lr
 80081f6:	f1a0 0361 	sub.w	r3, r0, #97	@ 0x61
 80081fa:	2b05      	cmp	r3, #5
 80081fc:	d801      	bhi.n	8008202 <__hexdig_fun+0x1a>
 80081fe:	3847      	subs	r0, #71	@ 0x47
 8008200:	e7f7      	b.n	80081f2 <__hexdig_fun+0xa>
 8008202:	f1a0 0341 	sub.w	r3, r0, #65	@ 0x41
 8008206:	2b05      	cmp	r3, #5
 8008208:	d801      	bhi.n	800820e <__hexdig_fun+0x26>
 800820a:	3827      	subs	r0, #39	@ 0x27
 800820c:	e7f1      	b.n	80081f2 <__hexdig_fun+0xa>
 800820e:	2000      	movs	r0, #0
 8008210:	4770      	bx	lr
	...

08008214 <__gethex>:
 8008214:	e92d 4ff0 	stmdb	sp!, {r4, r5, r6, r7, r8, r9, sl, fp, lr}
 8008218:	b085      	sub	sp, #20
 800821a:	468a      	mov	sl, r1
 800821c:	9302      	str	r3, [sp, #8]
 800821e:	680b      	ldr	r3, [r1, #0]
 8008220:	9001      	str	r0, [sp, #4]
 8008222:	4690      	mov	r8, r2
 8008224:	1c9c      	adds	r4, r3, #2
 8008226:	46a1      	mov	r9, r4
 8008228:	f814 0b01 	ldrb.w	r0, [r4], #1
 800822c:	2830      	cmp	r0, #48	@ 0x30
 800822e:	d0fa      	beq.n	8008226 <__gethex+0x12>
 8008230:	eba9 0303 	sub.w	r3, r9, r3
 8008234:	f1a3 0b02 	sub.w	fp, r3, #2
 8008238:	f7ff ffd6 	bl	80081e8 <__hexdig_fun>
 800823c:	4605      	mov	r5, r0
 800823e:	2800      	cmp	r0, #0
 8008240:	d168      	bne.n	8008314 <__gethex+0x100>
 8008242:	49a0      	ldr	r1, [pc, #640]	@ (80084c4 <__gethex+0x2b0>)
 8008244:	2201      	movs	r2, #1
 8008246:	4648      	mov	r0, r9
 8008248:	f7ff f824 	bl	8007294 <strncmp>
 800824c:	4607      	mov	r7, r0
 800824e:	2800      	cmp	r0, #0
 8008250:	d167      	bne.n	8008322 <__gethex+0x10e>
 8008252:	f899 0001 	ldrb.w	r0, [r9, #1]
 8008256:	4626      	mov	r6, r4
 8008258:	f7ff ffc6 	bl	80081e8 <__hexdig_fun>
 800825c:	2800      	cmp	r0, #0
 800825e:	d062      	beq.n	8008326 <__gethex+0x112>
 8008260:	4623      	mov	r3, r4
 8008262:	7818      	ldrb	r0, [r3, #0]
 8008264:	2830      	cmp	r0, #48	@ 0x30
 8008266:	4699      	mov	r9, r3
 8008268:	f103 0301 	add.w	r3, r3, #1
 800826c:	d0f9      	beq.n	8008262 <__gethex+0x4e>
 800826e:	f7ff ffbb 	bl	80081e8 <__hexdig_fun>
 8008272:	fab0 f580 	clz	r5, r0
 8008276:	096d      	lsrs	r5, r5, #5
 8008278:	f04f 0b01 	mov.w	fp, #1
 800827c:	464a      	mov	r2, r9
 800827e:	4616      	mov	r6, r2
 8008280:	3201      	adds	r2, #1
 8008282:	7830      	ldrb	r0, [r6, #0]
 8008284:	f7ff ffb0 	bl	80081e8 <__hexdig_fun>
 8008288:	2800      	cmp	r0, #0
 800828a:	d1f8      	bne.n	800827e <__gethex+0x6a>
 800828c:	498d      	ldr	r1, [pc, #564]	@ (80084c4 <__gethex+0x2b0>)
 800828e:	2201      	movs	r2, #1
 8008290:	4630      	mov	r0, r6
 8008292:	f7fe ffff 	bl	8007294 <strncmp>
 8008296:	2800      	cmp	r0, #0
 8008298:	d13f      	bne.n	800831a <__gethex+0x106>
 800829a:	b944      	cbnz	r4, 80082ae <__gethex+0x9a>
 800829c:	1c74      	adds	r4, r6, #1
 800829e:	4622      	mov	r2, r4
 80082a0:	4616      	mov	r6, r2
 80082a2:	3201      	adds	r2, #1
 80082a4:	7830      	ldrb	r0, [r6, #0]
 80082a6:	f7ff ff9f 	bl	80081e8 <__hexdig_fun>
 80082aa:	2800      	cmp	r0, #0
 80082ac:	d1f8      	bne.n	80082a0 <__gethex+0x8c>
 80082ae:	1ba4      	subs	r4, r4, r6
 80082b0:	00a7      	lsls	r7, r4, #2
 80082b2:	7833      	ldrb	r3, [r6, #0]
 80082b4:	f003 03df 	and.w	r3, r3, #223	@ 0xdf
 80082b8:	2b50      	cmp	r3, #80	@ 0x50
 80082ba:	d13e      	bne.n	800833a <__gethex+0x126>
 80082bc:	7873      	ldrb	r3, [r6, #1]
 80082be:	2b2b      	cmp	r3, #43	@ 0x2b
 80082c0:	d033      	beq.n	800832a <__gethex+0x116>
 80082c2:	2b2d      	cmp	r3, #45	@ 0x2d
 80082c4:	d034      	beq.n	8008330 <__gethex+0x11c>
 80082c6:	1c71      	adds	r1, r6, #1
 80082c8:	2400      	movs	r4, #0
 80082ca:	7808      	ldrb	r0, [r1, #0]
 80082cc:	f7ff ff8c 	bl	80081e8 <__hexdig_fun>
 80082d0:	1e43      	subs	r3, r0, #1
 80082d2:	b2db      	uxtb	r3, r3
 80082d4:	2b18      	cmp	r3, #24
 80082d6:	d830      	bhi.n	800833a <__gethex+0x126>
 80082d8:	f1a0 0210 	sub.w	r2, r0, #16
 80082dc:	f811 0f01 	ldrb.w	r0, [r1, #1]!
 80082e0:	f7ff ff82 	bl	80081e8 <__hexdig_fun>
 80082e4:	f100 3cff 	add.w	ip, r0, #4294967295
 80082e8:	fa5f fc8c 	uxtb.w	ip, ip
 80082ec:	f1bc 0f18 	cmp.w	ip, #24
 80082f0:	f04f 030a 	mov.w	r3, #10
 80082f4:	d91e      	bls.n	8008334 <__gethex+0x120>
 80082f6:	b104      	cbz	r4, 80082fa <__gethex+0xe6>
 80082f8:	4252      	negs	r2, r2
 80082fa:	4417      	add	r7, r2
 80082fc:	f8ca 1000 	str.w	r1, [sl]
 8008300:	b1ed      	cbz	r5, 800833e <__gethex+0x12a>
 8008302:	f1bb 0f00 	cmp.w	fp, #0
 8008306:	bf0c      	ite	eq
 8008308:	2506      	moveq	r5, #6
 800830a:	2500      	movne	r5, #0
 800830c:	4628      	mov	r0, r5
 800830e:	b005      	add	sp, #20
 8008310:	e8bd 8ff0 	ldmia.w	sp!, {r4, r5, r6, r7, r8, r9, sl, fp, pc}
 8008314:	2500      	movs	r5, #0
 8008316:	462c      	mov	r4, r5
 8008318:	e7b0      	b.n	800827c <__gethex+0x68>
 800831a:	2c00      	cmp	r4, #0
 800831c:	d1c7      	bne.n	80082ae <__gethex+0x9a>
 800831e:	4627      	mov	r7, r4
 8008320:	e7c7      	b.n	80082b2 <__gethex+0x9e>
 8008322:	464e      	mov	r6, r9
 8008324:	462f      	mov	r7, r5
 8008326:	2501      	movs	r5, #1
 8008328:	e7c3      	b.n	80082b2 <__gethex+0x9e>
 800832a:	2400      	movs	r4, #0
 800832c:	1cb1      	adds	r1, r6, #2
 800832e:	e7cc      	b.n	80082ca <__gethex+0xb6>
 8008330:	2401      	movs	r4, #1
 8008332:	e7fb      	b.n	800832c <__gethex+0x118>
 8008334:	fb03 0002 	mla	r0, r3, r2, r0
 8008338:	e7ce      	b.n	80082d8 <__gethex+0xc4>
 800833a:	4631      	mov	r1, r6
 800833c:	e7de      	b.n	80082fc <__gethex+0xe8>
 800833e:	eba6 0309 	sub.w	r3, r6, r9
 8008342:	3b01      	subs	r3, #1
 8008344:	4629      	mov	r1, r5
 8008346:	2b07      	cmp	r3, #7
 8008348:	dc0a      	bgt.n	8008360 <__gethex+0x14c>
 800834a:	9801      	ldr	r0, [sp, #4]
 800834c:	f000 fafc 	bl	8008948 <_Balloc>
 8008350:	4604      	mov	r4, r0
 8008352:	b940      	cbnz	r0, 8008366 <__gethex+0x152>
 8008354:	4b5c      	ldr	r3, [pc, #368]	@ (80084c8 <__gethex+0x2b4>)
 8008356:	4602      	mov	r2, r0
 8008358:	21e4      	movs	r1, #228	@ 0xe4
 800835a:	485c      	ldr	r0, [pc, #368]	@ (80084cc <__gethex+0x2b8>)
 800835c:	f001 fa3c 	bl	80097d8 <__assert_func>
 8008360:	3101      	adds	r1, #1
 8008362:	105b      	asrs	r3, r3, #1
 8008364:	e7ef      	b.n	8008346 <__gethex+0x132>
 8008366:	f100 0a14 	add.w	sl, r0, #20
 800836a:	2300      	movs	r3, #0
 800836c:	4655      	mov	r5, sl
 800836e:	469b      	mov	fp, r3
 8008370:	45b1      	cmp	r9, r6
 8008372:	d337      	bcc.n	80083e4 <__gethex+0x1d0>
 8008374:	f845 bb04 	str.w	fp, [r5], #4
 8008378:	eba5 050a 	sub.w	r5, r5, sl
 800837c:	10ad      	asrs	r5, r5, #2
 800837e:	6125      	str	r5, [r4, #16]
 8008380:	4658      	mov	r0, fp
 8008382:	f000 fbd3 	bl	8008b2c <__hi0bits>
 8008386:	016d      	lsls	r5, r5, #5
 8008388:	f8d8 6000 	ldr.w	r6, [r8]
 800838c:	1a2d      	subs	r5, r5, r0
 800838e:	42b5      	cmp	r5, r6
 8008390:	dd54      	ble.n	800843c <__gethex+0x228>
 8008392:	1bad      	subs	r5, r5, r6
 8008394:	4629      	mov	r1, r5
 8008396:	4620      	mov	r0, r4
 8008398:	f000 ff5f 	bl	800925a <__any_on>
 800839c:	4681      	mov	r9, r0
 800839e:	b178      	cbz	r0, 80083c0 <__gethex+0x1ac>
 80083a0:	1e6b      	subs	r3, r5, #1
 80083a2:	1159      	asrs	r1, r3, #5
 80083a4:	f003 021f 	and.w	r2, r3, #31
 80083a8:	f85a 1021 	ldr.w	r1, [sl, r1, lsl #2]
 80083ac:	f04f 0901 	mov.w	r9, #1
 80083b0:	fa09 f202 	lsl.w	r2, r9, r2
 80083b4:	420a      	tst	r2, r1
 80083b6:	d003      	beq.n	80083c0 <__gethex+0x1ac>
 80083b8:	454b      	cmp	r3, r9
 80083ba:	dc36      	bgt.n	800842a <__gethex+0x216>
 80083bc:	f04f 0902 	mov.w	r9, #2
 80083c0:	4629      	mov	r1, r5
 80083c2:	4620      	mov	r0, r4
 80083c4:	f7ff febe 	bl	8008144 <rshift>
 80083c8:	442f      	add	r7, r5
 80083ca:	f8d8 3008 	ldr.w	r3, [r8, #8]
 80083ce:	42bb      	cmp	r3, r7
 80083d0:	da42      	bge.n	8008458 <__gethex+0x244>
 80083d2:	9801      	ldr	r0, [sp, #4]
 80083d4:	4621      	mov	r1, r4
 80083d6:	f000 faf7 	bl	80089c8 <_Bfree>
 80083da:	9a0e      	ldr	r2, [sp, #56]	@ 0x38
 80083dc:	2300      	movs	r3, #0
 80083de:	6013      	str	r3, [r2, #0]
 80083e0:	25a3      	movs	r5, #163	@ 0xa3
 80083e2:	e793      	b.n	800830c <__gethex+0xf8>
 80083e4:	f816 2d01 	ldrb.w	r2, [r6, #-1]!
 80083e8:	2a2e      	cmp	r2, #46	@ 0x2e
 80083ea:	d012      	beq.n	8008412 <__gethex+0x1fe>
 80083ec:	2b20      	cmp	r3, #32
 80083ee:	d104      	bne.n	80083fa <__gethex+0x1e6>
 80083f0:	f845 bb04 	str.w	fp, [r5], #4
 80083f4:	f04f 0b00 	mov.w	fp, #0
 80083f8:	465b      	mov	r3, fp
 80083fa:	7830      	ldrb	r0, [r6, #0]
 80083fc:	9303      	str	r3, [sp, #12]
 80083fe:	f7ff fef3 	bl	80081e8 <__hexdig_fun>
 8008402:	9b03      	ldr	r3, [sp, #12]
 8008404:	f000 000f 	and.w	r0, r0, #15
 8008408:	4098      	lsls	r0, r3
 800840a:	ea4b 0b00 	orr.w	fp, fp, r0
 800840e:	3304      	adds	r3, #4
 8008410:	e7ae      	b.n	8008370 <__gethex+0x15c>
 8008412:	45b1      	cmp	r9, r6
 8008414:	d8ea      	bhi.n	80083ec <__gethex+0x1d8>
 8008416:	492b      	ldr	r1, [pc, #172]	@ (80084c4 <__gethex+0x2b0>)
 8008418:	9303      	str	r3, [sp, #12]
 800841a:	2201      	movs	r2, #1
 800841c:	4630      	mov	r0, r6
 800841e:	f7fe ff39 	bl	8007294 <strncmp>
 8008422:	9b03      	ldr	r3, [sp, #12]
 8008424:	2800      	cmp	r0, #0
 8008426:	d1e1      	bne.n	80083ec <__gethex+0x1d8>
 8008428:	e7a2      	b.n	8008370 <__gethex+0x15c>
 800842a:	1ea9      	subs	r1, r5, #2
 800842c:	4620      	mov	r0, r4
 800842e:	f000 ff14 	bl	800925a <__any_on>
 8008432:	2800      	cmp	r0, #0
 8008434:	d0c2      	beq.n	80083bc <__gethex+0x1a8>
 8008436:	f04f 0903 	mov.w	r9, #3
 800843a:	e7c1      	b.n	80083c0 <__gethex+0x1ac>
 800843c:	da09      	bge.n	8008452 <__gethex+0x23e>
 800843e:	1b75      	subs	r5, r6, r5
 8008440:	4621      	mov	r1, r4
 8008442:	9801      	ldr	r0, [sp, #4]
 8008444:	462a      	mov	r2, r5
 8008446:	f000 fccf 	bl	8008de8 <__lshift>
 800844a:	1b7f      	subs	r7, r7, r5
 800844c:	4604      	mov	r4, r0
 800844e:	f100 0a14 	add.w	sl, r0, #20
 8008452:	f04f 0900 	mov.w	r9, #0
 8008456:	e7b8      	b.n	80083ca <__gethex+0x1b6>
 8008458:	f8d8 5004 	ldr.w	r5, [r8, #4]
 800845c:	42bd      	cmp	r5, r7
 800845e:	dd6f      	ble.n	8008540 <__gethex+0x32c>
 8008460:	1bed      	subs	r5, r5, r7
 8008462:	42ae      	cmp	r6, r5
 8008464:	dc34      	bgt.n	80084d0 <__gethex+0x2bc>
 8008466:	f8d8 300c 	ldr.w	r3, [r8, #12]
 800846a:	2b02      	cmp	r3, #2
 800846c:	d022      	beq.n	80084b4 <__gethex+0x2a0>
 800846e:	2b03      	cmp	r3, #3
 8008470:	d024      	beq.n	80084bc <__gethex+0x2a8>
 8008472:	2b01      	cmp	r3, #1
 8008474:	d115      	bne.n	80084a2 <__gethex+0x28e>
 8008476:	42ae      	cmp	r6, r5
 8008478:	d113      	bne.n	80084a2 <__gethex+0x28e>
 800847a:	2e01      	cmp	r6, #1
 800847c:	d10b      	bne.n	8008496 <__gethex+0x282>
 800847e:	9a02      	ldr	r2, [sp, #8]
 8008480:	f8d8 3004 	ldr.w	r3, [r8, #4]
 8008484:	6013      	str	r3, [r2, #0]
 8008486:	2301      	movs	r3, #1
 8008488:	6123      	str	r3, [r4, #16]
 800848a:	f8ca 3000 	str.w	r3, [sl]
 800848e:	9b0e      	ldr	r3, [sp, #56]	@ 0x38
 8008490:	2562      	movs	r5, #98	@ 0x62
 8008492:	601c      	str	r4, [r3, #0]
 8008494:	e73a      	b.n	800830c <__gethex+0xf8>
 8008496:	1e71      	subs	r1, r6, #1
 8008498:	4620      	mov	r0, r4
 800849a:	f000 fede 	bl	800925a <__any_on>
 800849e:	2800      	cmp	r0, #0
 80084a0:	d1ed      	bne.n	800847e <__gethex+0x26a>
 80084a2:	9801      	ldr	r0, [sp, #4]
 80084a4:	4621      	mov	r1, r4
 80084a6:	f000 fa8f 	bl	80089c8 <_Bfree>
 80084aa:	9a0e      	ldr	r2, [sp, #56]	@ 0x38
 80084ac:	2300      	movs	r3, #0
 80084ae:	6013      	str	r3, [r2, #0]
 80084b0:	2550      	movs	r5, #80	@ 0x50
 80084b2:	e72b      	b.n	800830c <__gethex+0xf8>
 80084b4:	9b0f      	ldr	r3, [sp, #60]	@ 0x3c
 80084b6:	2b00      	cmp	r3, #0
 80084b8:	d1f3      	bne.n	80084a2 <__gethex+0x28e>
 80084ba:	e7e0      	b.n	800847e <__gethex+0x26a>
 80084bc:	9b0f      	ldr	r3, [sp, #60]	@ 0x3c
 80084be:	2b00      	cmp	r3, #0
 80084c0:	d1dd      	bne.n	800847e <__gethex+0x26a>
 80084c2:	e7ee      	b.n	80084a2 <__gethex+0x28e>
 80084c4:	08009a44 	.word	0x08009a44
 80084c8:	08009afe 	.word	0x08009afe
 80084cc:	08009b0f 	.word	0x08009b0f
 80084d0:	1e6f      	subs	r7, r5, #1
 80084d2:	f1b9 0f00 	cmp.w	r9, #0
 80084d6:	d130      	bne.n	800853a <__gethex+0x326>
 80084d8:	b127      	cbz	r7, 80084e4 <__gethex+0x2d0>
 80084da:	4639      	mov	r1, r7
 80084dc:	4620      	mov	r0, r4
 80084de:	f000 febc 	bl	800925a <__any_on>
 80084e2:	4681      	mov	r9, r0
 80084e4:	117a      	asrs	r2, r7, #5
 80084e6:	2301      	movs	r3, #1
 80084e8:	f85a 2022 	ldr.w	r2, [sl, r2, lsl #2]
 80084ec:	f007 071f 	and.w	r7, r7, #31
 80084f0:	40bb      	lsls	r3, r7
 80084f2:	4213      	tst	r3, r2
 80084f4:	4629      	mov	r1, r5
 80084f6:	4620      	mov	r0, r4
 80084f8:	bf18      	it	ne
 80084fa:	f049 0902 	orrne.w	r9, r9, #2
 80084fe:	f7ff fe21 	bl	8008144 <rshift>
 8008502:	f8d8 7004 	ldr.w	r7, [r8, #4]
 8008506:	1b76      	subs	r6, r6, r5
 8008508:	2502      	movs	r5, #2
 800850a:	f1b9 0f00 	cmp.w	r9, #0
 800850e:	d047      	beq.n	80085a0 <__gethex+0x38c>
 8008510:	f8d8 300c 	ldr.w	r3, [r8, #12]
 8008514:	2b02      	cmp	r3, #2
 8008516:	d015      	beq.n	8008544 <__gethex+0x330>
 8008518:	2b03      	cmp	r3, #3
 800851a:	d017      	beq.n	800854c <__gethex+0x338>
 800851c:	2b01      	cmp	r3, #1
 800851e:	d109      	bne.n	8008534 <__gethex+0x320>
 8008520:	f019 0f02 	tst.w	r9, #2
 8008524:	d006      	beq.n	8008534 <__gethex+0x320>
 8008526:	f8da 3000 	ldr.w	r3, [sl]
 800852a:	ea49 0903 	orr.w	r9, r9, r3
 800852e:	f019 0f01 	tst.w	r9, #1
 8008532:	d10e      	bne.n	8008552 <__gethex+0x33e>
 8008534:	f045 0510 	orr.w	r5, r5, #16
 8008538:	e032      	b.n	80085a0 <__gethex+0x38c>
 800853a:	f04f 0901 	mov.w	r9, #1
 800853e:	e7d1      	b.n	80084e4 <__gethex+0x2d0>
 8008540:	2501      	movs	r5, #1
 8008542:	e7e2      	b.n	800850a <__gethex+0x2f6>
 8008544:	9b0f      	ldr	r3, [sp, #60]	@ 0x3c
 8008546:	f1c3 0301 	rsb	r3, r3, #1
 800854a:	930f      	str	r3, [sp, #60]	@ 0x3c
 800854c:	9b0f      	ldr	r3, [sp, #60]	@ 0x3c
 800854e:	2b00      	cmp	r3, #0
 8008550:	d0f0      	beq.n	8008534 <__gethex+0x320>
 8008552:	f8d4 b010 	ldr.w	fp, [r4, #16]
 8008556:	f104 0314 	add.w	r3, r4, #20
 800855a:	ea4f 0a8b 	mov.w	sl, fp, lsl #2
 800855e:	eb03 018b 	add.w	r1, r3, fp, lsl #2
 8008562:	f04f 0c00 	mov.w	ip, #0
 8008566:	4618      	mov	r0, r3
 8008568:	f853 2b04 	ldr.w	r2, [r3], #4
 800856c:	f1b2 3fff 	cmp.w	r2, #4294967295
 8008570:	d01b      	beq.n	80085aa <__gethex+0x396>
 8008572:	3201      	adds	r2, #1
 8008574:	6002      	str	r2, [r0, #0]
 8008576:	2d02      	cmp	r5, #2
 8008578:	f104 0314 	add.w	r3, r4, #20
 800857c:	d13c      	bne.n	80085f8 <__gethex+0x3e4>
 800857e:	f8d8 2000 	ldr.w	r2, [r8]
 8008582:	3a01      	subs	r2, #1
 8008584:	42b2      	cmp	r2, r6
 8008586:	d109      	bne.n	800859c <__gethex+0x388>
 8008588:	1171      	asrs	r1, r6, #5
 800858a:	2201      	movs	r2, #1
 800858c:	f853 3021 	ldr.w	r3, [r3, r1, lsl #2]
 8008590:	f006 061f 	and.w	r6, r6, #31
 8008594:	fa02 f606 	lsl.w	r6, r2, r6
 8008598:	421e      	tst	r6, r3
 800859a:	d13a      	bne.n	8008612 <__gethex+0x3fe>
 800859c:	f045 0520 	orr.w	r5, r5, #32
 80085a0:	9b0e      	ldr	r3, [sp, #56]	@ 0x38
 80085a2:	601c      	str	r4, [r3, #0]
 80085a4:	9b02      	ldr	r3, [sp, #8]
 80085a6:	601f      	str	r7, [r3, #0]
 80085a8:	e6b0      	b.n	800830c <__gethex+0xf8>
 80085aa:	4299      	cmp	r1, r3
 80085ac:	f843 cc04 	str.w	ip, [r3, #-4]
 80085b0:	d8d9      	bhi.n	8008566 <__gethex+0x352>
 80085b2:	68a3      	ldr	r3, [r4, #8]
 80085b4:	459b      	cmp	fp, r3
 80085b6:	db17      	blt.n	80085e8 <__gethex+0x3d4>
 80085b8:	6861      	ldr	r1, [r4, #4]
 80085ba:	9801      	ldr	r0, [sp, #4]
 80085bc:	3101      	adds	r1, #1
 80085be:	f000 f9c3 	bl	8008948 <_Balloc>
 80085c2:	4681      	mov	r9, r0
 80085c4:	b918      	cbnz	r0, 80085ce <__gethex+0x3ba>
 80085c6:	4b1a      	ldr	r3, [pc, #104]	@ (8008630 <__gethex+0x41c>)
 80085c8:	4602      	mov	r2, r0
 80085ca:	2184      	movs	r1, #132	@ 0x84
 80085cc:	e6c5      	b.n	800835a <__gethex+0x146>
 80085ce:	6922      	ldr	r2, [r4, #16]
 80085d0:	3202      	adds	r2, #2
 80085d2:	f104 010c 	add.w	r1, r4, #12
 80085d6:	0092      	lsls	r2, r2, #2
 80085d8:	300c      	adds	r0, #12
 80085da:	f7fe fefa 	bl	80073d2 <memcpy>
 80085de:	4621      	mov	r1, r4
 80085e0:	9801      	ldr	r0, [sp, #4]
 80085e2:	f000 f9f1 	bl	80089c8 <_Bfree>
 80085e6:	464c      	mov	r4, r9
 80085e8:	6923      	ldr	r3, [r4, #16]
 80085ea:	1c5a      	adds	r2, r3, #1
 80085ec:	eb04 0383 	add.w	r3, r4, r3, lsl #2
 80085f0:	6122      	str	r2, [r4, #16]
 80085f2:	2201      	movs	r2, #1
 80085f4:	615a      	str	r2, [r3, #20]
 80085f6:	e7be      	b.n	8008576 <__gethex+0x362>
 80085f8:	6922      	ldr	r2, [r4, #16]
 80085fa:	455a      	cmp	r2, fp
 80085fc:	dd0b      	ble.n	8008616 <__gethex+0x402>
 80085fe:	2101      	movs	r1, #1
 8008600:	4620      	mov	r0, r4
 8008602:	f7ff fd9f 	bl	8008144 <rshift>
 8008606:	f8d8 3008 	ldr.w	r3, [r8, #8]
 800860a:	3701      	adds	r7, #1
 800860c:	42bb      	cmp	r3, r7
 800860e:	f6ff aee0 	blt.w	80083d2 <__gethex+0x1be>
 8008612:	2501      	movs	r5, #1
 8008614:	e7c2      	b.n	800859c <__gethex+0x388>
 8008616:	f016 061f 	ands.w	r6, r6, #31
 800861a:	d0fa      	beq.n	8008612 <__gethex+0x3fe>
 800861c:	4453      	add	r3, sl
 800861e:	f1c6 0620 	rsb	r6, r6, #32
 8008622:	f853 0c04 	ldr.w	r0, [r3, #-4]
 8008626:	f000 fa81 	bl	8008b2c <__hi0bits>
 800862a:	42b0      	cmp	r0, r6
 800862c:	dbe7      	blt.n	80085fe <__gethex+0x3ea>
 800862e:	e7f0      	b.n	8008612 <__gethex+0x3fe>
 8008630:	08009afe 	.word	0x08009afe

08008634 <L_shift>:
 8008634:	f1c2 0208 	rsb	r2, r2, #8
 8008638:	0092      	lsls	r2, r2, #2
 800863a:	b570      	push	{r4, r5, r6, lr}
 800863c:	f1c2 0620 	rsb	r6, r2, #32
 8008640:	6843      	ldr	r3, [r0, #4]
 8008642:	6804      	ldr	r4, [r0, #0]
 8008644:	fa03 f506 	lsl.w	r5, r3, r6
 8008648:	432c      	orrs	r4, r5
 800864a:	40d3      	lsrs	r3, r2
 800864c:	6004      	str	r4, [r0, #0]
 800864e:	f840 3f04 	str.w	r3, [r0, #4]!
 8008652:	4288      	cmp	r0, r1
 8008654:	d3f4      	bcc.n	8008640 <L_shift+0xc>
 8008656:	bd70      	pop	{r4, r5, r6, pc}

08008658 <__match>:
 8008658:	b530      	push	{r4, r5, lr}
 800865a:	6803      	ldr	r3, [r0, #0]
 800865c:	3301      	adds	r3, #1
 800865e:	f811 4b01 	ldrb.w	r4, [r1], #1
 8008662:	b914      	cbnz	r4, 800866a <__match+0x12>
 8008664:	6003      	str	r3, [r0, #0]
 8008666:	2001      	movs	r0, #1
 8008668:	bd30      	pop	{r4, r5, pc}
 800866a:	f813 2b01 	ldrb.w	r2, [r3], #1
 800866e:	f1a2 0541 	sub.w	r5, r2, #65	@ 0x41
 8008672:	2d19      	cmp	r5, #25
 8008674:	bf98      	it	ls
 8008676:	3220      	addls	r2, #32
 8008678:	42a2      	cmp	r2, r4
 800867a:	d0f0      	beq.n	800865e <__match+0x6>
 800867c:	2000      	movs	r0, #0
 800867e:	e7f3      	b.n	8008668 <__match+0x10>

08008680 <__hexnan>:
 8008680:	e92d 4ff0 	stmdb	sp!, {r4, r5, r6, r7, r8, r9, sl, fp, lr}
 8008684:	680b      	ldr	r3, [r1, #0]
 8008686:	6801      	ldr	r1, [r0, #0]
 8008688:	115e      	asrs	r6, r3, #5
 800868a:	eb02 0686 	add.w	r6, r2, r6, lsl #2
 800868e:	f013 031f 	ands.w	r3, r3, #31
 8008692:	b087      	sub	sp, #28
 8008694:	bf18      	it	ne
 8008696:	3604      	addne	r6, #4
 8008698:	2500      	movs	r5, #0
 800869a:	1f37      	subs	r7, r6, #4
 800869c:	4682      	mov	sl, r0
 800869e:	4690      	mov	r8, r2
 80086a0:	9301      	str	r3, [sp, #4]
 80086a2:	f846 5c04 	str.w	r5, [r6, #-4]
 80086a6:	46b9      	mov	r9, r7
 80086a8:	463c      	mov	r4, r7
 80086aa:	9502      	str	r5, [sp, #8]
 80086ac:	46ab      	mov	fp, r5
 80086ae:	784a      	ldrb	r2, [r1, #1]
 80086b0:	1c4b      	adds	r3, r1, #1
 80086b2:	9303      	str	r3, [sp, #12]
 80086b4:	b342      	cbz	r2, 8008708 <__hexnan+0x88>
 80086b6:	4610      	mov	r0, r2
 80086b8:	9105      	str	r1, [sp, #20]
 80086ba:	9204      	str	r2, [sp, #16]
 80086bc:	f7ff fd94 	bl	80081e8 <__hexdig_fun>
 80086c0:	2800      	cmp	r0, #0
 80086c2:	d151      	bne.n	8008768 <__hexnan+0xe8>
 80086c4:	9a04      	ldr	r2, [sp, #16]
 80086c6:	9905      	ldr	r1, [sp, #20]
 80086c8:	2a20      	cmp	r2, #32
 80086ca:	d818      	bhi.n	80086fe <__hexnan+0x7e>
 80086cc:	9b02      	ldr	r3, [sp, #8]
 80086ce:	459b      	cmp	fp, r3
 80086d0:	dd13      	ble.n	80086fa <__hexnan+0x7a>
 80086d2:	454c      	cmp	r4, r9
 80086d4:	d206      	bcs.n	80086e4 <__hexnan+0x64>
 80086d6:	2d07      	cmp	r5, #7
 80086d8:	dc04      	bgt.n	80086e4 <__hexnan+0x64>
 80086da:	462a      	mov	r2, r5
 80086dc:	4649      	mov	r1, r9
 80086de:	4620      	mov	r0, r4
 80086e0:	f7ff ffa8 	bl	8008634 <L_shift>
 80086e4:	4544      	cmp	r4, r8
 80086e6:	d952      	bls.n	800878e <__hexnan+0x10e>
 80086e8:	2300      	movs	r3, #0
 80086ea:	f1a4 0904 	sub.w	r9, r4, #4
 80086ee:	f844 3c04 	str.w	r3, [r4, #-4]
 80086f2:	f8cd b008 	str.w	fp, [sp, #8]
 80086f6:	464c      	mov	r4, r9
 80086f8:	461d      	mov	r5, r3
 80086fa:	9903      	ldr	r1, [sp, #12]
 80086fc:	e7d7      	b.n	80086ae <__hexnan+0x2e>
 80086fe:	2a29      	cmp	r2, #41	@ 0x29
 8008700:	d157      	bne.n	80087b2 <__hexnan+0x132>
 8008702:	3102      	adds	r1, #2
 8008704:	f8ca 1000 	str.w	r1, [sl]
 8008708:	f1bb 0f00 	cmp.w	fp, #0
 800870c:	d051      	beq.n	80087b2 <__hexnan+0x132>
 800870e:	454c      	cmp	r4, r9
 8008710:	d206      	bcs.n	8008720 <__hexnan+0xa0>
 8008712:	2d07      	cmp	r5, #7
 8008714:	dc04      	bgt.n	8008720 <__hexnan+0xa0>
 8008716:	462a      	mov	r2, r5
 8008718:	4649      	mov	r1, r9
 800871a:	4620      	mov	r0, r4
 800871c:	f7ff ff8a 	bl	8008634 <L_shift>
 8008720:	4544      	cmp	r4, r8
 8008722:	d936      	bls.n	8008792 <__hexnan+0x112>
 8008724:	f1a8 0204 	sub.w	r2, r8, #4
 8008728:	4623      	mov	r3, r4
 800872a:	f853 1b04 	ldr.w	r1, [r3], #4
 800872e:	f842 1f04 	str.w	r1, [r2, #4]!
 8008732:	429f      	cmp	r7, r3
 8008734:	d2f9      	bcs.n	800872a <__hexnan+0xaa>
 8008736:	1b3b      	subs	r3, r7, r4
 8008738:	f023 0303 	bic.w	r3, r3, #3
 800873c:	3304      	adds	r3, #4
 800873e:	3401      	adds	r4, #1
 8008740:	3e03      	subs	r6, #3
 8008742:	42b4      	cmp	r4, r6
 8008744:	bf88      	it	hi
 8008746:	2304      	movhi	r3, #4
 8008748:	4443      	add	r3, r8
 800874a:	2200      	movs	r2, #0
 800874c:	f843 2b04 	str.w	r2, [r3], #4
 8008750:	429f      	cmp	r7, r3
 8008752:	d2fb      	bcs.n	800874c <__hexnan+0xcc>
 8008754:	683b      	ldr	r3, [r7, #0]
 8008756:	b91b      	cbnz	r3, 8008760 <__hexnan+0xe0>
 8008758:	4547      	cmp	r7, r8
 800875a:	d128      	bne.n	80087ae <__hexnan+0x12e>
 800875c:	2301      	movs	r3, #1
 800875e:	603b      	str	r3, [r7, #0]
 8008760:	2005      	movs	r0, #5
 8008762:	b007      	add	sp, #28
 8008764:	e8bd 8ff0 	ldmia.w	sp!, {r4, r5, r6, r7, r8, r9, sl, fp, pc}
 8008768:	3501      	adds	r5, #1
 800876a:	2d08      	cmp	r5, #8
 800876c:	f10b 0b01 	add.w	fp, fp, #1
 8008770:	dd06      	ble.n	8008780 <__hexnan+0x100>
 8008772:	4544      	cmp	r4, r8
 8008774:	d9c1      	bls.n	80086fa <__hexnan+0x7a>
 8008776:	2300      	movs	r3, #0
 8008778:	f844 3c04 	str.w	r3, [r4, #-4]
 800877c:	2501      	movs	r5, #1
 800877e:	3c04      	subs	r4, #4
 8008780:	6822      	ldr	r2, [r4, #0]
 8008782:	f000 000f 	and.w	r0, r0, #15
 8008786:	ea40 1002 	orr.w	r0, r0, r2, lsl #4
 800878a:	6020      	str	r0, [r4, #0]
 800878c:	e7b5      	b.n	80086fa <__hexnan+0x7a>
 800878e:	2508      	movs	r5, #8
 8008790:	e7b3      	b.n	80086fa <__hexnan+0x7a>
 8008792:	9b01      	ldr	r3, [sp, #4]
 8008794:	2b00      	cmp	r3, #0
 8008796:	d0dd      	beq.n	8008754 <__hexnan+0xd4>
 8008798:	f1c3 0320 	rsb	r3, r3, #32
 800879c:	f04f 32ff 	mov.w	r2, #4294967295
 80087a0:	40da      	lsrs	r2, r3
 80087a2:	f856 3c04 	ldr.w	r3, [r6, #-4]
 80087a6:	4013      	ands	r3, r2
 80087a8:	f846 3c04 	str.w	r3, [r6, #-4]
 80087ac:	e7d2      	b.n	8008754 <__hexnan+0xd4>
 80087ae:	3f04      	subs	r7, #4
 80087b0:	e7d0      	b.n	8008754 <__hexnan+0xd4>
 80087b2:	2004      	movs	r0, #4
 80087b4:	e7d5      	b.n	8008762 <__hexnan+0xe2>
	...

080087b8 <malloc>:
 80087b8:	4b02      	ldr	r3, [pc, #8]	@ (80087c4 <malloc+0xc>)
 80087ba:	4601      	mov	r1, r0
 80087bc:	6818      	ldr	r0, [r3, #0]
 80087be:	f000 b825 	b.w	800880c <_malloc_r>
 80087c2:	bf00      	nop
 80087c4:	20000188 	.word	0x20000188

080087c8 <sbrk_aligned>:
 80087c8:	b570      	push	{r4, r5, r6, lr}
 80087ca:	4e0f      	ldr	r6, [pc, #60]	@ (8008808 <sbrk_aligned+0x40>)
 80087cc:	460c      	mov	r4, r1
 80087ce:	6831      	ldr	r1, [r6, #0]
 80087d0:	4605      	mov	r5, r0
 80087d2:	b911      	cbnz	r1, 80087da <sbrk_aligned+0x12>
 80087d4:	f000 fff0 	bl	80097b8 <_sbrk_r>
 80087d8:	6030      	str	r0, [r6, #0]
 80087da:	4621      	mov	r1, r4
 80087dc:	4628      	mov	r0, r5
 80087de:	f000 ffeb 	bl	80097b8 <_sbrk_r>
 80087e2:	1c43      	adds	r3, r0, #1
 80087e4:	d103      	bne.n	80087ee <sbrk_aligned+0x26>
 80087e6:	f04f 34ff 	mov.w	r4, #4294967295
 80087ea:	4620      	mov	r0, r4
 80087ec:	bd70      	pop	{r4, r5, r6, pc}
 80087ee:	1cc4      	adds	r4, r0, #3
 80087f0:	f024 0403 	bic.w	r4, r4, #3
 80087f4:	42a0      	cmp	r0, r4
 80087f6:	d0f8      	beq.n	80087ea <sbrk_aligned+0x22>
 80087f8:	1a21      	subs	r1, r4, r0
 80087fa:	4628      	mov	r0, r5
 80087fc:	f000 ffdc 	bl	80097b8 <_sbrk_r>
 8008800:	3001      	adds	r0, #1
 8008802:	d1f2      	bne.n	80087ea <sbrk_aligned+0x22>
 8008804:	e7ef      	b.n	80087e6 <sbrk_aligned+0x1e>
 8008806:	bf00      	nop
 8008808:	200004e0 	.word	0x200004e0

0800880c <_malloc_r>:
 800880c:	e92d 43f8 	stmdb	sp!, {r3, r4, r5, r6, r7, r8, r9, lr}
 8008810:	1ccd      	adds	r5, r1, #3
 8008812:	f025 0503 	bic.w	r5, r5, #3
 8008816:	3508      	adds	r5, #8
 8008818:	2d0c      	cmp	r5, #12
 800881a:	bf38      	it	cc
 800881c:	250c      	movcc	r5, #12
 800881e:	2d00      	cmp	r5, #0
 8008820:	4606      	mov	r6, r0
 8008822:	db01      	blt.n	8008828 <_malloc_r+0x1c>
 8008824:	42a9      	cmp	r1, r5
 8008826:	d904      	bls.n	8008832 <_malloc_r+0x26>
 8008828:	230c      	movs	r3, #12
 800882a:	6033      	str	r3, [r6, #0]
 800882c:	2000      	movs	r0, #0
 800882e:	e8bd 83f8 	ldmia.w	sp!, {r3, r4, r5, r6, r7, r8, r9, pc}
 8008832:	f8df 80d4 	ldr.w	r8, [pc, #212]	@ 8008908 <_malloc_r+0xfc>
 8008836:	f000 f87b 	bl	8008930 <__malloc_lock>
 800883a:	f8d8 3000 	ldr.w	r3, [r8]
 800883e:	461c      	mov	r4, r3
 8008840:	bb44      	cbnz	r4, 8008894 <_malloc_r+0x88>
 8008842:	4629      	mov	r1, r5
 8008844:	4630      	mov	r0, r6
 8008846:	f7ff ffbf 	bl	80087c8 <sbrk_aligned>
 800884a:	1c43      	adds	r3, r0, #1
 800884c:	4604      	mov	r4, r0
 800884e:	d158      	bne.n	8008902 <_malloc_r+0xf6>
 8008850:	f8d8 4000 	ldr.w	r4, [r8]
 8008854:	4627      	mov	r7, r4
 8008856:	2f00      	cmp	r7, #0
 8008858:	d143      	bne.n	80088e2 <_malloc_r+0xd6>
 800885a:	2c00      	cmp	r4, #0
 800885c:	d04b      	beq.n	80088f6 <_malloc_r+0xea>
 800885e:	6823      	ldr	r3, [r4, #0]
 8008860:	4639      	mov	r1, r7
 8008862:	4630      	mov	r0, r6
 8008864:	eb04 0903 	add.w	r9, r4, r3
 8008868:	f000 ffa6 	bl	80097b8 <_sbrk_r>
 800886c:	4581      	cmp	r9, r0
 800886e:	d142      	bne.n	80088f6 <_malloc_r+0xea>
 8008870:	6821      	ldr	r1, [r4, #0]
 8008872:	1a6d      	subs	r5, r5, r1
 8008874:	4629      	mov	r1, r5
 8008876:	4630      	mov	r0, r6
 8008878:	f7ff ffa6 	bl	80087c8 <sbrk_aligned>
 800887c:	3001      	adds	r0, #1
 800887e:	d03a      	beq.n	80088f6 <_malloc_r+0xea>
 8008880:	6823      	ldr	r3, [r4, #0]
 8008882:	442b      	add	r3, r5
 8008884:	6023      	str	r3, [r4, #0]
 8008886:	f8d8 3000 	ldr.w	r3, [r8]
 800888a:	685a      	ldr	r2, [r3, #4]
 800888c:	bb62      	cbnz	r2, 80088e8 <_malloc_r+0xdc>
 800888e:	f8c8 7000 	str.w	r7, [r8]
 8008892:	e00f      	b.n	80088b4 <_malloc_r+0xa8>
 8008894:	6822      	ldr	r2, [r4, #0]
 8008896:	1b52      	subs	r2, r2, r5
 8008898:	d420      	bmi.n	80088dc <_malloc_r+0xd0>
 800889a:	2a0b      	cmp	r2, #11
 800889c:	d917      	bls.n	80088ce <_malloc_r+0xc2>
 800889e:	1961      	adds	r1, r4, r5
 80088a0:	42a3      	cmp	r3, r4
 80088a2:	6025      	str	r5, [r4, #0]
 80088a4:	bf18      	it	ne
 80088a6:	6059      	strne	r1, [r3, #4]
 80088a8:	6863      	ldr	r3, [r4, #4]
 80088aa:	bf08      	it	eq
 80088ac:	f8c8 1000 	streq.w	r1, [r8]
 80088b0:	5162      	str	r2, [r4, r5]
 80088b2:	604b      	str	r3, [r1, #4]
 80088b4:	4630      	mov	r0, r6
 80088b6:	f000 f841 	bl	800893c <__malloc_unlock>
 80088ba:	f104 000b 	add.w	r0, r4, #11
 80088be:	1d23      	adds	r3, r4, #4
 80088c0:	f020 0007 	bic.w	r0, r0, #7
 80088c4:	1ac2      	subs	r2, r0, r3
 80088c6:	bf1c      	itt	ne
 80088c8:	1a1b      	subne	r3, r3, r0
 80088ca:	50a3      	strne	r3, [r4, r2]
 80088cc:	e7af      	b.n	800882e <_malloc_r+0x22>
 80088ce:	6862      	ldr	r2, [r4, #4]
 80088d0:	42a3      	cmp	r3, r4
 80088d2:	bf0c      	ite	eq
 80088d4:	f8c8 2000 	streq.w	r2, [r8]
 80088d8:	605a      	strne	r2, [r3, #4]
 80088da:	e7eb      	b.n	80088b4 <_malloc_r+0xa8>
 80088dc:	4623      	mov	r3, r4
 80088de:	6864      	ldr	r4, [r4, #4]
 80088e0:	e7ae      	b.n	8008840 <_malloc_r+0x34>
 80088e2:	463c      	mov	r4, r7
 80088e4:	687f      	ldr	r7, [r7, #4]
 80088e6:	e7b6      	b.n	8008856 <_malloc_r+0x4a>
 80088e8:	461a      	mov	r2, r3
 80088ea:	685b      	ldr	r3, [r3, #4]
 80088ec:	42a3      	cmp	r3, r4
 80088ee:	d1fb      	bne.n	80088e8 <_malloc_r+0xdc>
 80088f0:	2300      	movs	r3, #0
 80088f2:	6053      	str	r3, [r2, #4]
 80088f4:	e7de      	b.n	80088b4 <_malloc_r+0xa8>
 80088f6:	230c      	movs	r3, #12
 80088f8:	6033      	str	r3, [r6, #0]
 80088fa:	4630      	mov	r0, r6
 80088fc:	f000 f81e 	bl	800893c <__malloc_unlock>
 8008900:	e794      	b.n	800882c <_malloc_r+0x20>
 8008902:	6005      	str	r5, [r0, #0]
 8008904:	e7d6      	b.n	80088b4 <_malloc_r+0xa8>
 8008906:	bf00      	nop
 8008908:	200004e4 	.word	0x200004e4

0800890c <__ascii_mbtowc>:
 800890c:	b082      	sub	sp, #8
 800890e:	b901      	cbnz	r1, 8008912 <__ascii_mbtowc+0x6>
 8008910:	a901      	add	r1, sp, #4
 8008912:	b142      	cbz	r2, 8008926 <__ascii_mbtowc+0x1a>
 8008914:	b14b      	cbz	r3, 800892a <__ascii_mbtowc+0x1e>
 8008916:	7813      	ldrb	r3, [r2, #0]
 8008918:	600b      	str	r3, [r1, #0]
 800891a:	7812      	ldrb	r2, [r2, #0]
 800891c:	1e10      	subs	r0, r2, #0
 800891e:	bf18      	it	ne
 8008920:	2001      	movne	r0, #1
 8008922:	b002      	add	sp, #8
 8008924:	4770      	bx	lr
 8008926:	4610      	mov	r0, r2
 8008928:	e7fb      	b.n	8008922 <__ascii_mbtowc+0x16>
 800892a:	f06f 0001 	mvn.w	r0, #1
 800892e:	e7f8      	b.n	8008922 <__ascii_mbtowc+0x16>

08008930 <__malloc_lock>:
 8008930:	4801      	ldr	r0, [pc, #4]	@ (8008938 <__malloc_lock+0x8>)
 8008932:	f7fe bd4c 	b.w	80073ce <__retarget_lock_acquire_recursive>
 8008936:	bf00      	nop
 8008938:	200004dc 	.word	0x200004dc

0800893c <__malloc_unlock>:
 800893c:	4801      	ldr	r0, [pc, #4]	@ (8008944 <__malloc_unlock+0x8>)
 800893e:	f7fe bd47 	b.w	80073d0 <__retarget_lock_release_recursive>
 8008942:	bf00      	nop
 8008944:	200004dc 	.word	0x200004dc

08008948 <_Balloc>:
 8008948:	b570      	push	{r4, r5, r6, lr}
 800894a:	69c6      	ldr	r6, [r0, #28]
 800894c:	4604      	mov	r4, r0
 800894e:	460d      	mov	r5, r1
 8008950:	b976      	cbnz	r6, 8008970 <_Balloc+0x28>
 8008952:	2010      	movs	r0, #16
 8008954:	f7ff ff30 	bl	80087b8 <malloc>
 8008958:	4602      	mov	r2, r0
 800895a:	61e0      	str	r0, [r4, #28]
 800895c:	b920      	cbnz	r0, 8008968 <_Balloc+0x20>
 800895e:	4b18      	ldr	r3, [pc, #96]	@ (80089c0 <_Balloc+0x78>)
 8008960:	4818      	ldr	r0, [pc, #96]	@ (80089c4 <_Balloc+0x7c>)
 8008962:	216b      	movs	r1, #107	@ 0x6b
 8008964:	f000 ff38 	bl	80097d8 <__assert_func>
 8008968:	e9c0 6601 	strd	r6, r6, [r0, #4]
 800896c:	6006      	str	r6, [r0, #0]
 800896e:	60c6      	str	r6, [r0, #12]
 8008970:	69e6      	ldr	r6, [r4, #28]
 8008972:	68f3      	ldr	r3, [r6, #12]
 8008974:	b183      	cbz	r3, 8008998 <_Balloc+0x50>
 8008976:	69e3      	ldr	r3, [r4, #28]
 8008978:	68db      	ldr	r3, [r3, #12]
 800897a:	f853 0025 	ldr.w	r0, [r3, r5, lsl #2]
 800897e:	b9b8      	cbnz	r0, 80089b0 <_Balloc+0x68>
 8008980:	2101      	movs	r1, #1
 8008982:	fa01 f605 	lsl.w	r6, r1, r5
 8008986:	1d72      	adds	r2, r6, #5
 8008988:	0092      	lsls	r2, r2, #2
 800898a:	4620      	mov	r0, r4
 800898c:	f000 ff42 	bl	8009814 <_calloc_r>
 8008990:	b160      	cbz	r0, 80089ac <_Balloc+0x64>
 8008992:	e9c0 5601 	strd	r5, r6, [r0, #4]
 8008996:	e00e      	b.n	80089b6 <_Balloc+0x6e>
 8008998:	2221      	movs	r2, #33	@ 0x21
 800899a:	2104      	movs	r1, #4
 800899c:	4620      	mov	r0, r4
 800899e:	f000 ff39 	bl	8009814 <_calloc_r>
 80089a2:	69e3      	ldr	r3, [r4, #28]
 80089a4:	60f0      	str	r0, [r6, #12]
 80089a6:	68db      	ldr	r3, [r3, #12]
 80089a8:	2b00      	cmp	r3, #0
 80089aa:	d1e4      	bne.n	8008976 <_Balloc+0x2e>
 80089ac:	2000      	movs	r0, #0
 80089ae:	bd70      	pop	{r4, r5, r6, pc}
 80089b0:	6802      	ldr	r2, [r0, #0]
 80089b2:	f843 2025 	str.w	r2, [r3, r5, lsl #2]
 80089b6:	2300      	movs	r3, #0
 80089b8:	e9c0 3303 	strd	r3, r3, [r0, #12]
 80089bc:	e7f7      	b.n	80089ae <_Balloc+0x66>
 80089be:	bf00      	nop
 80089c0:	08009a8f 	.word	0x08009a8f
 80089c4:	08009b6f 	.word	0x08009b6f

080089c8 <_Bfree>:
 80089c8:	b570      	push	{r4, r5, r6, lr}
 80089ca:	69c6      	ldr	r6, [r0, #28]
 80089cc:	4605      	mov	r5, r0
 80089ce:	460c      	mov	r4, r1
 80089d0:	b976      	cbnz	r6, 80089f0 <_Bfree+0x28>
 80089d2:	2010      	movs	r0, #16
 80089d4:	f7ff fef0 	bl	80087b8 <malloc>
 80089d8:	4602      	mov	r2, r0
 80089da:	61e8      	str	r0, [r5, #28]
 80089dc:	b920      	cbnz	r0, 80089e8 <_Bfree+0x20>
 80089de:	4b09      	ldr	r3, [pc, #36]	@ (8008a04 <_Bfree+0x3c>)
 80089e0:	4809      	ldr	r0, [pc, #36]	@ (8008a08 <_Bfree+0x40>)
 80089e2:	218f      	movs	r1, #143	@ 0x8f
 80089e4:	f000 fef8 	bl	80097d8 <__assert_func>
 80089e8:	e9c0 6601 	strd	r6, r6, [r0, #4]
 80089ec:	6006      	str	r6, [r0, #0]
 80089ee:	60c6      	str	r6, [r0, #12]
 80089f0:	b13c      	cbz	r4, 8008a02 <_Bfree+0x3a>
 80089f2:	69eb      	ldr	r3, [r5, #28]
 80089f4:	6862      	ldr	r2, [r4, #4]
 80089f6:	68db      	ldr	r3, [r3, #12]
 80089f8:	f853 1022 	ldr.w	r1, [r3, r2, lsl #2]
 80089fc:	6021      	str	r1, [r4, #0]
 80089fe:	f843 4022 	str.w	r4, [r3, r2, lsl #2]
 8008a02:	bd70      	pop	{r4, r5, r6, pc}
 8008a04:	08009a8f 	.word	0x08009a8f
 8008a08:	08009b6f 	.word	0x08009b6f

08008a0c <__multadd>:
 8008a0c:	e92d 41f0 	stmdb	sp!, {r4, r5, r6, r7, r8, lr}
 8008a10:	690d      	ldr	r5, [r1, #16]
 8008a12:	4607      	mov	r7, r0
 8008a14:	460c      	mov	r4, r1
 8008a16:	461e      	mov	r6, r3
 8008a18:	f101 0c14 	add.w	ip, r1, #20
 8008a1c:	2000      	movs	r0, #0
 8008a1e:	f8dc 3000 	ldr.w	r3, [ip]
 8008a22:	b299      	uxth	r1, r3
 8008a24:	fb02 6101 	mla	r1, r2, r1, r6
 8008a28:	0c1e      	lsrs	r6, r3, #16
 8008a2a:	0c0b      	lsrs	r3, r1, #16
 8008a2c:	fb02 3306 	mla	r3, r2, r6, r3
 8008a30:	b289      	uxth	r1, r1
 8008a32:	3001      	adds	r0, #1
 8008a34:	eb01 4103 	add.w	r1, r1, r3, lsl #16
 8008a38:	4285      	cmp	r5, r0
 8008a3a:	f84c 1b04 	str.w	r1, [ip], #4
 8008a3e:	ea4f 4613 	mov.w	r6, r3, lsr #16
 8008a42:	dcec      	bgt.n	8008a1e <__multadd+0x12>
 8008a44:	b30e      	cbz	r6, 8008a8a <__multadd+0x7e>
 8008a46:	68a3      	ldr	r3, [r4, #8]
 8008a48:	42ab      	cmp	r3, r5
 8008a4a:	dc19      	bgt.n	8008a80 <__multadd+0x74>
 8008a4c:	6861      	ldr	r1, [r4, #4]
 8008a4e:	4638      	mov	r0, r7
 8008a50:	3101      	adds	r1, #1
 8008a52:	f7ff ff79 	bl	8008948 <_Balloc>
 8008a56:	4680      	mov	r8, r0
 8008a58:	b928      	cbnz	r0, 8008a66 <__multadd+0x5a>
 8008a5a:	4602      	mov	r2, r0
 8008a5c:	4b0c      	ldr	r3, [pc, #48]	@ (8008a90 <__multadd+0x84>)
 8008a5e:	480d      	ldr	r0, [pc, #52]	@ (8008a94 <__multadd+0x88>)
 8008a60:	21ba      	movs	r1, #186	@ 0xba
 8008a62:	f000 feb9 	bl	80097d8 <__assert_func>
 8008a66:	6922      	ldr	r2, [r4, #16]
 8008a68:	3202      	adds	r2, #2
 8008a6a:	f104 010c 	add.w	r1, r4, #12
 8008a6e:	0092      	lsls	r2, r2, #2
 8008a70:	300c      	adds	r0, #12
 8008a72:	f7fe fcae 	bl	80073d2 <memcpy>
 8008a76:	4621      	mov	r1, r4
 8008a78:	4638      	mov	r0, r7
 8008a7a:	f7ff ffa5 	bl	80089c8 <_Bfree>
 8008a7e:	4644      	mov	r4, r8
 8008a80:	eb04 0385 	add.w	r3, r4, r5, lsl #2
 8008a84:	3501      	adds	r5, #1
 8008a86:	615e      	str	r6, [r3, #20]
 8008a88:	6125      	str	r5, [r4, #16]
 8008a8a:	4620      	mov	r0, r4
 8008a8c:	e8bd 81f0 	ldmia.w	sp!, {r4, r5, r6, r7, r8, pc}
 8008a90:	08009afe 	.word	0x08009afe
 8008a94:	08009b6f 	.word	0x08009b6f

08008a98 <__s2b>:
 8008a98:	e92d 43f8 	stmdb	sp!, {r3, r4, r5, r6, r7, r8, r9, lr}
 8008a9c:	460c      	mov	r4, r1
 8008a9e:	4615      	mov	r5, r2
 8008aa0:	461f      	mov	r7, r3
 8008aa2:	2209      	movs	r2, #9
 8008aa4:	3308      	adds	r3, #8
 8008aa6:	4606      	mov	r6, r0
 8008aa8:	fb93 f3f2 	sdiv	r3, r3, r2
 8008aac:	2100      	movs	r1, #0
 8008aae:	2201      	movs	r2, #1
 8008ab0:	429a      	cmp	r2, r3
 8008ab2:	db09      	blt.n	8008ac8 <__s2b+0x30>
 8008ab4:	4630      	mov	r0, r6
 8008ab6:	f7ff ff47 	bl	8008948 <_Balloc>
 8008aba:	b940      	cbnz	r0, 8008ace <__s2b+0x36>
 8008abc:	4602      	mov	r2, r0
 8008abe:	4b19      	ldr	r3, [pc, #100]	@ (8008b24 <__s2b+0x8c>)
 8008ac0:	4819      	ldr	r0, [pc, #100]	@ (8008b28 <__s2b+0x90>)
 8008ac2:	21d3      	movs	r1, #211	@ 0xd3
 8008ac4:	f000 fe88 	bl	80097d8 <__assert_func>
 8008ac8:	0052      	lsls	r2, r2, #1
 8008aca:	3101      	adds	r1, #1
 8008acc:	e7f0      	b.n	8008ab0 <__s2b+0x18>
 8008ace:	9b08      	ldr	r3, [sp, #32]
 8008ad0:	6143      	str	r3, [r0, #20]
 8008ad2:	2d09      	cmp	r5, #9
 8008ad4:	f04f 0301 	mov.w	r3, #1
 8008ad8:	6103      	str	r3, [r0, #16]
 8008ada:	dd16      	ble.n	8008b0a <__s2b+0x72>
 8008adc:	f104 0909 	add.w	r9, r4, #9
 8008ae0:	46c8      	mov	r8, r9
 8008ae2:	442c      	add	r4, r5
 8008ae4:	f818 3b01 	ldrb.w	r3, [r8], #1
 8008ae8:	4601      	mov	r1, r0
 8008aea:	3b30      	subs	r3, #48	@ 0x30
 8008aec:	220a      	movs	r2, #10
 8008aee:	4630      	mov	r0, r6
 8008af0:	f7ff ff8c 	bl	8008a0c <__multadd>
 8008af4:	45a0      	cmp	r8, r4
 8008af6:	d1f5      	bne.n	8008ae4 <__s2b+0x4c>
 8008af8:	f1a5 0408 	sub.w	r4, r5, #8
 8008afc:	444c      	add	r4, r9
 8008afe:	1b2d      	subs	r5, r5, r4
 8008b00:	1963      	adds	r3, r4, r5
 8008b02:	42bb      	cmp	r3, r7
 8008b04:	db04      	blt.n	8008b10 <__s2b+0x78>
 8008b06:	e8bd 83f8 	ldmia.w	sp!, {r3, r4, r5, r6, r7, r8, r9, pc}
 8008b0a:	340a      	adds	r4, #10
 8008b0c:	2509      	movs	r5, #9
 8008b0e:	e7f6      	b.n	8008afe <__s2b+0x66>
 8008b10:	f814 3b01 	ldrb.w	r3, [r4], #1
 8008b14:	4601      	mov	r1, r0
 8008b16:	3b30      	subs	r3, #48	@ 0x30
 8008b18:	220a      	movs	r2, #10
 8008b1a:	4630      	mov	r0, r6
 8008b1c:	f7ff ff76 	bl	8008a0c <__multadd>
 8008b20:	e7ee      	b.n	8008b00 <__s2b+0x68>
 8008b22:	bf00      	nop
 8008b24:	08009afe 	.word	0x08009afe
 8008b28:	08009b6f 	.word	0x08009b6f

08008b2c <__hi0bits>:
 8008b2c:	f5b0 3f80 	cmp.w	r0, #65536	@ 0x10000
 8008b30:	4603      	mov	r3, r0
 8008b32:	bf36      	itet	cc
 8008b34:	0403      	lslcc	r3, r0, #16
 8008b36:	2000      	movcs	r0, #0
 8008b38:	2010      	movcc	r0, #16
 8008b3a:	f1b3 7f80 	cmp.w	r3, #16777216	@ 0x1000000
 8008b3e:	bf3c      	itt	cc
 8008b40:	021b      	lslcc	r3, r3, #8
 8008b42:	3008      	addcc	r0, #8
 8008b44:	f1b3 5f80 	cmp.w	r3, #268435456	@ 0x10000000
 8008b48:	bf3c      	itt	cc
 8008b4a:	011b      	lslcc	r3, r3, #4
 8008b4c:	3004      	addcc	r0, #4
 8008b4e:	f1b3 4f80 	cmp.w	r3, #1073741824	@ 0x40000000
 8008b52:	bf3c      	itt	cc
 8008b54:	009b      	lslcc	r3, r3, #2
 8008b56:	3002      	addcc	r0, #2
 8008b58:	2b00      	cmp	r3, #0
 8008b5a:	db05      	blt.n	8008b68 <__hi0bits+0x3c>
 8008b5c:	f013 4f80 	tst.w	r3, #1073741824	@ 0x40000000
 8008b60:	f100 0001 	add.w	r0, r0, #1
 8008b64:	bf08      	it	eq
 8008b66:	2020      	moveq	r0, #32
 8008b68:	4770      	bx	lr

08008b6a <__lo0bits>:
 8008b6a:	6803      	ldr	r3, [r0, #0]
 8008b6c:	4602      	mov	r2, r0
 8008b6e:	f013 0007 	ands.w	r0, r3, #7
 8008b72:	d00b      	beq.n	8008b8c <__lo0bits+0x22>
 8008b74:	07d9      	lsls	r1, r3, #31
 8008b76:	d421      	bmi.n	8008bbc <__lo0bits+0x52>
 8008b78:	0798      	lsls	r0, r3, #30
 8008b7a:	bf49      	itett	mi
 8008b7c:	085b      	lsrmi	r3, r3, #1
 8008b7e:	089b      	lsrpl	r3, r3, #2
 8008b80:	2001      	movmi	r0, #1
 8008b82:	6013      	strmi	r3, [r2, #0]
 8008b84:	bf5c      	itt	pl
 8008b86:	6013      	strpl	r3, [r2, #0]
 8008b88:	2002      	movpl	r0, #2
 8008b8a:	4770      	bx	lr
 8008b8c:	b299      	uxth	r1, r3
 8008b8e:	b909      	cbnz	r1, 8008b94 <__lo0bits+0x2a>
 8008b90:	0c1b      	lsrs	r3, r3, #16
 8008b92:	2010      	movs	r0, #16
 8008b94:	b2d9      	uxtb	r1, r3
 8008b96:	b909      	cbnz	r1, 8008b9c <__lo0bits+0x32>
 8008b98:	3008      	adds	r0, #8
 8008b9a:	0a1b      	lsrs	r3, r3, #8
 8008b9c:	0719      	lsls	r1, r3, #28
 8008b9e:	bf04      	itt	eq
 8008ba0:	091b      	lsreq	r3, r3, #4
 8008ba2:	3004      	addeq	r0, #4
 8008ba4:	0799      	lsls	r1, r3, #30
 8008ba6:	bf04      	itt	eq
 8008ba8:	089b      	lsreq	r3, r3, #2
 8008baa:	3002      	addeq	r0, #2
 8008bac:	07d9      	lsls	r1, r3, #31
 8008bae:	d403      	bmi.n	8008bb8 <__lo0bits+0x4e>
 8008bb0:	085b      	lsrs	r3, r3, #1
 8008bb2:	f100 0001 	add.w	r0, r0, #1
 8008bb6:	d003      	beq.n	8008bc0 <__lo0bits+0x56>
 8008bb8:	6013      	str	r3, [r2, #0]
 8008bba:	4770      	bx	lr
 8008bbc:	2000      	movs	r0, #0
 8008bbe:	4770      	bx	lr
 8008bc0:	2020      	movs	r0, #32
 8008bc2:	4770      	bx	lr

08008bc4 <__i2b>:
 8008bc4:	b510      	push	{r4, lr}
 8008bc6:	460c      	mov	r4, r1
 8008bc8:	2101      	movs	r1, #1
 8008bca:	f7ff febd 	bl	8008948 <_Balloc>
 8008bce:	4602      	mov	r2, r0
 8008bd0:	b928      	cbnz	r0, 8008bde <__i2b+0x1a>
 8008bd2:	4b05      	ldr	r3, [pc, #20]	@ (8008be8 <__i2b+0x24>)
 8008bd4:	4805      	ldr	r0, [pc, #20]	@ (8008bec <__i2b+0x28>)
 8008bd6:	f240 1145 	movw	r1, #325	@ 0x145
 8008bda:	f000 fdfd 	bl	80097d8 <__assert_func>
 8008bde:	2301      	movs	r3, #1
 8008be0:	6144      	str	r4, [r0, #20]
 8008be2:	6103      	str	r3, [r0, #16]
 8008be4:	bd10      	pop	{r4, pc}
 8008be6:	bf00      	nop
 8008be8:	08009afe 	.word	0x08009afe
 8008bec:	08009b6f 	.word	0x08009b6f

08008bf0 <__multiply>:
 8008bf0:	e92d 4ff0 	stmdb	sp!, {r4, r5, r6, r7, r8, r9, sl, fp, lr}
 8008bf4:	4617      	mov	r7, r2
 8008bf6:	690a      	ldr	r2, [r1, #16]
 8008bf8:	693b      	ldr	r3, [r7, #16]
 8008bfa:	429a      	cmp	r2, r3
 8008bfc:	bfa8      	it	ge
 8008bfe:	463b      	movge	r3, r7
 8008c00:	4689      	mov	r9, r1
 8008c02:	bfa4      	itt	ge
 8008c04:	460f      	movge	r7, r1
 8008c06:	4699      	movge	r9, r3
 8008c08:	693d      	ldr	r5, [r7, #16]
 8008c0a:	f8d9 a010 	ldr.w	sl, [r9, #16]
 8008c0e:	68bb      	ldr	r3, [r7, #8]
 8008c10:	6879      	ldr	r1, [r7, #4]
 8008c12:	eb05 060a 	add.w	r6, r5, sl
 8008c16:	42b3      	cmp	r3, r6
 8008c18:	b085      	sub	sp, #20
 8008c1a:	bfb8      	it	lt
 8008c1c:	3101      	addlt	r1, #1
 8008c1e:	f7ff fe93 	bl	8008948 <_Balloc>
 8008c22:	b930      	cbnz	r0, 8008c32 <__multiply+0x42>
 8008c24:	4602      	mov	r2, r0
 8008c26:	4b41      	ldr	r3, [pc, #260]	@ (8008d2c <__multiply+0x13c>)
 8008c28:	4841      	ldr	r0, [pc, #260]	@ (8008d30 <__multiply+0x140>)
 8008c2a:	f44f 71b1 	mov.w	r1, #354	@ 0x162
 8008c2e:	f000 fdd3 	bl	80097d8 <__assert_func>
 8008c32:	f100 0414 	add.w	r4, r0, #20
 8008c36:	eb04 0e86 	add.w	lr, r4, r6, lsl #2
 8008c3a:	4623      	mov	r3, r4
 8008c3c:	2200      	movs	r2, #0
 8008c3e:	4573      	cmp	r3, lr
 8008c40:	d320      	bcc.n	8008c84 <__multiply+0x94>
 8008c42:	f107 0814 	add.w	r8, r7, #20
 8008c46:	f109 0114 	add.w	r1, r9, #20
 8008c4a:	eb08 0585 	add.w	r5, r8, r5, lsl #2
 8008c4e:	eb01 038a 	add.w	r3, r1, sl, lsl #2
 8008c52:	9302      	str	r3, [sp, #8]
 8008c54:	1beb      	subs	r3, r5, r7
 8008c56:	3b15      	subs	r3, #21
 8008c58:	f023 0303 	bic.w	r3, r3, #3
 8008c5c:	3304      	adds	r3, #4
 8008c5e:	3715      	adds	r7, #21
 8008c60:	42bd      	cmp	r5, r7
 8008c62:	bf38      	it	cc
 8008c64:	2304      	movcc	r3, #4
 8008c66:	9301      	str	r3, [sp, #4]
 8008c68:	9b02      	ldr	r3, [sp, #8]
 8008c6a:	9103      	str	r1, [sp, #12]
 8008c6c:	428b      	cmp	r3, r1
 8008c6e:	d80c      	bhi.n	8008c8a <__multiply+0x9a>
 8008c70:	2e00      	cmp	r6, #0
 8008c72:	dd03      	ble.n	8008c7c <__multiply+0x8c>
 8008c74:	f85e 3d04 	ldr.w	r3, [lr, #-4]!
 8008c78:	2b00      	cmp	r3, #0
 8008c7a:	d055      	beq.n	8008d28 <__multiply+0x138>
 8008c7c:	6106      	str	r6, [r0, #16]
 8008c7e:	b005      	add	sp, #20
 8008c80:	e8bd 8ff0 	ldmia.w	sp!, {r4, r5, r6, r7, r8, r9, sl, fp, pc}
 8008c84:	f843 2b04 	str.w	r2, [r3], #4
 8008c88:	e7d9      	b.n	8008c3e <__multiply+0x4e>
 8008c8a:	f8b1 a000 	ldrh.w	sl, [r1]
 8008c8e:	f1ba 0f00 	cmp.w	sl, #0
 8008c92:	d01f      	beq.n	8008cd4 <__multiply+0xe4>
 8008c94:	46c4      	mov	ip, r8
 8008c96:	46a1      	mov	r9, r4
 8008c98:	2700      	movs	r7, #0
 8008c9a:	f85c 2b04 	ldr.w	r2, [ip], #4
 8008c9e:	f8d9 3000 	ldr.w	r3, [r9]
 8008ca2:	fa1f fb82 	uxth.w	fp, r2
 8008ca6:	b29b      	uxth	r3, r3
 8008ca8:	fb0a 330b 	mla	r3, sl, fp, r3
 8008cac:	443b      	add	r3, r7
 8008cae:	f8d9 7000 	ldr.w	r7, [r9]
 8008cb2:	0c12      	lsrs	r2, r2, #16
 8008cb4:	0c3f      	lsrs	r7, r7, #16
 8008cb6:	fb0a 7202 	mla	r2, sl, r2, r7
 8008cba:	eb02 4213 	add.w	r2, r2, r3, lsr #16
 8008cbe:	b29b      	uxth	r3, r3
 8008cc0:	ea43 4302 	orr.w	r3, r3, r2, lsl #16
 8008cc4:	4565      	cmp	r5, ip
 8008cc6:	f849 3b04 	str.w	r3, [r9], #4
 8008cca:	ea4f 4712 	mov.w	r7, r2, lsr #16
 8008cce:	d8e4      	bhi.n	8008c9a <__multiply+0xaa>
 8008cd0:	9b01      	ldr	r3, [sp, #4]
 8008cd2:	50e7      	str	r7, [r4, r3]
 8008cd4:	9b03      	ldr	r3, [sp, #12]
 8008cd6:	f8b3 9002 	ldrh.w	r9, [r3, #2]
 8008cda:	3104      	adds	r1, #4
 8008cdc:	f1b9 0f00 	cmp.w	r9, #0
 8008ce0:	d020      	beq.n	8008d24 <__multiply+0x134>
 8008ce2:	6823      	ldr	r3, [r4, #0]
 8008ce4:	4647      	mov	r7, r8
 8008ce6:	46a4      	mov	ip, r4
 8008ce8:	f04f 0a00 	mov.w	sl, #0
 8008cec:	f8b7 b000 	ldrh.w	fp, [r7]
 8008cf0:	f8bc 2002 	ldrh.w	r2, [ip, #2]
 8008cf4:	fb09 220b 	mla	r2, r9, fp, r2
 8008cf8:	4452      	add	r2, sl
 8008cfa:	b29b      	uxth	r3, r3
 8008cfc:	ea43 4302 	orr.w	r3, r3, r2, lsl #16
 8008d00:	f84c 3b04 	str.w	r3, [ip], #4
 8008d04:	f857 3b04 	ldr.w	r3, [r7], #4
 8008d08:	ea4f 4a13 	mov.w	sl, r3, lsr #16
 8008d0c:	f8bc 3000 	ldrh.w	r3, [ip]
 8008d10:	fb09 330a 	mla	r3, r9, sl, r3
 8008d14:	eb03 4312 	add.w	r3, r3, r2, lsr #16
 8008d18:	42bd      	cmp	r5, r7
 8008d1a:	ea4f 4a13 	mov.w	sl, r3, lsr #16
 8008d1e:	d8e5      	bhi.n	8008cec <__multiply+0xfc>
 8008d20:	9a01      	ldr	r2, [sp, #4]
 8008d22:	50a3      	str	r3, [r4, r2]
 8008d24:	3404      	adds	r4, #4
 8008d26:	e79f      	b.n	8008c68 <__multiply+0x78>
 8008d28:	3e01      	subs	r6, #1
 8008d2a:	e7a1      	b.n	8008c70 <__multiply+0x80>
 8008d2c:	08009afe 	.word	0x08009afe
 8008d30:	08009b6f 	.word	0x08009b6f

08008d34 <__pow5mult>:
 8008d34:	e92d 43f8 	stmdb	sp!, {r3, r4, r5, r6, r7, r8, r9, lr}
 8008d38:	4615      	mov	r5, r2
 8008d3a:	f012 0203 	ands.w	r2, r2, #3
 8008d3e:	4607      	mov	r7, r0
 8008d40:	460e      	mov	r6, r1
 8008d42:	d007      	beq.n	8008d54 <__pow5mult+0x20>
 8008d44:	4c25      	ldr	r4, [pc, #148]	@ (8008ddc <__pow5mult+0xa8>)
 8008d46:	3a01      	subs	r2, #1
 8008d48:	2300      	movs	r3, #0
 8008d4a:	f854 2022 	ldr.w	r2, [r4, r2, lsl #2]
 8008d4e:	f7ff fe5d 	bl	8008a0c <__multadd>
 8008d52:	4606      	mov	r6, r0
 8008d54:	10ad      	asrs	r5, r5, #2
 8008d56:	d03d      	beq.n	8008dd4 <__pow5mult+0xa0>
 8008d58:	69fc      	ldr	r4, [r7, #28]
 8008d5a:	b97c      	cbnz	r4, 8008d7c <__pow5mult+0x48>
 8008d5c:	2010      	movs	r0, #16
 8008d5e:	f7ff fd2b 	bl	80087b8 <malloc>
 8008d62:	4602      	mov	r2, r0
 8008d64:	61f8      	str	r0, [r7, #28]
 8008d66:	b928      	cbnz	r0, 8008d74 <__pow5mult+0x40>
 8008d68:	4b1d      	ldr	r3, [pc, #116]	@ (8008de0 <__pow5mult+0xac>)
 8008d6a:	481e      	ldr	r0, [pc, #120]	@ (8008de4 <__pow5mult+0xb0>)
 8008d6c:	f240 11b3 	movw	r1, #435	@ 0x1b3
 8008d70:	f000 fd32 	bl	80097d8 <__assert_func>
 8008d74:	e9c0 4401 	strd	r4, r4, [r0, #4]
 8008d78:	6004      	str	r4, [r0, #0]
 8008d7a:	60c4      	str	r4, [r0, #12]
 8008d7c:	f8d7 801c 	ldr.w	r8, [r7, #28]
 8008d80:	f8d8 4008 	ldr.w	r4, [r8, #8]
 8008d84:	b94c      	cbnz	r4, 8008d9a <__pow5mult+0x66>
 8008d86:	f240 2171 	movw	r1, #625	@ 0x271
 8008d8a:	4638      	mov	r0, r7
 8008d8c:	f7ff ff1a 	bl	8008bc4 <__i2b>
 8008d90:	2300      	movs	r3, #0
 8008d92:	f8c8 0008 	str.w	r0, [r8, #8]
 8008d96:	4604      	mov	r4, r0
 8008d98:	6003      	str	r3, [r0, #0]
 8008d9a:	f04f 0900 	mov.w	r9, #0
 8008d9e:	07eb      	lsls	r3, r5, #31
 8008da0:	d50a      	bpl.n	8008db8 <__pow5mult+0x84>
 8008da2:	4631      	mov	r1, r6
 8008da4:	4622      	mov	r2, r4
 8008da6:	4638      	mov	r0, r7
 8008da8:	f7ff ff22 	bl	8008bf0 <__multiply>
 8008dac:	4631      	mov	r1, r6
 8008dae:	4680      	mov	r8, r0
 8008db0:	4638      	mov	r0, r7
 8008db2:	f7ff fe09 	bl	80089c8 <_Bfree>
 8008db6:	4646      	mov	r6, r8
 8008db8:	106d      	asrs	r5, r5, #1
 8008dba:	d00b      	beq.n	8008dd4 <__pow5mult+0xa0>
 8008dbc:	6820      	ldr	r0, [r4, #0]
 8008dbe:	b938      	cbnz	r0, 8008dd0 <__pow5mult+0x9c>
 8008dc0:	4622      	mov	r2, r4
 8008dc2:	4621      	mov	r1, r4
 8008dc4:	4638      	mov	r0, r7
 8008dc6:	f7ff ff13 	bl	8008bf0 <__multiply>
 8008dca:	6020      	str	r0, [r4, #0]
 8008dcc:	f8c0 9000 	str.w	r9, [r0]
 8008dd0:	4604      	mov	r4, r0
 8008dd2:	e7e4      	b.n	8008d9e <__pow5mult+0x6a>
 8008dd4:	4630      	mov	r0, r6
 8008dd6:	e8bd 83f8 	ldmia.w	sp!, {r3, r4, r5, r6, r7, r8, r9, pc}
 8008dda:	bf00      	nop
 8008ddc:	08009d6c 	.word	0x08009d6c
 8008de0:	08009a8f 	.word	0x08009a8f
 8008de4:	08009b6f 	.word	0x08009b6f

08008de8 <__lshift>:
 8008de8:	e92d 47f0 	stmdb	sp!, {r4, r5, r6, r7, r8, r9, sl, lr}
 8008dec:	460c      	mov	r4, r1
 8008dee:	6849      	ldr	r1, [r1, #4]
 8008df0:	6923      	ldr	r3, [r4, #16]
 8008df2:	eb03 1862 	add.w	r8, r3, r2, asr #5
 8008df6:	68a3      	ldr	r3, [r4, #8]
 8008df8:	4607      	mov	r7, r0
 8008dfa:	4691      	mov	r9, r2
 8008dfc:	ea4f 1a62 	mov.w	sl, r2, asr #5
 8008e00:	f108 0601 	add.w	r6, r8, #1
 8008e04:	42b3      	cmp	r3, r6
 8008e06:	db0b      	blt.n	8008e20 <__lshift+0x38>
 8008e08:	4638      	mov	r0, r7
 8008e0a:	f7ff fd9d 	bl	8008948 <_Balloc>
 8008e0e:	4605      	mov	r5, r0
 8008e10:	b948      	cbnz	r0, 8008e26 <__lshift+0x3e>
 8008e12:	4602      	mov	r2, r0
 8008e14:	4b28      	ldr	r3, [pc, #160]	@ (8008eb8 <__lshift+0xd0>)
 8008e16:	4829      	ldr	r0, [pc, #164]	@ (8008ebc <__lshift+0xd4>)
 8008e18:	f44f 71ef 	mov.w	r1, #478	@ 0x1de
 8008e1c:	f000 fcdc 	bl	80097d8 <__assert_func>
 8008e20:	3101      	adds	r1, #1
 8008e22:	005b      	lsls	r3, r3, #1
 8008e24:	e7ee      	b.n	8008e04 <__lshift+0x1c>
 8008e26:	2300      	movs	r3, #0
 8008e28:	f100 0114 	add.w	r1, r0, #20
 8008e2c:	f100 0210 	add.w	r2, r0, #16
 8008e30:	4618      	mov	r0, r3
 8008e32:	4553      	cmp	r3, sl
 8008e34:	db33      	blt.n	8008e9e <__lshift+0xb6>
 8008e36:	6920      	ldr	r0, [r4, #16]
 8008e38:	ea2a 7aea 	bic.w	sl, sl, sl, asr #31
 8008e3c:	f104 0314 	add.w	r3, r4, #20
 8008e40:	f019 091f 	ands.w	r9, r9, #31
 8008e44:	eb01 018a 	add.w	r1, r1, sl, lsl #2
 8008e48:	eb03 0c80 	add.w	ip, r3, r0, lsl #2
 8008e4c:	d02b      	beq.n	8008ea6 <__lshift+0xbe>
 8008e4e:	f1c9 0e20 	rsb	lr, r9, #32
 8008e52:	468a      	mov	sl, r1
 8008e54:	2200      	movs	r2, #0
 8008e56:	6818      	ldr	r0, [r3, #0]
 8008e58:	fa00 f009 	lsl.w	r0, r0, r9
 8008e5c:	4310      	orrs	r0, r2
 8008e5e:	f84a 0b04 	str.w	r0, [sl], #4
 8008e62:	f853 2b04 	ldr.w	r2, [r3], #4
 8008e66:	459c      	cmp	ip, r3
 8008e68:	fa22 f20e 	lsr.w	r2, r2, lr
 8008e6c:	d8f3      	bhi.n	8008e56 <__lshift+0x6e>
 8008e6e:	ebac 0304 	sub.w	r3, ip, r4
 8008e72:	3b15      	subs	r3, #21
 8008e74:	f023 0303 	bic.w	r3, r3, #3
 8008e78:	3304      	adds	r3, #4
 8008e7a:	f104 0015 	add.w	r0, r4, #21
 8008e7e:	4560      	cmp	r0, ip
 8008e80:	bf88      	it	hi
 8008e82:	2304      	movhi	r3, #4
 8008e84:	50ca      	str	r2, [r1, r3]
 8008e86:	b10a      	cbz	r2, 8008e8c <__lshift+0xa4>
 8008e88:	f108 0602 	add.w	r6, r8, #2
 8008e8c:	3e01      	subs	r6, #1
 8008e8e:	4638      	mov	r0, r7
 8008e90:	612e      	str	r6, [r5, #16]
 8008e92:	4621      	mov	r1, r4
 8008e94:	f7ff fd98 	bl	80089c8 <_Bfree>
 8008e98:	4628      	mov	r0, r5
 8008e9a:	e8bd 87f0 	ldmia.w	sp!, {r4, r5, r6, r7, r8, r9, sl, pc}
 8008e9e:	f842 0f04 	str.w	r0, [r2, #4]!
 8008ea2:	3301      	adds	r3, #1
 8008ea4:	e7c5      	b.n	8008e32 <__lshift+0x4a>
 8008ea6:	3904      	subs	r1, #4
 8008ea8:	f853 2b04 	ldr.w	r2, [r3], #4
 8008eac:	f841 2f04 	str.w	r2, [r1, #4]!
 8008eb0:	459c      	cmp	ip, r3
 8008eb2:	d8f9      	bhi.n	8008ea8 <__lshift+0xc0>
 8008eb4:	e7ea      	b.n	8008e8c <__lshift+0xa4>
 8008eb6:	bf00      	nop
 8008eb8:	08009afe 	.word	0x08009afe
 8008ebc:	08009b6f 	.word	0x08009b6f

08008ec0 <__mcmp>:
 8008ec0:	690a      	ldr	r2, [r1, #16]
 8008ec2:	4603      	mov	r3, r0
 8008ec4:	6900      	ldr	r0, [r0, #16]
 8008ec6:	1a80      	subs	r0, r0, r2
 8008ec8:	b530      	push	{r4, r5, lr}
 8008eca:	d10e      	bne.n	8008eea <__mcmp+0x2a>
 8008ecc:	3314      	adds	r3, #20
 8008ece:	3114      	adds	r1, #20
 8008ed0:	eb03 0482 	add.w	r4, r3, r2, lsl #2
 8008ed4:	eb01 0182 	add.w	r1, r1, r2, lsl #2
 8008ed8:	f854 5d04 	ldr.w	r5, [r4, #-4]!
 8008edc:	f851 2d04 	ldr.w	r2, [r1, #-4]!
 8008ee0:	4295      	cmp	r5, r2
 8008ee2:	d003      	beq.n	8008eec <__mcmp+0x2c>
 8008ee4:	d205      	bcs.n	8008ef2 <__mcmp+0x32>
 8008ee6:	f04f 30ff 	mov.w	r0, #4294967295
 8008eea:	bd30      	pop	{r4, r5, pc}
 8008eec:	42a3      	cmp	r3, r4
 8008eee:	d3f3      	bcc.n	8008ed8 <__mcmp+0x18>
 8008ef0:	e7fb      	b.n	8008eea <__mcmp+0x2a>
 8008ef2:	2001      	movs	r0, #1
 8008ef4:	e7f9      	b.n	8008eea <__mcmp+0x2a>
	...

08008ef8 <__mdiff>:
 8008ef8:	e92d 4ff7 	stmdb	sp!, {r0, r1, r2, r4, r5, r6, r7, r8, r9, sl, fp, lr}
 8008efc:	4689      	mov	r9, r1
 8008efe:	4606      	mov	r6, r0
 8008f00:	4611      	mov	r1, r2
 8008f02:	4648      	mov	r0, r9
 8008f04:	4614      	mov	r4, r2
 8008f06:	f7ff ffdb 	bl	8008ec0 <__mcmp>
 8008f0a:	1e05      	subs	r5, r0, #0
 8008f0c:	d112      	bne.n	8008f34 <__mdiff+0x3c>
 8008f0e:	4629      	mov	r1, r5
 8008f10:	4630      	mov	r0, r6
 8008f12:	f7ff fd19 	bl	8008948 <_Balloc>
 8008f16:	4602      	mov	r2, r0
 8008f18:	b928      	cbnz	r0, 8008f26 <__mdiff+0x2e>
 8008f1a:	4b3f      	ldr	r3, [pc, #252]	@ (8009018 <__mdiff+0x120>)
 8008f1c:	f240 2137 	movw	r1, #567	@ 0x237
 8008f20:	483e      	ldr	r0, [pc, #248]	@ (800901c <__mdiff+0x124>)
 8008f22:	f000 fc59 	bl	80097d8 <__assert_func>
 8008f26:	2301      	movs	r3, #1
 8008f28:	e9c0 3504 	strd	r3, r5, [r0, #16]
 8008f2c:	4610      	mov	r0, r2
 8008f2e:	b003      	add	sp, #12
 8008f30:	e8bd 8ff0 	ldmia.w	sp!, {r4, r5, r6, r7, r8, r9, sl, fp, pc}
 8008f34:	bfbc      	itt	lt
 8008f36:	464b      	movlt	r3, r9
 8008f38:	46a1      	movlt	r9, r4
 8008f3a:	4630      	mov	r0, r6
 8008f3c:	f8d9 1004 	ldr.w	r1, [r9, #4]
 8008f40:	bfba      	itte	lt
 8008f42:	461c      	movlt	r4, r3
 8008f44:	2501      	movlt	r5, #1
 8008f46:	2500      	movge	r5, #0
 8008f48:	f7ff fcfe 	bl	8008948 <_Balloc>
 8008f4c:	4602      	mov	r2, r0
 8008f4e:	b918      	cbnz	r0, 8008f58 <__mdiff+0x60>
 8008f50:	4b31      	ldr	r3, [pc, #196]	@ (8009018 <__mdiff+0x120>)
 8008f52:	f240 2145 	movw	r1, #581	@ 0x245
 8008f56:	e7e3      	b.n	8008f20 <__mdiff+0x28>
 8008f58:	f8d9 7010 	ldr.w	r7, [r9, #16]
 8008f5c:	6926      	ldr	r6, [r4, #16]
 8008f5e:	60c5      	str	r5, [r0, #12]
 8008f60:	f109 0310 	add.w	r3, r9, #16
 8008f64:	f109 0514 	add.w	r5, r9, #20
 8008f68:	f104 0e14 	add.w	lr, r4, #20
 8008f6c:	f100 0b14 	add.w	fp, r0, #20
 8008f70:	eb05 0887 	add.w	r8, r5, r7, lsl #2
 8008f74:	eb0e 0686 	add.w	r6, lr, r6, lsl #2
 8008f78:	9301      	str	r3, [sp, #4]
 8008f7a:	46d9      	mov	r9, fp
 8008f7c:	f04f 0c00 	mov.w	ip, #0
 8008f80:	9b01      	ldr	r3, [sp, #4]
 8008f82:	f85e 0b04 	ldr.w	r0, [lr], #4
 8008f86:	f853 af04 	ldr.w	sl, [r3, #4]!
 8008f8a:	9301      	str	r3, [sp, #4]
 8008f8c:	fa1f f38a 	uxth.w	r3, sl
 8008f90:	4619      	mov	r1, r3
 8008f92:	b283      	uxth	r3, r0
 8008f94:	1acb      	subs	r3, r1, r3
 8008f96:	0c00      	lsrs	r0, r0, #16
 8008f98:	4463      	add	r3, ip
 8008f9a:	ebc0 401a 	rsb	r0, r0, sl, lsr #16
 8008f9e:	eb00 4023 	add.w	r0, r0, r3, asr #16
 8008fa2:	b29b      	uxth	r3, r3
 8008fa4:	ea43 4300 	orr.w	r3, r3, r0, lsl #16
 8008fa8:	4576      	cmp	r6, lr
 8008faa:	f849 3b04 	str.w	r3, [r9], #4
 8008fae:	ea4f 4c20 	mov.w	ip, r0, asr #16
 8008fb2:	d8e5      	bhi.n	8008f80 <__mdiff+0x88>
 8008fb4:	1b33      	subs	r3, r6, r4
 8008fb6:	3b15      	subs	r3, #21
 8008fb8:	f023 0303 	bic.w	r3, r3, #3
 8008fbc:	3415      	adds	r4, #21
 8008fbe:	3304      	adds	r3, #4
 8008fc0:	42a6      	cmp	r6, r4
 8008fc2:	bf38      	it	cc
 8008fc4:	2304      	movcc	r3, #4
 8008fc6:	441d      	add	r5, r3
 8008fc8:	445b      	add	r3, fp
 8008fca:	461e      	mov	r6, r3
 8008fcc:	462c      	mov	r4, r5
 8008fce:	4544      	cmp	r4, r8
 8008fd0:	d30e      	bcc.n	8008ff0 <__mdiff+0xf8>
 8008fd2:	f108 0103 	add.w	r1, r8, #3
 8008fd6:	1b49      	subs	r1, r1, r5
 8008fd8:	f021 0103 	bic.w	r1, r1, #3
 8008fdc:	3d03      	subs	r5, #3
 8008fde:	45a8      	cmp	r8, r5
 8008fe0:	bf38      	it	cc
 8008fe2:	2100      	movcc	r1, #0
 8008fe4:	440b      	add	r3, r1
 8008fe6:	f853 1d04 	ldr.w	r1, [r3, #-4]!
 8008fea:	b191      	cbz	r1, 8009012 <__mdiff+0x11a>
 8008fec:	6117      	str	r7, [r2, #16]
 8008fee:	e79d      	b.n	8008f2c <__mdiff+0x34>
 8008ff0:	f854 1b04 	ldr.w	r1, [r4], #4
 8008ff4:	46e6      	mov	lr, ip
 8008ff6:	0c08      	lsrs	r0, r1, #16
 8008ff8:	fa1c fc81 	uxtah	ip, ip, r1
 8008ffc:	4471      	add	r1, lr
 8008ffe:	eb00 402c 	add.w	r0, r0, ip, asr #16
 8009002:	b289      	uxth	r1, r1
 8009004:	ea41 4100 	orr.w	r1, r1, r0, lsl #16
 8009008:	f846 1b04 	str.w	r1, [r6], #4
 800900c:	ea4f 4c20 	mov.w	ip, r0, asr #16
 8009010:	e7dd      	b.n	8008fce <__mdiff+0xd6>
 8009012:	3f01      	subs	r7, #1
 8009014:	e7e7      	b.n	8008fe6 <__mdiff+0xee>
 8009016:	bf00      	nop
 8009018:	08009afe 	.word	0x08009afe
 800901c:	08009b6f 	.word	0x08009b6f

08009020 <__ulp>:
 8009020:	b082      	sub	sp, #8
 8009022:	ed8d 0b00 	vstr	d0, [sp]
 8009026:	9a01      	ldr	r2, [sp, #4]
 8009028:	4b0f      	ldr	r3, [pc, #60]	@ (8009068 <__ulp+0x48>)
 800902a:	4013      	ands	r3, r2
 800902c:	f1a3 7350 	sub.w	r3, r3, #54525952	@ 0x3400000
 8009030:	2b00      	cmp	r3, #0
 8009032:	dc08      	bgt.n	8009046 <__ulp+0x26>
 8009034:	425b      	negs	r3, r3
 8009036:	f1b3 7fa0 	cmp.w	r3, #20971520	@ 0x1400000
 800903a:	ea4f 5223 	mov.w	r2, r3, asr #20
 800903e:	da04      	bge.n	800904a <__ulp+0x2a>
 8009040:	f44f 2300 	mov.w	r3, #524288	@ 0x80000
 8009044:	4113      	asrs	r3, r2
 8009046:	2200      	movs	r2, #0
 8009048:	e008      	b.n	800905c <__ulp+0x3c>
 800904a:	f1a2 0314 	sub.w	r3, r2, #20
 800904e:	2b1e      	cmp	r3, #30
 8009050:	bfda      	itte	le
 8009052:	f04f 4200 	movle.w	r2, #2147483648	@ 0x80000000
 8009056:	40da      	lsrle	r2, r3
 8009058:	2201      	movgt	r2, #1
 800905a:	2300      	movs	r3, #0
 800905c:	4619      	mov	r1, r3
 800905e:	4610      	mov	r0, r2
 8009060:	ec41 0b10 	vmov	d0, r0, r1
 8009064:	b002      	add	sp, #8
 8009066:	4770      	bx	lr
 8009068:	7ff00000 	.word	0x7ff00000

0800906c <__b2d>:
 800906c:	e92d 41f0 	stmdb	sp!, {r4, r5, r6, r7, r8, lr}
 8009070:	6906      	ldr	r6, [r0, #16]
 8009072:	f100 0814 	add.w	r8, r0, #20
 8009076:	eb08 0686 	add.w	r6, r8, r6, lsl #2
 800907a:	1f37      	subs	r7, r6, #4
 800907c:	f856 2c04 	ldr.w	r2, [r6, #-4]
 8009080:	4610      	mov	r0, r2
 8009082:	f7ff fd53 	bl	8008b2c <__hi0bits>
 8009086:	f1c0 0320 	rsb	r3, r0, #32
 800908a:	280a      	cmp	r0, #10
 800908c:	600b      	str	r3, [r1, #0]
 800908e:	491b      	ldr	r1, [pc, #108]	@ (80090fc <__b2d+0x90>)
 8009090:	dc15      	bgt.n	80090be <__b2d+0x52>
 8009092:	f1c0 0c0b 	rsb	ip, r0, #11
 8009096:	fa22 f30c 	lsr.w	r3, r2, ip
 800909a:	45b8      	cmp	r8, r7
 800909c:	ea43 0501 	orr.w	r5, r3, r1
 80090a0:	bf34      	ite	cc
 80090a2:	f856 3c08 	ldrcc.w	r3, [r6, #-8]
 80090a6:	2300      	movcs	r3, #0
 80090a8:	3015      	adds	r0, #21
 80090aa:	fa02 f000 	lsl.w	r0, r2, r0
 80090ae:	fa23 f30c 	lsr.w	r3, r3, ip
 80090b2:	4303      	orrs	r3, r0
 80090b4:	461c      	mov	r4, r3
 80090b6:	ec45 4b10 	vmov	d0, r4, r5
 80090ba:	e8bd 81f0 	ldmia.w	sp!, {r4, r5, r6, r7, r8, pc}
 80090be:	45b8      	cmp	r8, r7
 80090c0:	bf3a      	itte	cc
 80090c2:	f856 3c08 	ldrcc.w	r3, [r6, #-8]
 80090c6:	f1a6 0708 	subcc.w	r7, r6, #8
 80090ca:	2300      	movcs	r3, #0
 80090cc:	380b      	subs	r0, #11
 80090ce:	d012      	beq.n	80090f6 <__b2d+0x8a>
 80090d0:	f1c0 0120 	rsb	r1, r0, #32
 80090d4:	fa23 f401 	lsr.w	r4, r3, r1
 80090d8:	4082      	lsls	r2, r0
 80090da:	4322      	orrs	r2, r4
 80090dc:	4547      	cmp	r7, r8
 80090de:	f042 557f 	orr.w	r5, r2, #1069547520	@ 0x3fc00000
 80090e2:	bf8c      	ite	hi
 80090e4:	f857 2c04 	ldrhi.w	r2, [r7, #-4]
 80090e8:	2200      	movls	r2, #0
 80090ea:	4083      	lsls	r3, r0
 80090ec:	40ca      	lsrs	r2, r1
 80090ee:	f445 1540 	orr.w	r5, r5, #3145728	@ 0x300000
 80090f2:	4313      	orrs	r3, r2
 80090f4:	e7de      	b.n	80090b4 <__b2d+0x48>
 80090f6:	ea42 0501 	orr.w	r5, r2, r1
 80090fa:	e7db      	b.n	80090b4 <__b2d+0x48>
 80090fc:	3ff00000 	.word	0x3ff00000

08009100 <__d2b>:
 8009100:	e92d 43f7 	stmdb	sp!, {r0, r1, r2, r4, r5, r6, r7, r8, r9, lr}
 8009104:	460f      	mov	r7, r1
 8009106:	2101      	movs	r1, #1
 8009108:	ec59 8b10 	vmov	r8, r9, d0
 800910c:	4616      	mov	r6, r2
 800910e:	f7ff fc1b 	bl	8008948 <_Balloc>
 8009112:	4604      	mov	r4, r0
 8009114:	b930      	cbnz	r0, 8009124 <__d2b+0x24>
 8009116:	4602      	mov	r2, r0
 8009118:	4b23      	ldr	r3, [pc, #140]	@ (80091a8 <__d2b+0xa8>)
 800911a:	4824      	ldr	r0, [pc, #144]	@ (80091ac <__d2b+0xac>)
 800911c:	f240 310f 	movw	r1, #783	@ 0x30f
 8009120:	f000 fb5a 	bl	80097d8 <__assert_func>
 8009124:	f3c9 550a 	ubfx	r5, r9, #20, #11
 8009128:	f3c9 0313 	ubfx	r3, r9, #0, #20
 800912c:	b10d      	cbz	r5, 8009132 <__d2b+0x32>
 800912e:	f443 1380 	orr.w	r3, r3, #1048576	@ 0x100000
 8009132:	9301      	str	r3, [sp, #4]
 8009134:	f1b8 0300 	subs.w	r3, r8, #0
 8009138:	d023      	beq.n	8009182 <__d2b+0x82>
 800913a:	4668      	mov	r0, sp
 800913c:	9300      	str	r3, [sp, #0]
 800913e:	f7ff fd14 	bl	8008b6a <__lo0bits>
 8009142:	e9dd 1200 	ldrd	r1, r2, [sp]
 8009146:	b1d0      	cbz	r0, 800917e <__d2b+0x7e>
 8009148:	f1c0 0320 	rsb	r3, r0, #32
 800914c:	fa02 f303 	lsl.w	r3, r2, r3
 8009150:	430b      	orrs	r3, r1
 8009152:	40c2      	lsrs	r2, r0
 8009154:	6163      	str	r3, [r4, #20]
 8009156:	9201      	str	r2, [sp, #4]
 8009158:	9b01      	ldr	r3, [sp, #4]
 800915a:	61a3      	str	r3, [r4, #24]
 800915c:	2b00      	cmp	r3, #0
 800915e:	bf0c      	ite	eq
 8009160:	2201      	moveq	r2, #1
 8009162:	2202      	movne	r2, #2
 8009164:	6122      	str	r2, [r4, #16]
 8009166:	b1a5      	cbz	r5, 8009192 <__d2b+0x92>
 8009168:	f2a5 4533 	subw	r5, r5, #1075	@ 0x433
 800916c:	4405      	add	r5, r0
 800916e:	603d      	str	r5, [r7, #0]
 8009170:	f1c0 0035 	rsb	r0, r0, #53	@ 0x35
 8009174:	6030      	str	r0, [r6, #0]
 8009176:	4620      	mov	r0, r4
 8009178:	b003      	add	sp, #12
 800917a:	e8bd 83f0 	ldmia.w	sp!, {r4, r5, r6, r7, r8, r9, pc}
 800917e:	6161      	str	r1, [r4, #20]
 8009180:	e7ea      	b.n	8009158 <__d2b+0x58>
 8009182:	a801      	add	r0, sp, #4
 8009184:	f7ff fcf1 	bl	8008b6a <__lo0bits>
 8009188:	9b01      	ldr	r3, [sp, #4]
 800918a:	6163      	str	r3, [r4, #20]
 800918c:	3020      	adds	r0, #32
 800918e:	2201      	movs	r2, #1
 8009190:	e7e8      	b.n	8009164 <__d2b+0x64>
 8009192:	eb04 0382 	add.w	r3, r4, r2, lsl #2
 8009196:	f2a0 4032 	subw	r0, r0, #1074	@ 0x432
 800919a:	6038      	str	r0, [r7, #0]
 800919c:	6918      	ldr	r0, [r3, #16]
 800919e:	f7ff fcc5 	bl	8008b2c <__hi0bits>
 80091a2:	ebc0 1042 	rsb	r0, r0, r2, lsl #5
 80091a6:	e7e5      	b.n	8009174 <__d2b+0x74>
 80091a8:	08009afe 	.word	0x08009afe
 80091ac:	08009b6f 	.word	0x08009b6f

080091b0 <__ratio>:
 80091b0:	e92d 4ff0 	stmdb	sp!, {r4, r5, r6, r7, r8, r9, sl, fp, lr}
 80091b4:	b085      	sub	sp, #20
 80091b6:	e9cd 1000 	strd	r1, r0, [sp]
 80091ba:	a902      	add	r1, sp, #8
 80091bc:	f7ff ff56 	bl	800906c <__b2d>
 80091c0:	9800      	ldr	r0, [sp, #0]
 80091c2:	a903      	add	r1, sp, #12
 80091c4:	ec55 4b10 	vmov	r4, r5, d0
 80091c8:	f7ff ff50 	bl	800906c <__b2d>
 80091cc:	9b01      	ldr	r3, [sp, #4]
 80091ce:	6919      	ldr	r1, [r3, #16]
 80091d0:	9b00      	ldr	r3, [sp, #0]
 80091d2:	691b      	ldr	r3, [r3, #16]
 80091d4:	1ac9      	subs	r1, r1, r3
 80091d6:	e9dd 3202 	ldrd	r3, r2, [sp, #8]
 80091da:	1a9b      	subs	r3, r3, r2
 80091dc:	ec5b ab10 	vmov	sl, fp, d0
 80091e0:	eb03 1341 	add.w	r3, r3, r1, lsl #5
 80091e4:	2b00      	cmp	r3, #0
 80091e6:	bfce      	itee	gt
 80091e8:	462a      	movgt	r2, r5
 80091ea:	ebc3 3303 	rsble	r3, r3, r3, lsl #12
 80091ee:	465a      	movle	r2, fp
 80091f0:	462f      	mov	r7, r5
 80091f2:	46d9      	mov	r9, fp
 80091f4:	bfcc      	ite	gt
 80091f6:	eb02 5703 	addgt.w	r7, r2, r3, lsl #20
 80091fa:	eb02 5903 	addle.w	r9, r2, r3, lsl #20
 80091fe:	464b      	mov	r3, r9
 8009200:	4652      	mov	r2, sl
 8009202:	4620      	mov	r0, r4
 8009204:	4639      	mov	r1, r7
 8009206:	f7f7 fb29 	bl	800085c <__aeabi_ddiv>
 800920a:	ec41 0b10 	vmov	d0, r0, r1
 800920e:	b005      	add	sp, #20
 8009210:	e8bd 8ff0 	ldmia.w	sp!, {r4, r5, r6, r7, r8, r9, sl, fp, pc}

08009214 <__copybits>:
 8009214:	3901      	subs	r1, #1
 8009216:	b570      	push	{r4, r5, r6, lr}
 8009218:	1149      	asrs	r1, r1, #5
 800921a:	6914      	ldr	r4, [r2, #16]
 800921c:	3101      	adds	r1, #1
 800921e:	f102 0314 	add.w	r3, r2, #20
 8009222:	eb00 0181 	add.w	r1, r0, r1, lsl #2
 8009226:	eb03 0484 	add.w	r4, r3, r4, lsl #2
 800922a:	1f05      	subs	r5, r0, #4
 800922c:	42a3      	cmp	r3, r4
 800922e:	d30c      	bcc.n	800924a <__copybits+0x36>
 8009230:	1aa3      	subs	r3, r4, r2
 8009232:	3b11      	subs	r3, #17
 8009234:	f023 0303 	bic.w	r3, r3, #3
 8009238:	3211      	adds	r2, #17
 800923a:	42a2      	cmp	r2, r4
 800923c:	bf88      	it	hi
 800923e:	2300      	movhi	r3, #0
 8009240:	4418      	add	r0, r3
 8009242:	2300      	movs	r3, #0
 8009244:	4288      	cmp	r0, r1
 8009246:	d305      	bcc.n	8009254 <__copybits+0x40>
 8009248:	bd70      	pop	{r4, r5, r6, pc}
 800924a:	f853 6b04 	ldr.w	r6, [r3], #4
 800924e:	f845 6f04 	str.w	r6, [r5, #4]!
 8009252:	e7eb      	b.n	800922c <__copybits+0x18>
 8009254:	f840 3b04 	str.w	r3, [r0], #4
 8009258:	e7f4      	b.n	8009244 <__copybits+0x30>

0800925a <__any_on>:
 800925a:	f100 0214 	add.w	r2, r0, #20
 800925e:	6900      	ldr	r0, [r0, #16]
 8009260:	114b      	asrs	r3, r1, #5
 8009262:	4298      	cmp	r0, r3
 8009264:	b510      	push	{r4, lr}
 8009266:	db11      	blt.n	800928c <__any_on+0x32>
 8009268:	dd0a      	ble.n	8009280 <__any_on+0x26>
 800926a:	f011 011f 	ands.w	r1, r1, #31
 800926e:	d007      	beq.n	8009280 <__any_on+0x26>
 8009270:	f852 4023 	ldr.w	r4, [r2, r3, lsl #2]
 8009274:	fa24 f001 	lsr.w	r0, r4, r1
 8009278:	fa00 f101 	lsl.w	r1, r0, r1
 800927c:	428c      	cmp	r4, r1
 800927e:	d10b      	bne.n	8009298 <__any_on+0x3e>
 8009280:	eb02 0383 	add.w	r3, r2, r3, lsl #2
 8009284:	4293      	cmp	r3, r2
 8009286:	d803      	bhi.n	8009290 <__any_on+0x36>
 8009288:	2000      	movs	r0, #0
 800928a:	bd10      	pop	{r4, pc}
 800928c:	4603      	mov	r3, r0
 800928e:	e7f7      	b.n	8009280 <__any_on+0x26>
 8009290:	f853 1d04 	ldr.w	r1, [r3, #-4]!
 8009294:	2900      	cmp	r1, #0
 8009296:	d0f5      	beq.n	8009284 <__any_on+0x2a>
 8009298:	2001      	movs	r0, #1
 800929a:	e7f6      	b.n	800928a <__any_on+0x30>

0800929c <__ascii_wctomb>:
 800929c:	4603      	mov	r3, r0
 800929e:	4608      	mov	r0, r1
 80092a0:	b141      	cbz	r1, 80092b4 <__ascii_wctomb+0x18>
 80092a2:	2aff      	cmp	r2, #255	@ 0xff
 80092a4:	d904      	bls.n	80092b0 <__ascii_wctomb+0x14>
 80092a6:	228a      	movs	r2, #138	@ 0x8a
 80092a8:	601a      	str	r2, [r3, #0]
 80092aa:	f04f 30ff 	mov.w	r0, #4294967295
 80092ae:	4770      	bx	lr
 80092b0:	700a      	strb	r2, [r1, #0]
 80092b2:	2001      	movs	r0, #1
 80092b4:	4770      	bx	lr

080092b6 <__sfputc_r>:
 80092b6:	6893      	ldr	r3, [r2, #8]
 80092b8:	3b01      	subs	r3, #1
 80092ba:	2b00      	cmp	r3, #0
 80092bc:	b410      	push	{r4}
 80092be:	6093      	str	r3, [r2, #8]
 80092c0:	da08      	bge.n	80092d4 <__sfputc_r+0x1e>
 80092c2:	6994      	ldr	r4, [r2, #24]
 80092c4:	42a3      	cmp	r3, r4
 80092c6:	db01      	blt.n	80092cc <__sfputc_r+0x16>
 80092c8:	290a      	cmp	r1, #10
 80092ca:	d103      	bne.n	80092d4 <__sfputc_r+0x1e>
 80092cc:	f85d 4b04 	ldr.w	r4, [sp], #4
 80092d0:	f000 b9de 	b.w	8009690 <__swbuf_r>
 80092d4:	6813      	ldr	r3, [r2, #0]
 80092d6:	1c58      	adds	r0, r3, #1
 80092d8:	6010      	str	r0, [r2, #0]
 80092da:	7019      	strb	r1, [r3, #0]
 80092dc:	4608      	mov	r0, r1
 80092de:	f85d 4b04 	ldr.w	r4, [sp], #4
 80092e2:	4770      	bx	lr

080092e4 <__sfputs_r>:
 80092e4:	b5f8      	push	{r3, r4, r5, r6, r7, lr}
 80092e6:	4606      	mov	r6, r0
 80092e8:	460f      	mov	r7, r1
 80092ea:	4614      	mov	r4, r2
 80092ec:	18d5      	adds	r5, r2, r3
 80092ee:	42ac      	cmp	r4, r5
 80092f0:	d101      	bne.n	80092f6 <__sfputs_r+0x12>
 80092f2:	2000      	movs	r0, #0
 80092f4:	e007      	b.n	8009306 <__sfputs_r+0x22>
 80092f6:	f814 1b01 	ldrb.w	r1, [r4], #1
 80092fa:	463a      	mov	r2, r7
 80092fc:	4630      	mov	r0, r6
 80092fe:	f7ff ffda 	bl	80092b6 <__sfputc_r>
 8009302:	1c43      	adds	r3, r0, #1
 8009304:	d1f3      	bne.n	80092ee <__sfputs_r+0xa>
 8009306:	bdf8      	pop	{r3, r4, r5, r6, r7, pc}

08009308 <_vfiprintf_r>:
 8009308:	e92d 4ff0 	stmdb	sp!, {r4, r5, r6, r7, r8, r9, sl, fp, lr}
 800930c:	460d      	mov	r5, r1
 800930e:	b09d      	sub	sp, #116	@ 0x74
 8009310:	4614      	mov	r4, r2
 8009312:	4698      	mov	r8, r3
 8009314:	4606      	mov	r6, r0
 8009316:	b118      	cbz	r0, 8009320 <_vfiprintf_r+0x18>
 8009318:	6a03      	ldr	r3, [r0, #32]
 800931a:	b90b      	cbnz	r3, 8009320 <_vfiprintf_r+0x18>
 800931c:	f7fd ff1a 	bl	8007154 <__sinit>
 8009320:	6e6b      	ldr	r3, [r5, #100]	@ 0x64
 8009322:	07d9      	lsls	r1, r3, #31
 8009324:	d405      	bmi.n	8009332 <_vfiprintf_r+0x2a>
 8009326:	89ab      	ldrh	r3, [r5, #12]
 8009328:	059a      	lsls	r2, r3, #22
 800932a:	d402      	bmi.n	8009332 <_vfiprintf_r+0x2a>
 800932c:	6da8      	ldr	r0, [r5, #88]	@ 0x58
 800932e:	f7fe f84e 	bl	80073ce <__retarget_lock_acquire_recursive>
 8009332:	89ab      	ldrh	r3, [r5, #12]
 8009334:	071b      	lsls	r3, r3, #28
 8009336:	d501      	bpl.n	800933c <_vfiprintf_r+0x34>
 8009338:	692b      	ldr	r3, [r5, #16]
 800933a:	b99b      	cbnz	r3, 8009364 <_vfiprintf_r+0x5c>
 800933c:	4629      	mov	r1, r5
 800933e:	4630      	mov	r0, r6
 8009340:	f000 f9e4 	bl	800970c <__swsetup_r>
 8009344:	b170      	cbz	r0, 8009364 <_vfiprintf_r+0x5c>
 8009346:	6e6b      	ldr	r3, [r5, #100]	@ 0x64
 8009348:	07dc      	lsls	r4, r3, #31
 800934a:	d504      	bpl.n	8009356 <_vfiprintf_r+0x4e>
 800934c:	f04f 30ff 	mov.w	r0, #4294967295
 8009350:	b01d      	add	sp, #116	@ 0x74
 8009352:	e8bd 8ff0 	ldmia.w	sp!, {r4, r5, r6, r7, r8, r9, sl, fp, pc}
 8009356:	89ab      	ldrh	r3, [r5, #12]
 8009358:	0598      	lsls	r0, r3, #22
 800935a:	d4f7      	bmi.n	800934c <_vfiprintf_r+0x44>
 800935c:	6da8      	ldr	r0, [r5, #88]	@ 0x58
 800935e:	f7fe f837 	bl	80073d0 <__retarget_lock_release_recursive>
 8009362:	e7f3      	b.n	800934c <_vfiprintf_r+0x44>
 8009364:	2300      	movs	r3, #0
 8009366:	9309      	str	r3, [sp, #36]	@ 0x24
 8009368:	2320      	movs	r3, #32
 800936a:	f88d 3029 	strb.w	r3, [sp, #41]	@ 0x29
 800936e:	f8cd 800c 	str.w	r8, [sp, #12]
 8009372:	2330      	movs	r3, #48	@ 0x30
 8009374:	f8df 81ac 	ldr.w	r8, [pc, #428]	@ 8009524 <_vfiprintf_r+0x21c>
 8009378:	f88d 302a 	strb.w	r3, [sp, #42]	@ 0x2a
 800937c:	f04f 0901 	mov.w	r9, #1
 8009380:	4623      	mov	r3, r4
 8009382:	469a      	mov	sl, r3
 8009384:	f813 2b01 	ldrb.w	r2, [r3], #1
 8009388:	b10a      	cbz	r2, 800938e <_vfiprintf_r+0x86>
 800938a:	2a25      	cmp	r2, #37	@ 0x25
 800938c:	d1f9      	bne.n	8009382 <_vfiprintf_r+0x7a>
 800938e:	ebba 0b04 	subs.w	fp, sl, r4
 8009392:	d00b      	beq.n	80093ac <_vfiprintf_r+0xa4>
 8009394:	465b      	mov	r3, fp
 8009396:	4622      	mov	r2, r4
 8009398:	4629      	mov	r1, r5
 800939a:	4630      	mov	r0, r6
 800939c:	f7ff ffa2 	bl	80092e4 <__sfputs_r>
 80093a0:	3001      	adds	r0, #1
 80093a2:	f000 80a7 	beq.w	80094f4 <_vfiprintf_r+0x1ec>
 80093a6:	9a09      	ldr	r2, [sp, #36]	@ 0x24
 80093a8:	445a      	add	r2, fp
 80093aa:	9209      	str	r2, [sp, #36]	@ 0x24
 80093ac:	f89a 3000 	ldrb.w	r3, [sl]
 80093b0:	2b00      	cmp	r3, #0
 80093b2:	f000 809f 	beq.w	80094f4 <_vfiprintf_r+0x1ec>
 80093b6:	2300      	movs	r3, #0
 80093b8:	f04f 32ff 	mov.w	r2, #4294967295
 80093bc:	e9cd 2305 	strd	r2, r3, [sp, #20]
 80093c0:	f10a 0a01 	add.w	sl, sl, #1
 80093c4:	9304      	str	r3, [sp, #16]
 80093c6:	9307      	str	r3, [sp, #28]
 80093c8:	f88d 3053 	strb.w	r3, [sp, #83]	@ 0x53
 80093cc:	931a      	str	r3, [sp, #104]	@ 0x68
 80093ce:	4654      	mov	r4, sl
 80093d0:	2205      	movs	r2, #5
 80093d2:	f814 1b01 	ldrb.w	r1, [r4], #1
 80093d6:	4853      	ldr	r0, [pc, #332]	@ (8009524 <_vfiprintf_r+0x21c>)
 80093d8:	f7f6 ff02 	bl	80001e0 <memchr>
 80093dc:	9a04      	ldr	r2, [sp, #16]
 80093de:	b9d8      	cbnz	r0, 8009418 <_vfiprintf_r+0x110>
 80093e0:	06d1      	lsls	r1, r2, #27
 80093e2:	bf44      	itt	mi
 80093e4:	2320      	movmi	r3, #32
 80093e6:	f88d 3053 	strbmi.w	r3, [sp, #83]	@ 0x53
 80093ea:	0713      	lsls	r3, r2, #28
 80093ec:	bf44      	itt	mi
 80093ee:	232b      	movmi	r3, #43	@ 0x2b
 80093f0:	f88d 3053 	strbmi.w	r3, [sp, #83]	@ 0x53
 80093f4:	f89a 3000 	ldrb.w	r3, [sl]
 80093f8:	2b2a      	cmp	r3, #42	@ 0x2a
 80093fa:	d015      	beq.n	8009428 <_vfiprintf_r+0x120>
 80093fc:	9a07      	ldr	r2, [sp, #28]
 80093fe:	4654      	mov	r4, sl
 8009400:	2000      	movs	r0, #0
 8009402:	f04f 0c0a 	mov.w	ip, #10
 8009406:	4621      	mov	r1, r4
 8009408:	f811 3b01 	ldrb.w	r3, [r1], #1
 800940c:	3b30      	subs	r3, #48	@ 0x30
 800940e:	2b09      	cmp	r3, #9
 8009410:	d94b      	bls.n	80094aa <_vfiprintf_r+0x1a2>
 8009412:	b1b0      	cbz	r0, 8009442 <_vfiprintf_r+0x13a>
 8009414:	9207      	str	r2, [sp, #28]
 8009416:	e014      	b.n	8009442 <_vfiprintf_r+0x13a>
 8009418:	eba0 0308 	sub.w	r3, r0, r8
 800941c:	fa09 f303 	lsl.w	r3, r9, r3
 8009420:	4313      	orrs	r3, r2
 8009422:	9304      	str	r3, [sp, #16]
 8009424:	46a2      	mov	sl, r4
 8009426:	e7d2      	b.n	80093ce <_vfiprintf_r+0xc6>
 8009428:	9b03      	ldr	r3, [sp, #12]
 800942a:	1d19      	adds	r1, r3, #4
 800942c:	681b      	ldr	r3, [r3, #0]
 800942e:	9103      	str	r1, [sp, #12]
 8009430:	2b00      	cmp	r3, #0
 8009432:	bfbb      	ittet	lt
 8009434:	425b      	neglt	r3, r3
 8009436:	f042 0202 	orrlt.w	r2, r2, #2
 800943a:	9307      	strge	r3, [sp, #28]
 800943c:	9307      	strlt	r3, [sp, #28]
 800943e:	bfb8      	it	lt
 8009440:	9204      	strlt	r2, [sp, #16]
 8009442:	7823      	ldrb	r3, [r4, #0]
 8009444:	2b2e      	cmp	r3, #46	@ 0x2e
 8009446:	d10a      	bne.n	800945e <_vfiprintf_r+0x156>
 8009448:	7863      	ldrb	r3, [r4, #1]
 800944a:	2b2a      	cmp	r3, #42	@ 0x2a
 800944c:	d132      	bne.n	80094b4 <_vfiprintf_r+0x1ac>
 800944e:	9b03      	ldr	r3, [sp, #12]
 8009450:	1d1a      	adds	r2, r3, #4
 8009452:	681b      	ldr	r3, [r3, #0]
 8009454:	9203      	str	r2, [sp, #12]
 8009456:	ea43 73e3 	orr.w	r3, r3, r3, asr #31
 800945a:	3402      	adds	r4, #2
 800945c:	9305      	str	r3, [sp, #20]
 800945e:	f8df a0d4 	ldr.w	sl, [pc, #212]	@ 8009534 <_vfiprintf_r+0x22c>
 8009462:	7821      	ldrb	r1, [r4, #0]
 8009464:	2203      	movs	r2, #3
 8009466:	4650      	mov	r0, sl
 8009468:	f7f6 feba 	bl	80001e0 <memchr>
 800946c:	b138      	cbz	r0, 800947e <_vfiprintf_r+0x176>
 800946e:	9b04      	ldr	r3, [sp, #16]
 8009470:	eba0 000a 	sub.w	r0, r0, sl
 8009474:	2240      	movs	r2, #64	@ 0x40
 8009476:	4082      	lsls	r2, r0
 8009478:	4313      	orrs	r3, r2
 800947a:	3401      	adds	r4, #1
 800947c:	9304      	str	r3, [sp, #16]
 800947e:	f814 1b01 	ldrb.w	r1, [r4], #1
 8009482:	4829      	ldr	r0, [pc, #164]	@ (8009528 <_vfiprintf_r+0x220>)
 8009484:	f88d 1028 	strb.w	r1, [sp, #40]	@ 0x28
 8009488:	2206      	movs	r2, #6
 800948a:	f7f6 fea9 	bl	80001e0 <memchr>
 800948e:	2800      	cmp	r0, #0
 8009490:	d03f      	beq.n	8009512 <_vfiprintf_r+0x20a>
 8009492:	4b26      	ldr	r3, [pc, #152]	@ (800952c <_vfiprintf_r+0x224>)
 8009494:	bb1b      	cbnz	r3, 80094de <_vfiprintf_r+0x1d6>
 8009496:	9b03      	ldr	r3, [sp, #12]
 8009498:	3307      	adds	r3, #7
 800949a:	f023 0307 	bic.w	r3, r3, #7
 800949e:	3308      	adds	r3, #8
 80094a0:	9303      	str	r3, [sp, #12]
 80094a2:	9b09      	ldr	r3, [sp, #36]	@ 0x24
 80094a4:	443b      	add	r3, r7
 80094a6:	9309      	str	r3, [sp, #36]	@ 0x24
 80094a8:	e76a      	b.n	8009380 <_vfiprintf_r+0x78>
 80094aa:	fb0c 3202 	mla	r2, ip, r2, r3
 80094ae:	460c      	mov	r4, r1
 80094b0:	2001      	movs	r0, #1
 80094b2:	e7a8      	b.n	8009406 <_vfiprintf_r+0xfe>
 80094b4:	2300      	movs	r3, #0
 80094b6:	3401      	adds	r4, #1
 80094b8:	9305      	str	r3, [sp, #20]
 80094ba:	4619      	mov	r1, r3
 80094bc:	f04f 0c0a 	mov.w	ip, #10
 80094c0:	4620      	mov	r0, r4
 80094c2:	f810 2b01 	ldrb.w	r2, [r0], #1
 80094c6:	3a30      	subs	r2, #48	@ 0x30
 80094c8:	2a09      	cmp	r2, #9
 80094ca:	d903      	bls.n	80094d4 <_vfiprintf_r+0x1cc>
 80094cc:	2b00      	cmp	r3, #0
 80094ce:	d0c6      	beq.n	800945e <_vfiprintf_r+0x156>
 80094d0:	9105      	str	r1, [sp, #20]
 80094d2:	e7c4      	b.n	800945e <_vfiprintf_r+0x156>
 80094d4:	fb0c 2101 	mla	r1, ip, r1, r2
 80094d8:	4604      	mov	r4, r0
 80094da:	2301      	movs	r3, #1
 80094dc:	e7f0      	b.n	80094c0 <_vfiprintf_r+0x1b8>
 80094de:	ab03      	add	r3, sp, #12
 80094e0:	9300      	str	r3, [sp, #0]
 80094e2:	462a      	mov	r2, r5
 80094e4:	4b12      	ldr	r3, [pc, #72]	@ (8009530 <_vfiprintf_r+0x228>)
 80094e6:	a904      	add	r1, sp, #16
 80094e8:	4630      	mov	r0, r6
 80094ea:	f7fd f9f1 	bl	80068d0 <_printf_float>
 80094ee:	4607      	mov	r7, r0
 80094f0:	1c78      	adds	r0, r7, #1
 80094f2:	d1d6      	bne.n	80094a2 <_vfiprintf_r+0x19a>
 80094f4:	6e6b      	ldr	r3, [r5, #100]	@ 0x64
 80094f6:	07d9      	lsls	r1, r3, #31
 80094f8:	d405      	bmi.n	8009506 <_vfiprintf_r+0x1fe>
 80094fa:	89ab      	ldrh	r3, [r5, #12]
 80094fc:	059a      	lsls	r2, r3, #22
 80094fe:	d402      	bmi.n	8009506 <_vfiprintf_r+0x1fe>
 8009500:	6da8      	ldr	r0, [r5, #88]	@ 0x58
 8009502:	f7fd ff65 	bl	80073d0 <__retarget_lock_release_recursive>
 8009506:	89ab      	ldrh	r3, [r5, #12]
 8009508:	065b      	lsls	r3, r3, #25
 800950a:	f53f af1f 	bmi.w	800934c <_vfiprintf_r+0x44>
 800950e:	9809      	ldr	r0, [sp, #36]	@ 0x24
 8009510:	e71e      	b.n	8009350 <_vfiprintf_r+0x48>
 8009512:	ab03      	add	r3, sp, #12
 8009514:	9300      	str	r3, [sp, #0]
 8009516:	462a      	mov	r2, r5
 8009518:	4b05      	ldr	r3, [pc, #20]	@ (8009530 <_vfiprintf_r+0x228>)
 800951a:	a904      	add	r1, sp, #16
 800951c:	4630      	mov	r0, r6
 800951e:	f7fd fc6f 	bl	8006e00 <_printf_i>
 8009522:	e7e4      	b.n	80094ee <_vfiprintf_r+0x1e6>
 8009524:	08009bc8 	.word	0x08009bc8
 8009528:	08009bd2 	.word	0x08009bd2
 800952c:	080068d1 	.word	0x080068d1
 8009530:	080092e5 	.word	0x080092e5
 8009534:	08009bce 	.word	0x08009bce

08009538 <__sflush_r>:
 8009538:	f9b1 200c 	ldrsh.w	r2, [r1, #12]
 800953c:	e92d 41f0 	stmdb	sp!, {r4, r5, r6, r7, r8, lr}
 8009540:	0716      	lsls	r6, r2, #28
 8009542:	4605      	mov	r5, r0
 8009544:	460c      	mov	r4, r1
 8009546:	d454      	bmi.n	80095f2 <__sflush_r+0xba>
 8009548:	684b      	ldr	r3, [r1, #4]
 800954a:	2b00      	cmp	r3, #0
 800954c:	dc02      	bgt.n	8009554 <__sflush_r+0x1c>
 800954e:	6c0b      	ldr	r3, [r1, #64]	@ 0x40
 8009550:	2b00      	cmp	r3, #0
 8009552:	dd48      	ble.n	80095e6 <__sflush_r+0xae>
 8009554:	6ae6      	ldr	r6, [r4, #44]	@ 0x2c
 8009556:	2e00      	cmp	r6, #0
 8009558:	d045      	beq.n	80095e6 <__sflush_r+0xae>
 800955a:	2300      	movs	r3, #0
 800955c:	f412 5280 	ands.w	r2, r2, #4096	@ 0x1000
 8009560:	682f      	ldr	r7, [r5, #0]
 8009562:	6a21      	ldr	r1, [r4, #32]
 8009564:	602b      	str	r3, [r5, #0]
 8009566:	d030      	beq.n	80095ca <__sflush_r+0x92>
 8009568:	6d62      	ldr	r2, [r4, #84]	@ 0x54
 800956a:	89a3      	ldrh	r3, [r4, #12]
 800956c:	0759      	lsls	r1, r3, #29
 800956e:	d505      	bpl.n	800957c <__sflush_r+0x44>
 8009570:	6863      	ldr	r3, [r4, #4]
 8009572:	1ad2      	subs	r2, r2, r3
 8009574:	6b63      	ldr	r3, [r4, #52]	@ 0x34
 8009576:	b10b      	cbz	r3, 800957c <__sflush_r+0x44>
 8009578:	6c23      	ldr	r3, [r4, #64]	@ 0x40
 800957a:	1ad2      	subs	r2, r2, r3
 800957c:	2300      	movs	r3, #0
 800957e:	6ae6      	ldr	r6, [r4, #44]	@ 0x2c
 8009580:	6a21      	ldr	r1, [r4, #32]
 8009582:	4628      	mov	r0, r5
 8009584:	47b0      	blx	r6
 8009586:	1c43      	adds	r3, r0, #1
 8009588:	89a3      	ldrh	r3, [r4, #12]
 800958a:	d106      	bne.n	800959a <__sflush_r+0x62>
 800958c:	6829      	ldr	r1, [r5, #0]
 800958e:	291d      	cmp	r1, #29
 8009590:	d82b      	bhi.n	80095ea <__sflush_r+0xb2>
 8009592:	4a2a      	ldr	r2, [pc, #168]	@ (800963c <__sflush_r+0x104>)
 8009594:	40ca      	lsrs	r2, r1
 8009596:	07d6      	lsls	r6, r2, #31
 8009598:	d527      	bpl.n	80095ea <__sflush_r+0xb2>
 800959a:	2200      	movs	r2, #0
 800959c:	6062      	str	r2, [r4, #4]
 800959e:	04d9      	lsls	r1, r3, #19
 80095a0:	6922      	ldr	r2, [r4, #16]
 80095a2:	6022      	str	r2, [r4, #0]
 80095a4:	d504      	bpl.n	80095b0 <__sflush_r+0x78>
 80095a6:	1c42      	adds	r2, r0, #1
 80095a8:	d101      	bne.n	80095ae <__sflush_r+0x76>
 80095aa:	682b      	ldr	r3, [r5, #0]
 80095ac:	b903      	cbnz	r3, 80095b0 <__sflush_r+0x78>
 80095ae:	6560      	str	r0, [r4, #84]	@ 0x54
 80095b0:	6b61      	ldr	r1, [r4, #52]	@ 0x34
 80095b2:	602f      	str	r7, [r5, #0]
 80095b4:	b1b9      	cbz	r1, 80095e6 <__sflush_r+0xae>
 80095b6:	f104 0344 	add.w	r3, r4, #68	@ 0x44
 80095ba:	4299      	cmp	r1, r3
 80095bc:	d002      	beq.n	80095c4 <__sflush_r+0x8c>
 80095be:	4628      	mov	r0, r5
 80095c0:	f7fe fd76 	bl	80080b0 <_free_r>
 80095c4:	2300      	movs	r3, #0
 80095c6:	6363      	str	r3, [r4, #52]	@ 0x34
 80095c8:	e00d      	b.n	80095e6 <__sflush_r+0xae>
 80095ca:	2301      	movs	r3, #1
 80095cc:	4628      	mov	r0, r5
 80095ce:	47b0      	blx	r6
 80095d0:	4602      	mov	r2, r0
 80095d2:	1c50      	adds	r0, r2, #1
 80095d4:	d1c9      	bne.n	800956a <__sflush_r+0x32>
 80095d6:	682b      	ldr	r3, [r5, #0]
 80095d8:	2b00      	cmp	r3, #0
 80095da:	d0c6      	beq.n	800956a <__sflush_r+0x32>
 80095dc:	2b1d      	cmp	r3, #29
 80095de:	d001      	beq.n	80095e4 <__sflush_r+0xac>
 80095e0:	2b16      	cmp	r3, #22
 80095e2:	d11e      	bne.n	8009622 <__sflush_r+0xea>
 80095e4:	602f      	str	r7, [r5, #0]
 80095e6:	2000      	movs	r0, #0
 80095e8:	e022      	b.n	8009630 <__sflush_r+0xf8>
 80095ea:	f043 0340 	orr.w	r3, r3, #64	@ 0x40
 80095ee:	b21b      	sxth	r3, r3
 80095f0:	e01b      	b.n	800962a <__sflush_r+0xf2>
 80095f2:	690f      	ldr	r7, [r1, #16]
 80095f4:	2f00      	cmp	r7, #0
 80095f6:	d0f6      	beq.n	80095e6 <__sflush_r+0xae>
 80095f8:	0793      	lsls	r3, r2, #30
 80095fa:	680e      	ldr	r6, [r1, #0]
 80095fc:	bf08      	it	eq
 80095fe:	694b      	ldreq	r3, [r1, #20]
 8009600:	600f      	str	r7, [r1, #0]
 8009602:	bf18      	it	ne
 8009604:	2300      	movne	r3, #0
 8009606:	eba6 0807 	sub.w	r8, r6, r7
 800960a:	608b      	str	r3, [r1, #8]
 800960c:	f1b8 0f00 	cmp.w	r8, #0
 8009610:	dde9      	ble.n	80095e6 <__sflush_r+0xae>
 8009612:	6a21      	ldr	r1, [r4, #32]
 8009614:	6aa6      	ldr	r6, [r4, #40]	@ 0x28
 8009616:	4643      	mov	r3, r8
 8009618:	463a      	mov	r2, r7
 800961a:	4628      	mov	r0, r5
 800961c:	47b0      	blx	r6
 800961e:	2800      	cmp	r0, #0
 8009620:	dc08      	bgt.n	8009634 <__sflush_r+0xfc>
 8009622:	f9b4 300c 	ldrsh.w	r3, [r4, #12]
 8009626:	f043 0340 	orr.w	r3, r3, #64	@ 0x40
 800962a:	81a3      	strh	r3, [r4, #12]
 800962c:	f04f 30ff 	mov.w	r0, #4294967295
 8009630:	e8bd 81f0 	ldmia.w	sp!, {r4, r5, r6, r7, r8, pc}
 8009634:	4407      	add	r7, r0
 8009636:	eba8 0800 	sub.w	r8, r8, r0
 800963a:	e7e7      	b.n	800960c <__sflush_r+0xd4>
 800963c:	20400001 	.word	0x20400001

08009640 <_fflush_r>:
 8009640:	b538      	push	{r3, r4, r5, lr}
 8009642:	690b      	ldr	r3, [r1, #16]
 8009644:	4605      	mov	r5, r0
 8009646:	460c      	mov	r4, r1
 8009648:	b913      	cbnz	r3, 8009650 <_fflush_r+0x10>
 800964a:	2500      	movs	r5, #0
 800964c:	4628      	mov	r0, r5
 800964e:	bd38      	pop	{r3, r4, r5, pc}
 8009650:	b118      	cbz	r0, 800965a <_fflush_r+0x1a>
 8009652:	6a03      	ldr	r3, [r0, #32]
 8009654:	b90b      	cbnz	r3, 800965a <_fflush_r+0x1a>
 8009656:	f7fd fd7d 	bl	8007154 <__sinit>
 800965a:	f9b4 300c 	ldrsh.w	r3, [r4, #12]
 800965e:	2b00      	cmp	r3, #0
 8009660:	d0f3      	beq.n	800964a <_fflush_r+0xa>
 8009662:	6e62      	ldr	r2, [r4, #100]	@ 0x64
 8009664:	07d0      	lsls	r0, r2, #31
 8009666:	d404      	bmi.n	8009672 <_fflush_r+0x32>
 8009668:	0599      	lsls	r1, r3, #22
 800966a:	d402      	bmi.n	8009672 <_fflush_r+0x32>
 800966c:	6da0      	ldr	r0, [r4, #88]	@ 0x58
 800966e:	f7fd feae 	bl	80073ce <__retarget_lock_acquire_recursive>
 8009672:	4628      	mov	r0, r5
 8009674:	4621      	mov	r1, r4
 8009676:	f7ff ff5f 	bl	8009538 <__sflush_r>
 800967a:	6e63      	ldr	r3, [r4, #100]	@ 0x64
 800967c:	07da      	lsls	r2, r3, #31
 800967e:	4605      	mov	r5, r0
 8009680:	d4e4      	bmi.n	800964c <_fflush_r+0xc>
 8009682:	89a3      	ldrh	r3, [r4, #12]
 8009684:	059b      	lsls	r3, r3, #22
 8009686:	d4e1      	bmi.n	800964c <_fflush_r+0xc>
 8009688:	6da0      	ldr	r0, [r4, #88]	@ 0x58
 800968a:	f7fd fea1 	bl	80073d0 <__retarget_lock_release_recursive>
 800968e:	e7dd      	b.n	800964c <_fflush_r+0xc>

08009690 <__swbuf_r>:
 8009690:	b5f8      	push	{r3, r4, r5, r6, r7, lr}
 8009692:	460e      	mov	r6, r1
 8009694:	4614      	mov	r4, r2
 8009696:	4605      	mov	r5, r0
 8009698:	b118      	cbz	r0, 80096a2 <__swbuf_r+0x12>
 800969a:	6a03      	ldr	r3, [r0, #32]
 800969c:	b90b      	cbnz	r3, 80096a2 <__swbuf_r+0x12>
 800969e:	f7fd fd59 	bl	8007154 <__sinit>
 80096a2:	69a3      	ldr	r3, [r4, #24]
 80096a4:	60a3      	str	r3, [r4, #8]
 80096a6:	89a3      	ldrh	r3, [r4, #12]
 80096a8:	071a      	lsls	r2, r3, #28
 80096aa:	d501      	bpl.n	80096b0 <__swbuf_r+0x20>
 80096ac:	6923      	ldr	r3, [r4, #16]
 80096ae:	b943      	cbnz	r3, 80096c2 <__swbuf_r+0x32>
 80096b0:	4621      	mov	r1, r4
 80096b2:	4628      	mov	r0, r5
 80096b4:	f000 f82a 	bl	800970c <__swsetup_r>
 80096b8:	b118      	cbz	r0, 80096c2 <__swbuf_r+0x32>
 80096ba:	f04f 37ff 	mov.w	r7, #4294967295
 80096be:	4638      	mov	r0, r7
 80096c0:	bdf8      	pop	{r3, r4, r5, r6, r7, pc}
 80096c2:	6823      	ldr	r3, [r4, #0]
 80096c4:	6922      	ldr	r2, [r4, #16]
 80096c6:	1a98      	subs	r0, r3, r2
 80096c8:	6963      	ldr	r3, [r4, #20]
 80096ca:	b2f6      	uxtb	r6, r6
 80096cc:	4283      	cmp	r3, r0
 80096ce:	4637      	mov	r7, r6
 80096d0:	dc05      	bgt.n	80096de <__swbuf_r+0x4e>
 80096d2:	4621      	mov	r1, r4
 80096d4:	4628      	mov	r0, r5
 80096d6:	f7ff ffb3 	bl	8009640 <_fflush_r>
 80096da:	2800      	cmp	r0, #0
 80096dc:	d1ed      	bne.n	80096ba <__swbuf_r+0x2a>
 80096de:	68a3      	ldr	r3, [r4, #8]
 80096e0:	3b01      	subs	r3, #1
 80096e2:	60a3      	str	r3, [r4, #8]
 80096e4:	6823      	ldr	r3, [r4, #0]
 80096e6:	1c5a      	adds	r2, r3, #1
 80096e8:	6022      	str	r2, [r4, #0]
 80096ea:	701e      	strb	r6, [r3, #0]
 80096ec:	6962      	ldr	r2, [r4, #20]
 80096ee:	1c43      	adds	r3, r0, #1
 80096f0:	429a      	cmp	r2, r3
 80096f2:	d004      	beq.n	80096fe <__swbuf_r+0x6e>
 80096f4:	89a3      	ldrh	r3, [r4, #12]
 80096f6:	07db      	lsls	r3, r3, #31
 80096f8:	d5e1      	bpl.n	80096be <__swbuf_r+0x2e>
 80096fa:	2e0a      	cmp	r6, #10
 80096fc:	d1df      	bne.n	80096be <__swbuf_r+0x2e>
 80096fe:	4621      	mov	r1, r4
 8009700:	4628      	mov	r0, r5
 8009702:	f7ff ff9d 	bl	8009640 <_fflush_r>
 8009706:	2800      	cmp	r0, #0
 8009708:	d0d9      	beq.n	80096be <__swbuf_r+0x2e>
 800970a:	e7d6      	b.n	80096ba <__swbuf_r+0x2a>

0800970c <__swsetup_r>:
 800970c:	b538      	push	{r3, r4, r5, lr}
 800970e:	4b29      	ldr	r3, [pc, #164]	@ (80097b4 <__swsetup_r+0xa8>)
 8009710:	4605      	mov	r5, r0
 8009712:	6818      	ldr	r0, [r3, #0]
 8009714:	460c      	mov	r4, r1
 8009716:	b118      	cbz	r0, 8009720 <__swsetup_r+0x14>
 8009718:	6a03      	ldr	r3, [r0, #32]
 800971a:	b90b      	cbnz	r3, 8009720 <__swsetup_r+0x14>
 800971c:	f7fd fd1a 	bl	8007154 <__sinit>
 8009720:	f9b4 300c 	ldrsh.w	r3, [r4, #12]
 8009724:	0719      	lsls	r1, r3, #28
 8009726:	d422      	bmi.n	800976e <__swsetup_r+0x62>
 8009728:	06da      	lsls	r2, r3, #27
 800972a:	d407      	bmi.n	800973c <__swsetup_r+0x30>
 800972c:	2209      	movs	r2, #9
 800972e:	602a      	str	r2, [r5, #0]
 8009730:	f043 0340 	orr.w	r3, r3, #64	@ 0x40
 8009734:	81a3      	strh	r3, [r4, #12]
 8009736:	f04f 30ff 	mov.w	r0, #4294967295
 800973a:	e033      	b.n	80097a4 <__swsetup_r+0x98>
 800973c:	0758      	lsls	r0, r3, #29
 800973e:	d512      	bpl.n	8009766 <__swsetup_r+0x5a>
 8009740:	6b61      	ldr	r1, [r4, #52]	@ 0x34
 8009742:	b141      	cbz	r1, 8009756 <__swsetup_r+0x4a>
 8009744:	f104 0344 	add.w	r3, r4, #68	@ 0x44
 8009748:	4299      	cmp	r1, r3
 800974a:	d002      	beq.n	8009752 <__swsetup_r+0x46>
 800974c:	4628      	mov	r0, r5
 800974e:	f7fe fcaf 	bl	80080b0 <_free_r>
 8009752:	2300      	movs	r3, #0
 8009754:	6363      	str	r3, [r4, #52]	@ 0x34
 8009756:	89a3      	ldrh	r3, [r4, #12]
 8009758:	f023 0324 	bic.w	r3, r3, #36	@ 0x24
 800975c:	81a3      	strh	r3, [r4, #12]
 800975e:	2300      	movs	r3, #0
 8009760:	6063      	str	r3, [r4, #4]
 8009762:	6923      	ldr	r3, [r4, #16]
 8009764:	6023      	str	r3, [r4, #0]
 8009766:	89a3      	ldrh	r3, [r4, #12]
 8009768:	f043 0308 	orr.w	r3, r3, #8
 800976c:	81a3      	strh	r3, [r4, #12]
 800976e:	6923      	ldr	r3, [r4, #16]
 8009770:	b94b      	cbnz	r3, 8009786 <__swsetup_r+0x7a>
 8009772:	89a3      	ldrh	r3, [r4, #12]
 8009774:	f403 7320 	and.w	r3, r3, #640	@ 0x280
 8009778:	f5b3 7f00 	cmp.w	r3, #512	@ 0x200
 800977c:	d003      	beq.n	8009786 <__swsetup_r+0x7a>
 800977e:	4621      	mov	r1, r4
 8009780:	4628      	mov	r0, r5
 8009782:	f000 f893 	bl	80098ac <__smakebuf_r>
 8009786:	f9b4 300c 	ldrsh.w	r3, [r4, #12]
 800978a:	f013 0201 	ands.w	r2, r3, #1
 800978e:	d00a      	beq.n	80097a6 <__swsetup_r+0x9a>
 8009790:	2200      	movs	r2, #0
 8009792:	60a2      	str	r2, [r4, #8]
 8009794:	6962      	ldr	r2, [r4, #20]
 8009796:	4252      	negs	r2, r2
 8009798:	61a2      	str	r2, [r4, #24]
 800979a:	6922      	ldr	r2, [r4, #16]
 800979c:	b942      	cbnz	r2, 80097b0 <__swsetup_r+0xa4>
 800979e:	f013 0080 	ands.w	r0, r3, #128	@ 0x80
 80097a2:	d1c5      	bne.n	8009730 <__swsetup_r+0x24>
 80097a4:	bd38      	pop	{r3, r4, r5, pc}
 80097a6:	0799      	lsls	r1, r3, #30
 80097a8:	bf58      	it	pl
 80097aa:	6962      	ldrpl	r2, [r4, #20]
 80097ac:	60a2      	str	r2, [r4, #8]
 80097ae:	e7f4      	b.n	800979a <__swsetup_r+0x8e>
 80097b0:	2000      	movs	r0, #0
 80097b2:	e7f7      	b.n	80097a4 <__swsetup_r+0x98>
 80097b4:	20000188 	.word	0x20000188

080097b8 <_sbrk_r>:
 80097b8:	b538      	push	{r3, r4, r5, lr}
 80097ba:	4d06      	ldr	r5, [pc, #24]	@ (80097d4 <_sbrk_r+0x1c>)
 80097bc:	2300      	movs	r3, #0
 80097be:	4604      	mov	r4, r0
 80097c0:	4608      	mov	r0, r1
 80097c2:	602b      	str	r3, [r5, #0]
 80097c4:	f7f8 ffdc 	bl	8002780 <_sbrk>
 80097c8:	1c43      	adds	r3, r0, #1
 80097ca:	d102      	bne.n	80097d2 <_sbrk_r+0x1a>
 80097cc:	682b      	ldr	r3, [r5, #0]
 80097ce:	b103      	cbz	r3, 80097d2 <_sbrk_r+0x1a>
 80097d0:	6023      	str	r3, [r4, #0]
 80097d2:	bd38      	pop	{r3, r4, r5, pc}
 80097d4:	200004d8 	.word	0x200004d8

080097d8 <__assert_func>:
 80097d8:	b51f      	push	{r0, r1, r2, r3, r4, lr}
 80097da:	4614      	mov	r4, r2
 80097dc:	461a      	mov	r2, r3
 80097de:	4b09      	ldr	r3, [pc, #36]	@ (8009804 <__assert_func+0x2c>)
 80097e0:	681b      	ldr	r3, [r3, #0]
 80097e2:	4605      	mov	r5, r0
 80097e4:	68d8      	ldr	r0, [r3, #12]
 80097e6:	b14c      	cbz	r4, 80097fc <__assert_func+0x24>
 80097e8:	4b07      	ldr	r3, [pc, #28]	@ (8009808 <__assert_func+0x30>)
 80097ea:	9100      	str	r1, [sp, #0]
 80097ec:	e9cd 3401 	strd	r3, r4, [sp, #4]
 80097f0:	4906      	ldr	r1, [pc, #24]	@ (800980c <__assert_func+0x34>)
 80097f2:	462b      	mov	r3, r5
 80097f4:	f000 f822 	bl	800983c <fiprintf>
 80097f8:	f000 f8b6 	bl	8009968 <abort>
 80097fc:	4b04      	ldr	r3, [pc, #16]	@ (8009810 <__assert_func+0x38>)
 80097fe:	461c      	mov	r4, r3
 8009800:	e7f3      	b.n	80097ea <__assert_func+0x12>
 8009802:	bf00      	nop
 8009804:	20000188 	.word	0x20000188
 8009808:	08009bd9 	.word	0x08009bd9
 800980c:	08009be6 	.word	0x08009be6
 8009810:	08009c14 	.word	0x08009c14

08009814 <_calloc_r>:
 8009814:	b570      	push	{r4, r5, r6, lr}
 8009816:	fba1 5402 	umull	r5, r4, r1, r2
 800981a:	b934      	cbnz	r4, 800982a <_calloc_r+0x16>
 800981c:	4629      	mov	r1, r5
 800981e:	f7fe fff5 	bl	800880c <_malloc_r>
 8009822:	4606      	mov	r6, r0
 8009824:	b928      	cbnz	r0, 8009832 <_calloc_r+0x1e>
 8009826:	4630      	mov	r0, r6
 8009828:	bd70      	pop	{r4, r5, r6, pc}
 800982a:	220c      	movs	r2, #12
 800982c:	6002      	str	r2, [r0, #0]
 800982e:	2600      	movs	r6, #0
 8009830:	e7f9      	b.n	8009826 <_calloc_r+0x12>
 8009832:	462a      	mov	r2, r5
 8009834:	4621      	mov	r1, r4
 8009836:	f7fd fd18 	bl	800726a <memset>
 800983a:	e7f4      	b.n	8009826 <_calloc_r+0x12>

0800983c <fiprintf>:
 800983c:	b40e      	push	{r1, r2, r3}
 800983e:	b503      	push	{r0, r1, lr}
 8009840:	4601      	mov	r1, r0
 8009842:	ab03      	add	r3, sp, #12
 8009844:	4805      	ldr	r0, [pc, #20]	@ (800985c <fiprintf+0x20>)
 8009846:	f853 2b04 	ldr.w	r2, [r3], #4
 800984a:	6800      	ldr	r0, [r0, #0]
 800984c:	9301      	str	r3, [sp, #4]
 800984e:	f7ff fd5b 	bl	8009308 <_vfiprintf_r>
 8009852:	b002      	add	sp, #8
 8009854:	f85d eb04 	ldr.w	lr, [sp], #4
 8009858:	b003      	add	sp, #12
 800985a:	4770      	bx	lr
 800985c:	20000188 	.word	0x20000188

08009860 <__swhatbuf_r>:
 8009860:	b570      	push	{r4, r5, r6, lr}
 8009862:	460c      	mov	r4, r1
 8009864:	f9b1 100e 	ldrsh.w	r1, [r1, #14]
 8009868:	2900      	cmp	r1, #0
 800986a:	b096      	sub	sp, #88	@ 0x58
 800986c:	4615      	mov	r5, r2
 800986e:	461e      	mov	r6, r3
 8009870:	da0d      	bge.n	800988e <__swhatbuf_r+0x2e>
 8009872:	89a3      	ldrh	r3, [r4, #12]
 8009874:	f013 0f80 	tst.w	r3, #128	@ 0x80
 8009878:	f04f 0100 	mov.w	r1, #0
 800987c:	bf14      	ite	ne
 800987e:	2340      	movne	r3, #64	@ 0x40
 8009880:	f44f 6380 	moveq.w	r3, #1024	@ 0x400
 8009884:	2000      	movs	r0, #0
 8009886:	6031      	str	r1, [r6, #0]
 8009888:	602b      	str	r3, [r5, #0]
 800988a:	b016      	add	sp, #88	@ 0x58
 800988c:	bd70      	pop	{r4, r5, r6, pc}
 800988e:	466a      	mov	r2, sp
 8009890:	f000 f848 	bl	8009924 <_fstat_r>
 8009894:	2800      	cmp	r0, #0
 8009896:	dbec      	blt.n	8009872 <__swhatbuf_r+0x12>
 8009898:	9901      	ldr	r1, [sp, #4]
 800989a:	f401 4170 	and.w	r1, r1, #61440	@ 0xf000
 800989e:	f5a1 5300 	sub.w	r3, r1, #8192	@ 0x2000
 80098a2:	4259      	negs	r1, r3
 80098a4:	4159      	adcs	r1, r3
 80098a6:	f44f 6380 	mov.w	r3, #1024	@ 0x400
 80098aa:	e7eb      	b.n	8009884 <__swhatbuf_r+0x24>

080098ac <__smakebuf_r>:
 80098ac:	898b      	ldrh	r3, [r1, #12]
 80098ae:	b5f7      	push	{r0, r1, r2, r4, r5, r6, r7, lr}
 80098b0:	079d      	lsls	r5, r3, #30
 80098b2:	4606      	mov	r6, r0
 80098b4:	460c      	mov	r4, r1
 80098b6:	d507      	bpl.n	80098c8 <__smakebuf_r+0x1c>
 80098b8:	f104 0347 	add.w	r3, r4, #71	@ 0x47
 80098bc:	6023      	str	r3, [r4, #0]
 80098be:	6123      	str	r3, [r4, #16]
 80098c0:	2301      	movs	r3, #1
 80098c2:	6163      	str	r3, [r4, #20]
 80098c4:	b003      	add	sp, #12
 80098c6:	bdf0      	pop	{r4, r5, r6, r7, pc}
 80098c8:	ab01      	add	r3, sp, #4
 80098ca:	466a      	mov	r2, sp
 80098cc:	f7ff ffc8 	bl	8009860 <__swhatbuf_r>
 80098d0:	9f00      	ldr	r7, [sp, #0]
 80098d2:	4605      	mov	r5, r0
 80098d4:	4639      	mov	r1, r7
 80098d6:	4630      	mov	r0, r6
 80098d8:	f7fe ff98 	bl	800880c <_malloc_r>
 80098dc:	b948      	cbnz	r0, 80098f2 <__smakebuf_r+0x46>
 80098de:	f9b4 300c 	ldrsh.w	r3, [r4, #12]
 80098e2:	059a      	lsls	r2, r3, #22
 80098e4:	d4ee      	bmi.n	80098c4 <__smakebuf_r+0x18>
 80098e6:	f023 0303 	bic.w	r3, r3, #3
 80098ea:	f043 0302 	orr.w	r3, r3, #2
 80098ee:	81a3      	strh	r3, [r4, #12]
 80098f0:	e7e2      	b.n	80098b8 <__smakebuf_r+0xc>
 80098f2:	89a3      	ldrh	r3, [r4, #12]
 80098f4:	6020      	str	r0, [r4, #0]
 80098f6:	f043 0380 	orr.w	r3, r3, #128	@ 0x80
 80098fa:	81a3      	strh	r3, [r4, #12]
 80098fc:	9b01      	ldr	r3, [sp, #4]
 80098fe:	e9c4 0704 	strd	r0, r7, [r4, #16]
 8009902:	b15b      	cbz	r3, 800991c <__smakebuf_r+0x70>
 8009904:	f9b4 100e 	ldrsh.w	r1, [r4, #14]
 8009908:	4630      	mov	r0, r6
 800990a:	f000 f81d 	bl	8009948 <_isatty_r>
 800990e:	b128      	cbz	r0, 800991c <__smakebuf_r+0x70>
 8009910:	89a3      	ldrh	r3, [r4, #12]
 8009912:	f023 0303 	bic.w	r3, r3, #3
 8009916:	f043 0301 	orr.w	r3, r3, #1
 800991a:	81a3      	strh	r3, [r4, #12]
 800991c:	89a3      	ldrh	r3, [r4, #12]
 800991e:	431d      	orrs	r5, r3
 8009920:	81a5      	strh	r5, [r4, #12]
 8009922:	e7cf      	b.n	80098c4 <__smakebuf_r+0x18>

08009924 <_fstat_r>:
 8009924:	b538      	push	{r3, r4, r5, lr}
 8009926:	4d07      	ldr	r5, [pc, #28]	@ (8009944 <_fstat_r+0x20>)
 8009928:	2300      	movs	r3, #0
 800992a:	4604      	mov	r4, r0
 800992c:	4608      	mov	r0, r1
 800992e:	4611      	mov	r1, r2
 8009930:	602b      	str	r3, [r5, #0]
 8009932:	f7f8 fefd 	bl	8002730 <_fstat>
 8009936:	1c43      	adds	r3, r0, #1
 8009938:	d102      	bne.n	8009940 <_fstat_r+0x1c>
 800993a:	682b      	ldr	r3, [r5, #0]
 800993c:	b103      	cbz	r3, 8009940 <_fstat_r+0x1c>
 800993e:	6023      	str	r3, [r4, #0]
 8009940:	bd38      	pop	{r3, r4, r5, pc}
 8009942:	bf00      	nop
 8009944:	200004d8 	.word	0x200004d8

08009948 <_isatty_r>:
 8009948:	b538      	push	{r3, r4, r5, lr}
 800994a:	4d06      	ldr	r5, [pc, #24]	@ (8009964 <_isatty_r+0x1c>)
 800994c:	2300      	movs	r3, #0
 800994e:	4604      	mov	r4, r0
 8009950:	4608      	mov	r0, r1
 8009952:	602b      	str	r3, [r5, #0]
 8009954:	f7f8 fefc 	bl	8002750 <_isatty>
 8009958:	1c43      	adds	r3, r0, #1
 800995a:	d102      	bne.n	8009962 <_isatty_r+0x1a>
 800995c:	682b      	ldr	r3, [r5, #0]
 800995e:	b103      	cbz	r3, 8009962 <_isatty_r+0x1a>
 8009960:	6023      	str	r3, [r4, #0]
 8009962:	bd38      	pop	{r3, r4, r5, pc}
 8009964:	200004d8 	.word	0x200004d8

08009968 <abort>:
 8009968:	b508      	push	{r3, lr}
 800996a:	2006      	movs	r0, #6
 800996c:	f000 f82c 	bl	80099c8 <raise>
 8009970:	2001      	movs	r0, #1
 8009972:	f7f8 fea9 	bl	80026c8 <_exit>

08009976 <_raise_r>:
 8009976:	291f      	cmp	r1, #31
 8009978:	b538      	push	{r3, r4, r5, lr}
 800997a:	4605      	mov	r5, r0
 800997c:	460c      	mov	r4, r1
 800997e:	d904      	bls.n	800998a <_raise_r+0x14>
 8009980:	2316      	movs	r3, #22
 8009982:	6003      	str	r3, [r0, #0]
 8009984:	f04f 30ff 	mov.w	r0, #4294967295
 8009988:	bd38      	pop	{r3, r4, r5, pc}
 800998a:	6bc2      	ldr	r2, [r0, #60]	@ 0x3c
 800998c:	b112      	cbz	r2, 8009994 <_raise_r+0x1e>
 800998e:	f852 3021 	ldr.w	r3, [r2, r1, lsl #2]
 8009992:	b94b      	cbnz	r3, 80099a8 <_raise_r+0x32>
 8009994:	4628      	mov	r0, r5
 8009996:	f000 f831 	bl	80099fc <_getpid_r>
 800999a:	4622      	mov	r2, r4
 800999c:	4601      	mov	r1, r0
 800999e:	4628      	mov	r0, r5
 80099a0:	e8bd 4038 	ldmia.w	sp!, {r3, r4, r5, lr}
 80099a4:	f000 b818 	b.w	80099d8 <_kill_r>
 80099a8:	2b01      	cmp	r3, #1
 80099aa:	d00a      	beq.n	80099c2 <_raise_r+0x4c>
 80099ac:	1c59      	adds	r1, r3, #1
 80099ae:	d103      	bne.n	80099b8 <_raise_r+0x42>
 80099b0:	2316      	movs	r3, #22
 80099b2:	6003      	str	r3, [r0, #0]
 80099b4:	2001      	movs	r0, #1
 80099b6:	e7e7      	b.n	8009988 <_raise_r+0x12>
 80099b8:	2100      	movs	r1, #0
 80099ba:	f842 1024 	str.w	r1, [r2, r4, lsl #2]
 80099be:	4620      	mov	r0, r4
 80099c0:	4798      	blx	r3
 80099c2:	2000      	movs	r0, #0
 80099c4:	e7e0      	b.n	8009988 <_raise_r+0x12>
	...

080099c8 <raise>:
 80099c8:	4b02      	ldr	r3, [pc, #8]	@ (80099d4 <raise+0xc>)
 80099ca:	4601      	mov	r1, r0
 80099cc:	6818      	ldr	r0, [r3, #0]
 80099ce:	f7ff bfd2 	b.w	8009976 <_raise_r>
 80099d2:	bf00      	nop
 80099d4:	20000188 	.word	0x20000188

080099d8 <_kill_r>:
 80099d8:	b538      	push	{r3, r4, r5, lr}
 80099da:	4d07      	ldr	r5, [pc, #28]	@ (80099f8 <_kill_r+0x20>)
 80099dc:	2300      	movs	r3, #0
 80099de:	4604      	mov	r4, r0
 80099e0:	4608      	mov	r0, r1
 80099e2:	4611      	mov	r1, r2
 80099e4:	602b      	str	r3, [r5, #0]
 80099e6:	f7f8 fe5f 	bl	80026a8 <_kill>
 80099ea:	1c43      	adds	r3, r0, #1
 80099ec:	d102      	bne.n	80099f4 <_kill_r+0x1c>
 80099ee:	682b      	ldr	r3, [r5, #0]
 80099f0:	b103      	cbz	r3, 80099f4 <_kill_r+0x1c>
 80099f2:	6023      	str	r3, [r4, #0]
 80099f4:	bd38      	pop	{r3, r4, r5, pc}
 80099f6:	bf00      	nop
 80099f8:	200004d8 	.word	0x200004d8

080099fc <_getpid_r>:
 80099fc:	f7f8 be4c 	b.w	8002698 <_getpid>

08009a00 <_init>:
 8009a00:	b5f8      	push	{r3, r4, r5, r6, r7, lr}
 8009a02:	bf00      	nop
 8009a04:	bcf8      	pop	{r3, r4, r5, r6, r7}
 8009a06:	bc08      	pop	{r3}
 8009a08:	469e      	mov	lr, r3
 8009a0a:	4770      	bx	lr

08009a0c <_fini>:
 8009a0c:	b5f8      	push	{r3, r4, r5, r6, r7, lr}
 8009a0e:	bf00      	nop
 8009a10:	bcf8      	pop	{r3, r4, r5, r6, r7}
 8009a12:	bc08      	pop	{r3}
 8009a14:	469e      	mov	lr, r3
 8009a16:	4770      	bx	lr
